 SgiCripto2msd

 Timestamp is 477ec991 (Fri Jan 04 18:04:33 2008)

 Preferred load address is 10000000

 Start         Length     Name                   Class
 0001:00000000 000b4ff4H .text                   CODE
 0001:000b5000 0000119bH .text$x                 CODE
 0002:00000000 0000035cH .idata$5                DATA
 0002:0000035c 00000004H .CRT$XCA                DATA
 0002:00000360 00000004H .CRT$XCZ                DATA
 0002:00000364 00000004H .CRT$XIA                DATA
 0002:00000368 00000004H .CRT$XIAA               DATA
 0002:0000036c 00000004H .CRT$XIC                DATA
 0002:00000370 00000004H .CRT$XIZ                DATA
 0002:00000378 00029be6H .rdata                  DATA
 0002:00029f60 000004b4H .rdata$r                DATA
 0002:0002a414 00000004H .rtc$IAA                DATA
 0002:0002a418 00000004H .rtc$IZZ                DATA
 0002:0002a41c 00000004H .rtc$TAA                DATA
 0002:0002a420 00000004H .rtc$TZZ                DATA
 0002:0002a428 00001090H .xdata$x                DATA
 0002:0002b4b8 0000008cH .idata$2                DATA
 0002:0002b544 00000014H .idata$3                DATA
 0002:0002b558 0000035cH .idata$4                DATA
 0002:0002b8b4 000015beH .idata$6                DATA
 0002:0002ce80 00000a82H .edata                  DATA
 0003:00000000 0000ea63H .data                   DATA
 0003:0000ea68 000025f8H .bss                    DATA
 0004:00000000 00000058H .rsrc$01                DATA
 0004:00000060 00000330H .rsrc$02                DATA

  Address         Publics by Value              Rva+Base       Lib:Object

 0000:00000000       ___safe_se_handler_table   00000000     <absolute>
 0000:00000000       __except_list              00000000     <absolute>
 0000:00000000       ___safe_se_handler_count   00000000     <absolute>
 0000:00009876       __fltused                  00009876     <absolute>
 0000:00009876       __ldused                   00009876     <absolute>
 0000:00000000       ___ImageBase               10000000     <linker-defined>
 0001:00000000       _DllMain@12                10001000 f   SgiCripto.obj
 0001:00000050       ?new_SgiCripto@SgiCripto@@YAPAXXZ 10001050 f   SgiCripto.obj
 0001:000000e0       ?delete_SgiCripto@SgiCripto@@YAXPAX@Z 100010e0 f   SgiCripto.obj
 0001:00000100       ?new_SgiCertificado@SgiCripto@@YAPAXXZ 10001100 f   SgiCripto.obj
 0001:00000170       ?delete_SgiCertificado@SgiCripto@@YAXPAX@Z 10001170 f   SgiCripto.obj
 0001:00000190       ?inicia@SgiCripto@@YA?AW4tError@1@PAX_NPBD@Z 10001190 f   SgiCripto.obj
 0001:000001b0       ?conectaARA@SgiCripto@@YA?AW4tError@1@PAX@Z 100011b0 f   SgiCripto.obj
 0001:000001e0       ?desconectaARA@SgiCripto@@YAXPAX@Z 100011e0 f   SgiCripto.obj
 0001:00000200       ?keepaliveARA@SgiCripto@@YA?AW4tError@1@PAX@Z 10001200 f   SgiCripto.obj
 0001:00000230       ?solCDxNS@SgiCripto@@YA?AW4tError@1@PAXPBDPAW4tCertEdo@1@PAW4tCertTipo@1@PAV?$basic_string@DU?$char_traits@D@std@@V?$allocator@D@2@@std@@4PAEPAH@Z 10001230 f   SgiCripto.obj
 0001:00000280       ?solEdoCDxNS@SgiCripto@@YA?AW4tError@1@PAXPBDPAW4tCertEdo@1@PAW4tCertTipo@1@PAV?$basic_string@DU?$char_traits@D@std@@V?$allocator@D@2@@std@@4@Z 10001280 f   SgiCripto.obj
 0001:000002d0       ?solNSCDFEAxRFC@SgiCripto@@YA?AW4tError@1@PAXPBDPAV?$basic_string@DU?$char_traits@D@std@@V?$allocator@D@2@@std@@@Z 100012d0 f   SgiCripto.obj
 0001:00000310       ?solListaCDxRFC@SgiCripto@@YA?AW4tError@1@PAXPBDW4tCertEdo@1@W4tCertTipo@1@GPAV?$basic_string@DU?$char_traits@D@std@@V?$allocator@D@2@@std@@@Z 10001310 f   SgiCripto.obj
 0001:00000360       ?verificaLlaves@SgiCripto@@YA?AW4tError@1@PAXPBD11@Z 10001360 f   SgiCripto.obj
 0001:00000380       ?generaFirma@SgiCripto@@YA?AW4tError@1@PAXPBD11W4tAlgDig@1@PAV?$basic_string@DU?$char_traits@D@std@@V?$allocator@D@2@@std@@@Z 10001380 f   SgiCripto.obj
 0001:000003c0       ?verFirmaIni@SgiCripto@@YA?AW4tError@1@PAX0PBD@Z 100013c0 f   SgiCripto.obj
 0001:000003e0       ?verFirmaProceso@SgiCripto@@YA?AW4tError@1@PAXPBDI@Z 100013e0 f   SgiCripto.obj
 0001:00000420       ?verFirmaFin@SgiCripto@@YA?AW4tError@1@PAX@Z 10001420 f   SgiCripto.obj
 0001:00000440       ?verFirma@SgiCripto@@YA?AW4tError@1@PAX0PBD1@Z 10001440 f   SgiCripto.obj
 0001:000004b0       ?genP7@SgiCripto@@YA?AW4tError@1@PAXPBD111W4tTipoPKCS7@1@1W4tAlgEnc@1@1@Z 100014b0 f   SgiCripto.obj
 0001:000004f0       ?obtieneNumSerieP7@SgiCripto@@YA?AW4tError@1@PAXPBDPAV?$basic_string@DU?$char_traits@D@std@@V?$allocator@D@2@@std@@@Z 100014f0 f   SgiCripto.obj
 0001:00000510       ?procP7@SgiCripto@@YA?AW4tError@1@PAXPBD11111W4tCertTipo@1@@Z 10001510 f   SgiCripto.obj
 0001:00000550       ?procP7@SgiCripto@@YA?AW4tError@1@PAXPBD111HPAPADPAH1W4tCertTipo@1@@Z 10001550 f   SgiCripto.obj
 0001:00000590       ?encripta@SgiCripto@@YA?AW4tError@1@PAXPBEGW4tAlgEnc@1@1HPAEPAG@Z 10001590 f   SgiCripto.obj
 0001:000005e0       ?desencripta@SgiCripto@@YA?AW4tError@1@PAXPBEGW4tAlgEnc@1@1HPAEPAG@Z 100015e0 f   SgiCripto.obj
 0001:00000630       ?inicializa@SgiCripto@@YA?AW4tError@1@PAXPBEH@Z 10001630 f   SgiCripto.obj
 0001:00000650       ?getNSerie@SgiCripto@@YA?AW4tError@1@PAXPAV?$basic_string@DU?$char_traits@D@std@@V?$allocator@D@2@@std@@@Z 10001650 f   SgiCripto.obj
 0001:00000680       ?getRFC@SgiCripto@@YA?AW4tError@1@PAXPAV?$basic_string@DU?$char_traits@D@std@@V?$allocator@D@2@@std@@@Z 10001680 f   SgiCripto.obj
 0001:000006b0       ?getNom@SgiCripto@@YA?AW4tError@1@PAXPAV?$basic_string@DU?$char_traits@D@std@@V?$allocator@D@2@@std@@@Z 100016b0 f   SgiCripto.obj
 0001:000006e0       ?getVigIni@SgiCripto@@YA?AW4tError@1@PAXPAV?$basic_string@DU?$char_traits@D@std@@V?$allocator@D@2@@std@@@Z 100016e0 f   SgiCripto.obj
 0001:00000710       ?getVigFin@SgiCripto@@YA?AW4tError@1@PAXPAV?$basic_string@DU?$char_traits@D@std@@V?$allocator@D@2@@std@@@Z 10001710 f   SgiCripto.obj
 0001:00000740       ?msgError@SgiCripto@@YAPBDW4tError@1@@Z 10001740 f   SgiCripto.obj
 0001:00000c60       ??4_Iterator_base@std@@QAEAAV01@ABV01@@Z 10001c60 f i Sgi_ARA.obj
 0001:00000ce0       ??1_Iterator_base@std@@QAE@XZ 10001ce0 f i Sgi_ARA.obj
 0001:00000d40       ?_Adopt@_Iterator_base@std@@QAEXPBV_Container_base@2@@Z 10001d40 f i Sgi_ARA.obj
 0001:00000dc0       ?_Orphan_me@_Iterator_base@std@@QAEXXZ 10001dc0 f i Sgi_ARA.obj
 0001:00000e10       ??1CConfigFile@@QAE@XZ     10001e10 f i Sgi_ARA.obj
 0001:00000e90       ??1?$multimap@V?$basic_string@DU?$char_traits@D@std@@V?$allocator@D@2@@std@@V12@U?$less@V?$basic_string@DU?$char_traits@D@std@@V?$allocator@D@2@@std@@@2@V?$allocator@U?$pair@$$CBV?$basic_string@DU?$char_traits@D@std@@V?$allocator@D@2@@std@@V12@@std@@@2@@std@@QAE@XZ 10001e90 f i Sgi_ARA.obj
 0001:00000ef0       ??0CSgiARA@@QAE@PBD@Z      10001ef0 f   Sgi_ARA.obj
 0001:000010e0       ??1MensajesARA@@QAE@XZ     100020e0 f i Sgi_ARA.obj
 0001:000010f0       ??1Mensajes@@QAE@XZ        100020f0 f i Sgi_ARA.obj
 0001:000011d0       ??1ManArchivo@@QAE@XZ      100021d0 f i Sgi_ARA.obj
 0001:000011e0       ??1CSgiARA@@QAE@XZ         100021e0 f   Sgi_ARA.obj
 0001:000012a0       ?Inicia@CSgiARA@@QAEHXZ    100022a0 f   Sgi_ARA.obj
 0001:000013d0       ?LeeCfg@CSgiARA@@IAEHXZ    100023d0 f   Sgi_ARA.obj
 0001:000015a0       ?LeeCfgUsr@CSgiARA@@IAEXXZ 100025a0 f   Sgi_ARA.obj
 0001:000017d0       ?Crea_Bitacora@CSgiARA@@IAEPAVCBitacora@@PBD@Z 100027d0 f   Sgi_ARA.obj
 0001:00001870       ?Conecta@CSgiARA@@QAEHXZ   10002870 f   Sgi_ARA.obj
 0001:00001a80       ??1CSSL_parms@@QAE@XZ      10002a80 f i Sgi_ARA.obj
 0001:00001b10       ?Desconecta@CSgiARA@@QAEXXZ 10002b10 f   Sgi_ARA.obj
 0001:00001b70       ?EnviaRecibe@CSgiARA@@IAEHXZ 10002b70 f   Sgi_ARA.obj
 0001:00001bd0       ?getMsgError@CSgiARA@@IAEPBDH@Z 10002bd0 f   Sgi_ARA.obj
 0001:00001cb0       ?RegErrorBitTxt@CSgiARA@@IAEXPBDHH@Z 10002cb0 f   Sgi_ARA.obj
 0001:00001d90       ?RecMsgErrorARA@CSgiARA@@IAEHPBD@Z 10002d90 f   Sgi_ARA.obj
 0001:000020e0       ?TrataFecha@CSgiARA@@IAEXQADHPAV?$basic_string@DU?$char_traits@D@std@@V?$allocator@D@2@@std@@@Z 100030e0 f   Sgi_ARA.obj
 0001:00002120       ?SolCDxNS@CSgiARA@@QAEHPBDAADAAEPAV?$basic_string@DU?$char_traits@D@std@@V?$allocator@D@2@@std@@3PAEAAH@Z 10003120 f   Sgi_ARA.obj
 0001:000024b0       ?SolEdoCDxNS@CSgiARA@@QAEHPBDAADAAEPAV?$basic_string@DU?$char_traits@D@std@@V?$allocator@D@2@@std@@3@Z 100034b0 f   Sgi_ARA.obj
 0001:000027d0       ?SolNSCDFEAxRFC@CSgiARA@@QAEHPBDPAV?$basic_string@DU?$char_traits@D@std@@V?$allocator@D@2@@std@@@Z 100037d0 f   Sgi_ARA.obj
 0001:000029a0       ?SolListaCDxRFC@CSgiARA@@QAEHPBDDEGPAV?$basic_string@DU?$char_traits@D@std@@V?$allocator@D@2@@std@@@Z 100039a0 f   Sgi_ARA.obj
 0001:00002bf0       ?KeepAlive@CSgiARA@@QAEHXZ 10003bf0 f   Sgi_ARA.obj
 0001:00002cd0       ??1?$_Tree_val@V?$_Tmap_traits@V?$basic_string@DU?$char_traits@D@std@@V?$allocator@D@2@@std@@V12@U?$less@V?$basic_string@DU?$char_traits@D@std@@V?$allocator@D@2@@std@@@2@V?$allocator@U?$pair@$$CBV?$basic_string@DU?$char_traits@D@std@@V?$allocator@D@2@@std@@V12@@std@@@2@$00@std@@@std@@QAE@XZ 10003cd0 f i Sgi_ARA.obj
 0001:00002ce0       ?_Tidy@?$_Tree@V?$_Tmap_traits@V?$basic_string@DU?$char_traits@D@std@@V?$allocator@D@2@@std@@V12@U?$less@V?$basic_string@DU?$char_traits@D@std@@V?$allocator@D@2@@std@@@2@V?$allocator@U?$pair@$$CBV?$basic_string@DU?$char_traits@D@std@@V?$allocator@D@2@@std@@V12@@std@@@2@$00@std@@@std@@IAEXXZ 10003ce0 f i Sgi_ARA.obj
 0001:00002da0       ??1?$_Bidit@U?$pair@$$CBV?$basic_string@DU?$char_traits@D@std@@V?$allocator@D@2@@std@@V12@@std@@HPBU12@ABU12@@std@@QAE@XZ 10003da0 f i Sgi_ARA.obj
 0001:00002da0       ??1const_iterator@?$_Tree@V?$_Tmap_traits@V?$basic_string@DU?$char_traits@D@std@@V?$allocator@D@2@@std@@V12@U?$less@V?$basic_string@DU?$char_traits@D@std@@V?$allocator@D@2@@std@@@2@V?$allocator@U?$pair@$$CBV?$basic_string@DU?$char_traits@D@std@@V?$allocator@D@2@@std@@V12@@std@@@2@$00@std@@@std@@QAE@XZ 10003da0 f i Sgi_ARA.obj
 0001:00002da0       ??1iterator@?$_Tree@V?$_Tmap_traits@V?$basic_string@DU?$char_traits@D@std@@V?$allocator@D@2@@std@@V12@U?$less@V?$basic_string@DU?$char_traits@D@std@@V?$allocator@D@2@@std@@@2@V?$allocator@U?$pair@$$CBV?$basic_string@DU?$char_traits@D@std@@V?$allocator@D@2@@std@@V12@@std@@@2@$00@std@@@std@@QAE@XZ 10003da0 f i Sgi_ARA.obj
 0001:00002da0       ??1?$pair@Viterator@?$_Tree@V?$_Tmap_traits@V?$basic_string@DU?$char_traits@D@std@@V?$allocator@D@2@@std@@V12@U?$less@V?$basic_string@DU?$char_traits@D@std@@V?$allocator@D@2@@std@@@2@V?$allocator@U?$pair@$$CBV?$basic_string@DU?$char_traits@D@std@@V?$allocator@D@2@@std@@V12@@std@@@2@$00@std@@@std@@_N@std@@QAE@XZ 10003da0 f i Sgi_ConfigFile.obj
 0001:00002db0       ?begin@?$_Tree@V?$_Tmap_traits@V?$basic_string@DU?$char_traits@D@std@@V?$allocator@D@2@@std@@V12@U?$less@V?$basic_string@DU?$char_traits@D@std@@V?$allocator@D@2@@std@@@2@V?$allocator@U?$pair@$$CBV?$basic_string@DU?$char_traits@D@std@@V?$allocator@D@2@@std@@V12@@std@@@2@$00@std@@@std@@QAE?AViterator@12@XZ 10003db0 f i Sgi_ARA.obj
 0001:00002e10       ?end@?$_Tree@V?$_Tmap_traits@V?$basic_string@DU?$char_traits@D@std@@V?$allocator@D@2@@std@@V12@U?$less@V?$basic_string@DU?$char_traits@D@std@@V?$allocator@D@2@@std@@@2@V?$allocator@U?$pair@$$CBV?$basic_string@DU?$char_traits@D@std@@V?$allocator@D@2@@std@@V12@@std@@@2@$00@std@@@std@@QAE?AViterator@12@XZ 10003e10 f i Sgi_ARA.obj
 0001:00002e70       ?erase@?$_Tree@V?$_Tmap_traits@V?$basic_string@DU?$char_traits@D@std@@V?$allocator@D@2@@std@@V12@U?$less@V?$basic_string@DU?$char_traits@D@std@@V?$allocator@D@2@@std@@@2@V?$allocator@U?$pair@$$CBV?$basic_string@DU?$char_traits@D@std@@V?$allocator@D@2@@std@@V12@@std@@@2@$00@std@@@std@@QAE?AViterator@12@V312@0@Z 10003e70 f i Sgi_ARA.obj
 0001:00003180       ?erase@?$_Tree@V?$_Tmap_traits@V?$basic_string@DU?$char_traits@D@std@@V?$allocator@D@2@@std@@V12@U?$less@V?$basic_string@DU?$char_traits@D@std@@V?$allocator@D@2@@std@@@2@V?$allocator@U?$pair@$$CBV?$basic_string@DU?$char_traits@D@std@@V?$allocator@D@2@@std@@V12@@std@@@2@$00@std@@@std@@QAE?AViterator@12@V312@@Z 10004180 f i Sgi_ARA.obj
 0001:00003560       ?clear@?$_Tree@V?$_Tmap_traits@V?$basic_string@DU?$char_traits@D@std@@V?$allocator@D@2@@std@@V12@U?$less@V?$basic_string@DU?$char_traits@D@std@@V?$allocator@D@2@@std@@@2@V?$allocator@U?$pair@$$CBV?$basic_string@DU?$char_traits@D@std@@V?$allocator@D@2@@std@@V12@@std@@@2@$00@std@@@std@@QAEXXZ 10004560 f i Sgi_ARA.obj
 0001:000035d0       ??Eiterator@?$_Tree@V?$_Tmap_traits@V?$basic_string@DU?$char_traits@D@std@@V?$allocator@D@2@@std@@V12@U?$less@V?$basic_string@DU?$char_traits@D@std@@V?$allocator@D@2@@std@@@2@V?$allocator@U?$pair@$$CBV?$basic_string@DU?$char_traits@D@std@@V?$allocator@D@2@@std@@V12@@std@@@2@$00@std@@@std@@QAE?AV012@H@Z 100045d0 f i Sgi_ARA.obj
 0001:00003640       ??8const_iterator@?$_Tree@V?$_Tmap_traits@V?$basic_string@DU?$char_traits@D@std@@V?$allocator@D@2@@std@@V12@U?$less@V?$basic_string@DU?$char_traits@D@std@@V?$allocator@D@2@@std@@@2@V?$allocator@U?$pair@$$CBV?$basic_string@DU?$char_traits@D@std@@V?$allocator@D@2@@std@@V12@@std@@@2@$00@std@@@std@@QBE_NABV012@@Z 10004640 f i Sgi_ARA.obj
 0001:000036b0       ?_Erase@?$_Tree@V?$_Tmap_traits@V?$basic_string@DU?$char_traits@D@std@@V?$allocator@D@2@@std@@V12@U?$less@V?$basic_string@DU?$char_traits@D@std@@V?$allocator@D@2@@std@@@2@V?$allocator@U?$pair@$$CBV?$basic_string@DU?$char_traits@D@std@@V?$allocator@D@2@@std@@V12@@std@@@2@$00@std@@@std@@IAEXPAU_Node@?$_Tree_nod@V?$_Tmap_traits@V?$basic_string@DU?$char_traits@D@std@@V?$allocator@D@2@@std@@V12@U?$less@V?$basic_string@DU?$char_traits@D@std@@V?$allocator@D@2@@std@@@2@V?$allocator@U?$pair@$$CBV?$basic_string@DU?$char_traits@D@std@@V?$allocator@D@2@@std@@V12@@std@@@2@$00@std@@@2@@Z 100046b0 f i Sgi_ARA.obj
 0001:00003740       ?_Lrotate@?$_Tree@V?$_Tmap_traits@V?$basic_string@DU?$char_traits@D@std@@V?$allocator@D@2@@std@@V12@U?$less@V?$basic_string@DU?$char_traits@D@std@@V?$allocator@D@2@@std@@@2@V?$allocator@U?$pair@$$CBV?$basic_string@DU?$char_traits@D@std@@V?$allocator@D@2@@std@@V12@@std@@@2@$00@std@@@std@@IAEXPAU_Node@?$_Tree_nod@V?$_Tmap_traits@V?$basic_string@DU?$char_traits@D@std@@V?$allocator@D@2@@std@@V12@U?$less@V?$basic_string@DU?$char_traits@D@std@@V?$allocator@D@2@@std@@@2@V?$allocator@U?$pair@$$CBV?$basic_string@DU?$char_traits@D@std@@V?$allocator@D@2@@std@@V12@@std@@@2@$00@std@@@2@@Z 10004740 f i Sgi_ARA.obj
 0001:00003790       ?_Rrotate@?$_Tree@V?$_Tmap_traits@V?$basic_string@DU?$char_traits@D@std@@V?$allocator@D@2@@std@@V12@U?$less@V?$basic_string@DU?$char_traits@D@std@@V?$allocator@D@2@@std@@@2@V?$allocator@U?$pair@$$CBV?$basic_string@DU?$char_traits@D@std@@V?$allocator@D@2@@std@@V12@@std@@@2@$00@std@@@std@@IAEXPAU_Node@?$_Tree_nod@V?$_Tmap_traits@V?$basic_string@DU?$char_traits@D@std@@V?$allocator@D@2@@std@@V12@U?$less@V?$basic_string@DU?$char_traits@D@std@@V?$allocator@D@2@@std@@@2@V?$allocator@U?$pair@$$CBV?$basic_string@DU?$char_traits@D@std@@V?$allocator@D@2@@std@@V12@@std@@@2@$00@std@@@2@@Z 10004790 f i Sgi_ARA.obj
 0001:000037e0       ?_Orphan_ptr@?$_Tree@V?$_Tmap_traits@V?$basic_string@DU?$char_traits@D@std@@V?$allocator@D@2@@std@@V12@U?$less@V?$basic_string@DU?$char_traits@D@std@@V?$allocator@D@2@@std@@@2@V?$allocator@U?$pair@$$CBV?$basic_string@DU?$char_traits@D@std@@V?$allocator@D@2@@std@@V12@@std@@@2@$00@std@@@std@@IBEXAAV12@PAU_Node@?$_Tree_nod@V?$_Tmap_traits@V?$basic_string@DU?$char_traits@D@std@@V?$allocator@D@2@@std@@V12@U?$less@V?$basic_string@DU?$char_traits@D@std@@V?$allocator@D@2@@std@@@2@V?$allocator@U?$pair@$$CBV?$basic_string@DU?$char_traits@D@std@@V?$allocator@D@2@@std@@V12@@std@@@2@$00@std@@@2@@Z 100047e0 f i Sgi_ARA.obj
 0001:00003830       ?_Inc@const_iterator@?$_Tree@V?$_Tmap_traits@V?$basic_string@DU?$char_traits@D@std@@V?$allocator@D@2@@std@@V12@U?$less@V?$basic_string@DU?$char_traits@D@std@@V?$allocator@D@2@@std@@@2@V?$allocator@U?$pair@$$CBV?$basic_string@DU?$char_traits@D@std@@V?$allocator@D@2@@std@@V12@@std@@@2@$00@std@@@std@@QAEXXZ 10004830 f i Sgi_ARA.obj
 0001:000038e0       ??1?$pair@$$CBV?$basic_string@DU?$char_traits@D@std@@V?$allocator@D@2@@std@@V12@@std@@QAE@XZ 100048e0 f i Sgi_ARA.obj
 0001:00003940       ??_ECArchivo@@UAEPAXI@Z    10004940 f i  CIL library: CIL module
 0001:00003940       ??_GCArchivo@@UAEPAXI@Z    10004940 f i Sgi_Archivo.obj
 0001:00003980       ??1CArchivo@@UAE@XZ        10004980 f   Sgi_Archivo.obj
 0001:000039b0       ?Lee@CArchivo@@UAEIPBD@Z   100049b0 f   Sgi_Archivo.obj
 0001:00003b00       ?B64_Decodifica@@YA_NPADGPAEPAG@Z 10004b00 f   Sgi_B64.obj
 0001:00003d10       ?B64_Codifica@@YA_NPAEGPADPAG@Z 10004d10 f   Sgi_B64.obj
 0001:00003ea0       ??0CBitacora@@QAE@V?$basic_string@DU?$char_traits@D@std@@V?$allocator@D@2@@std@@@Z 10004ea0 f   Sgi_Bitacora.obj
 0001:00003f30       ?escribe@CBitacora@@QAEXW4BIT_NIVEL@@PBD@Z 10004f30 f   Sgi_Bitacora.obj
 0001:000040e0       ?escribePV@CBitacora@@QAAXW4BIT_NIVEL@@PBDZZ 100050e0 f   Sgi_Bitacora.obj
 0001:00004140       ?ObtenerFecha@CBitacora@@AAEXPAD@Z 10005140 f   Sgi_Bitacora.obj
 0001:00004210       ??0sentry@?$basic_ostream@DU?$char_traits@D@std@@@std@@QAE@AAV12@@Z 10005210 f i Sgi_Bitacora.obj
 0001:000042a0       ??1sentry@?$basic_ostream@DU?$char_traits@D@std@@@std@@QAE@XZ 100052a0 f i Sgi_Bitacora.obj
 0001:00004320       ??1_Sentry_base@?$basic_ostream@DU?$char_traits@D@std@@@std@@QAE@XZ 10005320 f i Sgi_Bitacora.obj
 0001:00004340       ??$?6U?$char_traits@D@std@@@std@@YAAAV?$basic_ostream@DU?$char_traits@D@std@@@0@AAV10@PBD@Z 10005340 f i Sgi_Bitacora.obj
 0001:00004510       ??3@YAXPAX0@Z              10005510 f i Sgi_ConfigFile.obj
 0001:00004520       ?what@logic_error@std@@UBEPBDXZ 10005520 f i Sgi_ConfigFile.obj
 0001:00004530       ??_Glength_error@std@@UAEPAXI@Z 10005530 f i Sgi_ConfigFile.obj
 0001:00004530       ??_Glogic_error@std@@UAEPAXI@Z 10005530 f i Sgi_ConfigFile.obj
 0001:00004530       ??_Elogic_error@std@@UAEPAXI@Z 10005530 f i  CIL library: CIL module
 0001:00004530       ??_Elength_error@std@@UAEPAXI@Z 10005530 f i  CIL library: CIL module
 0001:00004560       ??1length_error@std@@UAE@XZ 10005560 f i Sgi_ConfigFile.obj
 0001:00004580       ??0logic_error@std@@QAE@ABV01@@Z 10005580 f i Sgi_ConfigFile.obj
 0001:000045f0       ??0CConfigFile@@QAE@V?$basic_string@DU?$char_traits@D@std@@V?$allocator@D@2@@std@@@Z 100055f0 f   Sgi_ConfigFile.obj
 0001:00004680       ?m_leeTagPrincipal@CConfigFile@@AAEHPAV?$basic_fstream@DU?$char_traits@D@std@@@std@@V?$basic_string@DU?$char_traits@D@std@@V?$allocator@D@2@@3@@Z 10005680 f   Sgi_ConfigFile.obj
 0001:000048c0       ?formCadena@CConfigFile@@AAE_NV?$basic_string@DU?$char_traits@D@std@@V?$allocator@D@2@@std@@PAV23@@Z 100058c0 f   Sgi_ConfigFile.obj
 0001:000049d0       ?getValorVar@CConfigFile@@QAEHPBD0PAV?$basic_string@DU?$char_traits@D@std@@V?$allocator@D@2@@std@@@Z 100059d0 f   Sgi_ConfigFile.obj
 0001:00005010       ?m_readCfgFile@CConfigFile@@AAEHXZ 10006010 f   Sgi_ConfigFile.obj
 0001:000051b0       ??_E?$basic_fstream@DU?$char_traits@D@std@@@std@@UAEPAXI@Z 100061b0 f i  CIL library: CIL module
 0001:000051b0       ??_G?$basic_fstream@DU?$char_traits@D@std@@@std@@UAEPAXI@Z 100061b0 f i Sgi_ConfigFile.obj
 0001:000051e0       ?insert@?$multimap@V?$basic_string@DU?$char_traits@D@std@@V?$allocator@D@2@@std@@V12@U?$less@V?$basic_string@DU?$char_traits@D@std@@V?$allocator@D@2@@std@@@2@V?$allocator@U?$pair@$$CBV?$basic_string@DU?$char_traits@D@std@@V?$allocator@D@2@@std@@V12@@std@@@2@@std@@QAE?AViterator@?$_Tree@V?$_Tmap_traits@V?$basic_string@DU?$char_traits@D@std@@V?$allocator@D@2@@std@@V12@U?$less@V?$basic_string@DU?$char_traits@D@std@@V?$allocator@D@2@@std@@@2@V?$allocator@U?$pair@$$CBV?$basic_string@DU?$char_traits@D@std@@V?$allocator@D@2@@std@@V12@@std@@@2@$00@std@@@2@ABU?$pair@$$CBV?$basic_string@DU?$char_traits@D@std@@V?$allocator@D@2@@std@@V12@@2@@Z 100061e0 f i Sgi_ConfigFile.obj
 0001:00005290       ?find@?$_Tree@V?$_Tmap_traits@V?$basic_string@DU?$char_traits@D@std@@V?$allocator@D@2@@std@@V12@U?$less@V?$basic_string@DU?$char_traits@D@std@@V?$allocator@D@2@@std@@@2@V?$allocator@U?$pair@$$CBV?$basic_string@DU?$char_traits@D@std@@V?$allocator@D@2@@std@@V12@@std@@@2@$00@std@@@std@@QAE?AViterator@12@ABV?$basic_string@DU?$char_traits@D@std@@V?$allocator@D@2@@2@@Z 10006290 f i Sgi_ConfigFile.obj
 0001:00005460       ??0?$_Tree@V?$_Tmap_traits@V?$basic_string@DU?$char_traits@D@std@@V?$allocator@D@2@@std@@V12@U?$less@V?$basic_string@DU?$char_traits@D@std@@V?$allocator@D@2@@std@@@2@V?$allocator@U?$pair@$$CBV?$basic_string@DU?$char_traits@D@std@@V?$allocator@D@2@@std@@V12@@std@@@2@$00@std@@@std@@QAE@ABU?$less@V?$basic_string@DU?$char_traits@D@std@@V?$allocator@D@2@@std@@@1@ABV?$allocator@U?$pair@$$CBV?$basic_string@DU?$char_traits@D@std@@V?$allocator@D@2@@std@@V12@@std@@@1@@Z 10006460 f i Sgi_ConfigFile.obj
 0001:000054d0       ?insert@?$_Tree@V?$_Tmap_traits@V?$basic_string@DU?$char_traits@D@std@@V?$allocator@D@2@@std@@V12@U?$less@V?$basic_string@DU?$char_traits@D@std@@V?$allocator@D@2@@std@@@2@V?$allocator@U?$pair@$$CBV?$basic_string@DU?$char_traits@D@std@@V?$allocator@D@2@@std@@V12@@std@@@2@$00@std@@@std@@QAE?AU?$pair@Viterator@?$_Tree@V?$_Tmap_traits@V?$basic_string@DU?$char_traits@D@std@@V?$allocator@D@2@@std@@V12@U?$less@V?$basic_string@DU?$char_traits@D@std@@V?$allocator@D@2@@std@@@2@V?$allocator@U?$pair@$$CBV?$basic_string@DU?$char_traits@D@std@@V?$allocator@D@2@@std@@V12@@std@@@2@$00@std@@@std@@_N@2@ABU?$pair@$$CBV?$basic_string@DU?$char_traits@D@std@@V?$allocator@D@2@@std@@V12@@2@@Z 100064d0 f i Sgi_ConfigFile.obj
 0001:00005620       ?lower_bound@?$_Tree@V?$_Tmap_traits@V?$basic_string@DU?$char_traits@D@std@@V?$allocator@D@2@@std@@V12@U?$less@V?$basic_string@DU?$char_traits@D@std@@V?$allocator@D@2@@std@@@2@V?$allocator@U?$pair@$$CBV?$basic_string@DU?$char_traits@D@std@@V?$allocator@D@2@@std@@V12@@std@@@2@$00@std@@@std@@QAE?AViterator@12@ABV?$basic_string@DU?$char_traits@D@std@@V?$allocator@D@2@@2@@Z 10006620 f i Sgi_ConfigFile.obj
 0001:000056a0       ??Dconst_iterator@?$_Tree@V?$_Tmap_traits@V?$basic_string@DU?$char_traits@D@std@@V?$allocator@D@2@@std@@V12@U?$less@V?$basic_string@DU?$char_traits@D@std@@V?$allocator@D@2@@std@@@2@V?$allocator@U?$pair@$$CBV?$basic_string@DU?$char_traits@D@std@@V?$allocator@D@2@@std@@V12@@std@@@2@$00@std@@@std@@QBEABU?$pair@$$CBV?$basic_string@DU?$char_traits@D@std@@V?$allocator@D@2@@std@@V12@@2@XZ 100066a0 f i Sgi_ConfigFile.obj
 0001:00005710       ?_Insert@?$_Tree@V?$_Tmap_traits@V?$basic_string@DU?$char_traits@D@std@@V?$allocator@D@2@@std@@V12@U?$less@V?$basic_string@DU?$char_traits@D@std@@V?$allocator@D@2@@std@@@2@V?$allocator@U?$pair@$$CBV?$basic_string@DU?$char_traits@D@std@@V?$allocator@D@2@@std@@V12@@std@@@2@$00@std@@@std@@IAE?AViterator@12@_NPAU_Node@?$_Tree_nod@V?$_Tmap_traits@V?$basic_string@DU?$char_traits@D@std@@V?$allocator@D@2@@std@@V12@U?$less@V?$basic_string@DU?$char_traits@D@std@@V?$allocator@D@2@@std@@@2@V?$allocator@U?$pair@$$CBV?$basic_string@DU?$char_traits@D@std@@V?$allocator@D@2@@std@@V12@@std@@@2@$00@std@@@2@ABU?$pair@$$CBV?$basic_string@DU?$char_traits@D@std@@V?$allocator@D@2@@std@@V12@@2@@Z 10006710 f i Sgi_ConfigFile.obj
 0001:000059d0       ?_Lbound@?$_Tree@V?$_Tmap_traits@V?$basic_string@DU?$char_traits@D@std@@V?$allocator@D@2@@std@@V12@U?$less@V?$basic_string@DU?$char_traits@D@std@@V?$allocator@D@2@@std@@@2@V?$allocator@U?$pair@$$CBV?$basic_string@DU?$char_traits@D@std@@V?$allocator@D@2@@std@@V12@@std@@@2@$00@std@@@std@@IBEPAU_Node@?$_Tree_nod@V?$_Tmap_traits@V?$basic_string@DU?$char_traits@D@std@@V?$allocator@D@2@@std@@V12@U?$less@V?$basic_string@DU?$char_traits@D@std@@V?$allocator@D@2@@std@@@2@V?$allocator@U?$pair@$$CBV?$basic_string@DU?$char_traits@D@std@@V?$allocator@D@2@@std@@V12@@std@@@2@$00@std@@@2@ABV?$basic_string@DU?$char_traits@D@std@@V?$allocator@D@2@@2@@Z 100069d0 f i Sgi_ConfigFile.obj
 0001:00005a40       ??0length_error@std@@QAE@ABV01@@Z 10006a40 f i Sgi_ConfigFile.obj
 0001:00005a60       ?_Buynode@?$_Tree@V?$_Tmap_traits@V?$basic_string@DU?$char_traits@D@std@@V?$allocator@D@2@@std@@V12@U?$less@V?$basic_string@DU?$char_traits@D@std@@V?$allocator@D@2@@std@@@2@V?$allocator@U?$pair@$$CBV?$basic_string@DU?$char_traits@D@std@@V?$allocator@D@2@@std@@V12@@std@@@2@$00@std@@@std@@IAEPAU_Node@?$_Tree_nod@V?$_Tmap_traits@V?$basic_string@DU?$char_traits@D@std@@V?$allocator@D@2@@std@@V12@U?$less@V?$basic_string@DU?$char_traits@D@std@@V?$allocator@D@2@@std@@@2@V?$allocator@U?$pair@$$CBV?$basic_string@DU?$char_traits@D@std@@V?$allocator@D@2@@std@@V12@@std@@@2@$00@std@@@2@XZ 10006a60 f i Sgi_ConfigFile.obj
 0001:00005aa0       ?_Buynode@?$_Tree@V?$_Tmap_traits@V?$basic_string@DU?$char_traits@D@std@@V?$allocator@D@2@@std@@V12@U?$less@V?$basic_string@DU?$char_traits@D@std@@V?$allocator@D@2@@std@@@2@V?$allocator@U?$pair@$$CBV?$basic_string@DU?$char_traits@D@std@@V?$allocator@D@2@@std@@V12@@std@@@2@$00@std@@@std@@IAEPAU_Node@?$_Tree_nod@V?$_Tmap_traits@V?$basic_string@DU?$char_traits@D@std@@V?$allocator@D@2@@std@@V12@U?$less@V?$basic_string@DU?$char_traits@D@std@@V?$allocator@D@2@@std@@@2@V?$allocator@U?$pair@$$CBV?$basic_string@DU?$char_traits@D@std@@V?$allocator@D@2@@std@@V12@@std@@@2@$00@std@@@2@PAU342@00ABU?$pair@$$CBV?$basic_string@DU?$char_traits@D@std@@V?$allocator@D@2@@std@@V12@@2@D@Z 10006aa0 f i Sgi_ConfigFile.obj
 0001:00005b30       ??0_Node@?$_Tree_nod@V?$_Tmap_traits@V?$basic_string@DU?$char_traits@D@std@@V?$allocator@D@2@@std@@V12@U?$less@V?$basic_string@DU?$char_traits@D@std@@V?$allocator@D@2@@std@@@2@V?$allocator@U?$pair@$$CBV?$basic_string@DU?$char_traits@D@std@@V?$allocator@D@2@@std@@V12@@std@@@2@$00@std@@@std@@QAE@PAU012@00ABU?$pair@$$CBV?$basic_string@DU?$char_traits@D@std@@V?$allocator@D@2@@std@@V12@@2@D@Z 10006b30 f i Sgi_ConfigFile.obj
 0001:00005bb0       ??0Mensajes@@QAE@XZ        10006bb0 f   Sgi_MsgPKI.obj
 0001:00005c60       ?setMensaje@Mensajes@@QAAHHZZ 10006c60 f   Sgi_MsgPKI.obj
 0001:00005e30       ?getMensaje@Mensajes@@QAAHHZZ 10006e30 f   Sgi_MsgPKI.obj
 0001:000061c0       ?Firmar@Mensajes@@QAEIH@Z  100071c0 f   Sgi_MsgPKI.obj
 0001:00006270       ?VerificarFirma@Mensajes@@QAEIPADPAH@Z 10007270 f   Sgi_MsgPKI.obj
 0001:00006300       ?Firma@Mensajes@@QAEIPAEGPADPAGPAUrsa_st@@@Z 10007300 f   Sgi_MsgPKI.obj
 0001:000063a0       ?VerificaFirma@Mensajes@@QAEIPADH@Z 100073a0 f   Sgi_MsgPKI.obj
 0001:000064a0       ?Encripta@Mensajes@@QAEIPAEH0PAGPAUrsa_st@@@Z 100074a0 f   Sgi_MsgPKI.obj
 0001:00006550       ?Intercambio@Mensajes@@QAEIPAVCSSL_Skt@@@Z 10007550 f   Sgi_MsgPKI.obj
 0001:000065a0       ?Recibe@Mensajes@@QAEHPAVCSSL_Skt@@@Z 100075a0 f   Sgi_MsgPKI.obj
 0001:00006620       ?setVersion@MensajesARA@@QAEIH@Z 10007620 f   Sgi_MsgPKI.obj
 0001:00006690       ?Inicia@MensajesARA@@QAEHPBD@Z 10007690 f   Sgi_MsgPKI.obj
 0001:00006860       ?ConectaCliente@MensajesARA@@QAEIPAVCSSL_Skt@@@Z 10007860 f   Sgi_MsgPKI.obj
 0001:00006e10       ?Desconecta@MensajesARA@@QAEIPAVCSSL_Skt@@@Z 10007e10 f   Sgi_MsgPKI.obj
 0001:00006e80       ?iniciaLibOpenSSL@@YAXI@Z  10007e80 f   Sgi_OpenSSL.obj
 0001:00006f30       ??0SNames@@QAE@XZ          10007f30 f   Sgi_OpenSSL.obj
 0001:00006f40       ??1SNames@@QAE@XZ          10007f40 f   Sgi_OpenSSL.obj
 0001:00006f70       ?AsignaLlavePrivada_EVP@ManejaEVP_RSA@@QAEIPAUrsa_st@@@Z 10007f70 f   Sgi_OpenSSL.obj
 0001:00006fd0       ?GetllavePub@Getllave@@QAEIPAPAUrsa_st@@PAUx509_st@@PAUX509_req_st@@@Z 10007fd0 f   Sgi_OpenSSL.obj
 0001:00007030       ?GetllavePri@Getllave@@QAEIDPAU_iobuf@@PADPAPAUrsa_st@@@Z 10008030 f   Sgi_OpenSSL.obj
 0001:000070f0       ??1SGIX509@@QAE@XZ         100080f0 f   Sgi_OpenSSL.obj
 0001:00007140       ?ObtienePbK@SGIX509@@QAEIPBEHPAPAUrsa_st@@PAEPAD@Z 10008140 f   Sgi_OpenSSL.obj
 0001:000072a0       ??1SGIRSA@@QAE@XZ          100082a0 f   Sgi_OpenSSL.obj
 0001:000072f0       ?getLlave@SGIRSA@@QAEHPAEH0PAPAUrsa_st@@@Z 100082f0 f   Sgi_OpenSSL.obj
 0001:000073a0       ?asignaAlgDigestion@SGIRSA@@QAEPBUenv_md_st@@HPAH@Z 100083a0 f   Sgi_OpenSSL.obj
 0001:00007450       ?DecodPvKey@SGIRSA@@QAEIPAD0PAPAUrsa_st@@@Z 10008450 f   Sgi_OpenSSL.obj
 0001:00007590       ?EncPb@SGIRSA@@QAEIPAEHPAUrsa_st@@0PAH@Z 10008590 f   Sgi_OpenSSL.obj
 0001:00007600       ?RSAFirma@SGIRSA@@QAEIPAEIPAUrsa_st@@0PAIH@Z 10008600 f   Sgi_OpenSSL.obj
 0001:00007720       ?VerificaFirma@SGIRSA@@QAEIPBEHPAUrsa_st@@HPAEPAH@Z 10008720 f   Sgi_OpenSSL.obj
 0001:000078b0       ?asignaAlgoritmo@SGIRSA@@QAEPBUevp_cipher_st@@H@Z 100088b0 f   Sgi_OpenSSL.obj
 0001:000078b0       ?setAlgEncripcion@CSgi_Cripto@SgiCripto@@IAEPBUevp_cipher_st@@H@Z 100088b0 f   sgi_cripto.obj
 0001:00007a10       ?GenAleatorio@SGIRSA@@QAEIHPADPAH@Z 10008a10 f   Sgi_OpenSSL.obj
 0001:00007b30       ?setPublica@SGIRSA@@QAEIPAUrsa_st@@PAUsgi_publicRSA_st@@@Z 10008b30 f   Sgi_OpenSSL.obj
 0001:00007c20       ??1SGIPKCS7@@QAE@XZ        10008c20 f   Sgi_OpenSSL.obj
 0001:00007c40       ?TerminaGenPKCS7@SGIPKCS7@@AAEIPAEPAUx509_st@@1PAUstack_st@@PAUbio_st@@IPAU_iobuf@@4PAVManejaEVP_RSA@@PAUrsa_st@@PAUpkcs7_st@@3@Z 10008c40 f   Sgi_OpenSSL.obj
 0001:00007d70       ?GenPKCS7@SGIPKCS7@@QAEIPAD000HQAUcertificados_st@@HPAE0H@Z 10008d70 f   Sgi_OpenSSL.obj
 0001:00008f50       ?CreaArchivo@ManArchivo@@QAE_NPAEHPBD@Z 10009f50 f   Sgi_OpenSSL.obj
 0001:00008fa0       ?ProcesaArchivo@ManArchivo@@QAE_NPBDPAEPAH@Z 10009fa0 f   Sgi_OpenSSL.obj
 0001:00009040       ??_ECSSL_Skt@@UAEPAXI@Z    1000a040 f i  CIL library: CIL module
 0001:00009040       ??_GCSSL_Skt@@UAEPAXI@Z    1000a040 f i Sgi_SSL.obj
 0001:00009060       ??0CSSL_parms@@QAE@XZ      1000a060 f   Sgi_SSL.obj
 0001:00009140       ?LecPendiente@CSSL_Skt@@UAEHXZ 1000a140 f   Sgi_SSL.obj
 0001:00009190       ??0CSSL_Skt_Ssl@@QAE@PAUssl_ctx_st@@PAUssl_st@@@Z 1000a190 f   Sgi_SSL.obj
 0001:000091c0       ??_ECSSL_Skt_Ssl@@UAEPAXI@Z 1000a1c0 f i  CIL library: CIL module
 0001:000091c0       ??_GCSSL_Skt_Ssl@@UAEPAXI@Z 1000a1c0 f i Sgi_SSL.obj
 0001:00009230       ?Envia@CSSL_Skt_Ssl@@UAEIPAEH@Z 1000a230 f   Sgi_SSL.obj
 0001:00009270       ?Recibe@CSSL_Skt_Ssl@@UAEIPAEAAH@Z 1000a270 f   Sgi_SSL.obj
 0001:000092d0       ??0CSSL_Skt_Bio@@QAE@PAUbio_st@@@Z 1000a2d0 f   Sgi_SSL.obj
 0001:00009300       ??_GCSSL_Skt_Bio@@UAEPAXI@Z 1000a300 f i Sgi_SSL.obj
 0001:00009300       ??_ECSSL_Skt_Bio@@UAEPAXI@Z 1000a300 f i  CIL library: CIL module
 0001:00009350       ?Envia@CSSL_Skt_Bio@@UAEIPAEH@Z 1000a350 f   Sgi_SSL.obj
 0001:000093b0       ?Recibe@CSSL_Skt_Bio@@UAEIPAEAAH@Z 1000a3b0 f   Sgi_SSL.obj
 0001:00009410       ??0CSSL_parms@@QAE@ABU0@@Z 1000a410 f i Sgi_SSL.obj
 0001:00009510       ?Set_CTX@Sgi_SSL@@CAIAAPAUssl_ctx_st@@_NUCSSL_parms@@@Z 1000a510 f   Sgi_SSL.obj
 0001:00009710       ?Cliente@Sgi_SSL@@SAIAAUCSSL_parms@@AAPAVCSSL_Skt@@@Z 1000a710 f   Sgi_SSL.obj
 0001:00009900       ??0CSgi_Certificado@SgiCripto@@QAE@XZ 1000a900 f   Sgi_Certificado.obj
 0001:000099d0       ??1CSgi_Certificado@SgiCripto@@QAE@XZ 1000a9d0 f   Sgi_Certificado.obj
 0001:00009ab0       ?inicializa@CSgi_Certificado@SgiCripto@@QAE?AW4tError@2@PBEH@Z 1000aab0 f   Sgi_Certificado.obj
 0001:00009b50       ?procesa@CSgi_Certificado@SgiCripto@@IAE?AW4tError@2@PBEH@Z 1000ab50 f   Sgi_Certificado.obj
 0001:00009fe0       ??1CSgi_Cripto@SgiCripto@@QAE@XZ 1000afe0 f   sgi_cripto.obj
 0001:0000a050       ?inicia@CSgi_Cripto@SgiCripto@@QAE?AW4tError@2@_NPBD@Z 1000b050 f   sgi_cripto.obj
 0001:0000a140       ?solEdoCDxNS@CSgi_Cripto@SgiCripto@@QAE?AW4tError@2@PBDPADPAEPAV?$basic_string@DU?$char_traits@D@std@@V?$allocator@D@2@@std@@3@Z 1000b140 f   sgi_cripto.obj
 0001:0000a180       ?verificaLlaves@CSgi_Cripto@SgiCripto@@QAE?AW4tError@2@PBD00@Z 1000b180 f   sgi_cripto.obj
 0001:0000a2c0       ?generaFirma@CSgi_Cripto@SgiCripto@@QAE?AW4tError@2@PBD00HPAV?$basic_string@DU?$char_traits@D@std@@V?$allocator@D@2@@std@@@Z 1000b2c0 f   sgi_cripto.obj
 0001:0000a4a0       ?verFirmaIni@CSgi_Cripto@SgiCripto@@QAE?AW4tError@2@PAVCSgi_Certificado@2@PBD@Z 1000b4a0 f   sgi_cripto.obj
 0001:0000a5e0       ?verFirmaFin@CSgi_Cripto@SgiCripto@@QAE?AW4tError@2@XZ 1000b5e0 f   sgi_cripto.obj
 0001:0000a700       ?genP7@CSgi_Cripto@SgiCripto@@QAE?AW4tError@2@PBD000H0H0@Z 1000b700 f   sgi_cripto.obj
 0001:0000a7c0       ?obtieneNumSerieP7@CSgi_Cripto@SgiCripto@@QAE?AW4tError@2@PBDPAV?$basic_string@DU?$char_traits@D@std@@V?$allocator@D@2@@std@@@Z 1000b7c0 f   sgi_cripto.obj
 0001:0000a950       ?procP7@CSgi_Cripto@SgiCripto@@QAE?AW4tError@2@PBD00000H@Z 1000b950 f   sgi_cripto.obj
 0001:0000aae0       ?procP7@CSgi_Cripto@SgiCripto@@QAE?AW4tError@2@PBD000HPAPADPAH0H@Z 1000bae0 f   sgi_cripto.obj
 0001:0000ad50       ?procesaPKCS7ara@CSgi_Cripto@SgiCripto@@IAE?AW4tError@2@PBEH0HPBDPAUpkcs7_st@@PAPAUbio_st@@1HPAV?$basic_string@DU?$char_traits@D@std@@V?$allocator@D@2@@std@@@Z 1000bd50 f   sgi_cripto.obj
 0001:0000b510       ?procesaPKCS7ara@CSgi_Cripto@SgiCripto@@IAE?AW4tError@2@PBEH0HPBD111HPAV?$basic_string@DU?$char_traits@D@std@@V?$allocator@D@2@@std@@@Z 1000c510 f   sgi_cripto.obj
 0001:0000beb0       ?encripta@CSgi_Cripto@SgiCripto@@QAE?AW4tError@2@PBEGH0HPAEPAG@Z 1000ceb0 f   sgi_cripto.obj
 0001:0000c030       ?desencripta@CSgi_Cripto@SgiCripto@@QAE?AW4tError@2@PBEFH0HPAEPAG@Z 1000d030 f   sgi_cripto.obj
 0001:0000c240       ?procStDigestion@CSgi_Cripto@SgiCripto@@IAE?AW4tError@2@PBEHPAPBUenv_md_st@@PAEPAI@Z 1000d240 f   sgi_cripto.obj
 0001:0000c690       ?ConvError@SgiCripto@@YA?AW4tError@1@_NH@Z 1000d690 f   sgi_cripto.obj
 0001:0000c960       ?forzaVer@@YAHPAUx509_st@@PAUpkcs7_st@@PAUstack_st@@PAUx509_store_st@@PAUbio_st@@4H@Z 1000d960 f   SgiOpenSSL_AraFnc.obj
 0001:0000cb80       ?forzaDec@@YAHPAUpkcs7_st@@PAUevp_pkey_st@@PAUx509_st@@PAUbio_st@@H@Z 1000db80 f   SgiOpenSSL_AraFnc.obj
 0001:0000cec0       ?forzaDesen@@YAPAUbio_st@@PAUpkcs7_st@@PAUevp_pkey_st@@PAU1@PAUx509_st@@@Z 1000dec0 f   SgiOpenSSL_AraFnc.obj
 0001:0000d240       _RSA_new                   1000e240 f   libeay32_EM_dbg.0.9.8e:rsa_lib.obj
 0001:0000d270       _RSA_get_default_method    1000e270 f   libeay32_EM_dbg.0.9.8e:rsa_lib.obj
 0001:0000d290       _RSA_new_method            1000e290 f   libeay32_EM_dbg.0.9.8e:rsa_lib.obj
 0001:0000d4e0       _RSA_free                  1000e4e0 f   libeay32_EM_dbg.0.9.8e:rsa_lib.obj
 0001:0000d690       _RSA_up_ref                1000e690 f   libeay32_EM_dbg.0.9.8e:rsa_lib.obj
 0001:0000d6d0       _RSA_size                  1000e6d0 f   libeay32_EM_dbg.0.9.8e:rsa_lib.obj
 0001:0000d6f0       _RSA_public_encrypt        1000e6f0 f   libeay32_EM_dbg.0.9.8e:rsa_lib.obj
 0001:0000d720       _RSA_private_encrypt       1000e720 f   libeay32_EM_dbg.0.9.8e:rsa_lib.obj
 0001:0000d750       _RSA_private_decrypt       1000e750 f   libeay32_EM_dbg.0.9.8e:rsa_lib.obj
 0001:0000d780       _RSA_public_decrypt        1000e780 f   libeay32_EM_dbg.0.9.8e:rsa_lib.obj
 0001:0000d7b0       _RSA_flags                 1000e7b0 f   libeay32_EM_dbg.0.9.8e:rsa_lib.obj
 0001:0000d7e0       _RSA_setup_blinding        1000e7e0 f   libeay32_EM_dbg.0.9.8e:rsa_lib.obj
 0001:0000da90       _PEM_read_bio_X509         1000ea90 f   libeay32_EM_dbg.0.9.8e:pem_x509.obj
 0001:0000dac0       _PEM_read_X509             1000eac0 f   libeay32_EM_dbg.0.9.8e:pem_x509.obj
 0001:0000daf0       _BN_bn2dec                 1000eaf0 f   libeay32_EM_dbg.0.9.8e:bn_print.obj
 0001:0000dd40       _BN_hex2bn                 1000ed40 f   libeay32_EM_dbg.0.9.8e:bn_print.obj
 0001:0000dfd0       _BN_dec2bn                 1000efd0 f   libeay32_EM_dbg.0.9.8e:bn_print.obj
 0001:0000e200       _RSA_sign                  1000f200 f   libeay32_EM_dbg.0.9.8e:rsa_sign.obj
 0001:0000e440       _RSA_verify                1000f440 f   libeay32_EM_dbg.0.9.8e:rsa_sign.obj
 0001:0000e720       _BN_value_one              1000f720 f   libeay32_EM_dbg.0.9.8e:bn_lib.obj
 0001:0000e730       _BN_num_bits_word          1000f730 f   libeay32_EM_dbg.0.9.8e:bn_lib.obj
 0001:0000e7a0       _BN_num_bits               1000f7a0 f   libeay32_EM_dbg.0.9.8e:bn_lib.obj
 0001:0000e7f0       _BN_clear_free             1000f7f0 f   libeay32_EM_dbg.0.9.8e:bn_lib.obj
 0001:0000e870       _BN_free                   1000f870 f   libeay32_EM_dbg.0.9.8e:bn_lib.obj
 0001:0000e8e0       _BN_init                   1000f8e0 f   libeay32_EM_dbg.0.9.8e:bn_lib.obj
 0001:0000e900       _BN_new                    1000f900 f   libeay32_EM_dbg.0.9.8e:bn_lib.obj
 0001:0000eb00       _bn_expand2                1000fb00 f   libeay32_EM_dbg.0.9.8e:bn_lib.obj
 0001:0000eb70       _BN_dup                    1000fb70 f   libeay32_EM_dbg.0.9.8e:bn_lib.obj
 0001:0000ebd0       _BN_copy                   1000fbd0 f   libeay32_EM_dbg.0.9.8e:bn_lib.obj
 0001:0000ed10       _BN_clear                  1000fd10 f   libeay32_EM_dbg.0.9.8e:bn_lib.obj
 0001:0000ed50       _BN_set_word               1000fd50 f   libeay32_EM_dbg.0.9.8e:bn_lib.obj
 0001:0000edc0       _BN_bin2bn                 1000fdc0 f   libeay32_EM_dbg.0.9.8e:bn_lib.obj
 0001:0000ef50       _BN_bn2bin                 1000ff50 f   libeay32_EM_dbg.0.9.8e:bn_lib.obj
 0001:0000efe0       _BN_ucmp                   1000ffe0 f   libeay32_EM_dbg.0.9.8e:bn_lib.obj
 0001:0000f070       _BN_cmp                    10010070 f   libeay32_EM_dbg.0.9.8e:bn_lib.obj
 0001:0000f190       _BN_set_bit                10010190 f   libeay32_EM_dbg.0.9.8e:bn_lib.obj
 0001:0000f280       _BN_is_bit_set             10010280 f   libeay32_EM_dbg.0.9.8e:bn_lib.obj
 0001:0000f2f0       _BN_set_negative           100102f0 f   libeay32_EM_dbg.0.9.8e:bn_lib.obj
 0001:0000f320       _bn_cmp_words              10010320 f   libeay32_EM_dbg.0.9.8e:bn_lib.obj
 0001:0000f3c0       _bn_cmp_part_words         100103c0 f   libeay32_EM_dbg.0.9.8e:bn_lib.obj
 0001:0000f460       _EVP_desx_cbc              10010460 f   libeay32_EM_dbg.0.9.8e:e_xcbc_d.obj
 0001:0000f530       _EVP_CIPHER_CTX_init       10010530 f   libeay32_EM_dbg.0.9.8e:evp_enc.obj
 0001:0000f550       _EVP_CipherInit_ex         10010550 f   libeay32_EM_dbg.0.9.8e:evp_enc.obj
 0001:0000f900       _EVP_CipherUpdate          10010900 f   libeay32_EM_dbg.0.9.8e:evp_enc.obj
 0001:0000f950       _EVP_CipherFinal_ex        10010950 f   libeay32_EM_dbg.0.9.8e:evp_enc.obj
 0001:0000f990       _EVP_EncryptInit_ex        10010990 f   libeay32_EM_dbg.0.9.8e:evp_enc.obj
 0001:0000f9c0       _EVP_DecryptInit_ex        100109c0 f   libeay32_EM_dbg.0.9.8e:evp_enc.obj
 0001:0000f9f0       _EVP_EncryptUpdate         100109f0 f   libeay32_EM_dbg.0.9.8e:evp_enc.obj
 0001:0000fc20       _EVP_EncryptFinal_ex       10010c20 f   libeay32_EM_dbg.0.9.8e:evp_enc.obj
 0001:0000fd40       _EVP_DecryptUpdate         10010d40 f   libeay32_EM_dbg.0.9.8e:evp_enc.obj
 0001:0000fea0       _EVP_DecryptFinal_ex       10010ea0 f   libeay32_EM_dbg.0.9.8e:evp_enc.obj
 0001:00010060       _EVP_CIPHER_CTX_cleanup    10011060 f   libeay32_EM_dbg.0.9.8e:evp_enc.obj
 0001:00010100       _EVP_CIPHER_CTX_set_key_length 10011100 f   libeay32_EM_dbg.0.9.8e:evp_enc.obj
 0001:00010180       _EVP_CIPHER_CTX_ctrl       10011180 f   libeay32_EM_dbg.0.9.8e:evp_enc.obj
 0001:00010230       _EVP_CIPHER_CTX_rand_key   10011230 f   libeay32_EM_dbg.0.9.8e:evp_enc.obj
 0001:000102c0       _X509_REQ_INFO_it          100112c0 f   libeay32_EM_dbg.0.9.8e:x_req.obj
 0001:000102d0       _X509_REQ_it               100112d0 f   libeay32_EM_dbg.0.9.8e:x_req.obj
 0001:000102e0       _X509_REQ_free             100112e0 f   libeay32_EM_dbg.0.9.8e:x_req.obj
 0001:00010300       _PKCS7_sign                10011300 f   libeay32_EM_dbg.0.9.8e:pk7_smime.obj
 0001:00010660       _PKCS7_verify              10011660 f   libeay32_EM_dbg.0.9.8e:pk7_smime.obj
 0001:00010bc0       _PKCS7_get0_signers        10011bc0 f   libeay32_EM_dbg.0.9.8e:pk7_smime.obj
 0001:00010da0       _PKCS7_encrypt             10011da0 f   libeay32_EM_dbg.0.9.8e:pk7_smime.obj
 0001:00010f50       _PKCS7_decrypt             10011f50 f   libeay32_EM_dbg.0.9.8e:pk7_smime.obj
 0001:000112c0       _EVP_idea_cbc              100122c0 f   libeay32_EM_dbg.0.9.8e:e_idea.obj
 0001:000112d0       _EVP_idea_cfb64            100122d0 f   libeay32_EM_dbg.0.9.8e:e_idea.obj
 0001:000112e0       _EVP_idea_ofb              100122e0 f   libeay32_EM_dbg.0.9.8e:e_idea.obj
 0001:000112f0       _EVP_idea_ecb              100122f0 f   libeay32_EM_dbg.0.9.8e:e_idea.obj
 0001:000113b0       _EVP_MD_CTX_init           100123b0 f   libeay32_EM_dbg.0.9.8e:digest.obj
 0001:000113d0       _EVP_MD_CTX_create         100123d0 f   libeay32_EM_dbg.0.9.8e:digest.obj
 0001:00011410       _EVP_DigestInit            10012410 f   libeay32_EM_dbg.0.9.8e:digest.obj
 0001:00011440       _EVP_DigestInit_ex         10012440 f   libeay32_EM_dbg.0.9.8e:digest.obj
 0001:00011600       _EVP_DigestUpdate          10012600 f   libeay32_EM_dbg.0.9.8e:digest.obj
 0001:00011620       _EVP_DigestFinal           10012620 f   libeay32_EM_dbg.0.9.8e:digest.obj
 0001:00011660       _EVP_DigestFinal_ex        10012660 f   libeay32_EM_dbg.0.9.8e:digest.obj
 0001:00011720       _EVP_MD_CTX_copy_ex        10012720 f   libeay32_EM_dbg.0.9.8e:digest.obj
 0001:00011870       _EVP_Digest                10012870 f   libeay32_EM_dbg.0.9.8e:digest.obj
 0001:00011910       _EVP_MD_CTX_destroy        10012910 f   libeay32_EM_dbg.0.9.8e:digest.obj
 0001:00011930       _EVP_MD_CTX_cleanup        10012930 f   libeay32_EM_dbg.0.9.8e:digest.obj
 0001:000119f0       _OPENSSL_add_all_algorithms_noconf 100129f0 f   libeay32_EM_dbg.0.9.8e:c_all.obj
 0001:00011a10       _EVP_sha1                  10012a10 f   libeay32_EM_dbg.0.9.8e:m_sha1.obj
 0001:00011aa0       _EVP_sha224                10012aa0 f   libeay32_EM_dbg.0.9.8e:m_sha1.obj
 0001:00011ab0       _EVP_sha256                10012ab0 f   libeay32_EM_dbg.0.9.8e:m_sha1.obj
 0001:00011b40       _EVP_sha384                10012b40 f   libeay32_EM_dbg.0.9.8e:m_sha1.obj
 0001:00011b50       _EVP_sha512                10012b50 f   libeay32_EM_dbg.0.9.8e:m_sha1.obj
 0001:00011b60       _BIO_new_file              10012b60 f   libeay32_EM_dbg.0.9.8e:bss_file.obj
 0001:00011c60       _BIO_new_fp                10012c60 f   libeay32_EM_dbg.0.9.8e:bss_file.obj
 0001:00011cc0       _BIO_s_file                10012cc0 f   libeay32_EM_dbg.0.9.8e:bss_file.obj
 0001:00012670       _EVP_des_cbc               10013670 f   libeay32_EM_dbg.0.9.8e:e_des.obj
 0001:00012680       _EVP_des_cfb64             10013680 f   libeay32_EM_dbg.0.9.8e:e_des.obj
 0001:00012690       _EVP_des_ofb               10013690 f   libeay32_EM_dbg.0.9.8e:e_des.obj
 0001:000126a0       _EVP_des_ecb               100136a0 f   libeay32_EM_dbg.0.9.8e:e_des.obj
 0001:000126b0       _EVP_des_cfb1              100136b0 f   libeay32_EM_dbg.0.9.8e:e_des.obj
 0001:000126c0       _EVP_des_cfb8              100136c0 f   libeay32_EM_dbg.0.9.8e:e_des.obj
 0001:00012890       _EVP_rc2_cbc               10013890 f   libeay32_EM_dbg.0.9.8e:e_rc2.obj
 0001:000128a0       _EVP_rc2_cfb64             100138a0 f   libeay32_EM_dbg.0.9.8e:e_rc2.obj
 0001:000128b0       _EVP_rc2_ofb               100138b0 f   libeay32_EM_dbg.0.9.8e:e_rc2.obj
 0001:000128c0       _EVP_rc2_ecb               100138c0 f   libeay32_EM_dbg.0.9.8e:e_rc2.obj
 0001:000128d0       _EVP_rc2_64_cbc            100138d0 f   libeay32_EM_dbg.0.9.8e:e_rc2.obj
 0001:000128e0       _EVP_rc2_40_cbc            100138e0 f   libeay32_EM_dbg.0.9.8e:e_rc2.obj
 0001:00012bd0       _RAND_get_rand_method      10013bd0 f   libeay32_EM_dbg.0.9.8e:rand_lib.obj
 0001:00012c50       _RAND_add                  10013c50 f   libeay32_EM_dbg.0.9.8e:rand_lib.obj
 0001:00012ca0       _RAND_bytes                10013ca0 f   libeay32_EM_dbg.0.9.8e:rand_lib.obj
 0001:00012ce0       _RAND_pseudo_bytes         10013ce0 f   libeay32_EM_dbg.0.9.8e:rand_lib.obj
 0001:00012d20       _RAND_status               10013d20 f   libeay32_EM_dbg.0.9.8e:rand_lib.obj
 0001:00012d60       _X509_NAME_entry_count     10013d60 f   libeay32_EM_dbg.0.9.8e:x509name.obj
 0001:00012d80       _X509_NAME_get_index_by_NID 10013d80 f   libeay32_EM_dbg.0.9.8e:x509name.obj
 0001:00012dd0       _X509_NAME_get_index_by_OBJ 10013dd0 f   libeay32_EM_dbg.0.9.8e:x509name.obj
 0001:00012e60       _X509_NAME_get_entry       10013e60 f   libeay32_EM_dbg.0.9.8e:x509name.obj
 0001:00012ea0       _X509_NAME_delete_entry    10013ea0 f   libeay32_EM_dbg.0.9.8e:x509name.obj
 0001:00012fb0       _X509_NAME_add_entry_by_txt 10013fb0 f   libeay32_EM_dbg.0.9.8e:x509name.obj
 0001:00013020       _X509_NAME_add_entry       10014020 f   libeay32_EM_dbg.0.9.8e:x509name.obj
 0001:000131e0       _X509_NAME_ENTRY_create_by_txt 100141e0 f   libeay32_EM_dbg.0.9.8e:x509name.obj
 0001:00013270       _X509_NAME_ENTRY_create_by_OBJ 10014270 f   libeay32_EM_dbg.0.9.8e:x509name.obj
 0001:00013320       _X509_NAME_ENTRY_set_object 10014320 f   libeay32_EM_dbg.0.9.8e:x509name.obj
 0001:00013380       _X509_NAME_ENTRY_set_data  10014380 f   libeay32_EM_dbg.0.9.8e:x509name.obj
 0001:00013460       _UI_get0_output_string     10014460 f   libeay32_EM_dbg.0.9.8e:ui_lib.obj
 0001:00013460       _X509_NAME_ENTRY_get_data  10014460 f   libeay32_EM_dbg.0.9.8e:x509name.obj
 0001:00013490       _PKCS7_it                  10014490 f   libeay32_EM_dbg.0.9.8e:pk7_asn1.obj
 0001:000134a0       _i2d_PKCS7                 100144a0 f   libeay32_EM_dbg.0.9.8e:pk7_asn1.obj
 0001:000134c0       _PKCS7_new                 100144c0 f   libeay32_EM_dbg.0.9.8e:pk7_asn1.obj
 0001:000134e0       _PKCS7_free                100144e0 f   libeay32_EM_dbg.0.9.8e:pk7_asn1.obj
 0001:00013500       _PKCS7_SIGNED_it           10014500 f   libeay32_EM_dbg.0.9.8e:pk7_asn1.obj
 0001:00013510       _PKCS7_SIGNED_new          10014510 f   libeay32_EM_dbg.0.9.8e:pk7_asn1.obj
 0001:00013530       _PKCS7_SIGNED_free         10014530 f   libeay32_EM_dbg.0.9.8e:pk7_asn1.obj
 0001:00013590       _PKCS7_SIGNER_INFO_it      10014590 f   libeay32_EM_dbg.0.9.8e:pk7_asn1.obj
 0001:000135a0       _PKCS7_SIGNER_INFO_new     100145a0 f   libeay32_EM_dbg.0.9.8e:pk7_asn1.obj
 0001:000135c0       _PKCS7_SIGNER_INFO_free    100145c0 f   libeay32_EM_dbg.0.9.8e:pk7_asn1.obj
 0001:000135e0       _PKCS7_ISSUER_AND_SERIAL_it 100145e0 f   libeay32_EM_dbg.0.9.8e:pk7_asn1.obj
 0001:000135f0       _PKCS7_ENVELOPE_it         100145f0 f   libeay32_EM_dbg.0.9.8e:pk7_asn1.obj
 0001:00013600       _PKCS7_ENVELOPE_new        10014600 f   libeay32_EM_dbg.0.9.8e:pk7_asn1.obj
 0001:00013660       _PKCS7_RECIP_INFO_it       10014660 f   libeay32_EM_dbg.0.9.8e:pk7_asn1.obj
 0001:00013670       _PKCS7_RECIP_INFO_new      10014670 f   libeay32_EM_dbg.0.9.8e:pk7_asn1.obj
 0001:00013690       _PKCS7_RECIP_INFO_free     10014690 f   libeay32_EM_dbg.0.9.8e:pk7_asn1.obj
 0001:000136b0       _PKCS7_ENC_CONTENT_it      100146b0 f   libeay32_EM_dbg.0.9.8e:pk7_asn1.obj
 0001:000136c0       _PKCS7_SIGN_ENVELOPE_it    100146c0 f   libeay32_EM_dbg.0.9.8e:pk7_asn1.obj
 0001:000136d0       _PKCS7_SIGN_ENVELOPE_new   100146d0 f   libeay32_EM_dbg.0.9.8e:pk7_asn1.obj
 0001:000136f0       _PKCS7_ENCRYPT_it          100146f0 f   libeay32_EM_dbg.0.9.8e:pk7_asn1.obj
 0001:00013700       _PKCS7_ENCRYPT_new         10014700 f   libeay32_EM_dbg.0.9.8e:pk7_asn1.obj
 0001:00013720       _PKCS7_DIGEST_it           10014720 f   libeay32_EM_dbg.0.9.8e:pk7_asn1.obj
 0001:00013730       _PKCS7_DIGEST_new          10014730 f   libeay32_EM_dbg.0.9.8e:pk7_asn1.obj
 0001:00013750       _PKCS7_ATTR_SIGN_it        10014750 f   libeay32_EM_dbg.0.9.8e:pk7_asn1.obj
 0001:00013760       _PKCS7_ATTR_VERIFY_it      10014760 f   libeay32_EM_dbg.0.9.8e:pk7_asn1.obj
 0001:00013770       _OBJ_nid2obj               10014770 f   libeay32_EM_dbg.0.9.8e:obj_dat.obj
 0001:00013840       _OBJ_nid2sn                10014840 f   libeay32_EM_dbg.0.9.8e:obj_dat.obj
 0001:00013910       _OBJ_nid2ln                10014910 f   libeay32_EM_dbg.0.9.8e:obj_dat.obj
 0001:000139e0       _OBJ_obj2nid               100149e0 f   libeay32_EM_dbg.0.9.8e:obj_dat.obj
 0001:00013a80       _OBJ_txt2obj               10014a80 f   libeay32_EM_dbg.0.9.8e:obj_dat.obj
 0001:00013ba0       _OBJ_obj2txt               10014ba0 f   libeay32_EM_dbg.0.9.8e:obj_dat.obj
 0001:00013f80       _OBJ_ln2nid                10014f80 f   libeay32_EM_dbg.0.9.8e:obj_dat.obj
 0001:00014050       _OBJ_sn2nid                10015050 f   libeay32_EM_dbg.0.9.8e:obj_dat.obj
 0001:00014180       _OBJ_bsearch               10015180 f   libeay32_EM_dbg.0.9.8e:obj_dat.obj
 0001:000141b0       _OBJ_bsearch_ex            100151b0 f   libeay32_EM_dbg.0.9.8e:obj_dat.obj
 0001:000142b0       _X509_SIG_it               100152b0 f   libeay32_EM_dbg.0.9.8e:x_sig.obj
 0001:000142c0       _d2i_X509_SIG              100152c0 f   libeay32_EM_dbg.0.9.8e:x_sig.obj
 0001:000142e0       _i2d_X509_SIG              100152e0 f   libeay32_EM_dbg.0.9.8e:x_sig.obj
 0001:00014300       _X509_SIG_new              10015300 f   libeay32_EM_dbg.0.9.8e:x_sig.obj
 0001:00014320       _X509_SIG_free             10015320 f   libeay32_EM_dbg.0.9.8e:x_sig.obj
 0001:00014340       _X509v3_get_ext_count      10015340 f   libeay32_EM_dbg.0.9.8e:x509_v3.obj
 0001:00014360       _X509v3_get_ext_by_NID     10015360 f   libeay32_EM_dbg.0.9.8e:x509_v3.obj
 0001:000143b0       _X509v3_get_ext_by_OBJ     100153b0 f   libeay32_EM_dbg.0.9.8e:x509_v3.obj
 0001:00014440       _X509v3_get_ext            10015440 f   libeay32_EM_dbg.0.9.8e:x509_v3.obj
 0001:00014480       _UI_get_string_type        10015480 f   libeay32_EM_dbg.0.9.8e:ui_lib.obj
 0001:00014480       _X509_NAME_ENTRY_get_object 10015480 f   libeay32_EM_dbg.0.9.8e:x509name.obj
 0001:00014480       _X509_EXTENSION_get_object 10015480 f   libeay32_EM_dbg.0.9.8e:x509_v3.obj
 0001:000144a0       _X509_EXTENSION_get_critical 100154a0 f   libeay32_EM_dbg.0.9.8e:x509_v3.obj
 0001:000144d0       _X509_verify               100154d0 f   libeay32_EM_dbg.0.9.8e:x_all.obj
 0001:00014500       _X509_CRL_verify           10015500 f   libeay32_EM_dbg.0.9.8e:x_all.obj
 0001:00014530       _d2i_X509_fp               10015530 f   libeay32_EM_dbg.0.9.8e:x_all.obj
 0001:00014550       _d2i_X509_bio              10015550 f   libeay32_EM_dbg.0.9.8e:x_all.obj
 0001:00014570       _d2i_X509_CRL_bio          10015570 f   libeay32_EM_dbg.0.9.8e:x_all.obj
 0001:00014590       _d2i_PKCS7_fp              10015590 f   libeay32_EM_dbg.0.9.8e:x_all.obj
 0001:000145b0       _i2d_PKCS7_fp              100155b0 f   libeay32_EM_dbg.0.9.8e:x_all.obj
 0001:000145d0       _d2i_PKCS7_bio             100155d0 f   libeay32_EM_dbg.0.9.8e:x_all.obj
 0001:000145f0       _X509_digest               100155f0 f   libeay32_EM_dbg.0.9.8e:x_all.obj
 0001:00014620       _d2i_PKCS8_bio             10015620 f   libeay32_EM_dbg.0.9.8e:x_all.obj
 0001:00014640       _d2i_PrivateKey_bio        10015640 f   libeay32_EM_dbg.0.9.8e:x_all.obj
 0001:000146a0       _EVP_aes_128_cbc           100156a0 f   libeay32_EM_dbg.0.9.8e:e_aes.obj
 0001:000146b0       _EVP_aes_128_cfb128        100156b0 f   libeay32_EM_dbg.0.9.8e:e_aes.obj
 0001:000146c0       _EVP_aes_128_ofb           100156c0 f   libeay32_EM_dbg.0.9.8e:e_aes.obj
 0001:000146d0       _EVP_aes_128_ecb           100156d0 f   libeay32_EM_dbg.0.9.8e:e_aes.obj
 0001:000147a0       _EVP_aes_192_cbc           100157a0 f   libeay32_EM_dbg.0.9.8e:e_aes.obj
 0001:000147b0       _EVP_aes_192_cfb128        100157b0 f   libeay32_EM_dbg.0.9.8e:e_aes.obj
 0001:000147c0       _EVP_aes_192_ofb           100157c0 f   libeay32_EM_dbg.0.9.8e:e_aes.obj
 0001:000147d0       _EVP_aes_192_ecb           100157d0 f   libeay32_EM_dbg.0.9.8e:e_aes.obj
 0001:00014820       _EVP_aes_256_cbc           10015820 f   libeay32_EM_dbg.0.9.8e:e_aes.obj
 0001:00014830       _EVP_aes_256_cfb128        10015830 f   libeay32_EM_dbg.0.9.8e:e_aes.obj
 0001:00014840       _EVP_aes_256_ofb           10015840 f   libeay32_EM_dbg.0.9.8e:e_aes.obj
 0001:00014850       _EVP_aes_256_ecb           10015850 f   libeay32_EM_dbg.0.9.8e:e_aes.obj
 0001:000148a0       _EVP_aes_128_cfb1          100158a0 f   libeay32_EM_dbg.0.9.8e:e_aes.obj
 0001:000148b0       _EVP_aes_192_cfb1          100158b0 f   libeay32_EM_dbg.0.9.8e:e_aes.obj
 0001:000148c0       _EVP_aes_256_cfb1          100158c0 f   libeay32_EM_dbg.0.9.8e:e_aes.obj
 0001:000148d0       _EVP_aes_128_cfb8          100158d0 f   libeay32_EM_dbg.0.9.8e:e_aes.obj
 0001:00014920       _EVP_aes_192_cfb8          10015920 f   libeay32_EM_dbg.0.9.8e:e_aes.obj
 0001:00014930       _EVP_aes_256_cfb8          10015930 f   libeay32_EM_dbg.0.9.8e:e_aes.obj
 0001:000149f0       _X509_STORE_set_default_paths 100159f0 f   libeay32_EM_dbg.0.9.8e:x509_d2.obj
 0001:00014a80       _X509_STORE_load_locations 10015a80 f   libeay32_EM_dbg.0.9.8e:x509_d2.obj
 0001:00014b90       _RSAPrivateKey_it          10015b90 f   libeay32_EM_dbg.0.9.8e:rsa_asn1.obj
 0001:00014ba0       _RSAPublicKey_it           10015ba0 f   libeay32_EM_dbg.0.9.8e:rsa_asn1.obj
 0001:00014bb0       _d2i_RSAPrivateKey         10015bb0 f   libeay32_EM_dbg.0.9.8e:rsa_asn1.obj
 0001:00014bd0       _i2d_RSAPrivateKey         10015bd0 f   libeay32_EM_dbg.0.9.8e:rsa_asn1.obj
 0001:00014bf0       _d2i_RSAPublicKey          10015bf0 f   libeay32_EM_dbg.0.9.8e:rsa_asn1.obj
 0001:00014c10       _RSAPublicKey_dup          10015c10 f   libeay32_EM_dbg.0.9.8e:rsa_asn1.obj
 0001:00014c30       _RSAPrivateKey_dup         10015c30 f   libeay32_EM_dbg.0.9.8e:rsa_asn1.obj
 0001:00014c50       _asc2uni                   10015c50 f   libeay32_EM_dbg.0.9.8e:p12_utl.obj
 0001:00014d10       _X509_EXTENSION_it         10015d10 f   libeay32_EM_dbg.0.9.8e:x_exten.obj
 0001:00014d20       _PKCS7_ctrl                10015d20 f   libeay32_EM_dbg.0.9.8e:pk7_lib.obj
 0001:00014e60       _PKCS7_content_new         10015e60 f   libeay32_EM_dbg.0.9.8e:pk7_lib.obj
 0001:00014ed0       _PKCS7_set_content         10015ed0 f   libeay32_EM_dbg.0.9.8e:pk7_lib.obj
 0001:00014f90       _PKCS7_set_type            10015f90 f   libeay32_EM_dbg.0.9.8e:pk7_lib.obj
 0001:000151f0       _PKCS7_add_signer          100161f0 f   libeay32_EM_dbg.0.9.8e:pk7_lib.obj
 0001:000153a0       _PKCS7_add_certificate     100163a0 f   libeay32_EM_dbg.0.9.8e:pk7_lib.obj
 0001:00015490       _PKCS7_SIGNER_INFO_set     10016490 f   libeay32_EM_dbg.0.9.8e:pk7_lib.obj
 0001:000156e0       _PKCS7_add_signature       100166e0 f   libeay32_EM_dbg.0.9.8e:pk7_lib.obj
 0001:00015750       _PKCS7_get_signer_info     10016750 f   libeay32_EM_dbg.0.9.8e:pk7_lib.obj
 0001:000157a0       _PKCS7_add_recipient       100167a0 f   libeay32_EM_dbg.0.9.8e:pk7_lib.obj
 0001:00015800       _PKCS7_add_recipient_info  10016800 f   libeay32_EM_dbg.0.9.8e:pk7_lib.obj
 0001:00015890       _PKCS7_RECIP_INFO_set      10016890 f   libeay32_EM_dbg.0.9.8e:pk7_lib.obj
 0001:00015980       _PKCS7_set_cipher          10016980 f   libeay32_EM_dbg.0.9.8e:pk7_lib.obj
 0001:00015a40       _PKCS7_dataInit            10016a40 f   libeay32_EM_dbg.0.9.8e:pk7_doit.obj
 0001:00016290       _PKCS7_dataDecode          10017290 f   libeay32_EM_dbg.0.9.8e:pk7_doit.obj
 0001:000169e0       _PKCS7_dataFinal           100179e0 f   libeay32_EM_dbg.0.9.8e:pk7_doit.obj
 0001:00017180       _PKCS7_signatureVerify     10018180 f   libeay32_EM_dbg.0.9.8e:pk7_doit.obj
 0001:000174d0       _PKCS7_get_signed_attribute 100184d0 f   libeay32_EM_dbg.0.9.8e:pk7_doit.obj
 0001:000175b0       _PKCS7_digest_from_attributes 100185b0 f   libeay32_EM_dbg.0.9.8e:pk7_doit.obj
 0001:000175f0       _PKCS7_add_signed_attribute 100185f0 f   libeay32_EM_dbg.0.9.8e:pk7_doit.obj
 0001:00017760       _PKCS12_MAC_DATA_it        10018760 f   libeay32_EM_dbg.0.9.8e:p12_asn.obj
 0001:00017780       _PKCS12_BAGS_it            10018780 f   libeay32_EM_dbg.0.9.8e:p12_asn.obj
 0001:000177a0       _PKCS12_SAFEBAG_it         100187a0 f   libeay32_EM_dbg.0.9.8e:p12_asn.obj
 0001:000177b0       _X509V3_get_section        100187b0 f   libeay32_EM_dbg.0.9.8e:v3_conf.obj
 0001:00017820       _X509V3_section_free       10018820 f   libeay32_EM_dbg.0.9.8e:v3_conf.obj
 0001:00017a20       _EVP_cast5_cbc             10018a20 f   libeay32_EM_dbg.0.9.8e:e_cast.obj
 0001:00017a30       _EVP_cast5_cfb64           10018a30 f   libeay32_EM_dbg.0.9.8e:e_cast.obj
 0001:00017a40       _EVP_cast5_ofb             10018a40 f   libeay32_EM_dbg.0.9.8e:e_cast.obj
 0001:00017a50       _EVP_cast5_ecb             10018a50 f   libeay32_EM_dbg.0.9.8e:e_cast.obj
 0001:00017a90       _sk_set_cmp_func           10018a90 f   libeay32_EM_dbg.0.9.8e:stack.obj
 0001:00017ad0       _sk_dup                    10018ad0 f   libeay32_EM_dbg.0.9.8e:stack.obj
 0001:00017ba0       _sk_new_null               10018ba0 f   libeay32_EM_dbg.0.9.8e:stack.obj
 0001:00017bb0       _sk_new                    10018bb0 f   libeay32_EM_dbg.0.9.8e:stack.obj
 0001:00017c70       _sk_insert                 10018c70 f   libeay32_EM_dbg.0.9.8e:stack.obj
 0001:00017d80       _sk_delete_ptr             10018d80 f   libeay32_EM_dbg.0.9.8e:stack.obj
 0001:00017de0       _sk_delete                 10018de0 f   libeay32_EM_dbg.0.9.8e:stack.obj
 0001:00017e80       _sk_find                   10018e80 f   libeay32_EM_dbg.0.9.8e:stack.obj
 0001:00017f60       _sk_push                   10018f60 f   libeay32_EM_dbg.0.9.8e:stack.obj
 0001:00017f80       _sk_shift                  10018f80 f   libeay32_EM_dbg.0.9.8e:stack.obj
 0001:00017fb0       _sk_pop                    10018fb0 f   libeay32_EM_dbg.0.9.8e:stack.obj
 0001:00017fe0       _sk_zero                   10018fe0 f   libeay32_EM_dbg.0.9.8e:stack.obj
 0001:00018020       _sk_pop_free               10019020 f   libeay32_EM_dbg.0.9.8e:stack.obj
 0001:00018090       _sk_free                   10019090 f   libeay32_EM_dbg.0.9.8e:stack.obj
 0001:000180d0       _sk_num                    100190d0 f   libeay32_EM_dbg.0.9.8e:stack.obj
 0001:000180f0       _sk_value                  100190f0 f   libeay32_EM_dbg.0.9.8e:stack.obj
 0001:00018120       _sk_set                    10019120 f   libeay32_EM_dbg.0.9.8e:stack.obj
 0001:00018160       _sk_sort                   10019160 f   libeay32_EM_dbg.0.9.8e:stack.obj
 0001:000181b0       _sk_is_sorted              100191b0 f   libeay32_EM_dbg.0.9.8e:stack.obj
 0001:000181d0       _BIO_new                   100191d0 f   libeay32_EM_dbg.0.9.8e:bio_lib.obj
 0001:00018250       _BIO_set                   10019250 f   libeay32_EM_dbg.0.9.8e:bio_lib.obj
 0001:00018330       _BIO_free                  10019330 f   libeay32_EM_dbg.0.9.8e:bio_lib.obj
 0001:00018410       _BIO_clear_flags           10019410 f   libeay32_EM_dbg.0.9.8e:bio_lib.obj
 0001:00018430       _BIO_test_flags            10019430 f   libeay32_EM_dbg.0.9.8e:bio_lib.obj
 0001:00018440       _BIO_set_flags             10019440 f   libeay32_EM_dbg.0.9.8e:bio_lib.obj
 0001:00018460       _BIO_set_callback          10019460 f   libeay32_EM_dbg.0.9.8e:bio_lib.obj
 0001:00018470       _BIO_set_callback_arg      10019470 f   libeay32_EM_dbg.0.9.8e:bio_lib.obj
 0001:00018480       _BIO_method_type           10019480 f   libeay32_EM_dbg.0.9.8e:bio_lib.obj
 0001:00018490       _BIO_read                  10019490 f   libeay32_EM_dbg.0.9.8e:bio_lib.obj
 0001:000185a0       _BIO_write                 100195a0 f   libeay32_EM_dbg.0.9.8e:bio_lib.obj
 0001:000186b0       _BIO_puts                  100196b0 f   libeay32_EM_dbg.0.9.8e:bio_lib.obj
 0001:000187b0       _BIO_gets                  100197b0 f   libeay32_EM_dbg.0.9.8e:bio_lib.obj
 0001:000188a0       _BIO_int_ctrl              100198a0 f   libeay32_EM_dbg.0.9.8e:bio_lib.obj
 0001:000188d0       _BIO_ctrl                  100198d0 f   libeay32_EM_dbg.0.9.8e:bio_lib.obj
 0001:000189b0       _BIO_callback_ctrl         100199b0 f   libeay32_EM_dbg.0.9.8e:bio_lib.obj
 0001:00018a80       _BIO_ctrl_pending          10019a80 f   libeay32_EM_dbg.0.9.8e:bio_lib.obj
 0001:00018aa0       _BIO_push                  10019aa0 f   libeay32_EM_dbg.0.9.8e:bio_lib.obj
 0001:00018b10       _BIO_pop                   10019b10 f   libeay32_EM_dbg.0.9.8e:bio_lib.obj
 0001:00018b90       _BIO_find_type             10019b90 f   libeay32_EM_dbg.0.9.8e:bio_lib.obj
 0001:00018c00       _BIO_next                  10019c00 f   libeay32_EM_dbg.0.9.8e:bio_lib.obj
 0001:00018c20       _BIO_free_all              10019c20 f   libeay32_EM_dbg.0.9.8e:bio_lib.obj
 0001:00018c70       _BIO_dup_chain             10019c70 f   libeay32_EM_dbg.0.9.8e:bio_lib.obj
 0001:00018da0       _BIO_copy_next_retry       10019da0 f   libeay32_EM_dbg.0.9.8e:bio_lib.obj
 0001:00018de0       _AUTHORITY_KEYID_it        10019de0 f   libeay32_EM_dbg.0.9.8e:v3_akeya.obj
 0001:00018df0       _AUTHORITY_KEYID_new       10019df0 f   libeay32_EM_dbg.0.9.8e:v3_akeya.obj
 0001:00018e10       _AUTHORITY_KEYID_free      10019e10 f   libeay32_EM_dbg.0.9.8e:v3_akeya.obj
 0001:00018e50       _X509V3_EXT_get_nid        10019e50 f   libeay32_EM_dbg.0.9.8e:v3_lib.obj
 0001:00018ef0       _X509V3_EXT_get            10019ef0 f   libeay32_EM_dbg.0.9.8e:v3_lib.obj
 0001:00018f30       _X509V3_EXT_d2i            10019f30 f   libeay32_EM_dbg.0.9.8e:v3_lib.obj
 0001:00018fb0       _X509V3_get_d2i            10019fb0 f   libeay32_EM_dbg.0.9.8e:v3_lib.obj
 0001:000190f0       _X509_get_ext_count        1001a0f0 f   libeay32_EM_dbg.0.9.8e:x509_ext.obj
 0001:00019110       _X509_get_ext_by_NID       1001a110 f   libeay32_EM_dbg.0.9.8e:x509_ext.obj
 0001:00019130       _X509_get_ext              1001a130 f   libeay32_EM_dbg.0.9.8e:x509_ext.obj
 0001:00019150       _X509_get_ext_d2i          1001a150 f   libeay32_EM_dbg.0.9.8e:x509_ext.obj
 0001:00019180       _X509_NAME_ENTRY_it        1001a180 f   libeay32_EM_dbg.0.9.8e:x_name.obj
 0001:00019190       _X509_NAME_ENTRY_new       1001a190 f   libeay32_EM_dbg.0.9.8e:x_name.obj
 0001:000191b0       _X509_NAME_ENTRY_free      1001a1b0 f   libeay32_EM_dbg.0.9.8e:x_name.obj
 0001:000191d0       _X509_NAME_ENTRY_dup       1001a1d0 f   libeay32_EM_dbg.0.9.8e:x_name.obj
 0001:000191f0       _X509_NAME_ENTRIES_it      1001a1f0 f   libeay32_EM_dbg.0.9.8e:x_name.obj
 0001:00019200       _X509_NAME_INTERNAL_it     1001a200 f   libeay32_EM_dbg.0.9.8e:x_name.obj
 0001:00019210       _X509_NAME_it              1001a210 f   libeay32_EM_dbg.0.9.8e:x_name.obj
 0001:00019220       _d2i_X509_NAME             1001a220 f   libeay32_EM_dbg.0.9.8e:x_name.obj
 0001:00019240       _i2d_X509_NAME             1001a240 f   libeay32_EM_dbg.0.9.8e:x_name.obj
 0001:00019260       _X509_NAME_new             1001a260 f   libeay32_EM_dbg.0.9.8e:x_name.obj
 0001:00019280       _X509_NAME_free            1001a280 f   libeay32_EM_dbg.0.9.8e:x_name.obj
 0001:000192a0       _X509_NAME_dup             1001a2a0 f   libeay32_EM_dbg.0.9.8e:x_name.obj
 0001:000197d0       _X509_NAME_set             1001a7d0 f   libeay32_EM_dbg.0.9.8e:x_name.obj
 0001:00019840       _PKCS7_add_attrib_smimecap 1001a840 f   libeay32_EM_dbg.0.9.8e:pk7_attr.obj
 0001:00019950       _PKCS7_simple_smimecap     1001a950 f   libeay32_EM_dbg.0.9.8e:pk7_attr.obj
 0001:00019a70       _X509_issuer_and_serial_cmp 1001aa70 f   libeay32_EM_dbg.0.9.8e:x509_cmp.obj
 0001:00019ad0       _X509_subject_name_cmp     1001aad0 f   libeay32_EM_dbg.0.9.8e:x509_cmp.obj
 0001:00019af0       _X509_CRL_cmp              1001aaf0 f   libeay32_EM_dbg.0.9.8e:x509_cmp.obj
 0001:00019b10       _EVP_CIPHER_CTX_iv_length  1001ab10 f   libeay32_EM_dbg.0.9.8e:evp_lib.obj
 0001:00019b10       _X509_get_issuer_name      1001ab10 f   libeay32_EM_dbg.0.9.8e:x509_cmp.obj
 0001:00019b20       _X509_get_subject_name     1001ab20 f   libeay32_EM_dbg.0.9.8e:x509_cmp.obj
 0001:00019b30       _EVP_CIPHER_CTX_block_size 1001ab30 f   libeay32_EM_dbg.0.9.8e:evp_lib.obj
 0001:00019b30       _X509_get_serialNumber     1001ab30 f   libeay32_EM_dbg.0.9.8e:x509_cmp.obj
 0001:00019b40       _X509_cmp                  1001ab40 f   libeay32_EM_dbg.0.9.8e:x509_cmp.obj
 0001:00019b80       _X509_NAME_cmp             1001ab80 f   libeay32_EM_dbg.0.9.8e:x509_cmp.obj
 0001:0001a0a0       _X509_NAME_hash            1001b0a0 f   libeay32_EM_dbg.0.9.8e:x509_cmp.obj
 0001:0001a130       _X509_find_by_issuer_and_serial 1001b130 f   libeay32_EM_dbg.0.9.8e:x509_cmp.obj
 0001:0001a1e0       _X509_get_pubkey           1001b1e0 f   libeay32_EM_dbg.0.9.8e:x509_cmp.obj
 0001:0001a210       _X509_check_private_key    1001b210 f   libeay32_EM_dbg.0.9.8e:x509_cmp.obj
 0001:0001a340       _X509_ALGOR_it             1001b340 f   libeay32_EM_dbg.0.9.8e:x_algor.obj
 0001:0001a350       _i2d_X509_ALGOR            1001b350 f   libeay32_EM_dbg.0.9.8e:x_algor.obj
 0001:0001a370       _X509_ALGOR_new            1001b370 f   libeay32_EM_dbg.0.9.8e:x_algor.obj
 0001:0001a390       _X509_ALGOR_free           1001b390 f   libeay32_EM_dbg.0.9.8e:x_algor.obj
 0001:0001a3b0       _X509_ALGOR_dup            1001b3b0 f   libeay32_EM_dbg.0.9.8e:x_algor.obj
 0001:0001a3d0       _BN_generate_prime         1001b3d0 f   libeay32_EM_dbg.0.9.8e:bn_depr.obj
 0001:0001a490       _ASN1_OCTET_STRING_cmp     1001b490 f   libeay32_EM_dbg.0.9.8e:a_octet.obj
 0001:0001a4b0       _ASN1_OCTET_STRING_set     1001b4b0 f   libeay32_EM_dbg.0.9.8e:a_octet.obj
 0001:0001a4d0       _X509_CINF_it              1001b4d0 f   libeay32_EM_dbg.0.9.8e:x_x509.obj
 0001:0001a620       _X509_it                   1001b620 f   libeay32_EM_dbg.0.9.8e:x_x509.obj
 0001:0001a630       _d2i_X509                  1001b630 f   libeay32_EM_dbg.0.9.8e:x_x509.obj
 0001:0001a650       _i2d_X509                  1001b650 f   libeay32_EM_dbg.0.9.8e:x_x509.obj
 0001:0001a670       _X509_new                  1001b670 f   libeay32_EM_dbg.0.9.8e:x_x509.obj
 0001:0001a690       _X509_free                 1001b690 f   libeay32_EM_dbg.0.9.8e:x_x509.obj
 0001:0001a6b0       _d2i_X509_AUX              1001b6b0 f   libeay32_EM_dbg.0.9.8e:x_x509.obj
 0001:0001a740       _X509_LOOKUP_new           1001b740 f   libeay32_EM_dbg.0.9.8e:x509_lu.obj
 0001:0001a7d0       _X509_LOOKUP_free          1001b7d0 f   libeay32_EM_dbg.0.9.8e:x509_lu.obj
 0001:0001a810       _X509_LOOKUP_shutdown      1001b810 f   libeay32_EM_dbg.0.9.8e:x509_lu.obj
 0001:0001a850       _X509_LOOKUP_ctrl          1001b850 f   libeay32_EM_dbg.0.9.8e:x509_lu.obj
 0001:0001a8a0       _X509_LOOKUP_by_subject    1001b8a0 f   libeay32_EM_dbg.0.9.8e:x509_lu.obj
 0001:0001a8f0       _X509_STORE_new            1001b8f0 f   libeay32_EM_dbg.0.9.8e:x509_lu.obj
 0001:0001aa70       _X509_STORE_free           1001ba70 f   libeay32_EM_dbg.0.9.8e:x509_lu.obj
 0001:0001ab90       _X509_STORE_add_lookup     1001bb90 f   libeay32_EM_dbg.0.9.8e:x509_lu.obj
 0001:0001ac50       _X509_STORE_get_by_subject 1001bc50 f   libeay32_EM_dbg.0.9.8e:x509_lu.obj
 0001:0001ad50       _X509_STORE_add_cert       1001bd50 f   libeay32_EM_dbg.0.9.8e:x509_lu.obj
 0001:0001ae70       _X509_STORE_add_crl        1001be70 f   libeay32_EM_dbg.0.9.8e:x509_lu.obj
 0001:0001af90       _X509_OBJECT_up_ref_count  1001bf90 f   libeay32_EM_dbg.0.9.8e:x509_lu.obj
 0001:0001b000       _X509_OBJECT_free_contents 1001c000 f   libeay32_EM_dbg.0.9.8e:x509_lu.obj
 0001:0001b050       _X509_OBJECT_idx_by_subject 1001c050 f   libeay32_EM_dbg.0.9.8e:x509_lu.obj
 0001:0001b0f0       _X509_OBJECT_retrieve_by_subject 1001c0f0 f   libeay32_EM_dbg.0.9.8e:x509_lu.obj
 0001:0001b140       _X509_OBJECT_retrieve_match 1001c140 f   libeay32_EM_dbg.0.9.8e:x509_lu.obj
 0001:0001b210       _X509_STORE_CTX_get1_issuer 1001c210 f   libeay32_EM_dbg.0.9.8e:x509_lu.obj
 0001:0001b6c0       _EVP_des_ede_cbc           1001c6c0 f   libeay32_EM_dbg.0.9.8e:e_des3.obj
 0001:0001b6d0       _EVP_des_ede_cfb64         1001c6d0 f   libeay32_EM_dbg.0.9.8e:e_des3.obj
 0001:0001b6e0       _EVP_des_ede_ofb           1001c6e0 f   libeay32_EM_dbg.0.9.8e:e_des3.obj
 0001:0001b6f0       _EVP_des_ede3_cbc          1001c6f0 f   libeay32_EM_dbg.0.9.8e:e_des3.obj
 0001:0001b700       _EVP_des_ede3_cfb64        1001c700 f   libeay32_EM_dbg.0.9.8e:e_des3.obj
 0001:0001b710       _EVP_des_ede3_ofb          1001c710 f   libeay32_EM_dbg.0.9.8e:e_des3.obj
 0001:0001b890       _EVP_des_ede               1001c890 f   libeay32_EM_dbg.0.9.8e:e_des3.obj
 0001:0001b8a0       _EVP_des_ede3              1001c8a0 f   libeay32_EM_dbg.0.9.8e:e_des3.obj
 0001:0001b8b0       _d2i_PKCS8PrivateKey_bio   1001c8b0 f   libeay32_EM_dbg.0.9.8e:pem_pk8.obj
 0001:0001ba20       _d2i_PKCS8PrivateKey_fp    1001ca20 f   libeay32_EM_dbg.0.9.8e:pem_pk8.obj
 0001:0001ba90       _ERR_load_crypto_strings   1001ca90 f   libeay32_EM_dbg.0.9.8e:err_all.obj
 0001:0001c1f0       _ERR_load_ERR_strings      1001d1f0 f   libeay32_EM_dbg.0.9.8e:err.obj
 0001:0001c3f0       _ERR_load_strings          1001d3f0 f   libeay32_EM_dbg.0.9.8e:err.obj
 0001:0001c410       _ERR_free_strings          1001d410 f   libeay32_EM_dbg.0.9.8e:err.obj
 0001:0001c430       _ERR_put_error             1001d430 f   libeay32_EM_dbg.0.9.8e:err.obj
 0001:0001c5a0       _ERR_clear_error           1001d5a0 f   libeay32_EM_dbg.0.9.8e:err.obj
 0001:0001c6a0       _ERR_get_error             1001d6a0 f   libeay32_EM_dbg.0.9.8e:err.obj
 0001:0001c6c0       _ERR_get_error_line_data   1001d6c0 f   libeay32_EM_dbg.0.9.8e:err.obj
 0001:0001c6f0       _ERR_peek_error            1001d6f0 f   libeay32_EM_dbg.0.9.8e:err.obj
 0001:0001c710       _ERR_peek_last_error       1001d710 f   libeay32_EM_dbg.0.9.8e:err.obj
 0001:0001c940       _ERR_error_string_n        1001d940 f   libeay32_EM_dbg.0.9.8e:err.obj
 0001:0001cb70       _ERR_error_string          1001db70 f   libeay32_EM_dbg.0.9.8e:err.obj
 0001:0001cba0       _ERR_lib_error_string      1001dba0 f   libeay32_EM_dbg.0.9.8e:err.obj
 0001:0001cc10       _ERR_func_error_string     1001dc10 f   libeay32_EM_dbg.0.9.8e:err.obj
 0001:0001cc90       _ERR_reason_error_string   1001dc90 f   libeay32_EM_dbg.0.9.8e:err.obj
 0001:0001cda0       _ERR_get_state             1001dda0 f   libeay32_EM_dbg.0.9.8e:err.obj
 0001:0001cf10       _ERR_set_error_data        1001df10 f   libeay32_EM_dbg.0.9.8e:err.obj
 0001:0001cfc0       _ERR_add_error_data        1001dfc0 f   libeay32_EM_dbg.0.9.8e:err.obj
 0001:0001d120       _EVP_sha                   1001e120 f   libeay32_EM_dbg.0.9.8e:m_sha.obj
 0001:0001d130       _PEM_read_bio_PrivateKey   1001e130 f   libeay32_EM_dbg.0.9.8e:pem_pkey.obj
 0001:0001d430       _PEM_read_PrivateKey       1001e430 f   libeay32_EM_dbg.0.9.8e:pem_pkey.obj
 0001:0001d4c0       _EVP_rc4                   1001e4c0 f   libeay32_EM_dbg.0.9.8e:e_rc4.obj
 0001:0001d4d0       _EVP_rc4_40                1001e4d0 f   libeay32_EM_dbg.0.9.8e:e_rc4.obj
 0001:0001d540       _EVP_add_cipher            1001e540 f   libeay32_EM_dbg.0.9.8e:names.obj
 0001:0001d5a0       _EVP_add_digest            1001e5a0 f   libeay32_EM_dbg.0.9.8e:names.obj
 0001:0001d670       _EVP_get_cipherbyname      1001e670 f   libeay32_EM_dbg.0.9.8e:names.obj
 0001:0001d6a0       _EVP_get_digestbyname      1001e6a0 f   libeay32_EM_dbg.0.9.8e:names.obj
 0001:0001d6d0       _EVP_cleanup               1001e6d0 f   libeay32_EM_dbg.0.9.8e:names.obj
 0001:0001d760       _EVP_md4                   1001e760 f   libeay32_EM_dbg.0.9.8e:m_md4.obj
 0001:0001d770       _X509_REQ_get_pubkey       1001e770 f   libeay32_EM_dbg.0.9.8e:x509_req.obj
 0001:0001d7a0       _X509_verify_cert          1001e7a0 f   libeay32_EM_dbg.0.9.8e:x509_vfy.obj
 0001:0001e600       _X509_cmp_time             1001f600 f   libeay32_EM_dbg.0.9.8e:x509_vfy.obj
 0001:0001e8d0       _X509_gmtime_adj           1001f8d0 f   libeay32_EM_dbg.0.9.8e:x509_vfy.obj
 0001:0001e8f0       _X509_time_adj             1001f8f0 f   libeay32_EM_dbg.0.9.8e:x509_vfy.obj
 0001:0001e9a0       _X509_get_pubkey_parameters 1001f9a0 f   libeay32_EM_dbg.0.9.8e:x509_vfy.obj
 0001:0001eb10       _X509_STORE_CTX_get_ex_new_index 1001fb10 f   libeay32_EM_dbg.0.9.8e:x509_vfy.obj
 0001:0001eb40       _X509_STORE_CTX_set_ex_data 1001fb40 f   libeay32_EM_dbg.0.9.8e:x509_vfy.obj
 0001:0001eb60       _X509_STORE_CTX_get_error  1001fb60 f   libeay32_EM_dbg.0.9.8e:x509_vfy.obj
 0001:0001eb70       _X509_STORE_CTX_set0_crls  1001fb70 f   libeay32_EM_dbg.0.9.8e:x509_vfy.obj
 0001:0001eb70       _BN_BLINDING_set_thread_id 1001fb70 f   libeay32_EM_dbg.0.9.8e:bn_blind.obj
 0001:0001eb80       _X509_STORE_CTX_set_purpose 1001fb80 f   libeay32_EM_dbg.0.9.8e:x509_vfy.obj
 0001:0001eba0       _X509_STORE_CTX_purpose_inherit 1001fba0 f   libeay32_EM_dbg.0.9.8e:x509_vfy.obj
 0001:0001ecf0       _X509_STORE_CTX_init       1001fcf0 f   libeay32_EM_dbg.0.9.8e:x509_vfy.obj
 0001:0001f990       _X509_STORE_CTX_cleanup    10020990 f   libeay32_EM_dbg.0.9.8e:x509_vfy.obj
 0001:0001fa40       _X509_VERIFY_PARAM_set_depth 10020a40 f   libeay32_EM_dbg.0.9.8e:x509_vpm.obj
 0001:0001fa40       _X509_STORE_CTX_set_verify_cb 10020a40 f   libeay32_EM_dbg.0.9.8e:x509_vfy.obj
 0001:0001fa50       _X509_STORE_CTX_set_default 10020a50 f   libeay32_EM_dbg.0.9.8e:x509_vfy.obj
 0001:0001fa90       _ENGINE_get_ECDH           10020a90 f   libeay32_EM_dbg.0.9.8e:tb_ecdh.obj
 0001:0001fa90       _X509_STORE_CTX_get0_param 10020a90 f   libeay32_EM_dbg.0.9.8e:x509_vfy.obj
 0001:0001faa0       _RAND_poll                 10020aa0 f   libeay32_EM_dbg.0.9.8e:rand_win.obj
 0001:00020450       _RAND_screen               10021450 f   libeay32_EM_dbg.0.9.8e:rand_win.obj
 0001:000206b0       _EVP_PKEY_bits             100216b0 f   libeay32_EM_dbg.0.9.8e:p_lib.obj
 0001:00020790       _EVP_PKEY_size             10021790 f   libeay32_EM_dbg.0.9.8e:p_lib.obj
 0001:00020800       _EVP_PKEY_copy_parameters  10021800 f   libeay32_EM_dbg.0.9.8e:p_lib.obj
 0001:000209b0       _EVP_PKEY_missing_parameters 100219b0 f   libeay32_EM_dbg.0.9.8e:p_lib.obj
 0001:00020a20       _EVP_PKEY_cmp_parameters   10021a20 f   libeay32_EM_dbg.0.9.8e:p_lib.obj
 0001:00020b10       _EVP_PKEY_cmp              10021b10 f   libeay32_EM_dbg.0.9.8e:p_lib.obj
 0001:00020c80       _EVP_PKEY_new              10021c80 f   libeay32_EM_dbg.0.9.8e:p_lib.obj
 0001:00020d00       _EVP_PKEY_assign           10021d00 f   libeay32_EM_dbg.0.9.8e:p_lib.obj
 0001:00020d50       _EVP_PKEY_get1_RSA         10021d50 f   libeay32_EM_dbg.0.9.8e:p_lib.obj
 0001:00020d90       _EVP_PKEY_type             10021d90 f   libeay32_EM_dbg.0.9.8e:p_lib.obj
 0001:00020e60       _EVP_PKEY_free             10021e60 f   libeay32_EM_dbg.0.9.8e:p_lib.obj
 0001:00021110       _EVP_rc5_32_12_16_cbc      10022110 f   libeay32_EM_dbg.0.9.8e:e_rc5.obj
 0001:00021120       _EVP_rc5_32_12_16_cfb64    10022120 f   libeay32_EM_dbg.0.9.8e:e_rc5.obj
 0001:00021130       _EVP_rc5_32_12_16_ofb      10022130 f   libeay32_EM_dbg.0.9.8e:e_rc5.obj
 0001:00021140       _EVP_rc5_32_12_16_ecb      10022140 f   libeay32_EM_dbg.0.9.8e:e_rc5.obj
 0001:00021280       _ASN1_const_check_infinite_end 10022280 f   libeay32_EM_dbg.0.9.8e:asn1_lib.obj
 0001:000212a0       _ASN1_get_object           100222a0 f   libeay32_EM_dbg.0.9.8e:asn1_lib.obj
 0001:00021580       _ASN1_put_object           10022580 f   libeay32_EM_dbg.0.9.8e:asn1_lib.obj
 0001:000216a0       _ASN1_put_eoc              100226a0 f   libeay32_EM_dbg.0.9.8e:asn1_lib.obj
 0001:000217b0       _ASN1_object_size          100227b0 f   libeay32_EM_dbg.0.9.8e:asn1_lib.obj
 0001:00021830       _asn1_GetSequence          10022830 f   libeay32_EM_dbg.0.9.8e:asn1_lib.obj
 0001:00021910       _ASN1_STRING_dup           10022910 f   libeay32_EM_dbg.0.9.8e:asn1_lib.obj
 0001:00021990       _ASN1_STRING_set           10022990 f   libeay32_EM_dbg.0.9.8e:asn1_lib.obj
 0001:00021aa0       _ASN1_STRING_new           10022aa0 f   libeay32_EM_dbg.0.9.8e:asn1_lib.obj
 0001:00021ab0       _ASN1_STRING_type_new      10022ab0 f   libeay32_EM_dbg.0.9.8e:asn1_lib.obj
 0001:00021b30       _ASN1_STRING_free          10022b30 f   libeay32_EM_dbg.0.9.8e:asn1_lib.obj
 0001:00021b70       _ASN1_STRING_cmp           10022b70 f   libeay32_EM_dbg.0.9.8e:asn1_lib.obj
 0001:00021bd0       _asn1_add_error            10022bd0 f   libeay32_EM_dbg.0.9.8e:asn1_lib.obj
 0001:00021c40       _PEM_read_bio_X509_CRL     10022c40 f   libeay32_EM_dbg.0.9.8e:pem_all.obj
 0001:00021cd0       _PEM_read_RSAPrivateKey    10022cd0 f   libeay32_EM_dbg.0.9.8e:pem_all.obj
 0001:000226c0       _CRYPTO_cleanup_all_ex_data 100236c0 f   libeay32_EM_dbg.0.9.8e:ex_data.obj
 0001:000226e0       _CRYPTO_get_ex_new_index   100236e0 f   libeay32_EM_dbg.0.9.8e:ex_data.obj
 0001:00022740       _CRYPTO_new_ex_data        10023740 f   libeay32_EM_dbg.0.9.8e:ex_data.obj
 0001:00022770       _CRYPTO_dup_ex_data        10023770 f   libeay32_EM_dbg.0.9.8e:ex_data.obj
 0001:000227a0       _CRYPTO_free_ex_data       100237a0 f   libeay32_EM_dbg.0.9.8e:ex_data.obj
 0001:000227d0       _CRYPTO_set_ex_data        100237d0 f   libeay32_EM_dbg.0.9.8e:ex_data.obj
 0001:00022890       _CRYPTO_get_ex_data        10023890 f   libeay32_EM_dbg.0.9.8e:ex_data.obj
 0001:000228d0       _a2d_ASN1_OBJECT           100238d0 f   libeay32_EM_dbg.0.9.8e:a_object.obj
 0001:00022d10       _i2t_ASN1_OBJECT           10023d10 f   libeay32_EM_dbg.0.9.8e:a_object.obj
 0001:00022d30       _i2a_ASN1_OBJECT           10023d30 f   libeay32_EM_dbg.0.9.8e:a_object.obj
 0001:00022e30       _d2i_ASN1_OBJECT           10023e30 f   libeay32_EM_dbg.0.9.8e:a_object.obj
 0001:00022f00       _c2i_ASN1_OBJECT           10023f00 f   libeay32_EM_dbg.0.9.8e:a_object.obj
 0001:00023070       _ASN1_OBJECT_new           10024070 f   libeay32_EM_dbg.0.9.8e:a_object.obj
 0001:00023100       _ASN1_OBJECT_free          10024100 f   libeay32_EM_dbg.0.9.8e:a_object.obj
 0001:000231b0       _ASN1_item_i2d             100241b0 f   libeay32_EM_dbg.0.9.8e:tasn_enc.obj
 0001:00023280       _ASN1_item_ex_i2d          10024280 f   libeay32_EM_dbg.0.9.8e:tasn_enc.obj
 0001:00023e00       _asn1_ex_i2c               10024e00 f   libeay32_EM_dbg.0.9.8e:tasn_enc.obj
 0001:00024090       _BIO_s_mem                 10025090 f   libeay32_EM_dbg.0.9.8e:bss_mem.obj
 0001:000240a0       _BIO_new_mem_buf           100250a0 f   libeay32_EM_dbg.0.9.8e:bss_mem.obj
 0001:000247b0       _CRYPTO_free_locked        100257b0 f   libeay32_EM_dbg.0.9.8e:mem.obj
 0001:000247f0       _CRYPTO_malloc             100257f0 f   libeay32_EM_dbg.0.9.8e:mem.obj
 0001:000248b0       _CRYPTO_realloc            100258b0 f   libeay32_EM_dbg.0.9.8e:mem.obj
 0001:00024960       _CRYPTO_realloc_clean      10025960 f   libeay32_EM_dbg.0.9.8e:mem.obj
 0001:00024a50       _CRYPTO_free               10025a50 f   libeay32_EM_dbg.0.9.8e:mem.obj
 0001:00024a90       _ERR_print_errors_cb       10025a90 f   libeay32_EM_dbg.0.9.8e:err_prn.obj
 0001:00024b90       _ERR_print_errors_fp       10025b90 f   libeay32_EM_dbg.0.9.8e:err_prn.obj
 0001:00024c40       _EVP_md5                   10025c40 f   libeay32_EM_dbg.0.9.8e:m_md5.obj
 0001:00024d90       _EVP_bf_cbc                10025d90 f   libeay32_EM_dbg.0.9.8e:e_bf.obj
 0001:00024da0       _EVP_bf_cfb64              10025da0 f   libeay32_EM_dbg.0.9.8e:e_bf.obj
 0001:00024db0       _EVP_bf_ofb                10025db0 f   libeay32_EM_dbg.0.9.8e:e_bf.obj
 0001:00024dc0       _EVP_bf_ecb                10025dc0 f   libeay32_EM_dbg.0.9.8e:e_bf.obj
 0001:00024e00       _ASN1_INTEGER_cmp          10025e00 f   libeay32_EM_dbg.0.9.8e:a_int.obj
 0001:00024e70       _i2c_ASN1_INTEGER          10025e70 f   libeay32_EM_dbg.0.9.8e:a_int.obj
 0001:000250a0       _c2i_ASN1_INTEGER          100260a0 f   libeay32_EM_dbg.0.9.8e:a_int.obj
 0001:00025330       _ASN1_INTEGER_set          10026330 f   libeay32_EM_dbg.0.9.8e:a_int.obj
 0001:00025490       _ASN1_INTEGER_get          10026490 f   libeay32_EM_dbg.0.9.8e:a_int.obj
 0001:00025550       _BN_to_ASN1_INTEGER        10026550 f   libeay32_EM_dbg.0.9.8e:a_int.obj
 0001:000256a0       _ASN1_INTEGER_to_BN        100266a0 f   libeay32_EM_dbg.0.9.8e:a_int.obj
 0001:00025770       _EVP_md2                   10026770 f   libeay32_EM_dbg.0.9.8e:m_md2.obj
 0001:00025780       _SMIME_crlf_copy           10026780 f   libeay32_EM_dbg.0.9.8e:pk7_mime.obj
 0001:00025890       _SMIME_text                10026890 f   libeay32_EM_dbg.0.9.8e:pk7_mime.obj
 0001:00026260       _ASN1_mbstring_copy        10027260 f   libeay32_EM_dbg.0.9.8e:a_mbstr.obj
 0001:00026290       _ASN1_mbstring_ncopy       10027290 f   libeay32_EM_dbg.0.9.8e:a_mbstr.obj
 0001:00026c60       _EVP_ripemd160             10027c60 f   libeay32_EM_dbg.0.9.8e:m_ripemd.obj
 0001:00026cd0       _EVP_mdc2                  10027cd0 f   libeay32_EM_dbg.0.9.8e:m_mdc2.obj
 0001:00026ce0       _BIO_CONNECT_new           10027ce0 f   libeay32_EM_dbg.0.9.8e:bss_conn.obj
 0001:00026d80       _BIO_CONNECT_free          10027d80 f   libeay32_EM_dbg.0.9.8e:bss_conn.obj
 0001:00026dd0       _BIO_s_connect             10027dd0 f   libeay32_EM_dbg.0.9.8e:bss_conn.obj
 0001:00027ae0       _BIO_new_connect           10028ae0 f   libeay32_EM_dbg.0.9.8e:bss_conn.obj
 0001:00027b40       _BIO_s_socket              10028b40 f   libeay32_EM_dbg.0.9.8e:bss_sock.obj
 0001:00027b50       _BIO_new_socket            10028b50 f   libeay32_EM_dbg.0.9.8e:bss_sock.obj
 0001:00027ee0       _BIO_sock_should_retry     10028ee0 f   libeay32_EM_dbg.0.9.8e:bss_sock.obj
 0001:00027f20       _BIO_sock_non_fatal_error  10028f20 f   libeay32_EM_dbg.0.9.8e:bss_sock.obj
 0001:00027fd0       _BIO_ACCEPT_new            10028fd0 f   libeay32_EM_dbg.0.9.8e:bss_acpt.obj
 0001:00028030       _BIO_ACCEPT_free           10029030 f   libeay32_EM_dbg.0.9.8e:bss_acpt.obj
 0001:00028850       _EVP_CIPHER_param_to_asn1  10029850 f   libeay32_EM_dbg.0.9.8e:evp_lib.obj
 0001:00028890       _EVP_CIPHER_asn1_to_param  10029890 f   libeay32_EM_dbg.0.9.8e:evp_lib.obj
 0001:000288d0       _EVP_CIPHER_get_asn1_iv    100298d0 f   libeay32_EM_dbg.0.9.8e:evp_lib.obj
 0001:00028980       _EVP_CIPHER_set_asn1_iv    10029980 f   libeay32_EM_dbg.0.9.8e:evp_lib.obj
 0001:00028a00       _EVP_CIPHER_type           10029a00 f   libeay32_EM_dbg.0.9.8e:evp_lib.obj
 0001:00028ca0       _EVP_Cipher                10029ca0 f   libeay32_EM_dbg.0.9.8e:evp_lib.obj
 0001:00028cd0       _EVP_CIPHER_CTX_flags      10029cd0 f   libeay32_EM_dbg.0.9.8e:evp_lib.obj
 0001:00028ce0       _EVP_CIPHER_CTX_key_length 10029ce0 f   libeay32_EM_dbg.0.9.8e:evp_lib.obj
 0001:00028cf0       _EVP_MD_block_size         10029cf0 f   libeay32_EM_dbg.0.9.8e:evp_lib.obj
 0001:00028d00       _BIO_get_callback          10029d00 f   libeay32_EM_dbg.0.9.8e:bio_lib.obj
 0001:00028d00       _EC_KEY_get0_group         10029d00 f   libeay32_EM_dbg.0.9.8e:ec_key.obj
 0001:00028d00       _EVP_CIPHER_block_size     10029d00 f   libeay32_EM_dbg.0.9.8e:evp_lib.obj
 0001:00028d00       _EVP_MD_pkey_type          10029d00 f   libeay32_EM_dbg.0.9.8e:evp_lib.obj
 0001:00028d00       _EC_GROUP_get0_generator   10029d00 f   libeay32_EM_dbg.0.9.8e:ec_lib.obj
 0001:00028d10       _EVP_MD_size               10029d10 f   libeay32_EM_dbg.0.9.8e:evp_lib.obj
 0001:00028d10       _ENGINE_get_RSA            10029d10 f   libeay32_EM_dbg.0.9.8e:tb_rsa.obj
 0001:00028d10       _EC_KEY_get0_public_key    10029d10 f   libeay32_EM_dbg.0.9.8e:ec_key.obj
 0001:00028d10       _EVP_CIPHER_key_length     10029d10 f   libeay32_EM_dbg.0.9.8e:evp_lib.obj
 0001:00028d10       _BIO_get_callback_arg      10029d10 f   libeay32_EM_dbg.0.9.8e:bio_lib.obj
 0001:00028d20       _EVP_MD_CTX_set_flags      10029d20 f   libeay32_EM_dbg.0.9.8e:evp_lib.obj
 0001:00028d40       _EVP_MD_CTX_clear_flags    10029d40 f   libeay32_EM_dbg.0.9.8e:evp_lib.obj
 0001:00028d60       _EVP_MD_CTX_test_flags     10029d60 f   libeay32_EM_dbg.0.9.8e:evp_lib.obj
 0001:00028d70       _X509_verify_cert_error_string 10029d70 f   libeay32_EM_dbg.0.9.8e:x509_txt.obj
 0001:00029020       _OPENSSL_cleanse           1002a020 f   libeay32_EM_dbg.0.9.8e:mem_clr.obj
 0001:000290b0       _BIO_f_cipher              1002a0b0 f   libeay32_EM_dbg.0.9.8e:bio_enc.obj
 0001:00029980       _BIO_f_buffer              1002a980 f   libeay32_EM_dbg.0.9.8e:bf_buff.obj
 0001:0002a6f0       _EVP_PKEY_decrypt          1002b6f0 f   libeay32_EM_dbg.0.9.8e:p_dec.obj
 0001:0002a750       _BIO_f_md                  1002b750 f   libeay32_EM_dbg.0.9.8e:bio_md.obj
 0001:0002ac10       _RSA_PKCS1_SSLeay          1002bc10 f   libeay32_EM_dbg.0.9.8e:rsa_eay.obj
 0001:0002c560       _engine_unlocked_init      1002d560 f   libeay32_EM_dbg.0.9.8e:eng_init.obj
 0001:0002c5d0       _engine_unlocked_finish    1002d5d0 f   libeay32_EM_dbg.0.9.8e:eng_init.obj
 0001:0002c690       _ENGINE_init               1002d690 f   libeay32_EM_dbg.0.9.8e:eng_init.obj
 0001:0002c700       _ENGINE_finish             1002d700 f   libeay32_EM_dbg.0.9.8e:eng_init.obj
 0001:0002c7a0       _ENGINE_get_default_RSA    1002d7a0 f   libeay32_EM_dbg.0.9.8e:tb_rsa.obj
 0001:0002c7c0       _BN_BLINDING_new           1002d7c0 f   libeay32_EM_dbg.0.9.8e:bn_blind.obj
 0001:0002c8a0       _BN_BLINDING_free          1002d8a0 f   libeay32_EM_dbg.0.9.8e:bn_blind.obj
 0001:0002c900       _BN_BLINDING_update        1002d900 f   libeay32_EM_dbg.0.9.8e:bn_blind.obj
 0001:0002ca20       _BN_BLINDING_convert_ex    1002da20 f   libeay32_EM_dbg.0.9.8e:bn_blind.obj
 0001:0002cac0       _BN_BLINDING_invert_ex     1002dac0 f   libeay32_EM_dbg.0.9.8e:bn_blind.obj
 0001:0002cb70       _SSL_get_wbio              1002db70 f   ssleay32_EM_dbg.0.9.8e:ssl_lib.obj
 0001:0002cb70       _BN_BLINDING_get_thread_id 1002db70 f   libeay32_EM_dbg.0.9.8e:bn_blind.obj
 0001:0002cb70       _ENGINE_get_DH             1002db70 f   libeay32_EM_dbg.0.9.8e:tb_dh.obj
 0001:0002cb80       _BN_BLINDING_create_param  1002db80 f   libeay32_EM_dbg.0.9.8e:bn_blind.obj
 0001:0002cdb0       _CRYPTO_destroy_dynlockid  1002ddb0 f   libeay32_EM_dbg.0.9.8e:cryptlib.obj
 0001:0002ced0       _CRYPTO_get_dynlock_value  1002ded0 f   libeay32_EM_dbg.0.9.8e:cryptlib.obj
 0001:0002cf80       _CRYPTO_thread_id          1002df80 f   libeay32_EM_dbg.0.9.8e:cryptlib.obj
 0001:0002cfc0       _CRYPTO_lock               1002dfc0 f   libeay32_EM_dbg.0.9.8e:cryptlib.obj
 0001:0002d070       _CRYPTO_add_lock           1002e070 f   libeay32_EM_dbg.0.9.8e:cryptlib.obj
 0001:0002d100       _OPENSSL_cpuid_setup       1002e100 f   libeay32_EM_dbg.0.9.8e:cryptlib.obj
 0001:0002d110       _OPENSSL_isservice         1002e110 f   libeay32_EM_dbg.0.9.8e:cryptlib.obj
 0001:0002d220       _OPENSSL_showfatal         1002e220 f   libeay32_EM_dbg.0.9.8e:cryptlib.obj
 0001:0002d5b0       _OpenSSLDie                1002e5b0 f   libeay32_EM_dbg.0.9.8e:cryptlib.obj
 0001:0002d5e0       _BN_CTX_new                1002e5e0 f   libeay32_EM_dbg.0.9.8e:bn_ctx.obj
 0001:0002d670       _BN_CTX_free               1002e670 f   libeay32_EM_dbg.0.9.8e:bn_ctx.obj
 0001:0002d6b0       _BN_CTX_start              1002e6b0 f   libeay32_EM_dbg.0.9.8e:bn_ctx.obj
 0001:0002d720       _BN_CTX_end                1002e720 f   libeay32_EM_dbg.0.9.8e:bn_ctx.obj
 0001:0002d7a0       _BN_CTX_get                1002e7a0 f   libeay32_EM_dbg.0.9.8e:bn_ctx.obj
 0001:0002dc70       _BN_mod_inverse            1002ec70 f   libeay32_EM_dbg.0.9.8e:bn_gcd.obj
 0001:0002e3e0       _bn_sub_part_words         1002f3e0 f   libeay32_EM_dbg.0.9.8e:bn_mul.obj
 0001:0002e750       _bn_mul_recursive          1002f750 f   libeay32_EM_dbg.0.9.8e:bn_mul.obj
 0001:0002ed10       _bn_mul_part_recursive     1002fd10 f   libeay32_EM_dbg.0.9.8e:bn_mul.obj
 0001:0002f370       _BN_mul                    10030370 f   libeay32_EM_dbg.0.9.8e:bn_mul.obj
 0001:0002f720       _bn_mul_normal             10030720 f   libeay32_EM_dbg.0.9.8e:bn_mul.obj
 0001:0002f8b0       _BN_add                    100308b0 f   libeay32_EM_dbg.0.9.8e:bn_add.obj
 0001:0002f980       _BN_uadd                   10030980 f   libeay32_EM_dbg.0.9.8e:bn_add.obj
 0001:0002fb20       _BN_usub                   10030b20 f   libeay32_EM_dbg.0.9.8e:bn_add.obj
 0001:0002fda0       _BN_sub                    10030da0 f   libeay32_EM_dbg.0.9.8e:bn_add.obj
 0001:0002ff10       _PEM_ASN1_read_bio         10030f10 f   libeay32_EM_dbg.0.9.8e:pem_oth.obj
 0001:0002ffb0       _PEM_def_callback          10030fb0 f   libeay32_EM_dbg.0.9.8e:pem_lib.obj
 0001:000300b0       _PEM_ASN1_read             100310b0 f   libeay32_EM_dbg.0.9.8e:pem_lib.obj
 0001:00030140       _PEM_bytes_read_bio        10031140 f   libeay32_EM_dbg.0.9.8e:pem_lib.obj
 0001:000304d0       _PEM_do_header             100314d0 f   libeay32_EM_dbg.0.9.8e:pem_lib.obj
 0001:000306b0       _PEM_get_EVP_CIPHER_INFO   100316b0 f   libeay32_EM_dbg.0.9.8e:pem_lib.obj
 0001:00030a50       _PEM_read_bio              10031a50 f   libeay32_EM_dbg.0.9.8e:pem_lib.obj
 0001:00031190       _BIO_printf                10032190 f   libeay32_EM_dbg.0.9.8e:b_print.obj
 0001:000311d0       _BIO_vprintf               100321d0 f   libeay32_EM_dbg.0.9.8e:b_print.obj
 0001:000325e0       _BIO_snprintf              100335e0 f   libeay32_EM_dbg.0.9.8e:b_print.obj
 0001:00032620       _BIO_vsnprintf             10033620 f   libeay32_EM_dbg.0.9.8e:b_print.obj
 0001:00032680       _BN_mod_word               10033680 f   libeay32_EM_dbg.0.9.8e:bn_word.obj
 0001:00032710       _BN_div_word               10033710 f   libeay32_EM_dbg.0.9.8e:bn_word.obj
 0001:00032830       _BN_add_word               10033830 f   libeay32_EM_dbg.0.9.8e:bn_word.obj
 0001:00032990       _BN_sub_word               10033990 f   libeay32_EM_dbg.0.9.8e:bn_word.obj
 0001:00032af0       _BN_mul_word               10033af0 f   libeay32_EM_dbg.0.9.8e:bn_word.obj
 0001:00032bc0       _ASN1_TYPE_get             10033bc0 f   libeay32_EM_dbg.0.9.8e:a_type.obj
 0001:00032bf0       _ASN1_TYPE_set             10033bf0 f   libeay32_EM_dbg.0.9.8e:a_type.obj
 0001:00032c30       _DES_set_odd_parity        10033c30 f   libeay32_EM_dbg.0.9.8e:set_key.obj
 0001:00032c80       _DES_set_key_unchecked     10033c80 f   libeay32_EM_dbg.0.9.8e:set_key.obj
 0001:00033020       _DES_xcbc_encrypt          10034020 f   libeay32_EM_dbg.0.9.8e:xcbc_enc.obj
 0001:00033d30       _ENGINE_get_cipher_engine  10034d30 f   libeay32_EM_dbg.0.9.8e:tb_cipher.obj
 0001:00033d50       _ENGINE_get_cipher         10034d50 f   libeay32_EM_dbg.0.9.8e:tb_cipher.obj
 0001:00033db0       _ENGINE_get_ciphers        10034db0 f   libeay32_EM_dbg.0.9.8e:tb_cipher.obj
 0001:00033dc0       _ASN1_INTEGER_it           10034dc0 f   libeay32_EM_dbg.0.9.8e:tasn_typ.obj
 0001:00033dd0       _d2i_ASN1_INTEGER          10034dd0 f   libeay32_EM_dbg.0.9.8e:tasn_typ.obj
 0001:00033df0       _i2d_ASN1_INTEGER          10034df0 f   libeay32_EM_dbg.0.9.8e:tasn_typ.obj
 0001:00033e10       _ASN1_INTEGER_new          10034e10 f   libeay32_EM_dbg.0.9.8e:tasn_typ.obj
 0001:00033e30       _ASN1_INTEGER_free         10034e30 f   libeay32_EM_dbg.0.9.8e:tasn_typ.obj
 0001:00033e50       _ASN1_ENUMERATED_it        10034e50 f   libeay32_EM_dbg.0.9.8e:tasn_typ.obj
 0001:00033e60       _ASN1_BIT_STRING_it        10034e60 f   libeay32_EM_dbg.0.9.8e:tasn_typ.obj
 0001:00033e70       _i2d_ASN1_BIT_STRING       10034e70 f   libeay32_EM_dbg.0.9.8e:tasn_typ.obj
 0001:00033e90       _ASN1_BIT_STRING_free      10034e90 f   libeay32_EM_dbg.0.9.8e:tasn_typ.obj
 0001:00033eb0       _ASN1_OCTET_STRING_it      10034eb0 f   libeay32_EM_dbg.0.9.8e:tasn_typ.obj
 0001:00033ec0       _d2i_ASN1_OCTET_STRING     10034ec0 f   libeay32_EM_dbg.0.9.8e:tasn_typ.obj
 0001:00033ee0       _i2d_ASN1_OCTET_STRING     10034ee0 f   libeay32_EM_dbg.0.9.8e:tasn_typ.obj
 0001:00033f00       _ASN1_OCTET_STRING_new     10034f00 f   libeay32_EM_dbg.0.9.8e:tasn_typ.obj
 0001:00033f20       _ASN1_OCTET_STRING_free    10034f20 f   libeay32_EM_dbg.0.9.8e:tasn_typ.obj
 0001:00033f40       _ASN1_NULL_it              10034f40 f   libeay32_EM_dbg.0.9.8e:tasn_typ.obj
 0001:00033f50       _ASN1_NULL_new             10034f50 f   libeay32_EM_dbg.0.9.8e:tasn_typ.obj
 0001:00033f70       _ASN1_OBJECT_it            10034f70 f   libeay32_EM_dbg.0.9.8e:tasn_typ.obj
 0001:00033f80       _ASN1_UTF8STRING_it        10034f80 f   libeay32_EM_dbg.0.9.8e:tasn_typ.obj
 0001:00033f90       _ASN1_IA5STRING_it         10034f90 f   libeay32_EM_dbg.0.9.8e:tasn_typ.obj
 0001:00033fa0       _ASN1_GENERALIZEDTIME_it   10034fa0 f   libeay32_EM_dbg.0.9.8e:tasn_typ.obj
 0001:00033fb0       _ASN1_ANY_it               10034fb0 f   libeay32_EM_dbg.0.9.8e:tasn_typ.obj
 0001:00033fc0       _ASN1_SEQUENCE_it          10034fc0 f   libeay32_EM_dbg.0.9.8e:tasn_typ.obj
 0001:00033fd0       _d2i_ASN1_TYPE             10034fd0 f   libeay32_EM_dbg.0.9.8e:tasn_typ.obj
 0001:00033ff0       _i2d_ASN1_TYPE             10034ff0 f   libeay32_EM_dbg.0.9.8e:tasn_typ.obj
 0001:00034010       _ASN1_TYPE_new             10035010 f   libeay32_EM_dbg.0.9.8e:tasn_typ.obj
 0001:00034030       _ASN1_TYPE_free            10035030 f   libeay32_EM_dbg.0.9.8e:tasn_typ.obj
 0001:00034050       _ASN1_PRINTABLE_it         10035050 f   libeay32_EM_dbg.0.9.8e:tasn_typ.obj
 0001:00034060       _DISPLAYTEXT_it            10035060 f   libeay32_EM_dbg.0.9.8e:tasn_typ.obj
 0001:00034070       _DIRECTORYSTRING_it        10035070 f   libeay32_EM_dbg.0.9.8e:tasn_typ.obj
 0001:00034080       _ASN1_BOOLEAN_it           10035080 f   libeay32_EM_dbg.0.9.8e:tasn_typ.obj
 0001:00034090       _ASN1_FBOOLEAN_it          10035090 f   libeay32_EM_dbg.0.9.8e:tasn_typ.obj
 0001:000340a0       _ASN1_OCTET_STRING_NDEF_it 100350a0 f   libeay32_EM_dbg.0.9.8e:tasn_typ.obj
 0001:000340b0       _X509_ATTRIBUTE_SET_it     100350b0 f   libeay32_EM_dbg.0.9.8e:x_attrib.obj
 0001:000340c0       _X509_ATTRIBUTE_it         100350c0 f   libeay32_EM_dbg.0.9.8e:x_attrib.obj
 0001:000340d0       _X509_ATTRIBUTE_new        100350d0 f   libeay32_EM_dbg.0.9.8e:x_attrib.obj
 0001:000340f0       _X509_ATTRIBUTE_free       100350f0 f   libeay32_EM_dbg.0.9.8e:x_attrib.obj
 0001:00034110       _X509_ATTRIBUTE_create     10035110 f   libeay32_EM_dbg.0.9.8e:x_attrib.obj
 0001:00034220       _X509_PUBKEY_it            10035220 f   libeay32_EM_dbg.0.9.8e:x_pubkey.obj
 0001:00034230       _X509_PUBKEY_get           10035230 f   libeay32_EM_dbg.0.9.8e:x_pubkey.obj
 0001:000345a0       _ASN1_tag2bit              100355a0 f   libeay32_EM_dbg.0.9.8e:tasn_dec.obj
 0001:000345c0       _ASN1_item_d2i             100355c0 f   libeay32_EM_dbg.0.9.8e:tasn_dec.obj
 0001:00034620       _ASN1_item_ex_d2i          10035620 f   libeay32_EM_dbg.0.9.8e:tasn_dec.obj
 0001:00035870       _asn1_ex_c2i               10036870 f   libeay32_EM_dbg.0.9.8e:tasn_dec.obj
 0001:00036160       _ASN1_item_new             10037160 f   libeay32_EM_dbg.0.9.8e:tasn_new.obj
 0001:000361a0       _ASN1_item_ex_new          100371a0 f   libeay32_EM_dbg.0.9.8e:tasn_new.obj
 0001:00036530       _ASN1_template_new         10037530 f   libeay32_EM_dbg.0.9.8e:tasn_new.obj
 0001:00036710       _ASN1_primitive_new        10037710 f   libeay32_EM_dbg.0.9.8e:tasn_new.obj
 0001:00036880       _asn1_primitive_clear      10037880 f   libeay32_EM_dbg.0.9.8e:tasn_new.obj
 0001:00036920       _ASN1_item_free            10037920 f   libeay32_EM_dbg.0.9.8e:tasn_fre.obj
 0001:00036940       _ASN1_item_ex_free         10037940 f   libeay32_EM_dbg.0.9.8e:tasn_fre.obj
 0001:00036c70       _ASN1_template_free        10037c70 f   libeay32_EM_dbg.0.9.8e:tasn_fre.obj
 0001:00036d20       _ASN1_primitive_free       10037d20 f   libeay32_EM_dbg.0.9.8e:tasn_fre.obj
 0001:00036e90       _ASN1_dup                  10037e90 f   libeay32_EM_dbg.0.9.8e:a_dup.obj
 0001:00036f40       _ASN1_item_dup             10037f40 f   libeay32_EM_dbg.0.9.8e:a_dup.obj
 0001:00036fd0       _idea_ecb_encrypt          10037fd0 f   libeay32_EM_dbg.0.9.8e:i_ecb.obj
 0001:000371a0       _idea_cbc_encrypt          100381a0 f   libeay32_EM_dbg.0.9.8e:i_cbc.obj
 0001:00037ce0       _idea_encrypt              10038ce0 f   libeay32_EM_dbg.0.9.8e:i_cbc.obj
 0001:00038ca0       _idea_ofb64_encrypt        10039ca0 f   libeay32_EM_dbg.0.9.8e:i_ofb64.obj
 0001:000390c0       _idea_cfb64_encrypt        1003a0c0 f   libeay32_EM_dbg.0.9.8e:i_cfb64.obj
 0001:00039560       _idea_set_encrypt_key      1003a560 f   libeay32_EM_dbg.0.9.8e:i_skey.obj
 0001:000398b0       _idea_set_decrypt_key      1003a8b0 f   libeay32_EM_dbg.0.9.8e:i_skey.obj
 0001:00039aa0       _ENGINE_get_digest_engine  1003aaa0 f   libeay32_EM_dbg.0.9.8e:tb_digest.obj
 0001:00039ac0       _ENGINE_get_digest         1003aac0 f   libeay32_EM_dbg.0.9.8e:tb_digest.obj
 0001:00039b20       _ENGINE_get_digests        1003ab20 f   libeay32_EM_dbg.0.9.8e:tb_digest.obj
 0001:00039b30       _X509_CERT_AUX_it          1003ab30 f   libeay32_EM_dbg.0.9.8e:x_x509a.obj
 0001:00039b40       _d2i_X509_CERT_AUX         1003ab40 f   libeay32_EM_dbg.0.9.8e:x_x509a.obj
 0001:00039b60       _X509_CERT_AUX_free        1003ab60 f   libeay32_EM_dbg.0.9.8e:x_x509a.obj
 0001:00039b80       _X509_NAME_print_ex        1003ab80 f   libeay32_EM_dbg.0.9.8e:a_strex.obj
 0001:0003a960       _PKCS8_PRIV_KEY_INFO_it    1003b960 f   libeay32_EM_dbg.0.9.8e:p8_pkey.obj
 0001:0003a970       _d2i_PKCS8_PRIV_KEY_INFO   1003b970 f   libeay32_EM_dbg.0.9.8e:p8_pkey.obj
 0001:0003a990       _PKCS8_PRIV_KEY_INFO_free  1003b990 f   libeay32_EM_dbg.0.9.8e:p8_pkey.obj
 0001:0003a9b0       _EVP_PKCS82PKEY            1003b9b0 f   libeay32_EM_dbg.0.9.8e:evp_pkey.obj
 0001:0003b2f0       _OpenSSL_add_all_digests   1003c2f0 f   libeay32_EM_dbg.0.9.8e:c_alld.obj
 0001:0003b490       _OpenSSL_add_all_ciphers   1003c490 f   libeay32_EM_dbg.0.9.8e:c_allc.obj
 0001:0003bb90       _SHA1_Update               1003cb90 f   libeay32_EM_dbg.0.9.8e:sha1dgst.obj
 0001:0003c1b0       _SHA1_Final                1003d1b0 f   libeay32_EM_dbg.0.9.8e:sha1dgst.obj
 0001:0003c550       _RIPEMD160_Init            1003d550 f   libeay32_EM_dbg.0.9.8e:rmd_dgst.obj
 0001:0003c550       _SHA1_Init                 1003d550 f   libeay32_EM_dbg.0.9.8e:sha1dgst.obj
 0001:0003c550       _SHA_Init                  1003d550 f   libeay32_EM_dbg.0.9.8e:sha_dgst.obj
 0001:0003c5b0       _SHA224_Init               1003d5b0 f   libeay32_EM_dbg.0.9.8e:sha256.obj
 0001:0003c640       _SHA256_Init               1003d640 f   libeay32_EM_dbg.0.9.8e:sha256.obj
 0001:0003c6d0       _SHA256_Update             1003d6d0 f   libeay32_EM_dbg.0.9.8e:sha256.obj
 0001:0003ccb0       _SHA256_Final              1003dcb0 f   libeay32_EM_dbg.0.9.8e:sha256.obj
 0001:0003d020       _sha256_block_host_order   1003e020 f   libeay32_EM_dbg.0.9.8e:sha256.obj
 0001:0003fb20       _sha256_block_data_order   10040b20 f   libeay32_EM_dbg.0.9.8e:sha256.obj
 0001:0003fb40       _SHA384_Init               10040b40 f   libeay32_EM_dbg.0.9.8e:sha512.obj
 0001:0003fc10       _SHA512_Init               10040c10 f   libeay32_EM_dbg.0.9.8e:sha512.obj
 0001:0003fce0       _SHA512_Final              10040ce0 f   libeay32_EM_dbg.0.9.8e:sha512.obj
 0001:00040110       _SHA512_Update             10041110 f   libeay32_EM_dbg.0.9.8e:sha512.obj
 0001:00044d40       _BUF_MEM_new               10045d40 f   libeay32_EM_dbg.0.9.8e:buffer.obj
 0001:00044db0       _BUF_MEM_free              10045db0 f   libeay32_EM_dbg.0.9.8e:buffer.obj
 0001:00044e00       _BUF_MEM_grow              10045e00 f   libeay32_EM_dbg.0.9.8e:buffer.obj
 0001:00044f20       _BUF_MEM_grow_clean        10045f20 f   libeay32_EM_dbg.0.9.8e:buffer.obj
 0001:00045070       _BUF_strdup                10046070 f   libeay32_EM_dbg.0.9.8e:buffer.obj
 0001:000450a0       _BUF_strndup               100460a0 f   libeay32_EM_dbg.0.9.8e:buffer.obj
 0001:00045120       _BUF_strlcpy               10046120 f   libeay32_EM_dbg.0.9.8e:buffer.obj
 0001:000451a0       _BUF_strlcat               100461a0 f   libeay32_EM_dbg.0.9.8e:buffer.obj
 0001:00045200       _DES_ecb_encrypt           10046200 f   libeay32_EM_dbg.0.9.8e:ecb_enc.obj
 0001:000453e0       _DES_ofb64_encrypt         100463e0 f   libeay32_EM_dbg.0.9.8e:ofb64enc.obj
 0001:00045810       _DES_encrypt1              10046810     libeay32_EM_dbg.0.9.8e:d_win32.obj
 0001:00046714       _DES_encrypt2              10047714     libeay32_EM_dbg.0.9.8e:d_win32.obj
 0001:0004757a       _DES_encrypt3              1004857a     libeay32_EM_dbg.0.9.8e:d_win32.obj
 0001:000476a4       _DES_decrypt3              100486a4     libeay32_EM_dbg.0.9.8e:d_win32.obj
 0001:000477ce       _DES_ncbc_encrypt          100487ce     libeay32_EM_dbg.0.9.8e:d_win32.obj
 0001:00047a10       _DES_ede3_cbc_encrypt      10048a10     libeay32_EM_dbg.0.9.8e:d_win32.obj
 0001:00047c50       _DES_cfb64_encrypt         10048c50 f   libeay32_EM_dbg.0.9.8e:cfb64enc.obj
 0001:000480f0       _DES_cfb_encrypt           100490f0 f   libeay32_EM_dbg.0.9.8e:cfb_enc.obj
 0001:00048990       _RC2_cbc_encrypt           10049990 f   libeay32_EM_dbg.0.9.8e:rc2_cbc.obj
 0001:000494d0       _RC2_encrypt               1004a4d0 f   libeay32_EM_dbg.0.9.8e:rc2_cbc.obj
 0001:000496d0       _RC2_decrypt               1004a6d0 f   libeay32_EM_dbg.0.9.8e:rc2_cbc.obj
 0001:00049910       _RC2_cfb64_encrypt         1004a910 f   libeay32_EM_dbg.0.9.8e:rc2cfb64.obj
 0001:00049db0       _RC2_ecb_encrypt           1004adb0 f   libeay32_EM_dbg.0.9.8e:rc2_ecb.obj
 0001:00049fa0       _RC2_ofb64_encrypt         1004afa0 f   libeay32_EM_dbg.0.9.8e:rc2ofb64.obj
 0001:0004a3c0       _RC2_set_key               1004b3c0 f   libeay32_EM_dbg.0.9.8e:rc2_skey.obj
 0001:0004a570       _ASN1_TYPE_set_octetstring 1004b570 f   libeay32_EM_dbg.0.9.8e:evp_asn1.obj
 0001:0004a5d0       _ASN1_TYPE_get_octetstring 1004b5d0 f   libeay32_EM_dbg.0.9.8e:evp_asn1.obj
 0001:0004a660       _ASN1_TYPE_set_int_octetstring 1004b660 f   libeay32_EM_dbg.0.9.8e:evp_asn1.obj
 0001:0004a790       _ASN1_TYPE_get_int_octetstring 1004b790 f   libeay32_EM_dbg.0.9.8e:evp_asn1.obj
 0001:0004a960       _RAND_SSLeay               1004b960 f   libeay32_EM_dbg.0.9.8e:md_rand.obj
 0001:0004b350       _ENGINE_get_default_RAND   1004c350 f   libeay32_EM_dbg.0.9.8e:tb_rand.obj
 0001:0004b370       _ENGINE_get_RAND           1004c370 f   libeay32_EM_dbg.0.9.8e:tb_rand.obj
 0001:0004b380       _X509V3_add_value          1004c380 f   libeay32_EM_dbg.0.9.8e:v3_utl.obj
 0001:0004b4b0       _X509V3_add_value_uchar    1004c4b0 f   libeay32_EM_dbg.0.9.8e:v3_utl.obj
 0001:0004b4d0       _X509V3_conf_free          1004c4d0 f   libeay32_EM_dbg.0.9.8e:v3_utl.obj
 0001:0004b530       _X509V3_add_value_bool     1004c530 f   libeay32_EM_dbg.0.9.8e:v3_utl.obj
 0001:0004b570       _i2s_ASN1_ENUMERATED       1004c570 f   libeay32_EM_dbg.0.9.8e:v3_utl.obj
 0001:0004b5f0       _i2s_ASN1_INTEGER          1004c5f0 f   libeay32_EM_dbg.0.9.8e:v3_utl.obj
 0001:0004b670       _s2i_ASN1_INTEGER          1004c670 f   libeay32_EM_dbg.0.9.8e:v3_utl.obj
 0001:0004b7f0       _X509V3_add_value_int      1004c7f0 f   libeay32_EM_dbg.0.9.8e:v3_utl.obj
 0001:0004b850       _X509V3_get_value_bool     1004c850 f   libeay32_EM_dbg.0.9.8e:v3_utl.obj
 0001:0004b9e0       _X509V3_get_value_int      1004c9e0 f   libeay32_EM_dbg.0.9.8e:v3_utl.obj
 0001:0004ba50       _X509V3_parse_list         1004ca50 f   libeay32_EM_dbg.0.9.8e:v3_utl.obj
 0001:0004bd80       _hex_to_string             1004cd80 f   libeay32_EM_dbg.0.9.8e:v3_utl.obj
 0001:0004be70       _string_to_hex             1004ce70 f   libeay32_EM_dbg.0.9.8e:v3_utl.obj
 0001:0004c0a0       _name_cmp                  1004d0a0 f   libeay32_EM_dbg.0.9.8e:v3_utl.obj
 0001:0004c110       _a2i_IPADDRESS             1004d110 f   libeay32_EM_dbg.0.9.8e:v3_utl.obj
 0001:0004c190       _a2i_IPADDRESS_NC          1004d190 f   libeay32_EM_dbg.0.9.8e:v3_utl.obj
 0001:0004c2d0       _a2i_ipadd                 1004d2d0 f   libeay32_EM_dbg.0.9.8e:v3_utl.obj
 0001:0004c700       _X509V3_NAME_from_section  1004d700 f   libeay32_EM_dbg.0.9.8e:v3_utl.obj
 0001:0004c820       _ASN1_STRING_print         1004d820 f   libeay32_EM_dbg.0.9.8e:t_x509.obj
 0001:0004c940       _ASN1_GENERALIZEDTIME_print 1004d940 f   libeay32_EM_dbg.0.9.8e:t_x509.obj
 0001:0004cb70       _X509_NAME_print           1004db70 f   libeay32_EM_dbg.0.9.8e:t_x509.obj
 0001:0004ccf0       _ASN1_tag2str              1004dcf0 f   libeay32_EM_dbg.0.9.8e:asn1_par.obj
 0001:0004cd30       _OBJ_dup                   1004dd30 f   libeay32_EM_dbg.0.9.8e:obj_lib.obj
 0001:0004cf30       _OBJ_cmp                   1004df30 f   libeay32_EM_dbg.0.9.8e:obj_lib.obj
 0001:0004cf80       _ASN1_PRINTABLE_type       1004df80 f   libeay32_EM_dbg.0.9.8e:a_print.obj
 0001:0004d0a0       _ASN1_STRING_set_by_NID    1004e0a0 f   libeay32_EM_dbg.0.9.8e:a_strnid.obj
 0001:0004d160       _ASN1_STRING_TABLE_get     1004e160 f   libeay32_EM_dbg.0.9.8e:a_strnid.obj
 0001:0004d210       _X509_REVOKED_it           1004e210 f   libeay32_EM_dbg.0.9.8e:x_crl.obj
 0001:0004d280       _X509_CRL_INFO_it          1004e280 f   libeay32_EM_dbg.0.9.8e:x_crl.obj
 0001:0004d290       _X509_CRL_it               1004e290 f   libeay32_EM_dbg.0.9.8e:x_crl.obj
 0001:0004d2a0       _d2i_X509_CRL              1004e2a0 f   libeay32_EM_dbg.0.9.8e:x_crl.obj
 0001:0004d2c0       _X509_CRL_free             1004e2c0 f   libeay32_EM_dbg.0.9.8e:x_crl.obj
 0001:0004d300       _lh_new                    1004e300 f   libeay32_EM_dbg.0.9.8e:lhash.obj
 0001:0004d4a0       _lh_free                   1004e4a0 f   libeay32_EM_dbg.0.9.8e:lhash.obj
 0001:0004d530       _lh_insert                 1004e530 f   libeay32_EM_dbg.0.9.8e:lhash.obj
 0001:0004d630       _lh_delete                 1004e630 f   libeay32_EM_dbg.0.9.8e:lhash.obj
 0001:0004d700       _lh_retrieve               1004e700 f   libeay32_EM_dbg.0.9.8e:lhash.obj
 0001:0004d770       _lh_doall                  1004e770 f   libeay32_EM_dbg.0.9.8e:lhash.obj
 0001:0004d810       _lh_doall_arg              1004e810 f   libeay32_EM_dbg.0.9.8e:lhash.obj
 0001:0004dc10       _lh_strhash                1004ec10 f   libeay32_EM_dbg.0.9.8e:lhash.obj
 0001:0004dcc0       _lh_num_items              1004ecc0 f   libeay32_EM_dbg.0.9.8e:lhash.obj
 0001:0004dcf0       _BN_lshift1                1004ecf0 f   libeay32_EM_dbg.0.9.8e:bn_shift.obj
 0001:0004de40       _BN_rshift1                1004ee40 f   libeay32_EM_dbg.0.9.8e:bn_shift.obj
 0001:0004df90       _BN_lshift                 1004ef90 f   libeay32_EM_dbg.0.9.8e:bn_shift.obj
 0001:0004e160       _BN_rshift                 1004f160 f   libeay32_EM_dbg.0.9.8e:bn_shift.obj
 0001:0004e370       _ASN1_item_verify          1004f370 f   libeay32_EM_dbg.0.9.8e:a_verify.obj
 0001:0004e4f0       _NETSCAPE_SPKAC_it         1004f4f0 f   libeay32_EM_dbg.0.9.8e:x_spki.obj
 0001:0004e500       _ASN1_d2i_bio              1004f500 f   libeay32_EM_dbg.0.9.8e:a_d2i_fp.obj
 0001:0004e570       _ASN1_item_d2i_bio         1004f570 f   libeay32_EM_dbg.0.9.8e:a_d2i_fp.obj
 0001:0004e5f0       _ASN1_item_d2i_fp          1004f5f0 f   libeay32_EM_dbg.0.9.8e:a_d2i_fp.obj
 0001:0004e950       _ASN1_item_i2d_fp          1004f950 f   libeay32_EM_dbg.0.9.8e:a_i2d_fp.obj
 0001:0004e9d0       _ASN1_item_i2d_bio         1004f9d0 f   libeay32_EM_dbg.0.9.8e:a_i2d_fp.obj
 0001:0004ea90       _DSA_get_default_method    1004fa90 f   libeay32_EM_dbg.0.9.8e:dsa_lib.obj
 0001:0004eab0       _DSA_new                   1004fab0 f   libeay32_EM_dbg.0.9.8e:dsa_lib.obj
 0001:0004eac0       _DSA_new_method            1004fac0 f   libeay32_EM_dbg.0.9.8e:dsa_lib.obj
 0001:0004ecd0       _DSA_free                  1004fcd0 f   libeay32_EM_dbg.0.9.8e:dsa_lib.obj
 0001:0004ee20       _DSA_size                  1004fe20 f   libeay32_EM_dbg.0.9.8e:dsa_lib.obj
 0001:0004ef20       _DSA_SIG_it                1004ff20 f   libeay32_EM_dbg.0.9.8e:dsa_asn1.obj
 0001:0004ef30       _d2i_DSA_SIG               1004ff30 f   libeay32_EM_dbg.0.9.8e:dsa_asn1.obj
 0001:0004ef50       _i2d_DSA_SIG               1004ff50 f   libeay32_EM_dbg.0.9.8e:dsa_asn1.obj
 0001:0004ef70       _DSA_SIG_new               1004ff70 f   libeay32_EM_dbg.0.9.8e:dsa_asn1.obj
 0001:0004ef90       _DSA_SIG_free              1004ff90 f   libeay32_EM_dbg.0.9.8e:dsa_asn1.obj
 0001:0004f010       _DSAPrivateKey_it          10050010 f   libeay32_EM_dbg.0.9.8e:dsa_asn1.obj
 0001:0004f020       _d2i_DSAPrivateKey         10050020 f   libeay32_EM_dbg.0.9.8e:dsa_asn1.obj
 0001:0004f040       _DSAparams_it              10050040 f   libeay32_EM_dbg.0.9.8e:dsa_asn1.obj
 0001:0004f050       _d2i_DSAparams             10050050 f   libeay32_EM_dbg.0.9.8e:dsa_asn1.obj
 0001:0004f070       _dsa_pub_internal_it       10050070 f   libeay32_EM_dbg.0.9.8e:dsa_asn1.obj
 0001:0004f080       _DSAPublicKey_it           10050080 f   libeay32_EM_dbg.0.9.8e:dsa_asn1.obj
 0001:0004f090       _d2i_DSAPublicKey          10050090 f   libeay32_EM_dbg.0.9.8e:dsa_asn1.obj
 0001:0004f0b0       _EC_KEY_new                100500b0 f   libeay32_EM_dbg.0.9.8e:ec_key.obj
 0001:0004f150       _EC_KEY_free               10050150 f   libeay32_EM_dbg.0.9.8e:ec_key.obj
 0001:0004f210       _EC_KEY_copy               10050210 f   libeay32_EM_dbg.0.9.8e:ec_key.obj
 0001:0004f430       _EC_KEY_dup                10050430 f   libeay32_EM_dbg.0.9.8e:ec_key.obj
 0001:0004f480       _EC_KEY_up_ref             10050480 f   libeay32_EM_dbg.0.9.8e:ec_key.obj
 0001:0004f4c0       _EC_KEY_generate_key       100504c0 f   libeay32_EM_dbg.0.9.8e:ec_key.obj
 0001:0004f680       _EC_KEY_set_group          10050680 f   libeay32_EM_dbg.0.9.8e:ec_key.obj
 0001:0004f6c0       _EC_KEY_set_private_key    100506c0 f   libeay32_EM_dbg.0.9.8e:ec_key.obj
 0001:0004f700       _EC_KEY_set_public_key     10050700 f   libeay32_EM_dbg.0.9.8e:ec_key.obj
 0001:0004f750       _EC_KEY_get_key_method_data 10050750 f   libeay32_EM_dbg.0.9.8e:ec_key.obj
 0001:0004f770       _EC_KEY_insert_key_method_data 10050770 f   libeay32_EM_dbg.0.9.8e:ec_key.obj
 0001:0004f7f0       _X9_62_PENTANOMIAL_it      100507f0 f   libeay32_EM_dbg.0.9.8e:ec_asn1.obj
 0001:0004f810       _X9_62_CHARACTERISTIC_TWO_it 10050810 f   libeay32_EM_dbg.0.9.8e:ec_asn1.obj
 0001:0004f830       _X9_62_FIELDID_it          10050830 f   libeay32_EM_dbg.0.9.8e:ec_asn1.obj
 0001:0004f840       _X9_62_CURVE_it            10050840 f   libeay32_EM_dbg.0.9.8e:ec_asn1.obj
 0001:0004f850       _ECPARAMETERS_it           10050850 f   libeay32_EM_dbg.0.9.8e:ec_asn1.obj
 0001:0004f860       _ECPKPARAMETERS_it         10050860 f   libeay32_EM_dbg.0.9.8e:ec_asn1.obj
 0001:0004f870       _d2i_ECPKPARAMETERS        10050870 f   libeay32_EM_dbg.0.9.8e:ec_asn1.obj
 0001:0004f890       _ECPKPARAMETERS_free       10050890 f   libeay32_EM_dbg.0.9.8e:ec_asn1.obj
 0001:0004f8b0       _EC_PRIVATEKEY_it          100508b0 f   libeay32_EM_dbg.0.9.8e:ec_asn1.obj
 0001:0004f8c0       _d2i_EC_PRIVATEKEY         100508c0 f   libeay32_EM_dbg.0.9.8e:ec_asn1.obj
 0001:0004f8e0       _EC_PRIVATEKEY_new         100508e0 f   libeay32_EM_dbg.0.9.8e:ec_asn1.obj
 0001:0004f900       _EC_PRIVATEKEY_free        10050900 f   libeay32_EM_dbg.0.9.8e:ec_asn1.obj
 0001:0004f920       _d2i_ECPKParameters        10050920 f   libeay32_EM_dbg.0.9.8e:ec_asn1.obj
 0001:000503f0       _d2i_ECPrivateKey          100513f0 f   libeay32_EM_dbg.0.9.8e:ec_asn1.obj
 0001:000506d0       _d2i_ECParameters          100516d0 f   libeay32_EM_dbg.0.9.8e:ec_asn1.obj
 0001:000507b0       _o2i_ECPublicKey           100517b0 f   libeay32_EM_dbg.0.9.8e:ec_asn1.obj
 0001:000508c0       _ASN1_item_digest          100518c0 f   libeay32_EM_dbg.0.9.8e:a_digest.obj
 0001:00050930       _d2i_PrivateKey            10051930 f   libeay32_EM_dbg.0.9.8e:d2i_pr.obj
 0001:00050ae0       _d2i_AutoPrivateKey        10051ae0 f   libeay32_EM_dbg.0.9.8e:d2i_pr.obj
 0001:00050b80       _AES_cbc_encrypt           10051b80 f   libeay32_EM_dbg.0.9.8e:aes_cbc.obj
 0001:00050ef0       _AES_cfb128_encrypt        10051ef0 f   libeay32_EM_dbg.0.9.8e:aes_cfb.obj
 0001:00051010       _AES_cfbr_encrypt_block    10052010 f   libeay32_EM_dbg.0.9.8e:aes_cfb.obj
 0001:000511a0       _AES_cfb1_encrypt          100521a0 f   libeay32_EM_dbg.0.9.8e:aes_cfb.obj
 0001:000512a0       _AES_cfb8_encrypt          100522a0 f   libeay32_EM_dbg.0.9.8e:aes_cfb.obj
 0001:00051300       _AES_ecb_encrypt           10052300 f   libeay32_EM_dbg.0.9.8e:aes_ecb.obj
 0001:00051340       _AES_ofb128_encrypt        10052340 f   libeay32_EM_dbg.0.9.8e:aes_ofb.obj
 0001:000513d0       _AES_set_encrypt_key       100523d0 f   libeay32_EM_dbg.0.9.8e:aes_core.obj
 0001:000519c0       _AES_set_decrypt_key       100529c0 f   libeay32_EM_dbg.0.9.8e:aes_core.obj
 0001:00051d40       _AES_encrypt               10052d40 f   libeay32_EM_dbg.0.9.8e:aes_core.obj
 0001:00052320       _AES_decrypt               10053320 f   libeay32_EM_dbg.0.9.8e:aes_core.obj
 0001:000528d0       _X509_LOOKUP_hash_dir      100538d0 f   libeay32_EM_dbg.0.9.8e:by_dir.obj
 0001:00053110       _X509_LOOKUP_file          10054110 f   libeay32_EM_dbg.0.9.8e:by_file.obj
 0001:00053210       _X509_load_cert_file       10054210 f   libeay32_EM_dbg.0.9.8e:by_file.obj
 0001:000533e0       _X509_load_crl_file        100543e0 f   libeay32_EM_dbg.0.9.8e:by_file.obj
 0001:000535b0       _X509_load_cert_crl_file   100545b0 f   libeay32_EM_dbg.0.9.8e:by_file.obj
 0001:00053710       _BIGNUM_it                 10054710 f   libeay32_EM_dbg.0.9.8e:x_bignum.obj
 0001:00053720       _CBIGNUM_it                10054720 f   libeay32_EM_dbg.0.9.8e:x_bignum.obj
 0001:000538b0       _LONG_it                   100548b0 f   libeay32_EM_dbg.0.9.8e:x_long.obj
 0001:000538c0       _ZLONG_it                  100548c0 f   libeay32_EM_dbg.0.9.8e:x_long.obj
 0001:00053b40       _ASN1_seq_unpack           10054b40 f   libeay32_EM_dbg.0.9.8e:asn_pack.obj
 0001:00053ba0       _BIO_s_null                10054ba0 f   libeay32_EM_dbg.0.9.8e:bss_null.obj
 0001:00053cb0       _EVP_PKEY_encrypt          10054cb0 f   libeay32_EM_dbg.0.9.8e:p_enc.obj
 0001:00053d10       _EVP_SignFinal             10054d10 f   libeay32_EM_dbg.0.9.8e:p_sign.obj
 0001:00053e80       _EVP_ecdsa                 10054e80 f   libeay32_EM_dbg.0.9.8e:m_ecdsa.obj
 0001:00053e90       _EVP_dss1                  10054e90 f   libeay32_EM_dbg.0.9.8e:m_dss1.obj
 0001:00053ea0       _EVP_VerifyFinal           10054ea0 f   libeay32_EM_dbg.0.9.8e:p_verify.obj
 0001:00053fc0       _CONF_set_nconf            10054fc0 f   libeay32_EM_dbg.0.9.8e:conf_lib.obj
 0001:00054000       _CONF_get_section          10055000 f   libeay32_EM_dbg.0.9.8e:conf_lib.obj
 0001:00054040       _CONF_get_string           10055040 f   libeay32_EM_dbg.0.9.8e:conf_lib.obj
 0001:000540a0       _CONF_free                 100550a0 f   libeay32_EM_dbg.0.9.8e:conf_lib.obj
 0001:000540d0       _NCONF_free_data           100550d0 f   libeay32_EM_dbg.0.9.8e:conf_lib.obj
 0001:000540f0       _NCONF_get_section         100550f0 f   libeay32_EM_dbg.0.9.8e:conf_lib.obj
 0001:00054150       _NCONF_get_string          10055150 f   libeay32_EM_dbg.0.9.8e:conf_lib.obj
 0001:000541e0       _ASN1_generate_v3          100551e0 f   libeay32_EM_dbg.0.9.8e:asn1_gen.obj
 0001:00055490       _CAST_encrypt              10056490     libeay32_EM_dbg.0.9.8e:c_win32.obj
 0001:00055932       _CAST_decrypt              10056932     libeay32_EM_dbg.0.9.8e:c_win32.obj
 0001:00055dd2       _CAST_cbc_encrypt          10056dd2     libeay32_EM_dbg.0.9.8e:c_win32.obj
 0001:00056010       _CAST_cfb64_encrypt        10057010 f   libeay32_EM_dbg.0.9.8e:c_cfb64.obj
 0001:000564b0       _CAST_ecb_encrypt          100574b0 f   libeay32_EM_dbg.0.9.8e:c_ecb.obj
 0001:000566a0       _CAST_ofb64_encrypt        100576a0 f   libeay32_EM_dbg.0.9.8e:c_ofb64.obj
 0001:00056ac0       _CAST_set_key              10057ac0 f   libeay32_EM_dbg.0.9.8e:c_skey.obj
 0001:000579c0       _OTHERNAME_it              100589c0 f   libeay32_EM_dbg.0.9.8e:v3_genn.obj
 0001:000579d0       _OTHERNAME_new             100589d0 f   libeay32_EM_dbg.0.9.8e:v3_genn.obj
 0001:000579f0       _EDIPARTYNAME_it           100589f0 f   libeay32_EM_dbg.0.9.8e:v3_genn.obj
 0001:00057a00       _GENERAL_NAME_it           10058a00 f   libeay32_EM_dbg.0.9.8e:v3_genn.obj
 0001:00057a10       _GENERAL_NAME_new          10058a10 f   libeay32_EM_dbg.0.9.8e:v3_genn.obj
 0001:00057a30       _GENERAL_NAME_free         10058a30 f   libeay32_EM_dbg.0.9.8e:v3_genn.obj
 0001:00057a50       _GENERAL_NAMES_it          10058a50 f   libeay32_EM_dbg.0.9.8e:v3_genn.obj
 0001:00057a60       _GENERAL_NAMES_new         10058a60 f   libeay32_EM_dbg.0.9.8e:v3_genn.obj
 0001:00057a80       _GENERAL_NAMES_free        10058a80 f   libeay32_EM_dbg.0.9.8e:v3_genn.obj
 0001:00057ac0       _POLICY_MAPPING_it         10058ac0 f   libeay32_EM_dbg.0.9.8e:v3_pmaps.obj
 0001:00057ad0       _POLICY_MAPPINGS_it        10058ad0 f   libeay32_EM_dbg.0.9.8e:v3_pmaps.obj
 0001:00057ae0       _POLICY_MAPPING_new        10058ae0 f   libeay32_EM_dbg.0.9.8e:v3_pmaps.obj
 0001:00057b00       _POLICY_MAPPING_free       10058b00 f   libeay32_EM_dbg.0.9.8e:v3_pmaps.obj
 0001:00057dc0       _GENERAL_SUBTREE_it        10058dc0 f   libeay32_EM_dbg.0.9.8e:v3_ncons.obj
 0001:00057dd0       _NAME_CONSTRAINTS_it       10058dd0 f   libeay32_EM_dbg.0.9.8e:v3_ncons.obj
 0001:00057de0       _GENERAL_SUBTREE_new       10058de0 f   libeay32_EM_dbg.0.9.8e:v3_ncons.obj
 0001:00057e00       _GENERAL_SUBTREE_free      10058e00 f   libeay32_EM_dbg.0.9.8e:v3_ncons.obj
 0001:00057e20       _NAME_CONSTRAINTS_new      10058e20 f   libeay32_EM_dbg.0.9.8e:v3_ncons.obj
 0001:00057e40       _NAME_CONSTRAINTS_free     10058e40 f   libeay32_EM_dbg.0.9.8e:v3_ncons.obj
 0001:000592a0       _POLICY_CONSTRAINTS_it     1005a2a0 f   libeay32_EM_dbg.0.9.8e:v3_pcons.obj
 0001:000592b0       _POLICY_CONSTRAINTS_new    1005a2b0 f   libeay32_EM_dbg.0.9.8e:v3_pcons.obj
 0001:000592d0       _POLICY_CONSTRAINTS_free   1005a2d0 f   libeay32_EM_dbg.0.9.8e:v3_pcons.obj
 0001:000594c0       _ACCESS_DESCRIPTION_it     1005a4c0 f   libeay32_EM_dbg.0.9.8e:v3_info.obj
 0001:000594d0       _ACCESS_DESCRIPTION_new    1005a4d0 f   libeay32_EM_dbg.0.9.8e:v3_info.obj
 0001:000594f0       _ACCESS_DESCRIPTION_free   1005a4f0 f   libeay32_EM_dbg.0.9.8e:v3_info.obj
 0001:00059510       _AUTHORITY_INFO_ACCESS_it  1005a510 f   libeay32_EM_dbg.0.9.8e:v3_info.obj
 0001:000598d0       _EXTENDED_KEY_USAGE_it     1005a8d0 f   libeay32_EM_dbg.0.9.8e:v3_extku.obj
 0001:00059a90       _SXNETID_it                1005aa90 f   libeay32_EM_dbg.0.9.8e:v3_sxnet.obj
 0001:00059aa0       _SXNETID_new               1005aaa0 f   libeay32_EM_dbg.0.9.8e:v3_sxnet.obj
 0001:00059ac0       _SXNETID_free              1005aac0 f   libeay32_EM_dbg.0.9.8e:v3_sxnet.obj
 0001:00059ae0       _SXNET_it                  1005aae0 f   libeay32_EM_dbg.0.9.8e:v3_sxnet.obj
 0001:00059af0       _SXNET_new                 1005aaf0 f   libeay32_EM_dbg.0.9.8e:v3_sxnet.obj
 0001:00059b10       _SXNET_free                1005ab10 f   libeay32_EM_dbg.0.9.8e:v3_sxnet.obj
 0001:00059c90       _SXNET_add_id_asc          1005ac90 f   libeay32_EM_dbg.0.9.8e:v3_sxnet.obj
 0001:00059d00       _SXNET_add_id_INTEGER      1005ad00 f   libeay32_EM_dbg.0.9.8e:v3_sxnet.obj
 0001:00059eb0       _SXNET_get_id_INTEGER      1005aeb0 f   libeay32_EM_dbg.0.9.8e:v3_sxnet.obj
 0001:00059f20       _i2s_ASN1_ENUMERATED_TABLE 1005af20 f   libeay32_EM_dbg.0.9.8e:v3_enum.obj
 0001:0005a1f0       _DIST_POINT_NAME_it        1005b1f0 f   libeay32_EM_dbg.0.9.8e:v3_crld.obj
 0001:0005a200       _DIST_POINT_NAME_new       1005b200 f   libeay32_EM_dbg.0.9.8e:v3_crld.obj
 0001:0005a220       _DIST_POINT_it             1005b220 f   libeay32_EM_dbg.0.9.8e:v3_crld.obj
 0001:0005a230       _DIST_POINT_new            1005b230 f   libeay32_EM_dbg.0.9.8e:v3_crld.obj
 0001:0005a250       _DIST_POINT_free           1005b250 f   libeay32_EM_dbg.0.9.8e:v3_crld.obj
 0001:0005a270       _CRL_DIST_POINTS_it        1005b270 f   libeay32_EM_dbg.0.9.8e:v3_crld.obj
 0001:0005a680       _CERTIFICATEPOLICIES_it    1005b680 f   libeay32_EM_dbg.0.9.8e:v3_cpols.obj
 0001:0005a690       _POLICYINFO_it             1005b690 f   libeay32_EM_dbg.0.9.8e:v3_cpols.obj
 0001:0005a6a0       _POLICYINFO_new            1005b6a0 f   libeay32_EM_dbg.0.9.8e:v3_cpols.obj
 0001:0005a6c0       _POLICYINFO_free           1005b6c0 f   libeay32_EM_dbg.0.9.8e:v3_cpols.obj
 0001:0005a6f0       _POLICYQUALINFO_it         1005b6f0 f   libeay32_EM_dbg.0.9.8e:v3_cpols.obj
 0001:0005a700       _POLICYQUALINFO_new        1005b700 f   libeay32_EM_dbg.0.9.8e:v3_cpols.obj
 0001:0005a720       _POLICYQUALINFO_free       1005b720 f   libeay32_EM_dbg.0.9.8e:v3_cpols.obj
 0001:0005a740       _USERNOTICE_it             1005b740 f   libeay32_EM_dbg.0.9.8e:v3_cpols.obj
 0001:0005a750       _USERNOTICE_new            1005b750 f   libeay32_EM_dbg.0.9.8e:v3_cpols.obj
 0001:0005a770       _NOTICEREF_it              1005b770 f   libeay32_EM_dbg.0.9.8e:v3_cpols.obj
 0001:0005a780       _NOTICEREF_new             1005b780 f   libeay32_EM_dbg.0.9.8e:v3_cpols.obj
 0001:0005b550       _BASIC_CONSTRAINTS_it      1005c550 f   libeay32_EM_dbg.0.9.8e:v3_bcons.obj
 0001:0005b560       _BASIC_CONSTRAINTS_new     1005c560 f   libeay32_EM_dbg.0.9.8e:v3_bcons.obj
 0001:0005b580       _BASIC_CONSTRAINTS_free    1005c580 f   libeay32_EM_dbg.0.9.8e:v3_bcons.obj
 0001:0005b720       _i2v_GENERAL_NAMES         1005c720 f   libeay32_EM_dbg.0.9.8e:v3_alt.obj
 0001:0005b790       _i2v_GENERAL_NAME          1005c790 f   libeay32_EM_dbg.0.9.8e:v3_alt.obj
 0001:0005ba30       _GENERAL_NAME_print        1005ca30 f   libeay32_EM_dbg.0.9.8e:v3_alt.obj
 0001:0005c200       _v2i_GENERAL_NAME          1005d200 f   libeay32_EM_dbg.0.9.8e:v3_alt.obj
 0001:0005c220       _v2i_GENERAL_NAME_ex       1005d220 f   libeay32_EM_dbg.0.9.8e:v3_alt.obj
 0001:0005c740       _PKEY_USAGE_PERIOD_it      1005d740 f   libeay32_EM_dbg.0.9.8e:v3_pku.obj
 0001:0005c7f0       _i2v_ASN1_BIT_STRING       1005d7f0 f   libeay32_EM_dbg.0.9.8e:v3_bitst.obj
 0001:0005c850       _v2i_ASN1_BIT_STRING       1005d850 f   libeay32_EM_dbg.0.9.8e:v3_bitst.obj
 0001:0005c9d0       _i2s_ASN1_OCTET_STRING     1005d9d0 f   libeay32_EM_dbg.0.9.8e:v3_skey.obj
 0001:0005c9f0       _s2i_ASN1_OCTET_STRING     1005d9f0 f   libeay32_EM_dbg.0.9.8e:v3_skey.obj
 0001:0005cd20       _i2d_ASN1_SET              1005dd20 f   libeay32_EM_dbg.0.9.8e:a_set.obj
 0001:0005d070       _d2i_ASN1_SET              1005e070 f   libeay32_EM_dbg.0.9.8e:a_set.obj
 0001:0005d2d0       _X509_NAME_oneline         1005e2d0 f   libeay32_EM_dbg.0.9.8e:x509_obj.obj
 0001:0005d7e0       _X509_check_purpose        1005e7e0 f   libeay32_EM_dbg.0.9.8e:v3_purp.obj
 0001:0005d880       _X509_PURPOSE_get0         1005e880 f   libeay32_EM_dbg.0.9.8e:v3_purp.obj
 0001:0005d8c0       _X509_PURPOSE_get_by_id    1005e8c0 f   libeay32_EM_dbg.0.9.8e:v3_purp.obj
 0001:0005d920       _X509_supported_extension  1005e920 f   libeay32_EM_dbg.0.9.8e:v3_purp.obj
 0001:0005df10       _X509_check_ca             1005ef10 f   libeay32_EM_dbg.0.9.8e:v3_purp.obj
 0001:0005e380       _X509_check_issued         1005f380 f   libeay32_EM_dbg.0.9.8e:v3_purp.obj
 0001:0005e540       _BN_GENCB_call             1005f540 f   libeay32_EM_dbg.0.9.8e:bn_prime.obj
 0001:0005e5c0       _BN_generate_prime_ex      1005f5c0 f   libeay32_EM_dbg.0.9.8e:bn_prime.obj
 0001:0005e8f0       _BN_is_prime_fasttest_ex   1005f8f0 f   libeay32_EM_dbg.0.9.8e:bn_prime.obj
 0001:0005f320       _X509_VAL_it               10060320 f   libeay32_EM_dbg.0.9.8e:x_val.obj
 0001:0005f330       _policy_cache_free         10060330 f   libeay32_EM_dbg.0.9.8e:pcy_cache.obj
 0001:0005f380       _policy_cache_set          10060380 f   libeay32_EM_dbg.0.9.8e:pcy_cache.obj
 0001:0005f7b0       _policy_cache_find_data    100607b0 f   libeay32_EM_dbg.0.9.8e:pcy_cache.obj
 0001:0005f860       _X509_VERIFY_PARAM_new     10060860 f   libeay32_EM_dbg.0.9.8e:x509_vpm.obj
 0001:0005f920       _X509_VERIFY_PARAM_free    10060920 f   libeay32_EM_dbg.0.9.8e:x509_vpm.obj
 0001:0005f940       _X509_VERIFY_PARAM_inherit 10060940 f   libeay32_EM_dbg.0.9.8e:x509_vpm.obj
 0001:0005fae0       _X509_VERIFY_PARAM_set1_policies 10060ae0 f   libeay32_EM_dbg.0.9.8e:x509_vpm.obj
 0001:0005fbe0       _X509_VERIFY_PARAM_lookup  10060be0 f   libeay32_EM_dbg.0.9.8e:x509_vpm.obj
 0001:0005fc90       _DES_ecb3_encrypt          10060c90 f   libeay32_EM_dbg.0.9.8e:ecb3_enc.obj
 0001:0005fe80       _DES_ede3_ofb64_encrypt    10060e80 f   libeay32_EM_dbg.0.9.8e:ofb64ede.obj
 0001:000602a0       _DES_ede3_cfb64_encrypt    100612a0 f   libeay32_EM_dbg.0.9.8e:cfb64ede.obj
 0001:00060750       _DES_ede3_cfb_encrypt      10061750 f   libeay32_EM_dbg.0.9.8e:cfb64ede.obj
 0001:000614b0       _PKCS8_decrypt             100624b0 f   libeay32_EM_dbg.0.9.8e:p12_p8d.obj
 0001:000614e0       _ERR_load_UI_strings       100624e0 f   libeay32_EM_dbg.0.9.8e:ui_err.obj
 0001:00061520       _ERR_load_OCSP_strings     10062520 f   libeay32_EM_dbg.0.9.8e:ocsp_err.obj
 0001:00061560       _ERR_load_ENGINE_strings   10062560 f   libeay32_EM_dbg.0.9.8e:eng_err.obj
 0001:000615a0       _ERR_load_DSO_strings      100625a0 f   libeay32_EM_dbg.0.9.8e:dso_err.obj
 0001:000615e0       _ERR_load_RAND_strings     100625e0 f   libeay32_EM_dbg.0.9.8e:rand_err.obj
 0001:00061620       _ERR_load_PKCS12_strings   10062620 f   libeay32_EM_dbg.0.9.8e:pk12err.obj
 0001:00061660       _ERR_load_X509V3_strings   10062660 f   libeay32_EM_dbg.0.9.8e:v3err.obj
 0001:000616a0       _ERR_load_PKCS7_strings    100626a0 f   libeay32_EM_dbg.0.9.8e:pkcs7err.obj
 0001:000616e0       _ERR_load_BIO_strings      100626e0 f   libeay32_EM_dbg.0.9.8e:bio_err.obj
 0001:00061720       _ERR_load_ECDH_strings     10062720 f   libeay32_EM_dbg.0.9.8e:ech_err.obj
 0001:00061760       _ERR_load_ECDSA_strings    10062760 f   libeay32_EM_dbg.0.9.8e:ecs_err.obj
 0001:000617a0       _ERR_load_EC_strings       100627a0 f   libeay32_EM_dbg.0.9.8e:ec_err.obj
 0001:000617e0       _ERR_load_CRYPTO_strings   100627e0 f   libeay32_EM_dbg.0.9.8e:cpt_err.obj
 0001:00061820       _ERR_load_CONF_strings     10062820 f   libeay32_EM_dbg.0.9.8e:conf_err.obj
 0001:00061860       _ERR_load_ASN1_strings     10062860 f   libeay32_EM_dbg.0.9.8e:asn1_err.obj
 0001:000618a0       _ERR_load_X509_strings     100628a0 f   libeay32_EM_dbg.0.9.8e:x509_err.obj
 0001:000618e0       _ERR_load_DSA_strings      100628e0 f   libeay32_EM_dbg.0.9.8e:dsa_err.obj
 0001:00061920       _ERR_load_PEM_strings      10062920 f   libeay32_EM_dbg.0.9.8e:pem_err.obj
 0001:00061960       _ERR_load_OBJ_strings      10062960 f   libeay32_EM_dbg.0.9.8e:obj_err.obj
 0001:000619a0       _ERR_load_BUF_strings      100629a0 f   libeay32_EM_dbg.0.9.8e:buf_err.obj
 0001:000619e0       _ERR_load_EVP_strings      100629e0 f   libeay32_EM_dbg.0.9.8e:evp_err.obj
 0001:00061a20       _ERR_load_DH_strings       10062a20 f   libeay32_EM_dbg.0.9.8e:dh_err.obj
 0001:00061a60       _ERR_load_RSA_strings      10062a60 f   libeay32_EM_dbg.0.9.8e:rsa_err.obj
 0001:00061aa0       _ERR_load_BN_strings       10062aa0 f   libeay32_EM_dbg.0.9.8e:bn_err.obj
 0001:00061ae0       _CRYPTO_mem_ctrl           10062ae0 f   libeay32_EM_dbg.0.9.8e:mem_dbg.obj
 0001:00061c60       _CRYPTO_is_mem_check_on    10062c60 f   libeay32_EM_dbg.0.9.8e:mem_dbg.obj
 0001:00061ce0       _CRYPTO_push_info_         10062ce0 f   libeay32_EM_dbg.0.9.8e:mem_dbg.obj
 0001:00061e60       _CRYPTO_pop_info           10062e60 f   libeay32_EM_dbg.0.9.8e:mem_dbg.obj
 0001:00061f70       _SHA_Update                10062f70 f   libeay32_EM_dbg.0.9.8e:sha_dgst.obj
 0001:00062550       _SHA_Final                 10063550 f   libeay32_EM_dbg.0.9.8e:sha_dgst.obj
 0001:000628f0       _sha_block_host_order      100638f0 f   libeay32_EM_dbg.0.9.8e:sha_dgst.obj
 0001:000642b0       _sha_block_data_order      100652b0 f   libeay32_EM_dbg.0.9.8e:sha_dgst.obj
 0001:000661c0       _RC4_set_key               100671c0 f   libeay32_EM_dbg.0.9.8e:rc4_skey.obj
 0001:000663c0       _RC4                       100673c0     libeay32_EM_dbg.0.9.8e:r4_win32.obj
 0001:00066740       _OBJ_NAME_init             10067740 f   libeay32_EM_dbg.0.9.8e:o_names.obj
 0001:000668b0       _OBJ_NAME_get              100678b0 f   libeay32_EM_dbg.0.9.8e:o_names.obj
 0001:00066970       _OBJ_NAME_add              10067970 f   libeay32_EM_dbg.0.9.8e:o_names.obj
 0001:00066a90       _OBJ_NAME_remove           10067a90 f   libeay32_EM_dbg.0.9.8e:o_names.obj
 0001:00066b50       _OBJ_NAME_cleanup          10067b50 f   libeay32_EM_dbg.0.9.8e:o_names.obj
 0001:00066c60       _policy_node_free          10067c60 f   libeay32_EM_dbg.0.9.8e:pcy_node.obj
 0001:00066c80       _EVP_PBE_CipherInit        10067c80 f   libeay32_EM_dbg.0.9.8e:evp_pbe.obj
 0001:00066dd0       _EVP_PBE_alg_add           10067dd0 f   libeay32_EM_dbg.0.9.8e:evp_pbe.obj
 0001:00066ea0       _EVP_PBE_cleanup           10067ea0 f   libeay32_EM_dbg.0.9.8e:evp_pbe.obj
 0001:00066ed0       _MD4_Update                10067ed0 f   libeay32_EM_dbg.0.9.8e:md4_dgst.obj
 0001:000674e0       _MD4_Final                 100684e0 f   libeay32_EM_dbg.0.9.8e:md4_dgst.obj
 0001:00067820       _md4_block_host_order      10068820 f   libeay32_EM_dbg.0.9.8e:md4_dgst.obj
 0001:00068200       _X509_check_trust          10069200 f   libeay32_EM_dbg.0.9.8e:x509_trs.obj
 0001:00068270       _X509_TRUST_get0           10069270 f   libeay32_EM_dbg.0.9.8e:x509_trs.obj
 0001:000682b0       _X509_TRUST_get_by_id      100692b0 f   libeay32_EM_dbg.0.9.8e:x509_trs.obj
 0001:000684c0       _ASN1_TIME_it              100694c0 f   libeay32_EM_dbg.0.9.8e:a_time.obj
 0001:000684d0       _ASN1_TIME_set             100694d0 f   libeay32_EM_dbg.0.9.8e:a_time.obj
 0001:00068560       _ASN1_TIME_check           10069560 f   libeay32_EM_dbg.0.9.8e:a_time.obj
 0001:000685a0       _ASN1_GENERALIZEDTIME_check 100695a0 f   libeay32_EM_dbg.0.9.8e:a_gentm.obj
 0001:00068880       _ASN1_GENERALIZEDTIME_set  10069880 f   libeay32_EM_dbg.0.9.8e:a_gentm.obj
 0001:000689c0       _ASN1_UTCTIME_check        100699c0 f   libeay32_EM_dbg.0.9.8e:a_utctm.obj
 0001:00068c40       _ASN1_UTCTIME_set          10069c40 f   libeay32_EM_dbg.0.9.8e:a_utctm.obj
 0001:00068d80       _X509_policy_tree_free     10069d80 f   libeay32_EM_dbg.0.9.8e:pcy_tree.obj
 0001:00068eb0       _X509_policy_check         10069eb0 f   libeay32_EM_dbg.0.9.8e:pcy_tree.obj
 0001:00069be0       _EC_GROUP_new              1006abe0 f   libeay32_EM_dbg.0.9.8e:ec_lib.obj
 0001:00069d10       _EC_GROUP_free             1006ad10 f   libeay32_EM_dbg.0.9.8e:ec_lib.obj
 0001:00069db0       _EC_GROUP_clear_free       1006adb0 f   libeay32_EM_dbg.0.9.8e:ec_lib.obj
 0001:00069e90       _EC_GROUP_copy             1006ae90 f   libeay32_EM_dbg.0.9.8e:ec_lib.obj
 0001:0006a130       _EC_GROUP_dup              1006b130 f   libeay32_EM_dbg.0.9.8e:ec_lib.obj
 0001:0006a1c0       _EVP_CIPHER_CTX_cipher     1006b1c0 f   libeay32_EM_dbg.0.9.8e:evp_lib.obj
 0001:0006a1c0       _EC_METHOD_get_field_type  1006b1c0 f   libeay32_EM_dbg.0.9.8e:ec_lib.obj
 0001:0006a1c0       _SSL_version               1006b1c0 f   ssleay32_EM_dbg.0.9.8e:ssl_lib.obj
 0001:0006a1c0       _EVP_MD_CTX_md             1006b1c0 f   libeay32_EM_dbg.0.9.8e:evp_lib.obj
 0001:0006a1c0       _EVP_MD_type               1006b1c0 f   libeay32_EM_dbg.0.9.8e:evp_lib.obj
 0001:0006a1c0       _EC_GROUP_method_of        1006b1c0 f   libeay32_EM_dbg.0.9.8e:ec_lib.obj
 0001:0006a1c0       _EVP_CIPHER_nid            1006b1c0 f   libeay32_EM_dbg.0.9.8e:evp_lib.obj
 0001:0006a1d0       _EC_GROUP_set_generator    1006b1d0 f   libeay32_EM_dbg.0.9.8e:ec_lib.obj
 0001:0006a2b0       _EC_GROUP_get_order        1006b2b0 f   libeay32_EM_dbg.0.9.8e:ec_lib.obj
 0001:0006a2e0       _EC_GROUP_get_cofactor     1006b2e0 f   libeay32_EM_dbg.0.9.8e:ec_lib.obj
 0001:0006a310       _EC_GROUP_set_curve_name   1006b310 f   libeay32_EM_dbg.0.9.8e:ec_lib.obj
 0001:0006a320       _EC_GROUP_get_curve_name   1006b320 f   libeay32_EM_dbg.0.9.8e:ec_lib.obj
 0001:0006a330       _EC_GROUP_set_asn1_flag    1006b330 f   libeay32_EM_dbg.0.9.8e:ec_lib.obj
 0001:0006a340       _EC_GROUP_set_point_conversion_form 1006b340 f   libeay32_EM_dbg.0.9.8e:ec_lib.obj
 0001:0006a350       _EC_GROUP_set_seed         1006b350 f   libeay32_EM_dbg.0.9.8e:ec_lib.obj
 0001:0006a3e0       _EC_GROUP_set_curve_GFp    1006b3e0 f   libeay32_EM_dbg.0.9.8e:ec_lib.obj
 0001:0006a430       _EC_GROUP_set_curve_GF2m   1006b430 f   libeay32_EM_dbg.0.9.8e:ec_lib.obj
 0001:0006a480       _EC_GROUP_get_degree       1006b480 f   libeay32_EM_dbg.0.9.8e:ec_lib.obj
 0001:0006a4c0       _EC_GROUP_cmp              1006b4c0 f   libeay32_EM_dbg.0.9.8e:ec_lib.obj
 0001:0006a7d0       _EC_EX_DATA_set_data       1006b7d0 f   libeay32_EM_dbg.0.9.8e:ec_lib.obj
 0001:0006a8c0       _EC_EX_DATA_get_data       1006b8c0 f   libeay32_EM_dbg.0.9.8e:ec_lib.obj
 0001:0006a920       _EC_EX_DATA_free_data      1006b920 f   libeay32_EM_dbg.0.9.8e:ec_lib.obj
 0001:0006a9c0       _EC_EX_DATA_free_all_data  1006b9c0 f   libeay32_EM_dbg.0.9.8e:ec_lib.obj
 0001:0006aa20       _EC_EX_DATA_clear_free_all_data 1006ba20 f   libeay32_EM_dbg.0.9.8e:ec_lib.obj
 0001:0006aa80       _EC_POINT_new              1006ba80 f   libeay32_EM_dbg.0.9.8e:ec_lib.obj
 0001:0006ab50       _EC_POINT_free             1006bb50 f   libeay32_EM_dbg.0.9.8e:ec_lib.obj
 0001:0006ab90       _EC_POINT_clear_free       1006bb90 f   libeay32_EM_dbg.0.9.8e:ec_lib.obj
 0001:0006ac00       _EC_POINT_copy             1006bc00 f   libeay32_EM_dbg.0.9.8e:ec_lib.obj
 0001:0006ac80       _EC_POINT_dup              1006bc80 f   libeay32_EM_dbg.0.9.8e:ec_lib.obj
 0001:0006acf0       _EC_POINT_set_to_infinity  1006bcf0 f   libeay32_EM_dbg.0.9.8e:ec_lib.obj
 0001:0006ad60       _EC_POINT_set_Jprojective_coordinates_GFp 1006bd60 f   libeay32_EM_dbg.0.9.8e:ec_lib.obj
 0001:0006ade0       _EC_POINT_set_affine_coordinates_GFp 1006bde0 f   libeay32_EM_dbg.0.9.8e:ec_lib.obj
 0001:0006ae60       _EC_POINT_set_affine_coordinates_GF2m 1006be60 f   libeay32_EM_dbg.0.9.8e:ec_lib.obj
 0001:0006aee0       _EC_POINT_get_affine_coordinates_GFp 1006bee0 f   libeay32_EM_dbg.0.9.8e:ec_lib.obj
 0001:0006af60       _EC_POINT_get_affine_coordinates_GF2m 1006bf60 f   libeay32_EM_dbg.0.9.8e:ec_lib.obj
 0001:0006afe0       _EC_POINT_set_compressed_coordinates_GFp 1006bfe0 f   libeay32_EM_dbg.0.9.8e:ec_lib.obj
 0001:0006b060       _EC_POINT_set_compressed_coordinates_GF2m 1006c060 f   libeay32_EM_dbg.0.9.8e:ec_lib.obj
 0001:0006b0e0       _EC_POINT_point2oct        1006c0e0 f   libeay32_EM_dbg.0.9.8e:ec_lib.obj
 0001:0006b160       _EC_POINT_oct2point        1006c160 f   libeay32_EM_dbg.0.9.8e:ec_lib.obj
 0001:0006b1e0       _EC_POINT_add              1006c1e0 f   libeay32_EM_dbg.0.9.8e:ec_lib.obj
 0001:0006b270       _EC_POINT_dbl              1006c270 f   libeay32_EM_dbg.0.9.8e:ec_lib.obj
 0001:0006b2f0       _EC_POINT_invert           1006c2f0 f   libeay32_EM_dbg.0.9.8e:ec_lib.obj
 0001:0006b370       _EC_POINT_is_at_infinity   1006c370 f   libeay32_EM_dbg.0.9.8e:ec_lib.obj
 0001:0006b3e0       _EC_POINT_is_on_curve      1006c3e0 f   libeay32_EM_dbg.0.9.8e:ec_lib.obj
 0001:0006b450       _EC_POINT_cmp              1006c450 f   libeay32_EM_dbg.0.9.8e:ec_lib.obj
 0001:0006b4d0       _EC_POINT_make_affine      1006c4d0 f   libeay32_EM_dbg.0.9.8e:ec_lib.obj
 0001:0006b540       _EC_POINTs_make_affine     1006c540 f   libeay32_EM_dbg.0.9.8e:ec_lib.obj
 0001:0006b5f0       _EC_POINTs_mul             1006c5f0 f   libeay32_EM_dbg.0.9.8e:ec_lib.obj
 0001:0006b650       _EC_POINT_mul              1006c650 f   libeay32_EM_dbg.0.9.8e:ec_lib.obj
 0001:0006b6b0       _EC_GROUP_have_precompute_mult 1006c6b0 f   libeay32_EM_dbg.0.9.8e:ec_lib.obj
 0001:0006b6f0       _ECDSA_get_default_method  1006c6f0 f   libeay32_EM_dbg.0.9.8e:ecs_lib.obj
 0001:0006b710       _ecdsa_check               1006c710 f   libeay32_EM_dbg.0.9.8e:ecs_lib.obj
 0001:0006b930       _ECDSA_size                1006c930 f   libeay32_EM_dbg.0.9.8e:ecs_lib.obj
 0001:0006ba20       _DH_get_default_method     1006ca20 f   libeay32_EM_dbg.0.9.8e:dh_lib.obj
 0001:0006ba40       _DH_new                    1006ca40 f   libeay32_EM_dbg.0.9.8e:dh_lib.obj
 0001:0006ba50       _DH_new_method             1006ca50 f   libeay32_EM_dbg.0.9.8e:dh_lib.obj
 0001:0006bc70       _DH_free                   1006cc70 f   libeay32_EM_dbg.0.9.8e:dh_lib.obj
 0001:0006bdd0       _DH_size                   1006cdd0 f   libeay32_EM_dbg.0.9.8e:dh_lib.obj
 0001:0006bdf0       _RC5_32_encrypt            1006cdf0     libeay32_EM_dbg.0.9.8e:r5_win32.obj
 0001:0006bf95       _RC5_32_decrypt            1006cf95     libeay32_EM_dbg.0.9.8e:r5_win32.obj
 0001:0006c13a       _RC5_32_cbc_encrypt        1006d13a     libeay32_EM_dbg.0.9.8e:r5_win32.obj
 0001:0006c370       _RC5_32_cfb64_encrypt      1006d370 f   libeay32_EM_dbg.0.9.8e:rc5cfb64.obj
 0001:0006c810       _RC5_32_ecb_encrypt        1006d810 f   libeay32_EM_dbg.0.9.8e:rc5_ecb.obj
 0001:0006ca00       _RC5_32_ofb64_encrypt      1006da00 f   libeay32_EM_dbg.0.9.8e:rc5ofb64.obj
 0001:0006ce20       _RC5_32_set_key            1006de20 f   libeay32_EM_dbg.0.9.8e:rc5_skey.obj
 0001:0006d2e0       _DHparams_it               1006e2e0 f   libeay32_EM_dbg.0.9.8e:dh_asn1.obj
 0001:0006d2f0       _d2i_DHparams              1006e2f0 f   libeay32_EM_dbg.0.9.8e:dh_asn1.obj
 0001:0006d310       _i2d_DHparams              1006e310 f   libeay32_EM_dbg.0.9.8e:dh_asn1.obj
 0001:0006d330       _asn1_get_choice_selector  1006e330 f   libeay32_EM_dbg.0.9.8e:tasn_utl.obj
 0001:0006d360       _asn1_set_choice_selector  1006e360 f   libeay32_EM_dbg.0.9.8e:tasn_utl.obj
 0001:0006d3a0       _asn1_do_lock              1006e3a0 f   libeay32_EM_dbg.0.9.8e:tasn_utl.obj
 0001:0006d440       _asn1_enc_init             1006e440 f   libeay32_EM_dbg.0.9.8e:tasn_utl.obj
 0001:0006d4e0       _asn1_enc_free             1006e4e0 f   libeay32_EM_dbg.0.9.8e:tasn_utl.obj
 0001:0006d540       _asn1_enc_save             1006e540 f   libeay32_EM_dbg.0.9.8e:tasn_utl.obj
 0001:0006d5e0       _asn1_enc_restore          1006e5e0 f   libeay32_EM_dbg.0.9.8e:tasn_utl.obj
 0001:0006d660       _asn1_get_field_ptr        1006e660 f   libeay32_EM_dbg.0.9.8e:tasn_utl.obj
 0001:0006d6a0       _asn1_do_adb               1006e6a0 f   libeay32_EM_dbg.0.9.8e:tasn_utl.obj
 0001:0006d7b0       _i2c_ASN1_BIT_STRING       1006e7b0 f   libeay32_EM_dbg.0.9.8e:a_bitstr.obj
 0001:0006d950       _c2i_ASN1_BIT_STRING       1006e950 f   libeay32_EM_dbg.0.9.8e:a_bitstr.obj
 0001:0006db00       _ASN1_BIT_STRING_set_bit   1006eb00 f   libeay32_EM_dbg.0.9.8e:a_bitstr.obj
 0001:0006dca0       _ASN1_BIT_STRING_get_bit   1006eca0 f   libeay32_EM_dbg.0.9.8e:a_bitstr.obj
 0001:0006dd10       _MD5_Update                1006ed10 f   libeay32_EM_dbg.0.9.8e:md5_dgst.obj
 0001:0006e320       _MD5_Final                 1006f320 f   libeay32_EM_dbg.0.9.8e:md5_dgst.obj
 0001:0006e660       _MD4_Init                  1006f660 f   libeay32_EM_dbg.0.9.8e:md4_dgst.obj
 0001:0006e660       _MD5_Init                  1006f660 f   libeay32_EM_dbg.0.9.8e:md5_dgst.obj
 0001:0006e6b0       _BF_encrypt                1006f6b0     libeay32_EM_dbg.0.9.8e:b_win32.obj
 0001:0006eacb       _BF_decrypt                1006facb     libeay32_EM_dbg.0.9.8e:b_win32.obj
 0001:0006eee6       _BF_cbc_encrypt            1006fee6     libeay32_EM_dbg.0.9.8e:b_win32.obj
 0001:0006f130       _BF_cfb64_encrypt          10070130 f   libeay32_EM_dbg.0.9.8e:bf_cfb64.obj
 0001:0006f5d0       _BF_ecb_encrypt            100705d0 f   libeay32_EM_dbg.0.9.8e:bf_ecb.obj
 0001:0006f7c0       _BF_ofb64_encrypt          100707c0 f   libeay32_EM_dbg.0.9.8e:bf_ofb64.obj
 0001:0006fbe0       _BF_set_key                10070be0 f   libeay32_EM_dbg.0.9.8e:bf_skey.obj
 0001:0006fdb0       _MD2_Init                  10070db0 f   libeay32_EM_dbg.0.9.8e:md2_dgst.obj
 0001:0006fe00       _MD2_Update                10070e00 f   libeay32_EM_dbg.0.9.8e:md2_dgst.obj
 0001:00070210       _MD2_Final                 10071210 f   libeay32_EM_dbg.0.9.8e:md2_dgst.obj
 0001:00071060       _UTF8_getc                 10072060 f   libeay32_EM_dbg.0.9.8e:a_utf8.obj
 0001:00071580       _UTF8_putc                 10072580 f   libeay32_EM_dbg.0.9.8e:a_utf8.obj
 0001:00071890       _BN_nnmod                  10072890 f   libeay32_EM_dbg.0.9.8e:bn_mod.obj
 0001:00071900       _BN_mod_add                10072900 f   libeay32_EM_dbg.0.9.8e:bn_mod.obj
 0001:00071940       _BN_mod_add_quick          10072940 f   libeay32_EM_dbg.0.9.8e:bn_mod.obj
 0001:00071990       _BN_mod_sub_quick          10072990 f   libeay32_EM_dbg.0.9.8e:bn_mod.obj
 0001:000719e0       _BN_mod_mul                100729e0 f   libeay32_EM_dbg.0.9.8e:bn_mod.obj
 0001:00071aa0       _BN_mod_sqr                10072aa0 f   libeay32_EM_dbg.0.9.8e:bn_mod.obj
 0001:00071ae0       _BN_mod_lshift1_quick      10072ae0 f   libeay32_EM_dbg.0.9.8e:bn_mod.obj
 0001:00071b30       _BN_mod_lshift_quick       10072b30 f   libeay32_EM_dbg.0.9.8e:bn_mod.obj
 0001:00071c50       _BN_div                    10072c50 f   libeay32_EM_dbg.0.9.8e:bn_div.obj
 0001:00072190       _RIPEMD160_Update          10073190 f   libeay32_EM_dbg.0.9.8e:rmd_dgst.obj
 0001:000727a0       _RIPEMD160_Final           100737a0 f   libeay32_EM_dbg.0.9.8e:rmd_dgst.obj
 0001:00072b40       _RSA_sign_ASN1_OCTET_STRING 10073b40 f   libeay32_EM_dbg.0.9.8e:rsa_saos.obj
 0001:00072c60       _RSA_verify_ASN1_OCTET_STRING 10073c60 f   libeay32_EM_dbg.0.9.8e:rsa_saos.obj
 0001:00072db0       _MDC2_Init                 10073db0 f   libeay32_EM_dbg.0.9.8e:mdc2dgst.obj
 0001:00072e00       _MDC2_Update               10073e00 f   libeay32_EM_dbg.0.9.8e:mdc2dgst.obj
 0001:000732d0       _MDC2_Final                100742d0 f   libeay32_EM_dbg.0.9.8e:mdc2dgst.obj
 0001:00073380       _BIO_get_host_ip           10074380 f   libeay32_EM_dbg.0.9.8e:b_sock.obj
 0001:000734e0       _BIO_get_port              100744e0 f   libeay32_EM_dbg.0.9.8e:b_sock.obj
 0001:000736c0       _BIO_sock_error            100746c0 f   libeay32_EM_dbg.0.9.8e:b_sock.obj
 0001:00073710       _BIO_gethostbyname         10074710 f   libeay32_EM_dbg.0.9.8e:b_sock.obj
 0001:00073720       _BIO_sock_init             10074720 f   libeay32_EM_dbg.0.9.8e:b_sock.obj
 0001:000737b0       _BIO_socket_ioctl          100747b0 f   libeay32_EM_dbg.0.9.8e:b_sock.obj
 0001:00073900       _BIO_get_accept_socket     10074900 f   libeay32_EM_dbg.0.9.8e:b_sock.obj
 0001:00073cb0       _BIO_accept                10074cb0 f   libeay32_EM_dbg.0.9.8e:b_sock.obj
 0001:00073e20       _BIO_socket_nbio           10074e20 f   libeay32_EM_dbg.0.9.8e:b_sock.obj
 0001:00073e60       _BN_mod_exp                10074e60 f   libeay32_EM_dbg.0.9.8e:bn_exp.obj
 0001:00073f20       _BN_mod_exp_recp           10074f20 f   libeay32_EM_dbg.0.9.8e:bn_exp.obj
 0001:000743c0       _BN_mod_exp_mont           100753c0 f   libeay32_EM_dbg.0.9.8e:bn_exp.obj
 0001:00074940       _BN_mod_exp_mont_consttime 10075940 f   libeay32_EM_dbg.0.9.8e:bn_exp.obj
 0001:00075000       _BN_mod_exp_mont_word      10076000 f   libeay32_EM_dbg.0.9.8e:bn_exp.obj
 0001:00075480       _BN_mod_mul_montgomery     10076480 f   libeay32_EM_dbg.0.9.8e:bn_mont.obj
 0001:00075540       _BN_from_montgomery        10076540 f   libeay32_EM_dbg.0.9.8e:bn_mont.obj
 0001:00075950       _BN_MONT_CTX_new           10076950 f   libeay32_EM_dbg.0.9.8e:bn_mont.obj
 0001:000759a0       _BN_MONT_CTX_init          100769a0 f   libeay32_EM_dbg.0.9.8e:bn_mont.obj
 0001:000759f0       _BN_MONT_CTX_free          100769f0 f   libeay32_EM_dbg.0.9.8e:bn_mont.obj
 0001:00075a50       _BN_MONT_CTX_set           10076a50 f   libeay32_EM_dbg.0.9.8e:bn_mont.obj
 0001:00075c60       _BN_MONT_CTX_copy          10076c60 f   libeay32_EM_dbg.0.9.8e:bn_mont.obj
 0001:00075cf0       _BN_MONT_CTX_set_locked    10076cf0 f   libeay32_EM_dbg.0.9.8e:bn_mont.obj
 0001:00075df0       _RSA_padding_add_none      10076df0 f   libeay32_EM_dbg.0.9.8e:rsa_none.obj
 0001:00075e50       _RSA_padding_check_none    10076e50 f   libeay32_EM_dbg.0.9.8e:rsa_none.obj
 0001:00075eb0       _RSA_padding_add_SSLv23    10076eb0 f   libeay32_EM_dbg.0.9.8e:rsa_ssl.obj
 0001:00075fd0       _RSA_padding_check_SSLv23  10076fd0 f   libeay32_EM_dbg.0.9.8e:rsa_ssl.obj
 0001:00076150       _RSA_padding_add_PKCS1_OAEP 10077150 f   libeay32_EM_dbg.0.9.8e:rsa_oaep.obj
 0001:00076350       _RSA_padding_check_PKCS1_OAEP 10077350 f   libeay32_EM_dbg.0.9.8e:rsa_oaep.obj
 0001:000765c0       _PKCS1_MGF1                100775c0 f   libeay32_EM_dbg.0.9.8e:rsa_oaep.obj
 0001:00076710       _MGF1                      10077710 f   libeay32_EM_dbg.0.9.8e:rsa_oaep.obj
 0001:00076740       _RSA_padding_add_PKCS1_type_1 10077740 f   libeay32_EM_dbg.0.9.8e:rsa_pk1.obj
 0001:000767f0       _RSA_padding_check_PKCS1_type_1 100777f0 f   libeay32_EM_dbg.0.9.8e:rsa_pk1.obj
 0001:00076950       _RSA_padding_add_PKCS1_type_2 10077950 f   libeay32_EM_dbg.0.9.8e:rsa_pk1.obj
 0001:00076a50       _RSA_padding_check_PKCS1_type_2 10077a50 f   libeay32_EM_dbg.0.9.8e:rsa_pk1.obj
 0001:00076b80       _RSA_padding_add_X931      10077b80 f   libeay32_EM_dbg.0.9.8e:rsa_x931.obj
 0001:00076c50       _RSA_padding_check_X931    10077c50 f   libeay32_EM_dbg.0.9.8e:rsa_x931.obj
 0001:00076dd0       _engine_free_util          10077dd0 f   libeay32_EM_dbg.0.9.8e:eng_lib.obj
 0001:00076f60       _engine_table_select       10077f60 f   libeay32_EM_dbg.0.9.8e:eng_table.obj
 0001:00077100       _BN_rand                   10078100 f   libeay32_EM_dbg.0.9.8e:bn_rand.obj
 0001:00077390       _BN_pseudo_rand            10078390 f   libeay32_EM_dbg.0.9.8e:bn_rand.obj
 0001:000773b0       _BN_rand_range             100783b0 f   libeay32_EM_dbg.0.9.8e:bn_rand.obj
 0001:000775c0       _BN_pseudo_rand_range      100785c0 f   libeay32_EM_dbg.0.9.8e:bn_rand.obj
 0001:000775e0       _bn_mul_add_words          100785e0     libeay32_EM_dbg.0.9.8e:bn_win32.obj
 0001:00077815       _bn_mul_words              10078815     libeay32_EM_dbg.0.9.8e:bn_win32.obj
 0001:000779a4       _bn_sqr_words              100789a4     libeay32_EM_dbg.0.9.8e:bn_win32.obj
 0001:00077ab8       _bn_div_words              10078ab8     libeay32_EM_dbg.0.9.8e:bn_win32.obj
 0001:00077acf       _bn_add_words              10078acf     libeay32_EM_dbg.0.9.8e:bn_win32.obj
 0001:00077cbf       _bn_sub_words              10078cbf     libeay32_EM_dbg.0.9.8e:bn_win32.obj
 0001:00077eaf       _bn_mul_comba8             10078eaf     libeay32_EM_dbg.0.9.8e:bn_win32.obj
 0001:000783bd       _bn_mul_comba4             100793bd     libeay32_EM_dbg.0.9.8e:bn_win32.obj
 0001:0007852b       _bn_sqr_comba8             1007952b     libeay32_EM_dbg.0.9.8e:bn_win32.obj
 0001:0007890d       _bn_sqr_comba4             1007990d     libeay32_EM_dbg.0.9.8e:bn_win32.obj
 0001:00078a30       _EVP_get_pw_prompt         10079a30 f   libeay32_EM_dbg.0.9.8e:evp_key.obj
 0001:00078a50       _EVP_read_pw_string        10079a50 f   libeay32_EM_dbg.0.9.8e:evp_key.obj
 0001:00078b70       _EVP_BytesToKey            10079b70 f   libeay32_EM_dbg.0.9.8e:evp_key.obj
 0001:00078dd0       _EVP_EncodeInit            10079dd0 f   libeay32_EM_dbg.0.9.8e:encode.obj
 0001:00078e00       _EVP_EncodeUpdate          10079e00 f   libeay32_EM_dbg.0.9.8e:encode.obj
 0001:00078fd0       _EVP_EncodeFinal           10079fd0 f   libeay32_EM_dbg.0.9.8e:encode.obj
 0001:00079040       _EVP_EncodeBlock           1007a040 f   libeay32_EM_dbg.0.9.8e:encode.obj
 0001:000791e0       _EVP_DecodeInit            1007a1e0 f   libeay32_EM_dbg.0.9.8e:encode.obj
 0001:00079210       _EVP_DecodeUpdate          1007a210 f   libeay32_EM_dbg.0.9.8e:encode.obj
 0001:00079500       _EVP_DecodeBlock           1007a500 f   libeay32_EM_dbg.0.9.8e:encode.obj
 0001:000796e0       _EVP_DecodeFinal           1007a6e0 f   libeay32_EM_dbg.0.9.8e:encode.obj
 0001:00079750       _d2i_PublicKey             1007a750 f   libeay32_EM_dbg.0.9.8e:d2i_pu.obj
 0001:000798f0       _EC_GROUP_new_by_curve_name 1007a8f0 f   libeay32_EM_dbg.0.9.8e:ec_curve.obj
 0001:00079dd0       _HMAC_Init_ex              1007add0 f   libeay32_EM_dbg.0.9.8e:hmac.obj
 0001:0007a060       _HMAC_Init                 1007b060 f   libeay32_EM_dbg.0.9.8e:hmac.obj
 0001:0007a0a0       _HMAC_Update               1007b0a0 f   libeay32_EM_dbg.0.9.8e:hmac.obj
 0001:0007a0c0       _HMAC_Final                1007b0c0 f   libeay32_EM_dbg.0.9.8e:hmac.obj
 0001:0007a160       _HMAC_CTX_init             1007b160 f   libeay32_EM_dbg.0.9.8e:hmac.obj
 0001:0007a1a0       _HMAC_CTX_cleanup          1007b1a0 f   libeay32_EM_dbg.0.9.8e:hmac.obj
 0001:0007a1f0       _HMAC                      1007b1f0 f   libeay32_EM_dbg.0.9.8e:hmac.obj
 0001:0007a290       _PKCS12_key_gen_asc        1007b290 f   libeay32_EM_dbg.0.9.8e:p12_key.obj
 0001:0007a340       _PKCS12_key_gen_uni        1007b340 f   libeay32_EM_dbg.0.9.8e:p12_key.obj
 0001:0007a7b0       _PKCS12_pbe_crypt          1007b7b0 f   libeay32_EM_dbg.0.9.8e:p12_decr.obj
 0001:0007a940       _PKCS12_item_decrypt_d2i   1007b940 f   libeay32_EM_dbg.0.9.8e:p12_decr.obj
 0001:0007aa00       _PBEPARAM_it               1007ba00 f   libeay32_EM_dbg.0.9.8e:p5_pbe.obj
 0001:0007aa10       _d2i_PBEPARAM              1007ba10 f   libeay32_EM_dbg.0.9.8e:p5_pbe.obj
 0001:0007aa30       _PBEPARAM_free             1007ba30 f   libeay32_EM_dbg.0.9.8e:p5_pbe.obj
 0001:0007aa50       _EVP_dss                   1007ba50 f   libeay32_EM_dbg.0.9.8e:m_dss.obj
 0001:0007aa60       _PKCS5_PBE_add             1007ba60 f   libeay32_EM_dbg.0.9.8e:p5_crpt.obj
 0001:0007ab30       _PKCS5_PBE_keyivgen        1007bb30 f   libeay32_EM_dbg.0.9.8e:p5_crpt.obj
 0001:0007ae30       _PKCS12_PBE_add            1007be30 f   libeay32_EM_dbg.0.9.8e:p12_crpt.obj
 0001:0007aef0       _PKCS12_PBE_keyivgen       1007bef0 f   libeay32_EM_dbg.0.9.8e:p12_crpt.obj
 0001:0007b0d0       _EVP_camellia_128_cbc      1007c0d0 f   libeay32_EM_dbg.0.9.8e:e_camellia.obj
 0001:0007b0e0       _EVP_camellia_128_cfb128   1007c0e0 f   libeay32_EM_dbg.0.9.8e:e_camellia.obj
 0001:0007b0f0       _EVP_camellia_128_ofb      1007c0f0 f   libeay32_EM_dbg.0.9.8e:e_camellia.obj
 0001:0007b100       _EVP_camellia_128_ecb      1007c100 f   libeay32_EM_dbg.0.9.8e:e_camellia.obj
 0001:0007b1d0       _EVP_camellia_192_cbc      1007c1d0 f   libeay32_EM_dbg.0.9.8e:e_camellia.obj
 0001:0007b1e0       _EVP_camellia_192_cfb128   1007c1e0 f   libeay32_EM_dbg.0.9.8e:e_camellia.obj
 0001:0007b1f0       _EVP_camellia_192_ofb      1007c1f0 f   libeay32_EM_dbg.0.9.8e:e_camellia.obj
 0001:0007b200       _EVP_camellia_192_ecb      1007c200 f   libeay32_EM_dbg.0.9.8e:e_camellia.obj
 0001:0007b290       _EVP_camellia_256_cbc      1007c290 f   libeay32_EM_dbg.0.9.8e:e_camellia.obj
 0001:0007b2a0       _EVP_camellia_256_cfb128   1007c2a0 f   libeay32_EM_dbg.0.9.8e:e_camellia.obj
 0001:0007b2b0       _EVP_camellia_256_ofb      1007c2b0 f   libeay32_EM_dbg.0.9.8e:e_camellia.obj
 0001:0007b2c0       _EVP_camellia_256_ecb      1007c2c0 f   libeay32_EM_dbg.0.9.8e:e_camellia.obj
 0001:0007b2d0       _EVP_camellia_128_cfb1     1007c2d0 f   libeay32_EM_dbg.0.9.8e:e_camellia.obj
 0001:0007b2e0       _EVP_camellia_192_cfb1     1007c2e0 f   libeay32_EM_dbg.0.9.8e:e_camellia.obj
 0001:0007b330       _EVP_camellia_256_cfb1     1007c330 f   libeay32_EM_dbg.0.9.8e:e_camellia.obj
 0001:0007b340       _EVP_camellia_128_cfb8     1007c340 f   libeay32_EM_dbg.0.9.8e:e_camellia.obj
 0001:0007b350       _EVP_camellia_192_cfb8     1007c350 f   libeay32_EM_dbg.0.9.8e:e_camellia.obj
 0001:0007b3a0       _EVP_camellia_256_cfb8     1007c3a0 f   libeay32_EM_dbg.0.9.8e:e_camellia.obj
 0001:0007b410       _sha1_block_asm_data_order 1007c410     libeay32_EM_dbg.0.9.8e:s1_win32.obj
 0001:0007c3bb       _sha1_block_asm_host_order 1007d3bb     libeay32_EM_dbg.0.9.8e:s1_win32.obj
 0001:0007c460       _i2d_ASN1_bytes            1007d460 f   libeay32_EM_dbg.0.9.8e:a_bytes.obj
 0001:0007c530       _ASN1_ENUMERATED_get       1007d530 f   libeay32_EM_dbg.0.9.8e:a_enum.obj
 0001:0007c5f0       _ASN1_ENUMERATED_to_BN     1007d5f0 f   libeay32_EM_dbg.0.9.8e:a_enum.obj
 0001:0007c660       _CONF_parse_list           1007d660 f   libeay32_EM_dbg.0.9.8e:conf_mod.obj
 0001:0007c770       _DSA_OpenSSL               1007d770 f   libeay32_EM_dbg.0.9.8e:dsa_ossl.obj
 0001:0007d100       _ENGINE_get_default_DSA    1007e100 f   libeay32_EM_dbg.0.9.8e:tb_dsa.obj
 0001:0007d120       _EC_KEY_get0_private_key   1007e120 f   libeay32_EM_dbg.0.9.8e:ec_key.obj
 0001:0007d120       _SSL_get_rbio              1007e120 f   ssleay32_EM_dbg.0.9.8e:ssl_lib.obj
 0001:0007d120       _EVP_CIPHER_iv_length      1007e120 f   libeay32_EM_dbg.0.9.8e:evp_lib.obj
 0001:0007d120       _ENGINE_get_DSA            1007e120 f   libeay32_EM_dbg.0.9.8e:tb_dsa.obj
 0001:0007d130       _EC_GF2m_simple_method     1007e130 f   libeay32_EM_dbg.0.9.8e:ec2_smpl.obj
 0001:0007d140       _ec_GF2m_simple_group_init 1007e140 f   libeay32_EM_dbg.0.9.8e:ec2_smpl.obj
 0001:0007d180       _ec_GF2m_simple_group_clear_finish 1007e180 f   libeay32_EM_dbg.0.9.8e:ec2_smpl.obj
 0001:0007d1f0       _ec_GF2m_simple_group_copy 1007e1f0 f   libeay32_EM_dbg.0.9.8e:ec2_smpl.obj
 0001:0007d3c0       _ec_GF2m_simple_group_set_curve 1007e3c0 f   libeay32_EM_dbg.0.9.8e:ec2_smpl.obj
 0001:0007d5a0       _ec_GF2m_simple_group_get_curve 1007e5a0 f   libeay32_EM_dbg.0.9.8e:ec2_smpl.obj
 0001:0007d630       _ec_GF2m_simple_group_get_degree 1007e630 f   libeay32_EM_dbg.0.9.8e:ec2_smpl.obj
 0001:0007d650       _ec_GF2m_simple_group_check_discriminant 1007e650 f   libeay32_EM_dbg.0.9.8e:ec2_smpl.obj
 0001:0007d730       _ec_GF2m_simple_point_init 1007e730 f   libeay32_EM_dbg.0.9.8e:ec2_smpl.obj
 0001:0007d770       _ec_GFp_simple_point_finish 1007e770 f   libeay32_EM_dbg.0.9.8e:ecp_smpl.obj
 0001:0007d770       _ec_GF2m_simple_point_finish 1007e770 f   libeay32_EM_dbg.0.9.8e:ec2_smpl.obj
 0001:0007d7b0       _ec_GFp_simple_point_clear_finish 1007e7b0 f   libeay32_EM_dbg.0.9.8e:ecp_smpl.obj
 0001:0007d7b0       _ec_GF2m_simple_point_clear_finish 1007e7b0 f   libeay32_EM_dbg.0.9.8e:ec2_smpl.obj
 0001:0007d7f0       _ec_GFp_simple_point_set_to_infinity 1007e7f0 f   libeay32_EM_dbg.0.9.8e:ecp_smpl.obj
 0001:0007d7f0       _ec_GF2m_simple_point_set_to_infinity 1007e7f0 f   libeay32_EM_dbg.0.9.8e:ec2_smpl.obj
 0001:0007d820       _ec_GF2m_simple_point_set_affine_coordinates 1007e820 f   libeay32_EM_dbg.0.9.8e:ec2_smpl.obj
 0001:0007d900       _ec_GF2m_simple_point_get_affine_coordinates 1007e900 f   libeay32_EM_dbg.0.9.8e:ec2_smpl.obj
 0001:0007d9f0       _ec_GF2m_simple_set_compressed_coordinates 1007e9f0 f   libeay32_EM_dbg.0.9.8e:ec2_smpl.obj
 0001:0007da10       _ec_GF2m_simple_point2oct  1007ea10 f   libeay32_EM_dbg.0.9.8e:ec2_smpl.obj
 0001:0007ddb0       _ec_GF2m_simple_oct2point  1007edb0 f   libeay32_EM_dbg.0.9.8e:ec2_smpl.obj
 0001:0007e170       _ec_GF2m_simple_add        1007f170 f   libeay32_EM_dbg.0.9.8e:ec2_smpl.obj
 0001:0007e640       _ec_GF2m_simple_dbl        1007f640 f   libeay32_EM_dbg.0.9.8e:ec2_smpl.obj
 0001:0007e670       _ec_GF2m_simple_invert     1007f670 f   libeay32_EM_dbg.0.9.8e:ec2_smpl.obj
 0001:0007e6e0       _ec_GF2m_simple_is_on_curve 1007f6e0 f   libeay32_EM_dbg.0.9.8e:ec2_smpl.obj
 0001:0007e8c0       _ec_GF2m_simple_cmp        1007f8c0 f   libeay32_EM_dbg.0.9.8e:ec2_smpl.obj
 0001:0007ea90       _ec_GF2m_simple_make_affine 1007fa90 f   libeay32_EM_dbg.0.9.8e:ec2_smpl.obj
 0001:0007ebd0       _ec_GF2m_simple_points_make_affine 1007fbd0 f   libeay32_EM_dbg.0.9.8e:ec2_smpl.obj
 0001:0007ec30       _ec_GF2m_simple_field_mul  1007fc30 f   libeay32_EM_dbg.0.9.8e:ec2_smpl.obj
 0001:0007ec60       _ec_GF2m_simple_field_sqr  1007fc60 f   libeay32_EM_dbg.0.9.8e:ec2_smpl.obj
 0001:0007ec80       _ec_GF2m_simple_field_div  1007fc80 f   libeay32_EM_dbg.0.9.8e:ec2_smpl.obj
 0001:0007ecb0       _EC_GROUP_new_curve_GFp    1007fcb0 f   libeay32_EM_dbg.0.9.8e:ec_cvt.obj
 0001:0007edc0       _EC_GROUP_new_curve_GF2m   1007fdc0 f   libeay32_EM_dbg.0.9.8e:ec_cvt.obj
 0001:0007ee30       _X509_get_default_cert_dir 1007fe30 f   libeay32_EM_dbg.0.9.8e:x509_def.obj
 0001:0007ee40       _X509_get_default_cert_file 1007fe40 f   libeay32_EM_dbg.0.9.8e:x509_def.obj
 0001:0007ee50       _X509_get_default_cert_dir_env 1007fe50 f   libeay32_EM_dbg.0.9.8e:x509_def.obj
 0001:0007ee60       _X509_get_default_cert_file_env 1007fe60 f   libeay32_EM_dbg.0.9.8e:x509_def.obj
 0001:0007ee70       _PEM_read_bio_X509_AUX     1007fe70 f   libeay32_EM_dbg.0.9.8e:pem_xaux.obj
 0001:0007eea0       _X509_INFO_new             1007fea0 f   libeay32_EM_dbg.0.9.8e:x_info.obj
 0001:0007ef40       _X509_INFO_free            1007ff40 f   libeay32_EM_dbg.0.9.8e:x_info.obj
 0001:0007eff0       _PEM_X509_INFO_read_bio    1007fff0 f   libeay32_EM_dbg.0.9.8e:pem_info.obj
 0001:0007f6a0       _ECDSA_do_verify           100806a0 f   libeay32_EM_dbg.0.9.8e:ecs_vrf.obj
 0001:0007f6f0       _ECDSA_verify              100806f0 f   libeay32_EM_dbg.0.9.8e:ecs_vrf.obj
 0001:0007f760       _ECDSA_do_sign_ex          10080760 f   libeay32_EM_dbg.0.9.8e:ecs_sign.obj
 0001:0007f7b0       _ECDSA_sign                100807b0 f   libeay32_EM_dbg.0.9.8e:ecs_sign.obj
 0001:0007f7e0       _ECDSA_sign_ex             100807e0 f   libeay32_EM_dbg.0.9.8e:ecs_sign.obj
 0001:0007f850       _ECDSA_sign_setup          10080850 f   libeay32_EM_dbg.0.9.8e:ecs_sign.obj
 0001:0007f8a0       _DSA_do_verify             100808a0 f   libeay32_EM_dbg.0.9.8e:dsa_vrf.obj
 0001:0007f8d0       _DSA_verify                100808d0 f   libeay32_EM_dbg.0.9.8e:dsa_vrf.obj
 0001:0007f940       _DSA_do_sign               10080940 f   libeay32_EM_dbg.0.9.8e:dsa_sign.obj
 0001:0007f960       _DSA_sign                  10080960 f   libeay32_EM_dbg.0.9.8e:dsa_sign.obj
 0001:0007f9d0       _DSA_sign_setup            100809d0 f   libeay32_EM_dbg.0.9.8e:dsa_sign.obj
 0001:0007fa00       _NCONF_default             10080a00 f   libeay32_EM_dbg.0.9.8e:conf_def.obj
 0001:00080dd0       __CONF_get_section         10081dd0 f   libeay32_EM_dbg.0.9.8e:conf_api.obj
 0001:00080e20       __CONF_get_section_values  10081e20 f   libeay32_EM_dbg.0.9.8e:conf_api.obj
 0001:00080e60       __CONF_add_string          10081e60 f   libeay32_EM_dbg.0.9.8e:conf_api.obj
 0001:00080f00       __CONF_get_string          10081f00 f   libeay32_EM_dbg.0.9.8e:conf_api.obj
 0001:00080fe0       __CONF_new_data            10081fe0 f   libeay32_EM_dbg.0.9.8e:conf_api.obj
 0001:00081030       __CONF_free_data           10082030 f   libeay32_EM_dbg.0.9.8e:conf_api.obj
 0001:000812e0       __CONF_new_section         100822e0 f   libeay32_EM_dbg.0.9.8e:conf_api.obj
 0001:000813f0       _PROXY_POLICY_it           100823f0 f   libeay32_EM_dbg.0.9.8e:v3_pcia.obj
 0001:00081400       _PROXY_POLICY_new          10082400 f   libeay32_EM_dbg.0.9.8e:v3_pcia.obj
 0001:00081420       _PROXY_POLICY_free         10082420 f   libeay32_EM_dbg.0.9.8e:v3_pcia.obj
 0001:00081440       _PROXY_CERT_INFO_EXTENSION_it 10082440 f   libeay32_EM_dbg.0.9.8e:v3_pcia.obj
 0001:00081450       _PROXY_CERT_INFO_EXTENSION_new 10082450 f   libeay32_EM_dbg.0.9.8e:v3_pcia.obj
 0001:00081470       _PROXY_CERT_INFO_EXTENSION_free 10082470 f   libeay32_EM_dbg.0.9.8e:v3_pcia.obj
 0001:00081490       _i2a_ASN1_INTEGER          10082490 f   libeay32_EM_dbg.0.9.8e:f_int.obj
 0001:000815e0       _OCSP_SIGNATURE_it         100825e0 f   libeay32_EM_dbg.0.9.8e:ocsp_asn.obj
 0001:000815f0       _OCSP_CERTID_it            100825f0 f   libeay32_EM_dbg.0.9.8e:ocsp_asn.obj
 0001:00081600       _OCSP_ONEREQ_it            10082600 f   libeay32_EM_dbg.0.9.8e:ocsp_asn.obj
 0001:00081610       _OCSP_REQINFO_it           10082610 f   libeay32_EM_dbg.0.9.8e:ocsp_asn.obj
 0001:00081620       _OCSP_RESPBYTES_it         10082620 f   libeay32_EM_dbg.0.9.8e:ocsp_asn.obj
 0001:00081630       _OCSP_RESPID_it            10082630 f   libeay32_EM_dbg.0.9.8e:ocsp_asn.obj
 0001:00081640       _OCSP_REVOKEDINFO_it       10082640 f   libeay32_EM_dbg.0.9.8e:ocsp_asn.obj
 0001:00081650       _OCSP_CERTSTATUS_it        10082650 f   libeay32_EM_dbg.0.9.8e:ocsp_asn.obj
 0001:00081660       _OCSP_SINGLERESP_it        10082660 f   libeay32_EM_dbg.0.9.8e:ocsp_asn.obj
 0001:00081670       _OCSP_RESPDATA_it          10082670 f   libeay32_EM_dbg.0.9.8e:ocsp_asn.obj
 0001:00081680       _OCSP_CRLID_it             10082680 f   libeay32_EM_dbg.0.9.8e:ocsp_asn.obj
 0001:00081690       _OCSP_SERVICELOC_it        10082690 f   libeay32_EM_dbg.0.9.8e:ocsp_asn.obj
 0001:000816a0       _i2a_ASN1_STRING           100826a0 f   libeay32_EM_dbg.0.9.8e:f_string.obj
 0001:000817c0       _policy_data_free          100827c0 f   libeay32_EM_dbg.0.9.8e:pcy_data.obj
 0001:00081820       _policy_data_new           10082820 f   libeay32_EM_dbg.0.9.8e:pcy_data.obj
 0001:00081900       _policy_cache_set_mapping  10082900 f   libeay32_EM_dbg.0.9.8e:pcy_map.obj
 0001:00081c40       _PBE2PARAM_it              10082c40 f   libeay32_EM_dbg.0.9.8e:p5_pbev2.obj
 0001:00081c50       _d2i_PBE2PARAM             10082c50 f   libeay32_EM_dbg.0.9.8e:p5_pbev2.obj
 0001:00081c70       _PBE2PARAM_free            10082c70 f   libeay32_EM_dbg.0.9.8e:p5_pbev2.obj
 0001:00081c90       _PBKDF2PARAM_it            10082c90 f   libeay32_EM_dbg.0.9.8e:p5_pbev2.obj
 0001:00081ca0       _d2i_PBKDF2PARAM           10082ca0 f   libeay32_EM_dbg.0.9.8e:p5_pbev2.obj
 0001:00081cc0       _PBKDF2PARAM_free          10082cc0 f   libeay32_EM_dbg.0.9.8e:p5_pbev2.obj
 0001:00081ce0       _OPENSSL_gmtime            10082ce0 f   libeay32_EM_dbg.0.9.8e:o_time.obj
 0001:00081d50       _policy_node_cmp_new       10082d50 f   libeay32_EM_dbg.0.9.8e:pcy_node.obj
 0001:00081da0       _tree_find_sk              10082da0 f   libeay32_EM_dbg.0.9.8e:pcy_node.obj
 0001:00081df0       _level_find_node           10082df0 f   libeay32_EM_dbg.0.9.8e:pcy_node.obj
 0001:00081e10       _level_add_node            10082e10 f   libeay32_EM_dbg.0.9.8e:pcy_node.obj
 0001:00081f30       _X509_policy_tree_get0_user_policies 10082f30 f   libeay32_EM_dbg.0.9.8e:pcy_lib.obj
 0001:00081f60       _ec_wNAF_mul               10082f60 f   libeay32_EM_dbg.0.9.8e:ec_mult.obj
 0001:00082fd0       _ec_wNAF_precompute_mult   10083fd0 f   libeay32_EM_dbg.0.9.8e:ec_mult.obj
 0001:00083640       _ec_wNAF_have_precompute_mult 10084640 f   libeay32_EM_dbg.0.9.8e:ec_mult.obj
 0001:00083680       _ECDSA_OpenSSL             10084680 f   libeay32_EM_dbg.0.9.8e:ecs_ossl.obj
 0001:00084250       _ENGINE_get_default_ECDSA  10085250 f   libeay32_EM_dbg.0.9.8e:tb_ecdsa.obj
 0001:00084270       _SSL_want                  10085270 f   ssleay32_EM_dbg.0.9.8e:ssl_lib.obj
 0001:00084270       _BIO_get_retry_reason      10085270 f   libeay32_EM_dbg.0.9.8e:bio_lib.obj
 0001:00084270       _ENGINE_get_ECDSA          10085270 f   libeay32_EM_dbg.0.9.8e:tb_ecdsa.obj
 0001:00084280       _DH_generate_key           10085280 f   libeay32_EM_dbg.0.9.8e:dh_key.obj
 0001:000842a0       _DH_compute_key            100852a0 f   libeay32_EM_dbg.0.9.8e:dh_key.obj
 0001:000842c0       _DH_OpenSSL                100852c0 f   libeay32_EM_dbg.0.9.8e:dh_key.obj
 0001:000847b0       _ENGINE_get_default_DH     100857b0 f   libeay32_EM_dbg.0.9.8e:tb_dh.obj
 0001:000847d0       _md5_block_asm_host_order  100857d0     libeay32_EM_dbg.0.9.8e:m5_win32.obj
 0001:00084e80       _BN_sqr                    10085e80 f   libeay32_EM_dbg.0.9.8e:bn_sqr.obj
 0001:00085130       _bn_sqr_normal             10086130 f   libeay32_EM_dbg.0.9.8e:bn_sqr.obj
 0001:00085260       _bn_sqr_recursive          10086260 f   libeay32_EM_dbg.0.9.8e:bn_sqr.obj
 0001:000854b0       _ripemd160_block_asm_host_order 100864b0     libeay32_EM_dbg.0.9.8e:rm_win32.obj
 0001:000869b0       _BN_RECP_CTX_init          100879b0 f   libeay32_EM_dbg.0.9.8e:bn_recp.obj
 0001:000869f0       _BN_RECP_CTX_free          100879f0 f   libeay32_EM_dbg.0.9.8e:bn_recp.obj
 0001:00086a30       _BN_RECP_CTX_set           10087a30 f   libeay32_EM_dbg.0.9.8e:bn_recp.obj
 0001:00086a80       _BN_mod_mul_reciprocal     10087a80 f   libeay32_EM_dbg.0.9.8e:bn_recp.obj
 0001:00086b40       _BN_div_recp               10087b40 f   libeay32_EM_dbg.0.9.8e:bn_recp.obj
 0001:00086e10       _BN_reciprocal             10087e10 f   libeay32_EM_dbg.0.9.8e:bn_recp.obj
 0001:00086ea0       _UI_new                    10087ea0 f   libeay32_EM_dbg.0.9.8e:ui_lib.obj
 0001:00086eb0       _UI_new_method             10087eb0 f   libeay32_EM_dbg.0.9.8e:ui_lib.obj
 0001:00086f40       _UI_free                   10087f40 f   libeay32_EM_dbg.0.9.8e:ui_lib.obj
 0001:00087010       _UI_add_input_string       10088010 f   libeay32_EM_dbg.0.9.8e:ui_lib.obj
 0001:000871e0       _UI_add_verify_string      100881e0 f   libeay32_EM_dbg.0.9.8e:ui_lib.obj
 0001:00087210       _UI_process                10088210 f   libeay32_EM_dbg.0.9.8e:ui_lib.obj
 0001:00087430       _UI_get_default_method     10088430 f   libeay32_EM_dbg.0.9.8e:ui_lib.obj
 0001:00087450       _UI_get_input_flags        10088450 f   libeay32_EM_dbg.0.9.8e:ui_lib.obj
 0001:00087470       _UI_get0_action_string     10088470 f   libeay32_EM_dbg.0.9.8e:ui_lib.obj
 0001:000874b0       _UI_get0_result_string     100884b0 f   libeay32_EM_dbg.0.9.8e:ui_lib.obj
 0001:000874f0       _UI_get0_test_string       100884f0 f   libeay32_EM_dbg.0.9.8e:ui_lib.obj
 0001:00087530       _UI_set_result             10088530 f   libeay32_EM_dbg.0.9.8e:ui_lib.obj
 0001:00087790       _PKCS5_PBKDF2_HMAC_SHA1    10088790 f   libeay32_EM_dbg.0.9.8e:p5_crpt2.obj
 0001:000879d0       _PKCS5_v2_PBE_keyivgen     100889d0 f   libeay32_EM_dbg.0.9.8e:p5_crpt2.obj
 0001:00087d80       _Camellia_cbc_encrypt      10088d80 f   libeay32_EM_dbg.0.9.8e:cmll_cbc.obj
 0001:000899a0       _Camellia_cfb128_encrypt   1008a9a0 f   libeay32_EM_dbg.0.9.8e:cmll_cfb.obj
 0001:00089ac0       _Camellia_cfbr_encrypt_block 1008aac0 f   libeay32_EM_dbg.0.9.8e:cmll_cfb.obj
 0001:00089c50       _Camellia_cfb1_encrypt     1008ac50 f   libeay32_EM_dbg.0.9.8e:cmll_cfb.obj
 0001:00089d50       _Camellia_cfb8_encrypt     1008ad50 f   libeay32_EM_dbg.0.9.8e:cmll_cfb.obj
 0001:00089db0       _Camellia_ecb_encrypt      1008adb0 f   libeay32_EM_dbg.0.9.8e:cmll_ecb.obj
 0001:00089df0       _Camellia_ofb128_encrypt   1008adf0 f   libeay32_EM_dbg.0.9.8e:cmll_ofb.obj
 0001:00089e80       _Camellia_set_key          1008ae80 f   libeay32_EM_dbg.0.9.8e:cmll_misc.obj
 0001:00089f70       _Camellia_encrypt          1008af70 f   libeay32_EM_dbg.0.9.8e:cmll_misc.obj
 0001:0008a160       _Camellia_decrypt          1008b160 f   libeay32_EM_dbg.0.9.8e:cmll_misc.obj
 0001:0008a350       _DSO_convert_filename      1008b350 f   libeay32_EM_dbg.0.9.8e:dso_lib.obj
 0001:0008a480       _BN_mod_exp2_mont          1008b480 f   libeay32_EM_dbg.0.9.8e:bn_exp2.obj
 0001:0008ad30       _ec_GF2m_simple_mul        1008bd30 f   libeay32_EM_dbg.0.9.8e:ec2_mult.obj
 0001:0008b9c0       _ec_GF2m_precompute_mult   1008c9c0 f   libeay32_EM_dbg.0.9.8e:ec2_mult.obj
 0001:0008b9e0       _ec_GF2m_have_precompute_mult 1008c9e0 f   libeay32_EM_dbg.0.9.8e:ec2_mult.obj
 0001:0008ba00       _BN_GF2m_add               1008ca00 f   libeay32_EM_dbg.0.9.8e:bn_gf2m.obj
 0001:0008bb40       _BN_GF2m_mod_arr           1008cb40 f   libeay32_EM_dbg.0.9.8e:bn_gf2m.obj
 0001:0008bed0       _BN_GF2m_mod               1008ced0 f   libeay32_EM_dbg.0.9.8e:bn_gf2m.obj
 0001:0008bf90       _BN_GF2m_mod_mul_arr       1008cf90 f   libeay32_EM_dbg.0.9.8e:bn_gf2m.obj
 0001:0008c520       _BN_GF2m_mod_mul           1008d520 f   libeay32_EM_dbg.0.9.8e:bn_gf2m.obj
 0001:0008c5f0       _BN_GF2m_mod_sqr_arr       1008d5f0 f   libeay32_EM_dbg.0.9.8e:bn_gf2m.obj
 0001:0008c810       _BN_GF2m_mod_inv           1008d810 f   libeay32_EM_dbg.0.9.8e:bn_gf2m.obj
 0001:0008ca20       _BN_GF2m_mod_div           1008da20 f   libeay32_EM_dbg.0.9.8e:bn_gf2m.obj
 0001:0008cac0       _BN_GF2m_poly2arr          1008dac0 f   libeay32_EM_dbg.0.9.8e:bn_gf2m.obj
 0001:0008cb90       _EC_GFp_mont_method        1008db90 f   libeay32_EM_dbg.0.9.8e:ecp_mont.obj
 0001:0008cba0       _ec_GFp_mont_group_init    1008dba0 f   libeay32_EM_dbg.0.9.8e:ecp_mont.obj
 0001:0008cbe0       _ec_GFp_mont_group_finish  1008dbe0 f   libeay32_EM_dbg.0.9.8e:ecp_mont.obj
 0001:0008cc50       _ec_GFp_mont_group_clear_finish 1008dc50 f   libeay32_EM_dbg.0.9.8e:ecp_mont.obj
 0001:0008ccc0       _ec_GFp_mont_group_copy    1008dcc0 f   libeay32_EM_dbg.0.9.8e:ecp_mont.obj
 0001:0008cdf0       _ec_GFp_mont_group_set_curve 1008ddf0 f   libeay32_EM_dbg.0.9.8e:ecp_mont.obj
 0001:0008cfd0       _ec_GFp_mont_field_mul     1008dfd0 f   libeay32_EM_dbg.0.9.8e:ecp_mont.obj
 0001:0008d030       _ec_GFp_mont_field_sqr     1008e030 f   libeay32_EM_dbg.0.9.8e:ecp_mont.obj
 0001:0008d090       _ec_GFp_mont_field_encode  1008e090 f   libeay32_EM_dbg.0.9.8e:ecp_mont.obj
 0001:0008d0f0       _ec_GFp_mont_field_decode  1008e0f0 f   libeay32_EM_dbg.0.9.8e:ecp_mont.obj
 0001:0008d140       _ec_GFp_mont_field_set_to_one 1008e140 f   libeay32_EM_dbg.0.9.8e:ecp_mont.obj
 0001:0008d1a0       _EC_GFp_nist_method        1008e1a0 f   libeay32_EM_dbg.0.9.8e:ecp_nist.obj
 0001:0008d1b0       _ec_GFp_nist_group_copy    1008e1b0 f   libeay32_EM_dbg.0.9.8e:ecp_nist.obj
 0001:0008d1e0       _ec_GFp_nist_group_set_curve 1008e1e0 f   libeay32_EM_dbg.0.9.8e:ecp_nist.obj
 0001:0008d370       _ec_GFp_nist_field_mul     1008e370 f   libeay32_EM_dbg.0.9.8e:ecp_nist.obj
 0001:0008d450       _ec_GFp_nist_field_sqr     1008e450 f   libeay32_EM_dbg.0.9.8e:ecp_nist.obj
 0001:0008d520       _X509_PKEY_new             1008e520 f   libeay32_EM_dbg.0.9.8e:x_pkey.obj
 0001:0008d610       _X509_PKEY_free            1008e610 f   libeay32_EM_dbg.0.9.8e:x_pkey.obj
 0001:0008d6d0       _ECDSA_SIG_it              1008e6d0 f   libeay32_EM_dbg.0.9.8e:ecs_asn1.obj
 0001:0008d6e0       _d2i_ECDSA_SIG             1008e6e0 f   libeay32_EM_dbg.0.9.8e:ecs_asn1.obj
 0001:0008d700       _i2d_ECDSA_SIG             1008e700 f   libeay32_EM_dbg.0.9.8e:ecs_asn1.obj
 0001:0008d720       _ECDSA_SIG_new             1008e720 f   libeay32_EM_dbg.0.9.8e:ecs_asn1.obj
 0001:0008d740       _ECDSA_SIG_free            1008e740 f   libeay32_EM_dbg.0.9.8e:ecs_asn1.obj
 0001:0008d760       _DH_check_pub_key          1008e760 f   libeay32_EM_dbg.0.9.8e:dh_check.obj
 0001:0008d830       _UI_OpenSSL                1008e830 f   libeay32_EM_dbg.0.9.8e:ui_openssl.obj
 0001:0008df20       _camellia_setup128         1008ef20 f   libeay32_EM_dbg.0.9.8e:camellia.obj
 0001:0008f720       _camellia_setup256         10090720 f   libeay32_EM_dbg.0.9.8e:camellia.obj
 0001:00091ba0       _camellia_setup192         10092ba0 f   libeay32_EM_dbg.0.9.8e:camellia.obj
 0001:00091c50       _camellia_encrypt128       10092c50 f   libeay32_EM_dbg.0.9.8e:camellia.obj
 0001:000931c0       _camellia_decrypt128       100941c0 f   libeay32_EM_dbg.0.9.8e:camellia.obj
 0001:00094730       _camellia_encrypt256       10095730 f   libeay32_EM_dbg.0.9.8e:camellia.obj
 0001:000963e0       _camellia_decrypt256       100973e0 f   libeay32_EM_dbg.0.9.8e:camellia.obj
 0001:00098090       _ec_GFp_simple_group_init  10099090 f   libeay32_EM_dbg.0.9.8e:ecp_smpl.obj
 0001:000980e0       _ec_GF2m_simple_group_finish 100990e0 f   libeay32_EM_dbg.0.9.8e:ec2_smpl.obj
 0001:000980e0       _ec_GFp_simple_group_finish 100990e0 f   libeay32_EM_dbg.0.9.8e:ecp_smpl.obj
 0001:00098120       _ec_GFp_simple_group_clear_finish 10099120 f   libeay32_EM_dbg.0.9.8e:ecp_smpl.obj
 0001:00098160       _ec_GFp_simple_group_copy  10099160 f   libeay32_EM_dbg.0.9.8e:ecp_smpl.obj
 0001:000981e0       _ec_GFp_simple_group_set_curve 100991e0 f   libeay32_EM_dbg.0.9.8e:ecp_smpl.obj
 0001:00098400       _ec_GFp_simple_group_get_curve 10099400 f   libeay32_EM_dbg.0.9.8e:ecp_smpl.obj
 0001:00098550       _ec_GFp_simple_group_get_degree 10099550 f   libeay32_EM_dbg.0.9.8e:ecp_smpl.obj
 0001:00098570       _ec_GFp_simple_group_check_discriminant 10099570 f   libeay32_EM_dbg.0.9.8e:ecp_smpl.obj
 0001:000987f0       _ec_GFp_simple_point_init  100997f0 f   libeay32_EM_dbg.0.9.8e:ecp_smpl.obj
 0001:00098840       _ec_GFp_simple_point_copy  10099840 f   libeay32_EM_dbg.0.9.8e:ecp_smpl.obj
 0001:00098840       _ec_GF2m_simple_point_copy 10099840 f   libeay32_EM_dbg.0.9.8e:ec2_smpl.obj
 0001:000988b0       _ec_GFp_simple_set_Jprojective_coordinates_GFp 100998b0 f   libeay32_EM_dbg.0.9.8e:ecp_smpl.obj
 0001:00098ad0       _ec_GFp_simple_get_Jprojective_coordinates_GFp 10099ad0 f   libeay32_EM_dbg.0.9.8e:ecp_smpl.obj
 0001:00098c30       _ec_GFp_simple_point_set_affine_coordinates 10099c30 f   libeay32_EM_dbg.0.9.8e:ecp_smpl.obj
 0001:00098c90       _ec_GFp_simple_point_get_affine_coordinates 10099c90 f   libeay32_EM_dbg.0.9.8e:ecp_smpl.obj
 0001:00099020       _ec_GFp_simple_set_compressed_coordinates 1009a020 f   libeay32_EM_dbg.0.9.8e:ecp_smpl.obj
 0001:00099540       _ec_GFp_simple_point2oct   1009a540 f   libeay32_EM_dbg.0.9.8e:ecp_smpl.obj
 0001:000998d0       _ec_GFp_simple_oct2point   1009a8d0 f   libeay32_EM_dbg.0.9.8e:ecp_smpl.obj
 0001:00099c40       _ec_GFp_simple_add         1009ac40 f   libeay32_EM_dbg.0.9.8e:ecp_smpl.obj
 0001:0009a2e0       _ec_GFp_simple_dbl         1009b2e0 f   libeay32_EM_dbg.0.9.8e:ecp_smpl.obj
 0001:0009a840       _ec_GFp_simple_invert      1009b840 f   libeay32_EM_dbg.0.9.8e:ecp_smpl.obj
 0001:0009a890       _ec_GFp_simple_is_at_infinity 1009b890 f   libeay32_EM_dbg.0.9.8e:ecp_smpl.obj
 0001:0009a890       _ec_GF2m_simple_is_at_infinity 1009b890 f   libeay32_EM_dbg.0.9.8e:ec2_smpl.obj
 0001:0009a8b0       _ec_GFp_simple_is_on_curve 1009b8b0 f   libeay32_EM_dbg.0.9.8e:ecp_smpl.obj
 0001:0009ac30       _ec_GFp_simple_cmp         1009bc30 f   libeay32_EM_dbg.0.9.8e:ecp_smpl.obj
 0001:0009af60       _ec_GFp_simple_make_affine 1009bf60 f   libeay32_EM_dbg.0.9.8e:ecp_smpl.obj
 0001:0009b090       _ec_GFp_simple_points_make_affine 1009c090 f   libeay32_EM_dbg.0.9.8e:ecp_smpl.obj
 0001:0009b6e0       _ec_GFp_simple_field_mul   1009c6e0 f   libeay32_EM_dbg.0.9.8e:ecp_smpl.obj
 0001:0009b710       _ec_GFp_simple_field_sqr   1009c710 f   libeay32_EM_dbg.0.9.8e:ecp_smpl.obj
 0001:0009b730       _BN_get0_nist_prime_192    1009c730 f   libeay32_EM_dbg.0.9.8e:bn_nist.obj
 0001:0009b740       _BN_get0_nist_prime_224    1009c740 f   libeay32_EM_dbg.0.9.8e:bn_nist.obj
 0001:0009b750       _BN_get0_nist_prime_256    1009c750 f   libeay32_EM_dbg.0.9.8e:bn_nist.obj
 0001:0009b760       _BN_get0_nist_prime_384    1009c760 f   libeay32_EM_dbg.0.9.8e:bn_nist.obj
 0001:0009b770       _BN_get0_nist_prime_521    1009c770 f   libeay32_EM_dbg.0.9.8e:bn_nist.obj
 0001:0009b780       _BN_nist_mod_192           1009c780 f   libeay32_EM_dbg.0.9.8e:bn_nist.obj
 0001:0009bc00       _BN_nist_mod_224           1009cc00 f   libeay32_EM_dbg.0.9.8e:bn_nist.obj
 0001:0009c180       _BN_nist_mod_256           1009d180 f   libeay32_EM_dbg.0.9.8e:bn_nist.obj
 0001:0009cc40       _BN_nist_mod_384           1009dc40 f   libeay32_EM_dbg.0.9.8e:bn_nist.obj
 0001:0009d940       _BN_nist_mod_521           1009e940 f   libeay32_EM_dbg.0.9.8e:bn_nist.obj
 0001:0009eae0       _BN_kronecker              1009fae0 f   libeay32_EM_dbg.0.9.8e:bn_kron.obj
 0001:0009ee50       _BN_mod_sqrt               1009fe50 f   libeay32_EM_dbg.0.9.8e:bn_sqrt.obj
 0001:0009f7d0       _SSL_library_init          100a07d0 f   ssleay32_EM_dbg.0.9.8e:ssl_algs.obj
 0001:0009f960       _SSL_load_error_strings    100a0960 f   ssleay32_EM_dbg.0.9.8e:ssl_err2.obj
 0001:0009f970       _SSL_clear                 100a0970 f   ssleay32_EM_dbg.0.9.8e:ssl_lib.obj
 0001:0009fb40       _SSL_new                   100a0b40 f   ssleay32_EM_dbg.0.9.8e:ssl_lib.obj
 0001:0009fe80       _SSL_has_matching_session_id 100a0e80 f   ssleay32_EM_dbg.0.9.8e:ssl_lib.obj
 0001:0009ff70       _SSL_free                  100a0f70 f   ssleay32_EM_dbg.0.9.8e:ssl_lib.obj
 0001:000a0170       _SSL_set_bio               100a1170 f   ssleay32_EM_dbg.0.9.8e:ssl_lib.obj
 0001:000a0210       _SSL_get_fd                100a1210 f   ssleay32_EM_dbg.0.9.8e:ssl_lib.obj
 0001:000a0230       _SSL_get_rfd               100a1230 f   ssleay32_EM_dbg.0.9.8e:ssl_lib.obj
 0001:000a0290       _SSL_connect               100a1290 f   ssleay32_EM_dbg.0.9.8e:ssl_lib.obj
 0001:000a02c0       _SSL_get_default_timeout   100a12c0 f   ssleay32_EM_dbg.0.9.8e:ssl_lib.obj
 0001:000a02d0       _SSL_read                  100a12d0 f   ssleay32_EM_dbg.0.9.8e:ssl_lib.obj
 0001:000a0340       _SSL_write                 100a1340 f   ssleay32_EM_dbg.0.9.8e:ssl_lib.obj
 0001:000a03d0       _SSL_shutdown              100a13d0 f   ssleay32_EM_dbg.0.9.8e:ssl_lib.obj
 0001:000a0440       _SSL_ctrl                  100a1440 f   ssleay32_EM_dbg.0.9.8e:ssl_lib.obj
 0001:000a05b0       _SSL_CTX_ctrl              100a15b0 f   ssleay32_EM_dbg.0.9.8e:ssl_lib.obj
 0001:000a0800       _ssl_cipher_id_cmp         100a1800 f   ssleay32_EM_dbg.0.9.8e:ssl_lib.obj
 0001:000a0840       _ssl_cipher_ptr_id_cmp     100a1840 f   ssleay32_EM_dbg.0.9.8e:ssl_lib.obj
 0001:000a0880       _SSL_get_ciphers           100a1880 f   ssleay32_EM_dbg.0.9.8e:ssl_lib.obj
 0001:000a08d0       _ssl_get_ciphers_by_id     100a18d0 f   ssleay32_EM_dbg.0.9.8e:ssl_lib.obj
 0001:000a0920       _ssl_cipher_list_to_bytes  100a1920 f   ssleay32_EM_dbg.0.9.8e:ssl_lib.obj
 0001:000a09d0       _ssl_bytes_to_cipher_list  100a19d0 f   ssleay32_EM_dbg.0.9.8e:ssl_lib.obj
 0001:000a0b00       _SSL_SESSION_hash          100a1b00 f   ssleay32_EM_dbg.0.9.8e:ssl_lib.obj
 0001:000a0b50       _SSL_SESSION_cmp           100a1b50 f   ssleay32_EM_dbg.0.9.8e:ssl_lib.obj
 0001:000a0ba0       _SSL_CTX_new               100a1ba0 f   ssleay32_EM_dbg.0.9.8e:ssl_lib.obj
 0001:000a1020       _SSL_CTX_free              100a2020 f   ssleay32_EM_dbg.0.9.8e:ssl_lib.obj
 0001:000a1190       _SSL_CTX_set_default_passwd_cb 100a2190 f   ssleay32_EM_dbg.0.9.8e:ssl_lib.obj
 0001:000a11a0       _SSL_CTX_set_verify        100a21a0 f   ssleay32_EM_dbg.0.9.8e:ssl_lib.obj
 0001:000a11c0       _SSL_CTX_set_verify_depth  100a21c0 f   ssleay32_EM_dbg.0.9.8e:ssl_lib.obj
 0001:000a11e0       _ssl_set_cert_masks        100a21e0 f   ssleay32_EM_dbg.0.9.8e:ssl_lib.obj
 0001:000a17c0       _check_srvr_ecc_cert_and_alg 100a27c0 f   ssleay32_EM_dbg.0.9.8e:ssl_lib.obj
 0001:000a1910       _ssl_get_server_send_cert  100a2910 f   ssleay32_EM_dbg.0.9.8e:ssl_lib.obj
 0001:000a1a70       _ssl_get_sign_pkey         100a2a70 f   ssleay32_EM_dbg.0.9.8e:ssl_lib.obj
 0001:000a1b30       _ssl_update_cache          100a2b30 f   ssleay32_EM_dbg.0.9.8e:ssl_lib.obj
 0001:000a1c80       _SSL_get_error             100a2c80 f   ssleay32_EM_dbg.0.9.8e:ssl_lib.obj
 0001:000a1ea0       _SSL_set_connect_state     100a2ea0 f   ssleay32_EM_dbg.0.9.8e:ssl_lib.obj
 0001:000a1ee0       _ssl_undefined_function    100a2ee0 f   ssleay32_EM_dbg.0.9.8e:ssl_lib.obj
 0001:000a1f10       _ssl_undefined_void_function 100a2f10 f   ssleay32_EM_dbg.0.9.8e:ssl_lib.obj
 0001:000a1f40       _ssl_bad_method            100a2f40 f   ssleay32_EM_dbg.0.9.8e:ssl_lib.obj
 0001:000a1f70       _ssl_clear_cipher_ctx      100a2f70 f   ssleay32_EM_dbg.0.9.8e:ssl_lib.obj
 0001:000a2040       _ssl_init_wbio_buffer      100a3040 f   ssleay32_EM_dbg.0.9.8e:ssl_lib.obj
 0001:000a2150       _ssl_free_wbio_buffer      100a3150 f   ssleay32_EM_dbg.0.9.8e:ssl_lib.obj
 0001:000a21a0       _SSL_CTX_set_default_verify_paths 100a31a0 f   ssleay32_EM_dbg.0.9.8e:ssl_lib.obj
 0001:000a21c0       _SSL_CTX_load_verify_locations 100a31c0 f   ssleay32_EM_dbg.0.9.8e:ssl_lib.obj
 0001:000a21e0       _SSL_state                 100a31e0 f   ssleay32_EM_dbg.0.9.8e:ssl_lib.obj
 0001:000a21f0       _SSL_use_certificate       100a31f0 f   ssleay32_EM_dbg.0.9.8e:ssl_rsa.obj
 0001:000a23c0       _SSL_use_PrivateKey        100a33c0 f   ssleay32_EM_dbg.0.9.8e:ssl_rsa.obj
 0001:000a2450       _SSL_CTX_use_certificate   100a3450 f   ssleay32_EM_dbg.0.9.8e:ssl_rsa.obj
 0001:000a2680       _SSL_CTX_use_certificate_file 100a3680 f   ssleay32_EM_dbg.0.9.8e:ssl_rsa.obj
 0001:000a27e0       _SSL_CTX_use_PrivateKey    100a37e0 f   ssleay32_EM_dbg.0.9.8e:ssl_rsa.obj
 0001:000a2860       _SSL_CTX_use_PrivateKey_file 100a3860 f   ssleay32_EM_dbg.0.9.8e:ssl_rsa.obj
 0001:000a29e0       _SSLv3_method              100a39e0 f   ssleay32_EM_dbg.0.9.8e:s3_meth.obj
 0001:000a29f0       _ssl_load_ciphers          100a39f0 f   ssleay32_EM_dbg.0.9.8e:ssl_ciph.obj
 0001:000a2ac0       _ssl_cipher_get_evp        100a3ac0 f   ssleay32_EM_dbg.0.9.8e:ssl_ciph.obj
 0001:000a2ec0       _ssl_cipher_get_disabled   100a3ec0 f   ssleay32_EM_dbg.0.9.8e:ssl_ciph.obj
 0001:000a3050       _ssl_create_cipher_list    100a4050 f   ssleay32_EM_dbg.0.9.8e:ssl_ciph.obj
 0001:000a3df0       _ssl3_comp_find            100a4df0 f   ssleay32_EM_dbg.0.9.8e:ssl_ciph.obj
 0001:000a3e60       _SSL_COMP_get_compression_methods 100a4e60 f   ssleay32_EM_dbg.0.9.8e:ssl_ciph.obj
 0001:000a3e70       _ERR_load_SSL_strings      100a4e70 f   ssleay32_EM_dbg.0.9.8e:ssl_err.obj
 0001:000a3eb0       _SSL_SESSION_new           100a4eb0 f   ssleay32_EM_dbg.0.9.8e:ssl_sess.obj
 0001:000a3f90       _ssl_get_new_session       100a4f90 f   ssleay32_EM_dbg.0.9.8e:ssl_sess.obj
 0001:000a4380       _ssl_get_prev_session      100a5380 f   ssleay32_EM_dbg.0.9.8e:ssl_sess.obj
 0001:000a47f0       _SSL_CTX_add_session       100a57f0 f   ssleay32_EM_dbg.0.9.8e:ssl_sess.obj
 0001:000a4950       _SSL_CTX_remove_session    100a5950 f   ssleay32_EM_dbg.0.9.8e:ssl_sess.obj
 0001:000a4a70       _SSL_SESSION_free          100a5a70 f   ssleay32_EM_dbg.0.9.8e:ssl_sess.obj
 0001:000a4b80       _SSL_CTX_flush_sessions    100a5b80 f   ssleay32_EM_dbg.0.9.8e:ssl_sess.obj
 0001:000a4cd0       _ssl_clear_bad_session     100a5cd0 f   ssleay32_EM_dbg.0.9.8e:ssl_sess.obj
 0001:000a4f00       _SSL_get_ex_data_X509_STORE_CTX_idx 100a5f00 f   ssleay32_EM_dbg.0.9.8e:ssl_cert.obj
 0001:000a4fd0       _ssl_cert_new              100a5fd0 f   ssleay32_EM_dbg.0.9.8e:ssl_cert.obj
 0001:000a5050       _ssl_cert_dup              100a6050 f   ssleay32_EM_dbg.0.9.8e:ssl_cert.obj
 0001:000a5440       _ssl_cert_free             100a6440 f   ssleay32_EM_dbg.0.9.8e:ssl_cert.obj
 0001:000a5540       _ssl_cert_inst             100a6540 f   ssleay32_EM_dbg.0.9.8e:ssl_cert.obj
 0001:000a55b0       _ssl_sess_cert_new         100a65b0 f   ssleay32_EM_dbg.0.9.8e:ssl_cert.obj
 0001:000a5630       _ssl_sess_cert_free        100a6630 f   ssleay32_EM_dbg.0.9.8e:ssl_cert.obj
 0001:000a5720       _ssl_verify_cert_chain     100a6720 f   ssleay32_EM_dbg.0.9.8e:ssl_cert.obj
 0001:000a58a0       _SSL_get_client_CA_list    100a68a0 f   ssleay32_EM_dbg.0.9.8e:ssl_cert.obj
 0001:000a5910       _ssl3_do_write             100a6910 f   ssleay32_EM_dbg.0.9.8e:s3_both.obj
 0001:000a5a00       _ssl3_send_finished        100a6a00 f   ssleay32_EM_dbg.0.9.8e:s3_both.obj
 0001:000a5b30       _ssl3_get_finished         100a6b30 f   ssleay32_EM_dbg.0.9.8e:s3_both.obj
 0001:000a5c70       _ssl3_send_change_cipher_spec 100a6c70 f   ssleay32_EM_dbg.0.9.8e:s3_both.obj
 0001:000a5cd0       _ssl3_output_cert_chain    100a6cd0 f   ssleay32_EM_dbg.0.9.8e:s3_both.obj
 0001:000a6110       _ssl3_get_message          100a7110 f   ssleay32_EM_dbg.0.9.8e:s3_both.obj
 0001:000a6570       _ssl_cert_type             100a7570 f   ssleay32_EM_dbg.0.9.8e:s3_both.obj
 0001:000a6600       _ssl_verify_alarm_type     100a7600 f   ssleay32_EM_dbg.0.9.8e:s3_both.obj
 0001:000a66f0       _ssl3_setup_buffers        100a76f0 f   ssleay32_EM_dbg.0.9.8e:s3_both.obj
 0001:000a6820       _ssl3_default_timeout      100a7820 f   ssleay32_EM_dbg.0.9.8e:s3_lib.obj
 0001:000a6830       _ssl3_num_ciphers          100a7830 f   ssleay32_EM_dbg.0.9.8e:s3_lib.obj
 0001:000a6840       _ssl3_get_cipher           100a7840 f   ssleay32_EM_dbg.0.9.8e:s3_lib.obj
 0001:000a6870       _ssl3_pending              100a7870 f   ssleay32_EM_dbg.0.9.8e:s3_lib.obj
 0001:000a68c0       _ssl3_new                  100a78c0 f   ssleay32_EM_dbg.0.9.8e:s3_lib.obj
 0001:000a6950       _ssl3_free                 100a7950 f   ssleay32_EM_dbg.0.9.8e:s3_lib.obj
 0001:000a6aa0       _ssl3_clear                100a7aa0 f   ssleay32_EM_dbg.0.9.8e:s3_lib.obj
 0001:000a6c80       _ssl3_ctrl                 100a7c80 f   ssleay32_EM_dbg.0.9.8e:s3_lib.obj
 0001:000a7110       _ssl3_callback_ctrl        100a8110 f   ssleay32_EM_dbg.0.9.8e:s3_lib.obj
 0001:000a71c0       _ssl3_ctx_ctrl             100a81c0 f   ssleay32_EM_dbg.0.9.8e:s3_lib.obj
 0001:000a7560       _ssl3_ctx_callback_ctrl    100a8560 f   ssleay32_EM_dbg.0.9.8e:s3_lib.obj
 0001:000a75d0       _ssl3_get_cipher_by_char   100a85d0 f   ssleay32_EM_dbg.0.9.8e:s3_lib.obj
 0001:000a7640       _ssl3_put_cipher_by_char   100a8640 f   ssleay32_EM_dbg.0.9.8e:s3_lib.obj
 0001:000a76a0       _ssl3_choose_cipher        100a86a0 f   ssleay32_EM_dbg.0.9.8e:s3_lib.obj
 0001:000a77d0       _ssl3_get_req_cert_type    100a87d0 f   ssleay32_EM_dbg.0.9.8e:s3_lib.obj
 0001:000a78e0       _ssl3_shutdown             100a88e0 f   ssleay32_EM_dbg.0.9.8e:s3_lib.obj
 0001:000a79b0       _ssl3_write                100a89b0 f   ssleay32_EM_dbg.0.9.8e:s3_lib.obj
 0001:000a7af0       _ssl3_read                 100a8af0 f   ssleay32_EM_dbg.0.9.8e:s3_lib.obj
 0001:000a7bf0       _ssl3_peek                 100a8bf0 f   ssleay32_EM_dbg.0.9.8e:s3_lib.obj
 0001:000a7c10       _ssl3_renegotiate          100a8c10 f   ssleay32_EM_dbg.0.9.8e:s3_lib.obj
 0001:000a7c50       _ssl3_renegotiate_check    100a8c50 f   ssleay32_EM_dbg.0.9.8e:s3_lib.obj
 0001:000a7d10       _ssl3_read_n               100a8d10 f   ssleay32_EM_dbg.0.9.8e:s3_pkt.obj
 0001:000a7fc0       _ssl3_do_uncompress        100a8fc0 f   ssleay32_EM_dbg.0.9.8e:s3_pkt.obj
 0001:000a8040       _ssl3_do_compress          100a9040 f   ssleay32_EM_dbg.0.9.8e:s3_pkt.obj
 0001:000a80c0       _ssl3_write_bytes          100a90c0 f   ssleay32_EM_dbg.0.9.8e:s3_pkt.obj
 0001:000a85d0       _ssl3_write_pending        100a95d0 f   ssleay32_EM_dbg.0.9.8e:s3_pkt.obj
 0001:000a8740       _ssl3_read_bytes           100a9740 f   ssleay32_EM_dbg.0.9.8e:s3_pkt.obj
 0001:000a9830       _ssl3_do_change_cipher_spec 100aa830 f   ssleay32_EM_dbg.0.9.8e:s3_pkt.obj
 0001:000a9970       _ssl3_send_alert           100aa970 f   ssleay32_EM_dbg.0.9.8e:s3_pkt.obj
 0001:000a9a30       _ssl3_dispatch_alert       100aaa30 f   ssleay32_EM_dbg.0.9.8e:s3_pkt.obj
 0001:000a9b90       _SSLv3_client_method       100aab90 f   ssleay32_EM_dbg.0.9.8e:s3_clnt.obj
 0001:000a9ba0       _ssl3_connect              100aaba0 f   ssleay32_EM_dbg.0.9.8e:s3_clnt.obj
 0001:000aa670       _ssl3_client_hello         100ab670 f   ssleay32_EM_dbg.0.9.8e:s3_clnt.obj
 0001:000aaa30       _ssl3_get_server_hello     100aba30 f   ssleay32_EM_dbg.0.9.8e:s3_clnt.obj
 0001:000aaf50       _ssl3_get_server_certificate 100abf50 f   ssleay32_EM_dbg.0.9.8e:s3_clnt.obj
 0001:000ab530       _ssl3_get_key_exchange     100ac530 f   ssleay32_EM_dbg.0.9.8e:s3_clnt.obj
 0001:000ac650       _ssl3_get_certificate_request 100ad650 f   ssleay32_EM_dbg.0.9.8e:s3_clnt.obj
 0001:000acab0       _ssl3_get_server_done      100adab0 f   ssleay32_EM_dbg.0.9.8e:s3_clnt.obj
 0001:000acb40       _ssl3_send_client_key_exchange 100adb40 f   ssleay32_EM_dbg.0.9.8e:s3_clnt.obj
 0001:000ad4a0       _ssl3_send_client_verify   100ae4a0 f   ssleay32_EM_dbg.0.9.8e:s3_clnt.obj
 0001:000ad790       _ssl3_send_client_certificate 100ae790 f   ssleay32_EM_dbg.0.9.8e:s3_clnt.obj
 0001:000ad9d0       _ssl3_check_cert_and_algorithm 100ae9d0 f   ssleay32_EM_dbg.0.9.8e:s3_clnt.obj
 0001:000addf0       _SSLv3_server_method       100aedf0 f   ssleay32_EM_dbg.0.9.8e:s3_srvr.obj
 0001:000ade00       _ssl3_accept               100aee00 f   ssleay32_EM_dbg.0.9.8e:s3_srvr.obj
 0001:000aea80       _ssl3_send_hello_request   100afa80 f   ssleay32_EM_dbg.0.9.8e:s3_srvr.obj
 0001:000aeb20       _ssl3_check_client_hello   100afb20 f   ssleay32_EM_dbg.0.9.8e:s3_srvr.obj
 0001:000aebd0       _ssl3_get_client_hello     100afbd0 f   ssleay32_EM_dbg.0.9.8e:s3_srvr.obj
 0001:000af500       _ssl3_send_server_hello    100b0500 f   ssleay32_EM_dbg.0.9.8e:s3_srvr.obj
 0001:000af7a0       _ssl3_send_server_done     100b07a0 f   ssleay32_EM_dbg.0.9.8e:s3_srvr.obj
 0001:000af840       _ssl3_send_server_key_exchange 100b0840 f   ssleay32_EM_dbg.0.9.8e:s3_srvr.obj
 0001:000b06f0       _ssl3_send_certificate_request 100b16f0 f   ssleay32_EM_dbg.0.9.8e:s3_srvr.obj
 0001:000b0a20       _ssl3_get_client_key_exchange 100b1a20 f   ssleay32_EM_dbg.0.9.8e:s3_srvr.obj
 0001:000b1340       _ssl3_get_cert_verify      100b2340 f   ssleay32_EM_dbg.0.9.8e:s3_srvr.obj
 0001:000b1760       _ssl3_get_client_certificate 100b2760 f   ssleay32_EM_dbg.0.9.8e:s3_srvr.obj
 0001:000b1cc0       _ssl3_send_server_certificate 100b2cc0 f   ssleay32_EM_dbg.0.9.8e:s3_srvr.obj
 0001:000b1f10       _ssl3_change_cipher_state  100b2f10 f   ssleay32_EM_dbg.0.9.8e:s3_enc.obj
 0001:000b25c0       _ssl3_setup_key_block      100b35c0 f   ssleay32_EM_dbg.0.9.8e:s3_enc.obj
 0001:000b29f0       _ssl3_cleanup_key_block    100b39f0 f   ssleay32_EM_dbg.0.9.8e:s3_enc.obj
 0001:000b2a60       _ssl3_enc                  100b3a60 f   ssleay32_EM_dbg.0.9.8e:s3_enc.obj
 0001:000b2c50       _ssl3_init_finished_mac    100b3c50 f   ssleay32_EM_dbg.0.9.8e:s3_enc.obj
 0001:000b2cb0       _ssl3_finish_mac           100b3cb0 f   ssleay32_EM_dbg.0.9.8e:s3_enc.obj
 0001:000b2cf0       _ssl3_cert_verify_mac      100b3cf0 f   ssleay32_EM_dbg.0.9.8e:s3_enc.obj
 0001:000b2d10       _ssl3_final_finish_mac     100b3d10 f   ssleay32_EM_dbg.0.9.8e:s3_enc.obj
 0001:000b2ed0       _ssl3_mac                  100b3ed0 f   ssleay32_EM_dbg.0.9.8e:s3_enc.obj
 0001:000b30d0       _ssl3_record_sequence_update 100b40d0 f   ssleay32_EM_dbg.0.9.8e:s3_enc.obj
 0001:000b3120       _ssl3_generate_master_secret 100b4120 f   ssleay32_EM_dbg.0.9.8e:s3_enc.obj
 0001:000b32a0       _ssl3_alert_code           100b42a0 f   ssleay32_EM_dbg.0.9.8e:s3_enc.obj
 0001:000b3452       _htonl@4                   100b4452 f   WSock32:WSOCK32.dll
 0001:000b3458       _ntohl@4                   100b4458 f   WSock32:WSOCK32.dll
 0001:000b345e       _ntohs@4                   100b445e f   WSock32:WSOCK32.dll
 0001:000b3464       _htons@4                   100b4464 f   WSock32:WSOCK32.dll
 0001:000b346a       ___WSAFDIsSet@8            100b446a f   WSock32:WSOCK32.dll
 0001:000b3470       _setsockopt@20             100b4470 f   WSock32:WSOCK32.dll
 0001:000b3476       _closesocket@4             100b4476 f   WSock32:WSOCK32.dll
 0001:000b347c       _shutdown@8                100b447c f   WSock32:WSOCK32.dll
 0001:000b3482       _recv@16                   100b4482 f   WSock32:WSOCK32.dll
 0001:000b3488       _WSASetLastError@4         100b4488 f   WSock32:WSOCK32.dll
 0001:000b348e       _connect@12                100b448e f   WSock32:WSOCK32.dll
 0001:000b3494       _WSAGetLastError@0         100b4494 f   WSock32:WSOCK32.dll
 0001:000b349a       _socket@12                 100b449a f   WSock32:WSOCK32.dll
 0001:000b34a0       _send@16                   100b44a0 f   WSock32:WSOCK32.dll
 0001:000b34a6       _getservbyname@8           100b44a6 f   WSock32:WSOCK32.dll
 0001:000b34ac       _getsockopt@20             100b44ac f   WSock32:WSOCK32.dll
 0001:000b34b2       _gethostbyname@4           100b44b2 f   WSock32:WSOCK32.dll
 0001:000b34b8       _WSAStartup@8              100b44b8 f   WSock32:WSOCK32.dll
 0001:000b34be       _ioctlsocket@12            100b44be f   WSock32:WSOCK32.dll
 0001:000b34c4       _listen@8                  100b44c4 f   WSock32:WSOCK32.dll
 0001:000b34ca       _bind@12                   100b44ca f   WSock32:WSOCK32.dll
 0001:000b34d0       _accept@12                 100b44d0 f   WSock32:WSOCK32.dll
 0001:000b34e0       ??_U@YAPAXI@Z              100b44e0 f   msvcprtd:newaop_s.obj
 0001:000b34f2       ??2@YAPAXI@Z               100b44f2 f   MSVCRTD:MSVCR80D.dll
 0001:000b3500       @__security_check_cookie@4 100b4500 f   MSVCRTD:secchk.obj
 0001:000b3510       ??3@YAXPAX@Z               100b4510 f   MSVCRTD:MSVCR80D.dll
 0001:000b3516       ??_V@YAXPAX@Z              100b4516 f   MSVCRTD:MSVCR80D.dll
 0001:000b3520       ??_Etype_info@@UAEPAXI@Z   100b4520 f i MSVCRTD:ti_inst.obj
 0001:000b358a       ??0exception@std@@QAE@ABV01@@Z 100b458a f   MSVCRTD:MSVCR80D.dll
 0001:000b3590       ??_M@YGXPAXIHP6EX0@Z@Z     100b4590 f   MSVCRTD:ehvecdtr.obj
 0001:000b3640       ?__ArrayUnwind@@YGXPAXIHP6EX0@Z@Z 100b4640 f   MSVCRTD:ehvecdtr.obj
 0001:000b3700       ??_L@YGXPAXIHP6EX0@Z1@Z    100b4700 f   MSVCRTD:ehvecctr.obj
 0001:000b37ae       __purecall                 100b47ae f   MSVCRTD:MSVCR80D.dll
 0001:000b3840       __CRT_INIT@12              100b4840 f   MSVCRTD:crtdll.obj
 0001:000b3a80       _NtCurrentTeb              100b4a80 f i MSVCRTD:crtdll.obj
 0001:000b3a90       __DllMainCRTStartup@12     100b4a90 f   MSVCRTD:crtdll.obj
 0001:000b3c80       __alloca_probe             100b4c80     MSVCRTD:chkstk.obj
 0001:000b3c80       __chkstk                   100b4c80 f   MSVCRTD:chkstk.obj
 0001:000b3cb0       _memcpy                    100b4cb0 f   MSVCRTD:MSVCR80D.dll
 0001:000b3cb6       _memcmp                    100b4cb6 f   MSVCRTD:MSVCR80D.dll
 0001:000b3cbc       _memset                    100b4cbc f   MSVCRTD:MSVCR80D.dll
 0001:000b3cc2       _strcat                    100b4cc2 f   MSVCRTD:MSVCR80D.dll
 0001:000b3cc8       _strlen                    100b4cc8 f   MSVCRTD:MSVCR80D.dll
 0001:000b3cce       _strcmp                    100b4cce f   MSVCRTD:MSVCR80D.dll
 0001:000b3cd4       _free                      100b4cd4 f   MSVCRTD:MSVCR80D.dll
 0001:000b3cda       _realloc                   100b4cda f   MSVCRTD:MSVCR80D.dll
 0001:000b3ce0       _malloc                    100b4ce0 f   MSVCRTD:MSVCR80D.dll
 0001:000b3cf0       __alloca_probe_16          100b4cf0 f   MSVCRTD:alloca16.obj
 0001:000b3d06       __alloca_probe_8           100b4d06     MSVCRTD:alloca16.obj
 0001:000b3d20       __aulldiv                  100b4d20 f   MSVCRTD:ulldiv.obj
 0001:000b3d90       __aullrem                  100b4d90 f   MSVCRTD:ullrem.obj
 0001:000b3e10       __ftol2_sse                100b4e10 f   MSVCRTD:ftol2.obj
 0001:000b3e19       __ftol2_pentium4           100b4e19 f   MSVCRTD:ftol2.obj
 0001:000b3e2c       __ftol2_sse_excpt          100b4e2c f   MSVCRTD:ftol2.obj
 0001:000b3e46       __ftol2                    100b4e46 f   MSVCRTD:ftol2.obj
 0001:000b3ec0       __allshl                   100b4ec0 f   MSVCRTD:llshl.obj
 0001:000b3ee0       __lrotr                    100b4ee0 f   MSVCRTD:MSVCR80D.dll
 0001:000b3ee6       __lrotl                    100b4ee6 f   MSVCRTD:MSVCR80D.dll
 0001:000b3ef0       __aullshr                  100b4ef0 f   MSVCRTD:ullshr.obj
 0001:000b3f10       _strcpy                    100b4f10 f   MSVCRTD:MSVCR80D.dll
 0001:000b3f20       ___report_gsfailure        100b4f20 f   MSVCRTD:gs_report.obj
 0001:000b4030       __except_handler4          100b5030 f   MSVCRTD:chandler4gs.obj
 0001:000b4058       ?terminate@@YAXXZ          100b5058 f   MSVCRTD:MSVCR80D.dll
 0001:000b4060       ___clean_type_info_names   100b5060 f   MSVCRTD:tncleanup.obj
 0001:000b4080       __onexit                   100b5080 f   MSVCRTD:atonexit.obj
 0001:000b4190       _atexit                    100b5190 f   MSVCRTD:atonexit.obj
 0001:000b41b0       __RTC_Initialize           100b51b0 f   MSVCRTD:initsect.obj
 0001:000b41e0       __RTC_Terminate            100b51e0 f   MSVCRTD:initsect.obj
 0001:000b4210       __ValidateImageBase        100b5210 f   MSVCRTD:pesect.obj
 0001:000b4270       __FindPESection            100b5270 f   MSVCRTD:pesect.obj
 0001:000b42f0       __IsNonwritableInCurrentImage 100b52f0 f   MSVCRTD:pesect.obj
 0001:000b4400       __initterm                 100b5400 f   MSVCRTD:MSVCR80D.dll
 0001:000b4406       __initterm_e               100b5406 f   MSVCRTD:MSVCR80D.dll
 0001:000b440c       __amsg_exit                100b540c f   MSVCRTD:MSVCR80D.dll
 0001:000b4420       ___security_init_cookie    100b5420 f   MSVCRTD:gs_support.obj
 0001:000b44fa       ___CppXcptFilter           100b54fa f   MSVCRTD:MSVCR80D.dll
 0001:000b4500       __get_sse2_info            100b5500 f   MSVCRTD:cpu_disp.obj
 0001:000b4620       ___sse2_available_init     100b5620 f   MSVCRTD:cpu_disp.obj
 0001:000b4632       __crt_debugger_hook        100b5632 f   MSVCRTD:MSVCR80D.dll
 0001:000b4638       ?_type_info_dtor_internal_method@type_info@@QAEXXZ 100b5638 f   MSVCRTD:MSVCR80D.dll
 0001:000b4638       ??1type_info@@UAE@XZ       100b5638 f   MSVCRTD:MSVCR80D.dll
 0001:000b463e       __except_handler4_common   100b563e f   MSVCRTD:MSVCR80D.dll
 0001:000b4644       ___clean_type_info_names_internal 100b5644 f   MSVCRTD:MSVCR80D.dll
 0001:000b464a       __unlock                   100b564a f   MSVCRTD:MSVCR80D.dll
 0001:000b4650       ___dllonexit               100b5650 f   MSVCRTD:MSVCR80D.dll
 0001:000b4656       __lock                     100b5656 f   MSVCRTD:MSVCR80D.dll
 0001:000b4660       _COMP_CTX_new              100b5660 f   libeay32_EM_dbg.0.9.8e:comp_lib.obj
 0001:000b46e0       _COMP_CTX_free             100b56e0 f   libeay32_EM_dbg.0.9.8e:comp_lib.obj
 0001:000b4720       _COMP_compress_block       100b5720 f   libeay32_EM_dbg.0.9.8e:comp_lib.obj
 0001:000b4790       _COMP_expand_block         100b5790 f   libeay32_EM_dbg.0.9.8e:comp_lib.obj
 0001:000b4800       _EVP_enc_null              100b5800 f   libeay32_EM_dbg.0.9.8e:e_null.obj
 0001:000b4840       _COMP_zlib                 100b5840 f   libeay32_EM_dbg.0.9.8e:c_zlib.obj
 0001:000b4860       _ECDH_compute_key          100b5860 f   libeay32_EM_dbg.0.9.8e:ech_key.obj
 0001:000b48b0       _X509_certificate_type     100b58b0 f   libeay32_EM_dbg.0.9.8e:x509type.obj
 0001:000b49f0       _ECDH_get_default_method   100b59f0 f   libeay32_EM_dbg.0.9.8e:ech_lib.obj
 0001:000b4a10       _ecdh_check                100b5a10 f   libeay32_EM_dbg.0.9.8e:ech_lib.obj
 0001:000b4c40       _ECDH_OpenSSL              100b5c40 f   libeay32_EM_dbg.0.9.8e:ech_ossl.obj
 0001:000b4fd0       _ENGINE_get_default_ECDH   100b5fd0 f   libeay32_EM_dbg.0.9.8e:tb_ecdh.obj
 0001:000b4fe8       ___CxxFrameHandler3        100b5fe8 f   MSVCRTD:MSVCR80D.dll
 0001:000b4fee       __CxxThrowException@8      100b5fee f   MSVCRTD:MSVCR80D.dll
 0002:00000000       __imp__RegisterEventSourceA@8 100b8000     advapi32:ADVAPI32.dll
 0002:00000004       __imp__ReportEventA@36     100b8004     advapi32:ADVAPI32.dll
 0002:00000008       __imp__DeregisterEventSource@4 100b8008     advapi32:ADVAPI32.dll
 0002:0000000c       \177ADVAPI32_NULL_THUNK_DATA 100b800c     advapi32:ADVAPI32.dll
 0002:00000010       __imp__GetObjectA@12       100b8010     gdi32:GDI32.dll
 0002:00000014       __imp__SelectObject@8      100b8014     gdi32:GDI32.dll
 0002:00000018       __imp__CreateCompatibleBitmap@12 100b8018     gdi32:GDI32.dll
 0002:0000001c       __imp__BitBlt@36           100b801c     gdi32:GDI32.dll
 0002:00000020       __imp__CreateCompatibleDC@4 100b8020     gdi32:GDI32.dll
 0002:00000024       __imp__CreateDCA@16        100b8024     gdi32:GDI32.dll
 0002:00000028       __imp__GetBitmapBits@12    100b8028     gdi32:GDI32.dll
 0002:0000002c       __imp__DeleteObject@4      100b802c     gdi32:GDI32.dll
 0002:00000030       __imp__GetDeviceCaps@8     100b8030     gdi32:GDI32.dll
 0002:00000034       __imp__DeleteDC@4          100b8034     gdi32:GDI32.dll
 0002:00000038       \177GDI32_NULL_THUNK_DATA  100b8038     gdi32:GDI32.dll
 0002:0000003c       __imp__Sleep@4             100b803c     kernel32:KERNEL32.dll
 0002:00000040       __imp__InterlockedCompareExchange@12 100b8040     kernel32:KERNEL32.dll
 0002:00000044       __imp__TerminateProcess@8  100b8044     kernel32:KERNEL32.dll
 0002:00000048       __imp__ReleaseMutex@4      100b8048     kernel32:KERNEL32.dll
 0002:0000004c       __imp__WaitForSingleObject@8 100b804c     kernel32:KERNEL32.dll
 0002:00000050       __imp__CreateMutexW@12     100b8050     kernel32:KERNEL32.dll
 0002:00000054       __imp__CloseHandle@4       100b8054     kernel32:KERNEL32.dll
 0002:00000058       __imp__DisableThreadLibraryCalls@4 100b8058     kernel32:KERNEL32.dll
 0002:0000005c       __imp__GetSystemTimeAsFileTime@4 100b805c     kernel32:KERNEL32.dll
 0002:00000060       __imp__IsDebuggerPresent@0 100b8060     kernel32:KERNEL32.dll
 0002:00000064       __imp__SetUnhandledExceptionFilter@4 100b8064     kernel32:KERNEL32.dll
 0002:00000068       __imp__UnhandledExceptionFilter@4 100b8068     kernel32:KERNEL32.dll
 0002:0000006c       __imp__InterlockedExchange@8 100b806c     kernel32:KERNEL32.dll
 0002:00000070       __imp__SetLastError@4      100b8070     kernel32:KERNEL32.dll
 0002:00000074       __imp__FlushConsoleInputBuffer@4 100b8074     kernel32:KERNEL32.dll
 0002:00000078       __imp__GetStdHandle@4      100b8078     kernel32:KERNEL32.dll
 0002:0000007c       __imp__GetFileType@4       100b807c     kernel32:KERNEL32.dll
 0002:00000080       __imp__MultiByteToWideChar@24 100b8080     kernel32:KERNEL32.dll
 0002:00000084       __imp__GetCurrentThreadId@0 100b8084     kernel32:KERNEL32.dll
 0002:00000088       __imp__GetVersion@0        100b8088     kernel32:KERNEL32.dll
 0002:0000008c       __imp__QueryPerformanceCounter@4 100b808c     kernel32:KERNEL32.dll
 0002:00000090       __imp__GetVersionExA@4     100b8090     kernel32:KERNEL32.dll
 0002:00000094       __imp__LoadLibraryA@4      100b8094     kernel32:KERNEL32.dll
 0002:00000098       __imp__GetProcAddress@8    100b8098     kernel32:KERNEL32.dll
 0002:0000009c       __imp__FreeLibrary@4       100b809c     kernel32:KERNEL32.dll
 0002:000000a0       __imp__GetTickCount@0      100b80a0     kernel32:KERNEL32.dll
 0002:000000a4       __imp__GlobalMemoryStatus@4 100b80a4     kernel32:KERNEL32.dll
 0002:000000a8       __imp__GetCurrentProcessId@0 100b80a8     kernel32:KERNEL32.dll
 0002:000000ac       __imp__GetLastError@0      100b80ac     kernel32:KERNEL32.dll
 0002:000000b0       __imp__GetCurrentProcess@0 100b80b0     kernel32:KERNEL32.dll
 0002:000000b4       \177KERNEL32_NULL_THUNK_DATA 100b80b4     kernel32:KERNEL32.dll
 0002:000000b8       __imp_?read@?$basic_istream@DU?$char_traits@D@std@@@std@@QAEAAV12@PADH@Z 100b80b8     msvcprtd:MSVCP80D.dll
 0002:000000bc       __imp_?close@?$basic_ifstream@DU?$char_traits@D@std@@@std@@QAEXXZ 100b80bc     msvcprtd:MSVCP80D.dll
 0002:000000c0       __imp_??_D?$basic_ifstream@DU?$char_traits@D@std@@@std@@QAEXXZ 100b80c0     msvcprtd:MSVCP80D.dll
 0002:000000c4       __imp_??0?$basic_ifstream@DU?$char_traits@D@std@@@std@@QAE@PBDHH@Z 100b80c4     msvcprtd:MSVCP80D.dll
 0002:000000c8       __imp_?uncaught_exception@std@@YA_NXZ 100b80c8     msvcprtd:MSVCP80D.dll
 0002:000000cc       __imp_?flush@?$basic_ostream@DU?$char_traits@D@std@@@std@@QAEAAV12@XZ 100b80cc     msvcprtd:MSVCP80D.dll
 0002:000000d0       __imp_?close@?$basic_fstream@DU?$char_traits@D@std@@@std@@QAEXXZ 100b80d0     msvcprtd:MSVCP80D.dll
 0002:000000d4       __imp_??6?$basic_ostream@DU?$char_traits@D@std@@@std@@QAEAAV01@H@Z 100b80d4     msvcprtd:MSVCP80D.dll
 0002:000000d8       __imp_?_Lock@?$basic_streambuf@DU?$char_traits@D@std@@@std@@QAEXXZ 100b80d8     msvcprtd:MSVCP80D.dll
 0002:000000dc       __imp_??0?$basic_fstream@DU?$char_traits@D@std@@@std@@QAE@PBDHH@Z 100b80dc     msvcprtd:MSVCP80D.dll
 0002:000000e0       __imp_?_Osfx@?$basic_ostream@DU?$char_traits@D@std@@@std@@QAEXXZ 100b80e0     msvcprtd:MSVCP80D.dll
 0002:000000e4       __imp_?setstate@?$basic_ios@DU?$char_traits@D@std@@@std@@QAEXH_N@Z 100b80e4     msvcprtd:MSVCP80D.dll
 0002:000000e8       __imp_?sputn@?$basic_streambuf@DU?$char_traits@D@std@@@std@@QAEHPBDH@Z 100b80e8     msvcprtd:MSVCP80D.dll
 0002:000000ec       __imp_?_Unlock@?$basic_streambuf@DU?$char_traits@D@std@@@std@@QAEXXZ 100b80ec     msvcprtd:MSVCP80D.dll
 0002:000000f0       __imp_?sputc@?$basic_streambuf@DU?$char_traits@D@std@@@std@@QAEHD@Z 100b80f0     msvcprtd:MSVCP80D.dll
 0002:000000f4       __imp_??$?8DU?$char_traits@D@std@@V?$allocator@D@1@@std@@YA_NABV?$basic_string@DU?$char_traits@D@std@@V?$allocator@D@2@@0@0@Z 100b80f4     msvcprtd:MSVCP80D.dll
 0002:000000f8       __imp_?substr@?$basic_string@DU?$char_traits@D@std@@V?$allocator@D@2@@std@@QBE?AV12@II@Z 100b80f8     msvcprtd:MSVCP80D.dll
 0002:000000fc       __imp_??$?9DU?$char_traits@D@std@@V?$allocator@D@1@@std@@YA_NABV?$basic_string@DU?$char_traits@D@std@@V?$allocator@D@2@@0@0@Z 100b80fc     msvcprtd:MSVCP80D.dll
 0002:00000100       __imp_??$?9DU?$char_traits@D@std@@V?$allocator@D@1@@std@@YA_NABV?$basic_string@DU?$char_traits@D@std@@V?$allocator@D@2@@0@PBD@Z 100b8100     msvcprtd:MSVCP80D.dll
 0002:00000104       __imp_?find@?$basic_string@DU?$char_traits@D@std@@V?$allocator@D@2@@std@@QBEIDI@Z 100b8104     msvcprtd:MSVCP80D.dll
 0002:00000108       __imp_?find@?$basic_string@DU?$char_traits@D@std@@V?$allocator@D@2@@std@@QBEIABV12@I@Z 100b8108     msvcprtd:MSVCP80D.dll
 0002:0000010c       __imp_?npos@?$basic_string@DU?$char_traits@D@std@@V?$allocator@D@2@@std@@2IB 100b810c     msvcprtd:MSVCP80D.dll
 0002:00000110       __imp_?append@?$basic_string@DU?$char_traits@D@std@@V?$allocator@D@2@@std@@QAEAAV12@ABV12@II@Z 100b8110     msvcprtd:MSVCP80D.dll
 0002:00000114       __imp_?peek@?$basic_istream@DU?$char_traits@D@std@@@std@@QAEHXZ 100b8114     msvcprtd:MSVCP80D.dll
 0002:00000118       __imp_?ignore@?$basic_istream@DU?$char_traits@D@std@@@std@@QAEAAV12@HH@Z 100b8118     msvcprtd:MSVCP80D.dll
 0002:0000011c       __imp_?getline@?$basic_istream@DU?$char_traits@D@std@@@std@@QAEAAV12@PADH@Z 100b811c     msvcprtd:MSVCP80D.dll
 0002:00000120       __imp_??$?MDU?$char_traits@D@std@@V?$allocator@D@1@@std@@YA_NABV?$basic_string@DU?$char_traits@D@std@@V?$allocator@D@2@@0@0@Z 100b8120     msvcprtd:MSVCP80D.dll
 0002:00000124       __imp_?write@?$basic_ostream@DU?$char_traits@D@std@@@std@@QAEAAV12@PBDH@Z 100b8124     msvcprtd:MSVCP80D.dll
 0002:00000128       __imp_?open@?$basic_fstream@DU?$char_traits@D@std@@@std@@QAEXPBDHH@Z 100b8128     msvcprtd:MSVCP80D.dll
 0002:0000012c       __imp_??0?$basic_fstream@DU?$char_traits@D@std@@@std@@QAE@XZ 100b812c     msvcprtd:MSVCP80D.dll
 0002:00000130       __imp_?clear@?$basic_ios@DU?$char_traits@D@std@@@std@@QAEXH_N@Z 100b8130     msvcprtd:MSVCP80D.dll
 0002:00000134       __imp_?assign@?$basic_string@DU?$char_traits@D@std@@V?$allocator@D@2@@std@@QAEAAV12@PBDI@Z 100b8134     msvcprtd:MSVCP80D.dll
 0002:00000138       __imp_??0?$basic_string@DU?$char_traits@D@std@@V?$allocator@D@2@@std@@QAE@U_Has_debug_it@01@@Z 100b8138     msvcprtd:MSVCP80D.dll
 0002:0000013c       __imp_??1_Container_base@std@@QAE@XZ 100b813c     msvcprtd:MSVCP80D.dll
 0002:00000140       __imp_?find@?$basic_string@DU?$char_traits@D@std@@V?$allocator@D@2@@std@@QBEIPBDI@Z 100b8140     msvcprtd:MSVCP80D.dll
 0002:00000144       __imp_?insert@?$basic_string@DU?$char_traits@D@std@@V?$allocator@D@2@@std@@QAEAAV12@IPBD@Z 100b8144     msvcprtd:MSVCP80D.dll
 0002:00000148       __imp_??4?$basic_string@DU?$char_traits@D@std@@V?$allocator@D@2@@std@@QAEAAV01@PBD@Z 100b8148     msvcprtd:MSVCP80D.dll
 0002:0000014c       __imp_??0?$basic_string@DU?$char_traits@D@std@@V?$allocator@D@2@@std@@QAE@PBD@Z 100b814c     msvcprtd:MSVCP80D.dll
 0002:00000150       __imp_?_Debug_message@std@@YAXPB_W0I@Z 100b8150     msvcprtd:MSVCP80D.dll
 0002:00000154       __imp_??_D?$basic_fstream@DU?$char_traits@D@std@@@std@@QAEXXZ 100b8154     msvcprtd:MSVCP80D.dll
 0002:00000158       __imp_??4?$basic_string@DU?$char_traits@D@std@@V?$allocator@D@2@@std@@QAEAAV01@ABV01@@Z 100b8158     msvcprtd:MSVCP80D.dll
 0002:0000015c       __imp_??$?HDU?$char_traits@D@std@@V?$allocator@D@1@@std@@YA?AV?$basic_string@DU?$char_traits@D@std@@V?$allocator@D@2@@0@ABV10@0@Z 100b815c     msvcprtd:MSVCP80D.dll
 0002:00000160       __imp_??1?$basic_string@DU?$char_traits@D@std@@V?$allocator@D@2@@std@@QAE@XZ 100b8160     msvcprtd:MSVCP80D.dll
 0002:00000164       __imp_??1_Lockit@std@@QAE@XZ 100b8164     msvcprtd:MSVCP80D.dll
 0002:00000168       __imp_??0?$basic_string@DU?$char_traits@D@std@@V?$allocator@D@2@@std@@QAE@ABV01@@Z 100b8168     msvcprtd:MSVCP80D.dll
 0002:0000016c       __imp_??0_Lockit@std@@QAE@H@Z 100b816c     msvcprtd:MSVCP80D.dll
 0002:00000170       \177MSVCP80D_NULL_THUNK_DATA 100b8170     msvcprtd:MSVCP80D.dll
 0002:00000174       __imp_??0exception@std@@QAE@ABV01@@Z 100b8174     MSVCRTD:MSVCR80D.dll
 0002:00000178       __imp__strncpy             100b8178     MSVCRTD:MSVCR80D.dll
 0002:0000017c       __imp__fclose              100b817c     MSVCRTD:MSVCR80D.dll
 0002:00000180       __imp___sleep              100b8180     MSVCRTD:MSVCR80D.dll
 0002:00000184       __imp__fread               100b8184     MSVCRTD:MSVCR80D.dll
 0002:00000188       __imp__strncmp             100b8188     MSVCRTD:MSVCR80D.dll
 0002:0000018c       __imp__fseek               100b818c     MSVCRTD:MSVCR80D.dll
 0002:00000190       __imp__fopen               100b8190     MSVCRTD:MSVCR80D.dll
 0002:00000194       __imp____iob_func          100b8194     MSVCRTD:MSVCR80D.dll
 0002:00000198       __imp___purecall           100b8198     MSVCRTD:MSVCR80D.dll
 0002:0000019c       __imp___fileno             100b819c     MSVCRTD:MSVCR80D.dll
 0002:0000019c       __imp__fileno              100b819c     MSVCRTD:MSVCR80D.dll
 0002:000001a0       __imp__strncat             100b81a0     MSVCRTD:MSVCR80D.dll
 0002:000001a4       __imp__isxdigit            100b81a4     MSVCRTD:MSVCR80D.dll
 0002:000001a8       __imp__isdigit             100b81a8     MSVCRTD:MSVCR80D.dll
 0002:000001ac       __imp__fprintf             100b81ac     MSVCRTD:MSVCR80D.dll
 0002:000001b0       __imp__memcmp              100b81b0     MSVCRTD:MSVCR80D.dll
 0002:000001b4       __imp__memset              100b81b4     MSVCRTD:MSVCR80D.dll
 0002:000001b8       __imp__ferror              100b81b8     MSVCRTD:MSVCR80D.dll
 0002:000001bc       __imp__fwrite              100b81bc     MSVCRTD:MSVCR80D.dll
 0002:000001c0       __imp__fflush              100b81c0     MSVCRTD:MSVCR80D.dll
 0002:000001c4       __imp__strcat              100b81c4     MSVCRTD:MSVCR80D.dll
 0002:000001c8       __imp___setmode            100b81c8     MSVCRTD:MSVCR80D.dll
 0002:000001cc       __imp__ftell               100b81cc     MSVCRTD:MSVCR80D.dll
 0002:000001d0       __imp__feof                100b81d0     MSVCRTD:MSVCR80D.dll
 0002:000001d4       __imp__strlen              100b81d4     MSVCRTD:MSVCR80D.dll
 0002:000001d8       __imp__fgets               100b81d8     MSVCRTD:MSVCR80D.dll
 0002:000001dc       __imp__strcmp              100b81dc     MSVCRTD:MSVCR80D.dll
 0002:000001e0       __imp__isspace             100b81e0     MSVCRTD:MSVCR80D.dll
 0002:000001e4       __imp__qsort               100b81e4     MSVCRTD:MSVCR80D.dll
 0002:000001e8       __imp__tolower             100b81e8     MSVCRTD:MSVCR80D.dll
 0002:000001ec       __imp__strerror            100b81ec     MSVCRTD:MSVCR80D.dll
 0002:000001f0       __imp__strchr              100b81f0     MSVCRTD:MSVCR80D.dll
 0002:000001f4       __imp__getenv              100b81f4     MSVCRTD:MSVCR80D.dll
 0002:000001f8       __imp__free                100b81f8     MSVCRTD:MSVCR80D.dll
 0002:000001fc       __imp__realloc             100b81fc     MSVCRTD:MSVCR80D.dll
 0002:00000200       __imp__malloc              100b8200     MSVCRTD:MSVCR80D.dll
 0002:00000204       __imp__isupper             100b8204     MSVCRTD:MSVCR80D.dll
 0002:00000208       __imp__memchr              100b8208     MSVCRTD:MSVCR80D.dll
 0002:0000020c       __imp__wcsstr              100b820c     MSVCRTD:MSVCR80D.dll
 0002:00000210       __imp___vsnprintf          100b8210     MSVCRTD:MSVCR80D.dll
 0002:00000214       __imp__vfprintf            100b8214     MSVCRTD:MSVCR80D.dll
 0002:00000218       __imp__abort               100b8218     MSVCRTD:MSVCR80D.dll
 0002:0000021c       __imp___lrotr              100b821c     MSVCRTD:MSVCR80D.dll
 0002:00000220       __imp___lrotl              100b8220     MSVCRTD:MSVCR80D.dll
 0002:00000224       __imp__memmove             100b8224     MSVCRTD:MSVCR80D.dll
 0002:00000228       __imp__sscanf              100b8228     MSVCRTD:MSVCR80D.dll
 0002:0000022c       __imp__strtoul             100b822c     MSVCRTD:MSVCR80D.dll
 0002:00000230       __imp__fputs               100b8230     MSVCRTD:MSVCR80D.dll
 0002:00000234       __imp__signal              100b8234     MSVCRTD:MSVCR80D.dll
 0002:00000238       __imp__strcpy              100b8238     MSVCRTD:MSVCR80D.dll
 0002:0000023c       __imp__strstr              100b823c     MSVCRTD:MSVCR80D.dll
 0002:00000240       __imp_?terminate@@YAXXZ    100b8240     MSVCRTD:MSVCR80D.dll
 0002:00000244       __imp___encode_pointer     100b8244     MSVCRTD:MSVCR80D.dll
 0002:00000248       __imp___malloc_dbg         100b8248     MSVCRTD:MSVCR80D.dll
 0002:0000024c       __imp___free_dbg           100b824c     MSVCRTD:MSVCR80D.dll
 0002:00000250       __imp___encoded_null       100b8250     MSVCRTD:MSVCR80D.dll
 0002:00000254       __imp___decode_pointer     100b8254     MSVCRTD:MSVCR80D.dll
 0002:00000258       __imp___CrtSetCheckCount   100b8258     MSVCRTD:MSVCR80D.dll
 0002:0000025c       __imp___initterm           100b825c     MSVCRTD:MSVCR80D.dll
 0002:00000260       __imp___initterm_e         100b8260     MSVCRTD:MSVCR80D.dll
 0002:00000264       __imp___amsg_exit          100b8264     MSVCRTD:MSVCR80D.dll
 0002:00000268       __imp___adjust_fdiv        100b8268     MSVCRTD:MSVCR80D.dll
 0002:0000026c       __imp____CppXcptFilter     100b826c     MSVCRTD:MSVCR80D.dll
 0002:00000270       __imp___crt_debugger_hook  100b8270     MSVCRTD:MSVCR80D.dll
 0002:00000274       __imp_?_type_info_dtor_internal_method@type_info@@QAEXXZ 100b8274     MSVCRTD:MSVCR80D.dll
 0002:00000278       __imp___except_handler4_common 100b8278     MSVCRTD:MSVCR80D.dll
 0002:0000027c       __imp____clean_type_info_names_internal 100b827c     MSVCRTD:MSVCR80D.dll
 0002:00000280       __imp___unlock             100b8280     MSVCRTD:MSVCR80D.dll
 0002:00000284       __imp____dllonexit         100b8284     MSVCRTD:MSVCR80D.dll
 0002:00000288       __imp___lock               100b8288     MSVCRTD:MSVCR80D.dll
 0002:0000028c       __imp___onexit             100b828c     MSVCRTD:MSVCR80D.dll
 0002:00000290       __imp_??0exception@std@@QAE@XZ 100b8290     MSVCRTD:MSVCR80D.dll
 0002:00000294       __imp_??1exception@std@@UAE@XZ 100b8294     MSVCRTD:MSVCR80D.dll
 0002:00000298       __imp___mktime64           100b8298     MSVCRTD:MSVCR80D.dll
 0002:0000029c       __imp___localtime64        100b829c     MSVCRTD:MSVCR80D.dll
 0002:000002a0       __imp___gmtime64           100b82a0     MSVCRTD:MSVCR80D.dll
 0002:000002a4       __imp___time64             100b82a4     MSVCRTD:MSVCR80D.dll
 0002:000002a8       __imp__vsprintf            100b82a8     MSVCRTD:MSVCR80D.dll
 0002:000002ac       __imp___CrtDbgReportW      100b82ac     MSVCRTD:MSVCR80D.dll
 0002:000002b0       __imp___invalid_parameter  100b82b0     MSVCRTD:MSVCR80D.dll
 0002:000002b4       __imp___errno              100b82b4     MSVCRTD:MSVCR80D.dll
 0002:000002b8       __imp__atoi                100b82b8     MSVCRTD:MSVCR80D.dll
 0002:000002bc       __imp_??_V@YAXPAX@Z        100b82bc     MSVCRTD:MSVCR80D.dll
 0002:000002c0       __imp__sprintf             100b82c0     MSVCRTD:MSVCR80D.dll
 0002:000002c4       __imp_??3@YAXPAX@Z         100b82c4     MSVCRTD:MSVCR80D.dll
 0002:000002c8       __imp_??2@YAPAXI@Z         100b82c8     MSVCRTD:MSVCR80D.dll
 0002:000002cc       __imp__memcpy              100b82cc     MSVCRTD:MSVCR80D.dll
 0002:000002d0       __imp__getpid              100b82d0     MSVCRTD:MSVCR80D.dll
 0002:000002d0       __imp___getpid             100b82d0     MSVCRTD:MSVCR80D.dll
 0002:000002d4       __imp__getch               100b82d4     MSVCRTD:MSVCR80D.dll
 0002:000002d4       __imp___getch              100b82d4     MSVCRTD:MSVCR80D.dll
 0002:000002d8       __imp____CxxFrameHandler3  100b82d8     MSVCRTD:MSVCR80D.dll
 0002:000002dc       __imp___stat64i32          100b82dc     MSVCRTD:MSVCR80D.dll
 0002:000002e0       __imp___CxxThrowException@8 100b82e0     MSVCRTD:MSVCR80D.dll
 0002:000002e4       \177MSVCR80D_NULL_THUNK_DATA 100b82e4     MSVCRTD:MSVCR80D.dll
 0002:000002e8       __imp__MessageBoxA@16      100b82e8     user32:USER32.dll
 0002:000002ec       __imp__GetDesktopWindow@0  100b82ec     user32:USER32.dll
 0002:000002f0       __imp__GetProcessWindowStation@0 100b82f0     user32:USER32.dll
 0002:000002f4       __imp__GetUserObjectInformationW@20 100b82f4     user32:USER32.dll
 0002:000002f8       \177USER32_NULL_THUNK_DATA 100b82f8     user32:USER32.dll
 0002:000002fc       __imp__accept@12           100b82fc     WSock32:WSOCK32.dll
 0002:00000300       __imp__bind@12             100b8300     WSock32:WSOCK32.dll
 0002:00000304       __imp__listen@8            100b8304     WSock32:WSOCK32.dll
 0002:00000308       __imp__ioctlsocket@12      100b8308     WSock32:WSOCK32.dll
 0002:0000030c       __imp__WSAStartup@8        100b830c     WSock32:WSOCK32.dll
 0002:00000310       __imp__gethostbyname@4     100b8310     WSock32:WSOCK32.dll
 0002:00000314       __imp__getsockopt@20       100b8314     WSock32:WSOCK32.dll
 0002:00000318       __imp__getservbyname@8     100b8318     WSock32:WSOCK32.dll
 0002:0000031c       __imp__send@16             100b831c     WSock32:WSOCK32.dll
 0002:00000320       __imp__socket@12           100b8320     WSock32:WSOCK32.dll
 0002:00000324       __imp__WSAGetLastError@0   100b8324     WSock32:WSOCK32.dll
 0002:00000328       __imp__connect@12          100b8328     WSock32:WSOCK32.dll
 0002:0000032c       __imp__WSASetLastError@4   100b832c     WSock32:WSOCK32.dll
 0002:00000330       __imp__recv@16             100b8330     WSock32:WSOCK32.dll
 0002:00000334       __imp__shutdown@8          100b8334     WSock32:WSOCK32.dll
 0002:00000338       __imp__closesocket@4       100b8338     WSock32:WSOCK32.dll
 0002:0000033c       __imp__setsockopt@20       100b833c     WSock32:WSOCK32.dll
 0002:00000340       __imp____WSAFDIsSet@8      100b8340     WSock32:WSOCK32.dll
 0002:00000344       __imp__select@20           100b8344     WSock32:WSOCK32.dll
 0002:00000348       __imp__htons@4             100b8348     WSock32:WSOCK32.dll
 0002:0000034c       __imp__ntohs@4             100b834c     WSock32:WSOCK32.dll
 0002:00000350       __imp__ntohl@4             100b8350     WSock32:WSOCK32.dll
 0002:00000354       __imp__htonl@4             100b8354     WSock32:WSOCK32.dll
 0002:00000358       \177WSOCK32_NULL_THUNK_DATA 100b8358     WSock32:WSOCK32.dll
 0002:0000035c       ___xc_a                    100b835c     MSVCRTD:cinitexe.obj
 0002:00000360       ___xc_z                    100b8360     MSVCRTD:cinitexe.obj
 0002:00000364       ___xi_a                    100b8364     MSVCRTD:cinitexe.obj
 0002:00000370       ___xi_z                    100b8370     MSVCRTD:cinitexe.obj
 0002:00000378       _RSA_version               100b8378     libeay32_EM_dbg.0.9.8e:rsa_lib.obj
 0002:000003a0       ??_C@_0BH@MECNDGAA@?4?2crypto?2rsa?2rsa_lib?4c?$AA@ 100b83a0     libeay32_EM_dbg.0.9.8e:rsa_lib.obj
 0002:000003b8       ??_C@_0M@BFIJENPO@CERTIFICATE?$AA@ 100b83b8     libeay32_EM_dbg.0.9.8e:pem_x509.obj
 0002:000003d8       ??_C@_0BH@HBJNKHOA@?4?2crypto?2bn?2bn_print?4c?$AA@ 100b83d8     libeay32_EM_dbg.0.9.8e:bn_print.obj
 0002:000003f0       ??_C@_05CGNLHKID@?$CF09lu?$AA@ 100b83f0     libeay32_EM_dbg.0.9.8e:bn_print.obj
 0002:000003f8       ??_C@_03FKNCMABI@?$CFlu?$AA@ 100b83f8     libeay32_EM_dbg.0.9.8e:bn_print.obj
 0002:000003fc       ??_C@_01GBGANLPD@0?$AA@    100b83fc     libeay32_EM_dbg.0.9.8e:bn_print.obj
 0002:00000400       ??_C@_01JOAMLHOP@?9?$AA@   100b8400     libeay32_EM_dbg.0.9.8e:bn_print.obj
 0002:00000404       ??_C@_0BI@PEDEDAKL@?4?2crypto?2rsa?2rsa_sign?4c?$AA@ 100b8404     libeay32_EM_dbg.0.9.8e:rsa_sign.obj
 0002:0000041c       ??_C@_0DF@DGNAAHIE@signature?5has?5problems?0?5re?9make?5@ 100b841c     libeay32_EM_dbg.0.9.8e:rsa_sign.obj
 0002:00000458       _BN_version                100b8458     libeay32_EM_dbg.0.9.8e:bn_lib.obj
 0002:00000588       ??_C@_0BF@OGBNCIDG@?4?2crypto?2bn?2bn_lib?4c?$AA@ 100b8588     libeay32_EM_dbg.0.9.8e:bn_lib.obj
 0002:000005d4       _EVP_version               100b85d4     libeay32_EM_dbg.0.9.8e:evp_enc.obj
 0002:000005fc       ??_C@_0BH@FPKHLGPK@?4?2crypto?2evp?2evp_enc?4c?$AA@ 100b85fc     libeay32_EM_dbg.0.9.8e:evp_enc.obj
 0002:00000614       ??_C@_0DG@IKOHIL@EVP_CIPHER_CTX_iv_length?$CIctx?$CJ?5?$DM?$DN@ 100b8614     libeay32_EM_dbg.0.9.8e:evp_enc.obj
 0002:00000650       ??_C@_0FO@KIBMBINE@ctx?9?$DOcipher?9?$DOblock_size?5?$DN?$DN?51?5?$HM?$HM?5@ 100b8650     libeay32_EM_dbg.0.9.8e:evp_enc.obj
 0002:000006b0       ??_C@_0BM@NOPGEACO@bl?5?$DM?$DN?5?$CIint?$CJsizeof?$CIctx?9?$DObuf?$CJ?$AA@ 100b86b0     libeay32_EM_dbg.0.9.8e:evp_enc.obj
 0002:000006cc       ??_C@_07MHPILDBK@inl?5?$DO?50?$AA@ 100b86cc     libeay32_EM_dbg.0.9.8e:evp_enc.obj
 0002:000006d4       ??_C@_0BF@NLHGELBH@b?5?$DM?$DN?5sizeof?5ctx?9?$DObuf?$AA@ 100b86d4     libeay32_EM_dbg.0.9.8e:evp_enc.obj
 0002:000006ec       ??_C@_0BH@JPOFFCDO@b?5?$DM?$DN?5sizeof?5ctx?9?$DOfinal?$AA@ 100b86ec     libeay32_EM_dbg.0.9.8e:evp_enc.obj
 0002:00000704       ??_C@_08JIPBBKBM@X509_REQ?$AA@ 100b8704     libeay32_EM_dbg.0.9.8e:x_req.obj
 0002:00000710       ??_C@_09CMIIOJHF@signature?$AA@ 100b8710     libeay32_EM_dbg.0.9.8e:x_req.obj
 0002:0000071c       ??_C@_07OBHFIHGJ@sig_alg?$AA@ 100b871c     libeay32_EM_dbg.0.9.8e:x_req.obj
 0002:00000724       ??_C@_08JILJKJG@req_info?$AA@ 100b8724     libeay32_EM_dbg.0.9.8e:x_req.obj
 0002:00000730       ??_C@_0O@EHCMNJCB@X509_REQ_INFO?$AA@ 100b8730     libeay32_EM_dbg.0.9.8e:x_req.obj
 0002:00000740       ??_C@_0L@HNMJPKNA@attributes?$AA@ 100b8740     libeay32_EM_dbg.0.9.8e:x_req.obj
 0002:0000074c       ??_C@_06GKCAPDID@pubkey?$AA@ 100b874c     libeay32_EM_dbg.0.9.8e:x_req.obj
 0002:00000754       ??_C@_07JNNGEGGO@subject?$AA@ 100b8754     libeay32_EM_dbg.0.9.8e:x_req.obj
 0002:0000075c       ??_C@_07CPCPJPKL@version?$AA@ 100b875c     libeay32_EM_dbg.0.9.8e:x_req.obj
 0002:0000085c       ??_C@_0BL@EEIGAKG@?4?2crypto?2pkcs7?2pk7_smime?4c?$AA@ 100b885c     libeay32_EM_dbg.0.9.8e:pk7_smime.obj
 0002:00000948       ??_C@_0BG@COGMIJJG@?4?2crypto?2evp?2digest?4c?$AA@ 100b8948     libeay32_EM_dbg.0.9.8e:digest.obj
 0002:00000960       ??_C@_0CI@KPJFNDOF@ctx?9?$DOdigest?9?$DOmd_size?5?$DM?$DN?5EVP_MAX_@ 100b8960     libeay32_EM_dbg.0.9.8e:digest.obj
 0002:00000af0       ??_C@_0N@JAGKAFD@FILE?5pointer?$AA@ 100b8af0     libeay32_EM_dbg.0.9.8e:bss_file.obj
 0002:00000b00       ??_C@_07JMDFGFFH@fopen?$CI?8?$AA@ 100b8b00     libeay32_EM_dbg.0.9.8e:bss_file.obj
 0002:00000b08       ??_C@_03IMMLKIF@?8?0?8?$AA@ 100b8b08     libeay32_EM_dbg.0.9.8e:bss_file.obj
 0002:00000b0c       ??_C@_02HJPKOJGD@?8?$CJ?$AA@ 100b8b0c     libeay32_EM_dbg.0.9.8e:bss_file.obj
 0002:00000b10       ??_C@_0BI@EHMCOOOG@?4?2crypto?2bio?2bss_file?4c?$AA@ 100b8b10     libeay32_EM_dbg.0.9.8e:bss_file.obj
 0002:00000b28       ??_C@_01PFHFFBPC@t?$AA@    100b8b28     libeay32_EM_dbg.0.9.8e:bss_file.obj
 0002:00000b2c       ??_C@_01OJONOECF@b?$AA@    100b8b2c     libeay32_EM_dbg.0.9.8e:bss_file.obj
 0002:00000b30       ??_C@_02CBLLGHLK@r?$CL?$AA@ 100b8b30     libeay32_EM_dbg.0.9.8e:bss_file.obj
 0002:00000b34       ??_C@_02DPNLHKJD@a?$CL?$AA@ 100b8b34     libeay32_EM_dbg.0.9.8e:bss_file.obj
 0002:00000da8       ??_C@_0BF@NACJHEJH@?4?2crypto?2evp?2e_rc2?4c?$AA@ 100b8da8     libeay32_EM_dbg.0.9.8e:e_rc2.obj
 0002:00000dc0       ??_C@_0BA@GLOHCMJJ@l?5?$DM?$DN?5sizeof?$CIiv?$CJ?$AA@ 100b8dc0     libeay32_EM_dbg.0.9.8e:e_rc2.obj
 0002:00000dd0       ??_C@_02KEGNLNML@?0?5?$AA@ 100b8dd0     libeay32_EM_dbg.0.9.8e:v3_prn.obj
 0002:00000dd4       ??_C@_03HIJPJGOM@?$CF?$CKs?$AA@ 100b8dd4     libeay32_EM_dbg.0.9.8e:v3_prn.obj
 0002:00000dd8       ??_C@_08CBBMEOFB@critical?$AA@ 100b8dd8     libeay32_EM_dbg.0.9.8e:v3_prn.obj
 0002:00000de4       ??_C@_07GOIIHCND@?$CF?$CKs?$CFs?3?6?$AA@ 100b8de4     libeay32_EM_dbg.0.9.8e:v3_prn.obj
 0002:00000dec       ??_C@_0BJ@IDBKHPBN@?4?2crypto?2x509?2x509name?4c?$AA@ 100b8dec     libeay32_EM_dbg.0.9.8e:x509name.obj
 0002:00000e08       ??_C@_05DFCJAACA@name?$DN?$AA@ 100b8e08     libeay32_EM_dbg.0.9.8e:x509name.obj
 0002:00000e10       ??_C@_0BC@DLHIINOH@PKCS7_ATTR_VERIFY?$AA@ 100b8e10     libeay32_EM_dbg.0.9.8e:pk7_asn1.obj
 0002:00000e24       ??_C@_0BA@IJMFEGLH@PKCS7_ATTR_SIGN?$AA@ 100b8e24     libeay32_EM_dbg.0.9.8e:pk7_asn1.obj
 0002:00000e34       ??_C@_0BB@ODHHPICH@PKCS7_ATTRIBUTES?$AA@ 100b8e34     libeay32_EM_dbg.0.9.8e:pk7_asn1.obj
 0002:00000e48       ??_C@_0N@NAILNAH@PKCS7_DIGEST?$AA@ 100b8e48     libeay32_EM_dbg.0.9.8e:pk7_asn1.obj
 0002:00000e58       ??_C@_06IJPNAHC@digest?$AA@ 100b8e58     libeay32_EM_dbg.0.9.8e:pk7_asn1.obj
 0002:00000e60       ??_C@_02EBCANADN@md?$AA@   100b8e60     libeay32_EM_dbg.0.9.8e:pk7_asn1.obj
 0002:00000e64       ??_C@_0O@GIFGHKGC@PKCS7_ENCRYPT?$AA@ 100b8e64     libeay32_EM_dbg.0.9.8e:pk7_asn1.obj
 0002:00000e74       ??_C@_0BE@LMHBPFDD@PKCS7_SIGN_ENVELOPE?$AA@ 100b8e74     libeay32_EM_dbg.0.9.8e:pk7_asn1.obj
 0002:00000e88       ??_C@_0BC@INKEDPEG@PKCS7_ENC_CONTENT?$AA@ 100b8e88     libeay32_EM_dbg.0.9.8e:pk7_asn1.obj
 0002:00000e9c       ??_C@_09JPNFBOJG@algorithm?$AA@ 100b8e9c     libeay32_EM_dbg.0.9.8e:pk7_asn1.obj
 0002:00000ea8       ??_C@_0N@IEAAACJL@content_type?$AA@ 100b8ea8     libeay32_EM_dbg.0.9.8e:pk7_asn1.obj
 0002:00000eb8       ??_C@_0BB@MGPEFENK@PKCS7_RECIP_INFO?$AA@ 100b8eb8     libeay32_EM_dbg.0.9.8e:pk7_asn1.obj
 0002:00000ecc       ??_C@_07LBLKCHGJ@enc_key?$AA@ 100b8ecc     libeay32_EM_dbg.0.9.8e:pk7_asn1.obj
 0002:00000ed4       ??_C@_0O@ODFHHMFC@key_enc_algor?$AA@ 100b8ed4     libeay32_EM_dbg.0.9.8e:pk7_asn1.obj
 0002:00000ee4       ??_C@_0P@KCJMJLOD@PKCS7_ENVELOPE?$AA@ 100b8ee4     libeay32_EM_dbg.0.9.8e:pk7_asn1.obj
 0002:00000ef4       ??_C@_08ENNDKKOI@enc_data?$AA@ 100b8ef4     libeay32_EM_dbg.0.9.8e:pk7_asn1.obj
 0002:00000f00       ??_C@_0O@HGJALPPJ@recipientinfo?$AA@ 100b8f00     libeay32_EM_dbg.0.9.8e:pk7_asn1.obj
 0002:00000f10       ??_C@_0BI@POAIONGK@PKCS7_ISSUER_AND_SERIAL?$AA@ 100b8f10     libeay32_EM_dbg.0.9.8e:pk7_asn1.obj
 0002:00000f28       ??_C@_06KCELPKEE@serial?$AA@ 100b8f28     libeay32_EM_dbg.0.9.8e:pk7_asn1.obj
 0002:00000f30       ??_C@_06EAINIONG@issuer?$AA@ 100b8f30     libeay32_EM_dbg.0.9.8e:pk7_asn1.obj
 0002:00000f38       ??_C@_0BC@BFFCPPDG@PKCS7_SIGNER_INFO?$AA@ 100b8f38     libeay32_EM_dbg.0.9.8e:pk7_asn1.obj
 0002:00000f4c       ??_C@_0M@NNBFAOJK@unauth_attr?$AA@ 100b8f4c     libeay32_EM_dbg.0.9.8e:pk7_asn1.obj
 0002:00000f58       ??_C@_0L@PJDBOMFC@enc_digest?$AA@ 100b8f58     libeay32_EM_dbg.0.9.8e:pk7_asn1.obj
 0002:00000f64       ??_C@_0P@KLFHBHJD@digest_enc_alg?$AA@ 100b8f64     libeay32_EM_dbg.0.9.8e:pk7_asn1.obj
 0002:00000f74       ??_C@_09PLABOLFJ@auth_attr?$AA@ 100b8f74     libeay32_EM_dbg.0.9.8e:pk7_asn1.obj
 0002:00000f80       ??_C@_0L@OGBFEEJI@digest_alg?$AA@ 100b8f80     libeay32_EM_dbg.0.9.8e:pk7_asn1.obj
 0002:00000f8c       ??_C@_0BC@PMGLGNPO@issuer_and_serial?$AA@ 100b8f8c     libeay32_EM_dbg.0.9.8e:pk7_asn1.obj
 0002:00000fa0       ??_C@_0N@CKBJFFNF@PKCS7_SIGNED?$AA@ 100b8fa0     libeay32_EM_dbg.0.9.8e:pk7_asn1.obj
 0002:00000fb0       ??_C@_0M@KEDNAHBP@signer_info?$AA@ 100b8fb0     libeay32_EM_dbg.0.9.8e:pk7_asn1.obj
 0002:00000fbc       ??_C@_03GJBFOAJL@crl?$AA@  100b8fbc     libeay32_EM_dbg.0.9.8e:pk7_asn1.obj
 0002:00000fc0       ??_C@_04PHJBACIC@cert?$AA@ 100b8fc0     libeay32_EM_dbg.0.9.8e:pk7_asn1.obj
 0002:00000fc8       ??_C@_08ODCIAOPM@contents?$AA@ 100b8fc8     libeay32_EM_dbg.0.9.8e:pk7_asn1.obj
 0002:00000fd4       ??_C@_07MPDKKGPO@md_algs?$AA@ 100b8fd4     libeay32_EM_dbg.0.9.8e:pk7_asn1.obj
 0002:00000fdc       ??_C@_05BKMMPIPN@PKCS7?$AA@ 100b8fdc     libeay32_EM_dbg.0.9.8e:pk7_asn1.obj
 0002:00000fe4       ??_C@_04GPMDFGEJ@type?$AA@ 100b8fe4     libeay32_EM_dbg.0.9.8e:pk7_asn1.obj
 0002:00000fec       ??_C@_0M@IDEHBFAL@d?4encrypted?$AA@ 100b8fec     libeay32_EM_dbg.0.9.8e:pk7_asn1.obj
 0002:00000ff8       ??_C@_08JOIJLLGO@d?4digest?$AA@ 100b8ff8     libeay32_EM_dbg.0.9.8e:pk7_asn1.obj
 0002:00001004       ??_C@_0BH@FHPJHCLF@d?4signed_and_enveloped?$AA@ 100b9004     libeay32_EM_dbg.0.9.8e:pk7_asn1.obj
 0002:0000101c       ??_C@_0M@CLKMIMCI@d?4enveloped?$AA@ 100b901c     libeay32_EM_dbg.0.9.8e:pk7_asn1.obj
 0002:00001028       ??_C@_06GOHGJFCL@d?4sign?$AA@ 100b9028     libeay32_EM_dbg.0.9.8e:pk7_asn1.obj
 0002:00001030       ??_C@_06OAPKPHLA@d?4data?$AA@ 100b9030     libeay32_EM_dbg.0.9.8e:pk7_asn1.obj
 0002:00001038       ??_C@_07JIJPKMF@d?4other?$AA@ 100b9038     libeay32_EM_dbg.0.9.8e:pk7_asn1.obj
 0002:000015c8       ??_C@_0BK@EMNEMCDI@X509v3?5Certificate?5Issuer?$AA@ 100b95c8     libeay32_EM_dbg.0.9.8e:obj_dat.obj
 0002:000015e4       ??_C@_0BC@NAJGKAHO@certificateIssuer?$AA@ 100b95e4     libeay32_EM_dbg.0.9.8e:obj_dat.obj
 0002:000015f8       ??_C@_0CC@MMIACGNM@X509v3?5Issuing?5Distrubution?5Poin@ 100b95f8     libeay32_EM_dbg.0.9.8e:obj_dat.obj
 0002:0000161c       ??_C@_0BJ@OAOPOBMH@issuingDistributionPoint?$AA@ 100b961c     libeay32_EM_dbg.0.9.8e:obj_dat.obj
 0002:00001638       ??_C@_0CE@OGGDDHCK@X509v3?5Subject?5Directory?5Attribu@ 100b9638     libeay32_EM_dbg.0.9.8e:obj_dat.obj
 0002:0000165c       ??_C@_0BL@GAJEKNCJ@subjectDirectoryAttributes?$AA@ 100b965c     libeay32_EM_dbg.0.9.8e:obj_dat.obj
 0002:00001678       ??_C@_0BB@EGAOKAEM@camellia?9256?9ofb?$AA@ 100b9678     libeay32_EM_dbg.0.9.8e:obj_dat.obj
 0002:0000168c       ??_C@_0BB@FFEGHOPL@CAMELLIA?9256?9OFB?$AA@ 100b968c     libeay32_EM_dbg.0.9.8e:obj_dat.obj
 0002:000016a0       ??_C@_0BB@JELAIPMN@camellia?9192?9ofb?$AA@ 100b96a0     libeay32_EM_dbg.0.9.8e:obj_dat.obj
 0002:000016b4       ??_C@_0BB@IHPIFBHK@CAMELLIA?9192?9OFB?$AA@ 100b96b4     libeay32_EM_dbg.0.9.8e:obj_dat.obj
 0002:000016c8       ??_C@_0BB@DHCMPIFB@camellia?9128?9ofb?$AA@ 100b96c8     libeay32_EM_dbg.0.9.8e:obj_dat.obj
 0002:000016dc       ??_C@_0BB@CEGECGOG@CAMELLIA?9128?9OFB?$AA@ 100b96dc     libeay32_EM_dbg.0.9.8e:obj_dat.obj
 0002:000016f0       ??_C@_0BC@KNEDFCOB@camellia?9256?9cfb8?$AA@ 100b96f0     libeay32_EM_dbg.0.9.8e:obj_dat.obj
 0002:00001704       ??_C@_0BC@PIFFDMBA@CAMELLIA?9256?9CFB8?$AA@ 100b9704     libeay32_EM_dbg.0.9.8e:obj_dat.obj
 0002:00001718       ??_C@_0BC@DHCOFPHI@camellia?9192?9cfb8?$AA@ 100b9718     libeay32_EM_dbg.0.9.8e:obj_dat.obj
 0002:0000172c       ??_C@_0BC@GCDIDBIJ@CAMELLIA?9192?9CFB8?$AA@ 100b972c     libeay32_EM_dbg.0.9.8e:obj_dat.obj
 0002:00001740       ??_C@_0BC@MODEBMGA@camellia?9128?9cfb8?$AA@ 100b9740     libeay32_EM_dbg.0.9.8e:obj_dat.obj
 0002:00001754       ??_C@_0BC@JLCCHCJB@CAMELLIA?9128?9CFB8?$AA@ 100b9754     libeay32_EM_dbg.0.9.8e:obj_dat.obj
 0002:00001768       ??_C@_0BC@HMIBOJKI@camellia?9256?9cfb1?$AA@ 100b9768     libeay32_EM_dbg.0.9.8e:obj_dat.obj
 0002:0000177c       ??_C@_0BC@CJJHIHFJ@CAMELLIA?9256?9CFB1?$AA@ 100b977c     libeay32_EM_dbg.0.9.8e:obj_dat.obj
 0002:00001790       ??_C@_0BC@OGOMOEDB@camellia?9192?9cfb1?$AA@ 100b9790     libeay32_EM_dbg.0.9.8e:obj_dat.obj
 0002:000017a4       ??_C@_0BC@LDPKIKMA@CAMELLIA?9192?9CFB1?$AA@ 100b97a4     libeay32_EM_dbg.0.9.8e:obj_dat.obj
 0002:000017b8       ??_C@_0BC@BPPGKHCJ@camellia?9128?9cfb1?$AA@ 100b97b8     libeay32_EM_dbg.0.9.8e:obj_dat.obj
 0002:000017cc       ??_C@_0BC@EKOAMJNI@CAMELLIA?9128?9CFB1?$AA@ 100b97cc     libeay32_EM_dbg.0.9.8e:obj_dat.obj
 0002:000017e0       ??_C@_0BB@MNIBPPE@camellia?9256?9cfb?$AA@ 100b97e0     libeay32_EM_dbg.0.9.8e:obj_dat.obj
 0002:000017f4       ??_C@_0BB@BPJAMBED@CAMELLIA?9256?9CFB?$AA@ 100b97f4     libeay32_EM_dbg.0.9.8e:obj_dat.obj
 0002:00001808       ??_C@_0BB@NOGGDAHF@camellia?9192?9cfb?$AA@ 100b9808     libeay32_EM_dbg.0.9.8e:obj_dat.obj
 0002:0000181c       ??_C@_0BB@MNCOOOMC@CAMELLIA?9192?9CFB?$AA@ 100b981c     libeay32_EM_dbg.0.9.8e:obj_dat.obj
 0002:00001830       ??_C@_0BB@HNPKEHOJ@camellia?9128?9cfb?$AA@ 100b9830     libeay32_EM_dbg.0.9.8e:obj_dat.obj
 0002:00001844       ??_C@_0BB@GOLCJJFO@CAMELLIA?9128?9CFB?$AA@ 100b9844     libeay32_EM_dbg.0.9.8e:obj_dat.obj
 0002:00001858       ??_C@_0BB@CPHIICMD@camellia?9256?9ecb?$AA@ 100b9858     libeay32_EM_dbg.0.9.8e:obj_dat.obj
 0002:0000186c       ??_C@_0BB@DMDAFMHE@CAMELLIA?9256?9ECB?$AA@ 100b986c     libeay32_EM_dbg.0.9.8e:obj_dat.obj
 0002:00001880       ??_C@_0BB@PNMGKNEC@camellia?9192?9ecb?$AA@ 100b9880     libeay32_EM_dbg.0.9.8e:obj_dat.obj
 0002:00001894       ??_C@_0BB@OOIOHDPF@CAMELLIA?9192?9ECB?$AA@ 100b9894     libeay32_EM_dbg.0.9.8e:obj_dat.obj
 0002:000018a8       ??_C@_0BB@FOFKNKNO@camellia?9128?9ecb?$AA@ 100b98a8     libeay32_EM_dbg.0.9.8e:obj_dat.obj
 0002:000018bc       ??_C@_0BB@ENBCAEGJ@CAMELLIA?9128?9ECB?$AA@ 100b98bc     libeay32_EM_dbg.0.9.8e:obj_dat.obj
 0002:000018d0       ??_C@_0BB@BCMKIGGJ@camellia?9256?9cbc?$AA@ 100b98d0     libeay32_EM_dbg.0.9.8e:obj_dat.obj
 0002:000018e4       ??_C@_0BB@BICFINO@CAMELLIA?9256?9CBC?$AA@ 100b98e4     libeay32_EM_dbg.0.9.8e:obj_dat.obj
 0002:000018f8       ??_C@_0BB@MAHEKJOI@camellia?9192?9cbc?$AA@ 100b98f8     libeay32_EM_dbg.0.9.8e:obj_dat.obj
 0002:0000190c       ??_C@_0BB@NDDMHHFP@CAMELLIA?9192?9CBC?$AA@ 100b990c     libeay32_EM_dbg.0.9.8e:obj_dat.obj
 0002:00001920       ??_C@_0BB@GDOINOHE@camellia?9128?9cbc?$AA@ 100b9920     libeay32_EM_dbg.0.9.8e:obj_dat.obj
 0002:00001934       ??_C@_0BB@HAKAAAMD@CAMELLIA?9128?9CBC?$AA@ 100b9934     libeay32_EM_dbg.0.9.8e:obj_dat.obj
 0002:00001948       ??_C@_06DEKODPNG@ipsec4?$AA@ 100b9948     libeay32_EM_dbg.0.9.8e:obj_dat.obj
 0002:00001950       ??_C@_0O@FENFAHJA@Oakley?9EC2N?94?$AA@ 100b9950     libeay32_EM_dbg.0.9.8e:obj_dat.obj
 0002:00001960       ??_C@_06HLOPKJBB@ipsec3?$AA@ 100b9960     libeay32_EM_dbg.0.9.8e:obj_dat.obj
 0002:00001968       ??_C@_0O@BLJEJBFH@Oakley?9EC2N?93?$AA@ 100b9968     libeay32_EM_dbg.0.9.8e:obj_dat.obj
 0002:00001978       ??_C@_0BK@FPAAFIAO@X509v3?5Inhibit?5Any?5Policy?$AA@ 100b9978     libeay32_EM_dbg.0.9.8e:obj_dat.obj
 0002:00001994       ??_C@_0BB@CFCCDKGF@inhibitAnyPolicy?$AA@ 100b9994     libeay32_EM_dbg.0.9.8e:obj_dat.obj
 0002:000019a8       ??_C@_0BH@NJBPACCN@X509v3?5Policy?5Mappings?$AA@ 100b99a8     libeay32_EM_dbg.0.9.8e:obj_dat.obj
 0002:000019c0       ??_C@_0P@MEGGINDP@policyMappings?$AA@ 100b99c0     libeay32_EM_dbg.0.9.8e:obj_dat.obj
 0002:000019d0       ??_C@_0BC@CEEMIAHF@X509v3?5Any?5Policy?$AA@ 100b99d0     libeay32_EM_dbg.0.9.8e:obj_dat.obj
 0002:000019e4       ??_C@_09HBBJOJHB@anyPolicy?$AA@ 100b99e4     libeay32_EM_dbg.0.9.8e:obj_dat.obj
 0002:000019f0       ??_C@_0BI@MNOLKEAO@wap?9wsg?9idm?9ecid?9wtls12?$AA@ 100b99f0     libeay32_EM_dbg.0.9.8e:obj_dat.obj
 0002:00001a08       ??_C@_0BI@OGMGPHMN@wap?9wsg?9idm?9ecid?9wtls11?$AA@ 100b9a08     libeay32_EM_dbg.0.9.8e:obj_dat.obj
 0002:00001a20       ??_C@_0BI@PPNNMGIM@wap?9wsg?9idm?9ecid?9wtls10?$AA@ 100b9a20     libeay32_EM_dbg.0.9.8e:obj_dat.obj
 0002:00001a38       ??_C@_0BH@DMKMEGHN@wap?9wsg?9idm?9ecid?9wtls9?$AA@ 100b9a38     libeay32_EM_dbg.0.9.8e:obj_dat.obj
 0002:00001a50       ??_C@_0BH@CFLHHHDM@wap?9wsg?9idm?9ecid?9wtls8?$AA@ 100b9a50     libeay32_EM_dbg.0.9.8e:obj_dat.obj
 0002:00001a68       ??_C@_0BH@KCCPGLPD@wap?9wsg?9idm?9ecid?9wtls7?$AA@ 100b9a68     libeay32_EM_dbg.0.9.8e:obj_dat.obj
 0002:00001a80       ??_C@_0BH@LLDEFKLC@wap?9wsg?9idm?9ecid?9wtls6?$AA@ 100b9a80     libeay32_EM_dbg.0.9.8e:obj_dat.obj
 0002:00001a98       ??_C@_0BH@JABJAJHB@wap?9wsg?9idm?9ecid?9wtls5?$AA@ 100b9a98     libeay32_EM_dbg.0.9.8e:obj_dat.obj
 0002:00001ab0       ??_C@_0BH@IJACDIDA@wap?9wsg?9idm?9ecid?9wtls4?$AA@ 100b9ab0     libeay32_EM_dbg.0.9.8e:obj_dat.obj
 0002:00001ac8       ??_C@_0BH@MGEDKOPH@wap?9wsg?9idm?9ecid?9wtls3?$AA@ 100b9ac8     libeay32_EM_dbg.0.9.8e:obj_dat.obj
 0002:00001ae0       ??_C@_0BH@PEHFMMHF@wap?9wsg?9idm?9ecid?9wtls1?$AA@ 100b9ae0     libeay32_EM_dbg.0.9.8e:obj_dat.obj
 0002:00001af8       ??_C@_09MPLFOIFJ@sect571r1?$AA@ 100b9af8     libeay32_EM_dbg.0.9.8e:obj_dat.obj
 0002:00001b04       ??_C@_09NMECHAKG@sect571k1?$AA@ 100b9b04     libeay32_EM_dbg.0.9.8e:obj_dat.obj
 0002:00001b10       ??_C@_09HDHNMPAD@sect409r1?$AA@ 100b9b10     libeay32_EM_dbg.0.9.8e:obj_dat.obj
 0002:00001b1c       ??_C@_09GAIKFHPM@sect409k1?$AA@ 100b9b1c     libeay32_EM_dbg.0.9.8e:obj_dat.obj
 0002:00001b28       ??_C@_09PKOJIHLL@sect283r1?$AA@ 100b9b28     libeay32_EM_dbg.0.9.8e:obj_dat.obj
 0002:00001b34       ??_C@_09OJBOBPEE@sect283k1?$AA@ 100b9b34     libeay32_EM_dbg.0.9.8e:obj_dat.obj
 0002:00001b40       ??_C@_09PBHDMODB@sect239k1?$AA@ 100b9b40     libeay32_EM_dbg.0.9.8e:obj_dat.obj
 0002:00001b4c       ??_C@_09INDJLGKK@sect233r1?$AA@ 100b9b4c     libeay32_EM_dbg.0.9.8e:obj_dat.obj
 0002:00001b58       ??_C@_09JOMOCOFF@sect233k1?$AA@ 100b9b58     libeay32_EM_dbg.0.9.8e:obj_dat.obj
 0002:00001b64       ??_C@_09GKDAIPGG@sect193r2?$AA@ 100b9b64     libeay32_EM_dbg.0.9.8e:obj_dat.obj
 0002:00001b70       ??_C@_09EBBNNMKF@sect193r1?$AA@ 100b9b70     libeay32_EM_dbg.0.9.8e:obj_dat.obj
 0002:00001b7c       ??_C@_09OIGABILH@sect163r2?$AA@ 100b9b7c     libeay32_EM_dbg.0.9.8e:obj_dat.obj
 0002:00001b88       ??_C@_09MDENELHE@sect163r1?$AA@ 100b9b88     libeay32_EM_dbg.0.9.8e:obj_dat.obj
 0002:00001b94       ??_C@_09NALKNDIL@sect163k1?$AA@ 100b9b94     libeay32_EM_dbg.0.9.8e:obj_dat.obj
 0002:00001ba0       ??_C@_09IKIJFPEM@sect131r2?$AA@ 100b9ba0     libeay32_EM_dbg.0.9.8e:obj_dat.obj
 0002:00001bac       ??_C@_09KBKEAMIP@sect131r1?$AA@ 100b9bac     libeay32_EM_dbg.0.9.8e:obj_dat.obj
 0002:00001bb8       ??_C@_09FKEAMEKH@sect113r2?$AA@ 100b9bb8     libeay32_EM_dbg.0.9.8e:obj_dat.obj
 0002:00001bc4       ??_C@_09HBGNJHGE@sect113r1?$AA@ 100b9bc4     libeay32_EM_dbg.0.9.8e:obj_dat.obj
 0002:00001bd0       ??_C@_09PDBKEDDK@secp521r1?$AA@ 100b9bd0     libeay32_EM_dbg.0.9.8e:obj_dat.obj
 0002:00001bdc       ??_C@_09FICNEILE@secp384r1?$AA@ 100b9bdc     libeay32_EM_dbg.0.9.8e:obj_dat.obj
 0002:00001be8       ??_C@_09NCBPAPNE@secp256k1?$AA@ 100b9be8     libeay32_EM_dbg.0.9.8e:obj_dat.obj
 0002:00001bf4       ??_C@_09NJMBIDLA@secp224r1?$AA@ 100b9bf4     libeay32_EM_dbg.0.9.8e:obj_dat.obj
 0002:00001c00       ??_C@_09MKDGBLEP@secp224k1?$AA@ 100b9c00     libeay32_EM_dbg.0.9.8e:obj_dat.obj
 0002:00001c0c       ??_C@_09BOBJAHCM@secp192k1?$AA@ 100b9c0c     libeay32_EM_dbg.0.9.8e:obj_dat.obj
 0002:00001c18       ??_C@_09OJKJDEK@secp160r2?$AA@ 100b9c18     libeay32_EM_dbg.0.9.8e:obj_dat.obj
 0002:00001c24       ??_C@_09CFLHMAIJ@secp160r1?$AA@ 100b9c24     libeay32_EM_dbg.0.9.8e:obj_dat.obj
 0002:00001c30       ??_C@_09DGEAFIHG@secp160k1?$AA@ 100b9c30     libeay32_EM_dbg.0.9.8e:obj_dat.obj
 0002:00001c3c       ??_C@_09DOKOBNGF@secp128r2?$AA@ 100b9c3c     libeay32_EM_dbg.0.9.8e:obj_dat.obj
 0002:00001c48       ??_C@_09BFIDEOKG@secp128r1?$AA@ 100b9c48     libeay32_EM_dbg.0.9.8e:obj_dat.obj
 0002:00001c54       ??_C@_09BGLDIHNB@secp112r2?$AA@ 100b9c54     libeay32_EM_dbg.0.9.8e:obj_dat.obj
 0002:00001c60       ??_C@_09DNJONEBC@secp112r1?$AA@ 100b9c60     libeay32_EM_dbg.0.9.8e:obj_dat.obj
 0002:00001c6c       ??_C@_0L@OFJKDCBG@c2tnb431r1?$AA@ 100b9c6c     libeay32_EM_dbg.0.9.8e:obj_dat.obj
 0002:00001c78       ??_C@_0L@BGFAFBLD@c2pnb368w1?$AA@ 100b9c78     libeay32_EM_dbg.0.9.8e:obj_dat.obj
 0002:00001c84       ??_C@_0L@LFGCHHDN@c2tnb359v1?$AA@ 100b9c84     libeay32_EM_dbg.0.9.8e:obj_dat.obj
 0002:00001c90       ??_C@_0L@NDMGBLKL@c2pnb304w1?$AA@ 100b9c90     libeay32_EM_dbg.0.9.8e:obj_dat.obj
 0002:00001c9c       ??_C@_0L@IPNBELMC@c2pnb272w1?$AA@ 100b9c9c     libeay32_EM_dbg.0.9.8e:obj_dat.obj
 0002:00001ca8       ??_C@_0L@LLIHEIJA@c2onb239v5?$AA@ 100b9ca8     libeay32_EM_dbg.0.9.8e:obj_dat.obj
 0002:00001cb4       ??_C@_0L@KCJMHJNB@c2onb239v4?$AA@ 100b9cb4     libeay32_EM_dbg.0.9.8e:obj_dat.obj
 0002:00001cc0       ??_C@_0L@MDEIDDLK@c2tnb239v3?$AA@ 100b9cc0     libeay32_EM_dbg.0.9.8e:obj_dat.obj
 0002:00001ccc       ??_C@_0L@NKFDACPL@c2tnb239v2?$AA@ 100b9ccc     libeay32_EM_dbg.0.9.8e:obj_dat.obj
 0002:00001cd8       ??_C@_0L@PBHOFBDI@c2tnb239v1?$AA@ 100b9cd8     libeay32_EM_dbg.0.9.8e:obj_dat.obj
 0002:00001ce4       ??_C@_0L@FCEMHHLG@c2pnb208w1?$AA@ 100b9ce4     libeay32_EM_dbg.0.9.8e:obj_dat.obj
 0002:00001cf0       ??_C@_0L@LCBHAKHA@c2onb191v5?$AA@ 100b9cf0     libeay32_EM_dbg.0.9.8e:obj_dat.obj
 0002:00001cfc       ??_C@_0L@KLAMDLDB@c2onb191v4?$AA@ 100b9cfc     libeay32_EM_dbg.0.9.8e:obj_dat.obj
 0002:00001d08       ??_C@_0L@MKNIHBFK@c2tnb191v3?$AA@ 100b9d08     libeay32_EM_dbg.0.9.8e:obj_dat.obj
 0002:00001d14       ??_C@_0L@NDMDEABL@c2tnb191v2?$AA@ 100b9d14     libeay32_EM_dbg.0.9.8e:obj_dat.obj
 0002:00001d20       ??_C@_0L@PIOOBDNI@c2tnb191v1?$AA@ 100b9d20     libeay32_EM_dbg.0.9.8e:obj_dat.obj
 0002:00001d2c       ??_C@_0L@IHOFMEAM@c2pnb176v1?$AA@ 100b9d2c     libeay32_EM_dbg.0.9.8e:obj_dat.obj
 0002:00001d38       ??_C@_0L@LPGNHPAM@c2pnb163v3?$AA@ 100b9d38     libeay32_EM_dbg.0.9.8e:obj_dat.obj
 0002:00001d44       ??_C@_0L@KGHGEOEN@c2pnb163v2?$AA@ 100b9d44     libeay32_EM_dbg.0.9.8e:obj_dat.obj
 0002:00001d50       ??_C@_0L@INFLBNIO@c2pnb163v1?$AA@ 100b9d50     libeay32_EM_dbg.0.9.8e:obj_dat.obj
 0002:00001d5c       ??_C@_07GLJEBFP@ppBasis?$AA@ 100b9d5c     libeay32_EM_dbg.0.9.8e:obj_dat.obj
 0002:00001d64       ??_C@_07ICPDEPKF@tpBasis?$AA@ 100b9d64     libeay32_EM_dbg.0.9.8e:obj_dat.obj
 0002:00001d6c       ??_C@_07JEMDIFEL@onBasis?$AA@ 100b9d6c     libeay32_EM_dbg.0.9.8e:obj_dat.obj
 0002:00001d74       ??_C@_0BM@PPOCDOAJ@id?9characteristic?9two?9basis?$AA@ 100b9d74     libeay32_EM_dbg.0.9.8e:obj_dat.obj
 0002:00001d90       ??_C@_07KJBJKKHG@wap?9wsg?$AA@ 100b9d90     libeay32_EM_dbg.0.9.8e:obj_dat.obj
 0002:00001d98       ??_C@_03EOHJGACH@wap?$AA@  100b9d98     libeay32_EM_dbg.0.9.8e:obj_dat.obj
 0002:00001d9c       ??_C@_0N@GOPBJFID@certicom?9arc?$AA@ 100b9d9c     libeay32_EM_dbg.0.9.8e:obj_dat.obj
 0002:00001dac       ??_C@_0BI@NDBFOMIA@identified?9organization?$AA@ 100b9dac     libeay32_EM_dbg.0.9.8e:obj_dat.obj
 0002:00001dc4       ??_C@_06DJABMLNO@sha224?$AA@ 100b9dc4     libeay32_EM_dbg.0.9.8e:obj_dat.obj
 0002:00001dcc       ??_C@_06DANBNIHA@SHA224?$AA@ 100b9dcc     libeay32_EM_dbg.0.9.8e:obj_dat.obj
 0002:00001dd4       ??_C@_06PAMKOKLI@sha512?$AA@ 100b9dd4     libeay32_EM_dbg.0.9.8e:obj_dat.obj
 0002:00001ddc       ??_C@_06PJBKPJBG@SHA512?$AA@ 100b9ddc     libeay32_EM_dbg.0.9.8e:obj_dat.obj
 0002:00001de4       ??_C@_06IMCKCJGN@sha384?$AA@ 100b9de4     libeay32_EM_dbg.0.9.8e:obj_dat.obj
 0002:00001dec       ??_C@_06IFPKDKMD@SHA384?$AA@ 100b9dec     libeay32_EM_dbg.0.9.8e:obj_dat.obj
 0002:00001df4       ??_C@_06OHILPNJ@sha256?$AA@ 100b9df4     libeay32_EM_dbg.0.9.8e:obj_dat.obj
 0002:00001dfc       ??_C@_06HKIKMHH@SHA256?$AA@ 100b9dfc     libeay32_EM_dbg.0.9.8e:obj_dat.obj
 0002:00001e04       ??_C@_0BI@HODNLFBE@sha224WithRSAEncryption?$AA@ 100b9e04     libeay32_EM_dbg.0.9.8e:obj_dat.obj
 0002:00001e1c       ??_C@_0L@BPFBIPIP@RSA?9SHA224?$AA@ 100b9e1c     libeay32_EM_dbg.0.9.8e:obj_dat.obj
 0002:00001e28       ??_C@_0BI@CFKPHFJF@sha512WithRSAEncryption?$AA@ 100b9e28     libeay32_EM_dbg.0.9.8e:obj_dat.obj
 0002:00001e40       ??_C@_0L@NGJKKOOJ@RSA?9SHA512?$AA@ 100b9e40     libeay32_EM_dbg.0.9.8e:obj_dat.obj
 0002:00001e4c       ??_C@_0BI@LGPCJGLE@sha384WithRSAEncryption?$AA@ 100b9e4c     libeay32_EM_dbg.0.9.8e:obj_dat.obj
 0002:00001e64       ??_C@_0L@KKHKGNDM@RSA?9SHA384?$AA@ 100b9e64     libeay32_EM_dbg.0.9.8e:obj_dat.obj
 0002:00001e70       ??_C@_0BI@OLMNBFHG@sha256WithRSAEncryption?$AA@ 100b9e70     libeay32_EM_dbg.0.9.8e:obj_dat.obj
 0002:00001e88       ??_C@_0L@CICIPLII@RSA?9SHA256?$AA@ 100b9e88     libeay32_EM_dbg.0.9.8e:obj_dat.obj
 0002:00001e94       ??_C@_0M@MLMKHJLC@Independent?$AA@ 100b9e94     libeay32_EM_dbg.0.9.8e:obj_dat.obj
 0002:00001ea0       ??_C@_0BD@JMNHHICP@id?9ppl?9independent?$AA@ 100b9ea0     libeay32_EM_dbg.0.9.8e:obj_dat.obj
 0002:00001eb4       ??_C@_0BI@MLJLAGL@X509v3?5Name?5Constraints?$AA@ 100b9eb4     libeay32_EM_dbg.0.9.8e:obj_dat.obj
 0002:00001ecc       ??_C@_0BA@NDBMPGLN@nameConstraints?$AA@ 100b9ecc     libeay32_EM_dbg.0.9.8e:obj_dat.obj
 0002:00001edc       ??_C@_0M@FFLAPACB@Inherit?5all?$AA@ 100b9edc     libeay32_EM_dbg.0.9.8e:obj_dat.obj
 0002:00001ee8       ??_C@_0BC@PCEJIIF@id?9ppl?9inheritAll?$AA@ 100b9ee8     libeay32_EM_dbg.0.9.8e:obj_dat.obj
 0002:00001efc       ??_C@_0N@BEBFEGLC@Any?5language?$AA@ 100b9efc     libeay32_EM_dbg.0.9.8e:obj_dat.obj
 0002:00001f0c       ??_C@_0BD@HNCKDFAM@id?9ppl?9anyLanguage?$AA@ 100b9f0c     libeay32_EM_dbg.0.9.8e:obj_dat.obj
 0002:00001f20       ??_C@_0BO@CCHFGBDO@Proxy?5Certificate?5Information?$AA@ 100b9f20     libeay32_EM_dbg.0.9.8e:obj_dat.obj
 0002:00001f40       ??_C@_0O@LOINHHBF@proxyCertInfo?$AA@ 100b9f40     libeay32_EM_dbg.0.9.8e:obj_dat.obj
 0002:00001f50       ??_C@_06CAAPGDCJ@id?9ppl?$AA@ 100b9f50     libeay32_EM_dbg.0.9.8e:obj_dat.obj
 0002:00001f58       ??_C@_0L@NCDHJCMF@postalCode?$AA@ 100b9f58     libeay32_EM_dbg.0.9.8e:obj_dat.obj
 0002:00001f64       ??_C@_0O@GFJANBCD@streetAddress?$AA@ 100b9f64     libeay32_EM_dbg.0.9.8e:obj_dat.obj
 0002:00001f74       ??_C@_0O@KGNFGAAA@des?9ede3?9cfb8?$AA@ 100b9f74     libeay32_EM_dbg.0.9.8e:obj_dat.obj
 0002:00001f84       ??_C@_0O@KNJKKNCK@DES?9EDE3?9CFB8?$AA@ 100b9f84     libeay32_EM_dbg.0.9.8e:obj_dat.obj
 0002:00001f94       ??_C@_0O@HHBHNLEJ@des?9ede3?9cfb1?$AA@ 100b9f94     libeay32_EM_dbg.0.9.8e:obj_dat.obj
 0002:00001fa4       ??_C@_0O@HMFIBGGD@DES?9EDE3?9CFB1?$AA@ 100b9fa4     libeay32_EM_dbg.0.9.8e:obj_dat.obj
 0002:00001fb4       ??_C@_08HKNDEPIP@des?9cfb8?$AA@ 100b9fb4     libeay32_EM_dbg.0.9.8e:obj_dat.obj
 0002:00001fc0       ??_C@_08JHFHFADM@DES?9CFB8?$AA@ 100b9fc0     libeay32_EM_dbg.0.9.8e:obj_dat.obj
 0002:00001fcc       ??_C@_08KLBBPEMG@des?9cfb1?$AA@ 100b9fcc     libeay32_EM_dbg.0.9.8e:obj_dat.obj
 0002:00001fd8       ??_C@_08EGJFOLHF@DES?9CFB1?$AA@ 100b9fd8     libeay32_EM_dbg.0.9.8e:obj_dat.obj
 0002:00001fe4       ??_C@_0N@GPAECIBG@aes?9256?9cfb8?$AA@ 100b9fe4     libeay32_EM_dbg.0.9.8e:obj_dat.obj
 0002:00001ff4       ??_C@_0N@BLGJPBBG@AES?9256?9CFB8?$AA@ 100b9ff4     libeay32_EM_dbg.0.9.8e:obj_dat.obj
 0002:00002004       ??_C@_0N@PFGJCFIP@aes?9192?9cfb8?$AA@ 100ba004     libeay32_EM_dbg.0.9.8e:obj_dat.obj
 0002:00002014       ??_C@_0N@IBAEPMIP@AES?9192?9CFB8?$AA@ 100ba014     libeay32_EM_dbg.0.9.8e:obj_dat.obj
 0002:00002024       ??_C@_0N@MHDGGJH@aes?9128?9cfb8?$AA@ 100ba024     libeay32_EM_dbg.0.9.8e:obj_dat.obj
 0002:00002034       ??_C@_0N@HIBOLPJH@AES?9128?9CFB8?$AA@ 100ba034     libeay32_EM_dbg.0.9.8e:obj_dat.obj
 0002:00002044       ??_C@_0N@LOMGJDFP@aes?9256?9cfb1?$AA@ 100ba044     libeay32_EM_dbg.0.9.8e:obj_dat.obj
 0002:00002054       ??_C@_0N@MKKLEKFP@AES?9256?9CFB1?$AA@ 100ba054     libeay32_EM_dbg.0.9.8e:obj_dat.obj
 0002:00002064       ??_C@_0N@CEKLJOMG@aes?9192?9cfb1?$AA@ 100ba064     libeay32_EM_dbg.0.9.8e:obj_dat.obj
 0002:00002074       ??_C@_0N@FAMGEHMG@AES?9192?9CFB1?$AA@ 100ba074     libeay32_EM_dbg.0.9.8e:obj_dat.obj
 0002:00002084       ??_C@_0N@NNLBNNNO@aes?9128?9cfb1?$AA@ 100ba084     libeay32_EM_dbg.0.9.8e:obj_dat.obj
 0002:00002094       ??_C@_0N@KJNMAENO@AES?9128?9CFB1?$AA@ 100ba094     libeay32_EM_dbg.0.9.8e:obj_dat.obj
 0002:000020a4       ??_C@_0CD@POJHJMFG@Microsoft?5Universal?5Principal?5Na@ 100ba0a4     libeay32_EM_dbg.0.9.8e:obj_dat.obj
 0002:000020c8       ??_C@_05LKLAGLGM@msUPN?$AA@ 100ba0c8     libeay32_EM_dbg.0.9.8e:obj_dat.obj
 0002:000020d0       ??_C@_0BJ@BHLLFCI@Microsoft?5Smartcardlogin?$AA@ 100ba0d0     libeay32_EM_dbg.0.9.8e:obj_dat.obj
 0002:000020ec       ??_C@_0BB@MJPMDGHF@msSmartcardLogin?$AA@ 100ba0ec     libeay32_EM_dbg.0.9.8e:obj_dat.obj
 0002:00002100       ??_C@_0BM@PGMBEIHL@International?5Organizations?$AA@ 100ba100     libeay32_EM_dbg.0.9.8e:obj_dat.obj
 0002:0000211c       ??_C@_0BM@PBBEOBAP@international?9organizations?$AA@ 100ba11c     libeay32_EM_dbg.0.9.8e:obj_dat.obj
 0002:00002138       ??_C@_0BA@DDCJMADA@joint?9iso?9itu?9t?$AA@ 100ba138     libeay32_EM_dbg.0.9.8e:obj_dat.obj
 0002:00002148       ??_C@_0BA@NPJCPIN@JOINT?9ISO?9ITU?9T?$AA@ 100ba148     libeay32_EM_dbg.0.9.8e:obj_dat.obj
 0002:00002158       ??_C@_05EKLDHPCO@itu?9t?$AA@ 100ba158     libeay32_EM_dbg.0.9.8e:obj_dat.obj
 0002:00002160       ??_C@_05LJGINOIA@ITU?9T?$AA@ 100ba160     libeay32_EM_dbg.0.9.8e:obj_dat.obj
 0002:00002168       ??_C@_0BF@EIIDBKMM@rsaOAEPEncryptionSET?$AA@ 100ba168     libeay32_EM_dbg.0.9.8e:obj_dat.obj
 0002:00002180       ??_C@_08PPLOLAOD@des?9cdmf?$AA@ 100ba180     libeay32_EM_dbg.0.9.8e:obj_dat.obj
 0002:0000218c       ??_C@_08IHLOILPC@DES?9CDMF?$AA@ 100ba18c     libeay32_EM_dbg.0.9.8e:obj_dat.obj
 0002:00002198       ??_C@_0BA@JHOGHBHC@set?9brand?9Novus?$AA@ 100ba198     libeay32_EM_dbg.0.9.8e:obj_dat.obj
 0002:000021a8       ??_C@_0BF@EKCBHCKG@set?9brand?9MasterCard?$AA@ 100ba1a8     libeay32_EM_dbg.0.9.8e:obj_dat.obj
 0002:000021c0       ??_C@_0P@KADKEMKM@set?9brand?9Visa?$AA@ 100ba1c0     libeay32_EM_dbg.0.9.8e:obj_dat.obj
 0002:000021d0       ??_C@_0O@ODFDKJIN@set?9brand?9JCB?$AA@ 100ba1d0     libeay32_EM_dbg.0.9.8e:obj_dat.obj
 0002:000021e0       ??_C@_0BK@NGHCPIFJ@set?9brand?9AmericanExpress?$AA@ 100ba1e0     libeay32_EM_dbg.0.9.8e:obj_dat.obj
 0002:000021fc       ??_C@_0BB@MJOMIBOM@set?9brand?9Diners?$AA@ 100ba1fc     libeay32_EM_dbg.0.9.8e:obj_dat.obj
 0002:00002210       ??_C@_0BD@EBDAHFCK@set?9brand?9IATA?9ATA?$AA@ 100ba210     libeay32_EM_dbg.0.9.8e:obj_dat.obj
 0002:00002224       ??_C@_0BI@BMDLNIII@secure?5device?5signature?$AA@ 100ba224     libeay32_EM_dbg.0.9.8e:obj_dat.obj
 0002:0000223c       ??_C@_0BC@HILPEDHB@setAttr?9SecDevSig?$AA@ 100ba23c     libeay32_EM_dbg.0.9.8e:obj_dat.obj
 0002:00002250       ??_C@_0BH@FLMFBHA@ICC?5or?5token?5signature?$AA@ 100ba250     libeay32_EM_dbg.0.9.8e:obj_dat.obj
 0002:00002268       ??_C@_0BC@KFHJNGAA@setAttr?9TokICCsig?$AA@ 100ba268     libeay32_EM_dbg.0.9.8e:obj_dat.obj
 0002:0000227c       ??_C@_0BC@EEELFHMJ@cleartext?5track?52?$AA@ 100ba27c     libeay32_EM_dbg.0.9.8e:obj_dat.obj
 0002:00002290       ??_C@_0BD@GDDCOMNC@setAttr?9T2cleartxt?$AA@ 100ba290     libeay32_EM_dbg.0.9.8e:obj_dat.obj
 0002:000022a4       ??_C@_0BC@MCHFBPJF@encrypted?5track?52?$AA@ 100ba2a4     libeay32_EM_dbg.0.9.8e:obj_dat.obj
 0002:000022b8       ??_C@_0O@GFEDKLID@setAttr?9T2Enc?$AA@ 100ba2b8     libeay32_EM_dbg.0.9.8e:obj_dat.obj
 0002:000022c8       ??_C@_0BE@BANBLNDJ@generate?5cryptogram?$AA@ 100ba2c8     libeay32_EM_dbg.0.9.8e:obj_dat.obj
 0002:000022dc       ??_C@_0BE@FJCINFHM@setAttr?9GenCryptgrm?$AA@ 100ba2dc     libeay32_EM_dbg.0.9.8e:obj_dat.obj
 0002:000022f0       ??_C@_0BD@DMNGIJGO@setAttr?9IssCap?9Sig?$AA@ 100ba2f0     libeay32_EM_dbg.0.9.8e:obj_dat.obj
 0002:00002304       ??_C@_0BC@FKLLNJMF@setAttr?9IssCap?9T2?$AA@ 100ba304     libeay32_EM_dbg.0.9.8e:obj_dat.obj
 0002:00002318       ??_C@_0BD@CMJDLAHE@setAttr?9IssCap?9CVM?$AA@ 100ba318     libeay32_EM_dbg.0.9.8e:obj_dat.obj
 0002:0000232c       ??_C@_0BG@ICNBHDJ@setAttr?9Token?9B0Prime?$AA@ 100ba32c     libeay32_EM_dbg.0.9.8e:obj_dat.obj
 0002:00002344       ??_C@_0BC@BMANBENP@setAttr?9Token?9EMV?$AA@ 100ba344     libeay32_EM_dbg.0.9.8e:obj_dat.obj
 0002:00002358       ??_C@_0O@NOCONBCM@set?9addPolicy?$AA@ 100ba358     libeay32_EM_dbg.0.9.8e:obj_dat.obj
 0002:00002368       ??_C@_0BB@MADMNAKK@set?9rootKeyThumb?$AA@ 100ba368     libeay32_EM_dbg.0.9.8e:obj_dat.obj
 0002:0000237c       ??_C@_0BE@HBDPGKCG@issuer?5capabilities?$AA@ 100ba37c     libeay32_EM_dbg.0.9.8e:obj_dat.obj
 0002:00002390       ??_C@_0P@OGFLCCKL@setAttr?9IssCap?$AA@ 100ba390     libeay32_EM_dbg.0.9.8e:obj_dat.obj
 0002:000023a0       ??_C@_0BC@IKOKMCIL@setAttr?9TokenType?$AA@ 100ba3a0     libeay32_EM_dbg.0.9.8e:obj_dat.obj
 0002:000023b4       ??_C@_0BN@HEFBDPEB@payment?5gateway?5capabilities?$AA@ 100ba3b4     libeay32_EM_dbg.0.9.8e:obj_dat.obj
 0002:000023d4       ??_C@_0BA@FAIFDKDK@setAttr?9PGWYcap?$AA@ 100ba3d4     libeay32_EM_dbg.0.9.8e:obj_dat.obj
 0002:000023e4       ??_C@_0N@DCNKAAPN@setAttr?9Cert?$AA@ 100ba3e4     libeay32_EM_dbg.0.9.8e:obj_dat.obj
 0002:000023f4       ??_C@_0BL@OLCLGJDA@setCext?9IssuerCapabilities?$AA@ 100ba3f4     libeay32_EM_dbg.0.9.8e:obj_dat.obj
 0002:00002410       ??_C@_0BC@KMFGLCBL@setCext?9TokenType?$AA@ 100ba410     libeay32_EM_dbg.0.9.8e:obj_dat.obj
 0002:00002424       ??_C@_0BD@FHFLAKJD@setCext?9Track2Data?$AA@ 100ba424     libeay32_EM_dbg.0.9.8e:obj_dat.obj
 0002:00002438       ??_C@_0BI@FIIEHNL@setCext?9TokenIdentifier?$AA@ 100ba438     libeay32_EM_dbg.0.9.8e:obj_dat.obj
 0002:00002450       ??_C@_0BJ@CNLNHONG@setCext?9PGWYcapabilities?$AA@ 100ba450     libeay32_EM_dbg.0.9.8e:obj_dat.obj
 0002:0000246c       ??_C@_0BB@HIAOOOIO@setCext?9setQualf?$AA@ 100ba46c     libeay32_EM_dbg.0.9.8e:obj_dat.obj
 0002:00002480       ??_C@_0P@DFHCPLJG@setCext?9setExt?$AA@ 100ba480     libeay32_EM_dbg.0.9.8e:obj_dat.obj
 0002:00002490       ??_C@_0BC@BPADJLFJ@setCext?9tunneling?$AA@ 100ba490     libeay32_EM_dbg.0.9.8e:obj_dat.obj
 0002:000024a4       ??_C@_0BG@CMNKGOHO@setCext?9cCertRequired?$AA@ 100ba4a4     libeay32_EM_dbg.0.9.8e:obj_dat.obj
 0002:000024bc       ??_C@_0BC@ONMLOIHK@setCext?9merchData?$AA@ 100ba4bc     libeay32_EM_dbg.0.9.8e:obj_dat.obj
 0002:000024d0       ??_C@_0BB@LHGCHNFD@setCext?9certType?$AA@ 100ba4d0     libeay32_EM_dbg.0.9.8e:obj_dat.obj
 0002:000024e4       ??_C@_0BD@MELPLACB@setCext?9hashedRoot?$AA@ 100ba4e4     libeay32_EM_dbg.0.9.8e:obj_dat.obj
 0002:000024f8       ??_C@_0BA@DLJGCPKK@set?9policy?9root?$AA@ 100ba4f8     libeay32_EM_dbg.0.9.8e:obj_dat.obj
 0002:00002508       ??_C@_0BI@MFPOFNGC@additional?5verification?$AA@ 100ba508     libeay32_EM_dbg.0.9.8e:obj_dat.obj
 0002:00002520       ??_C@_09GMOEIEJI@setext?9cv?$AA@ 100ba520     libeay32_EM_dbg.0.9.8e:obj_dat.obj
 0002:0000252c       ??_C@_0O@PNAFPHHK@setext?9track2?$AA@ 100ba52c     libeay32_EM_dbg.0.9.8e:obj_dat.obj
 0002:0000253c       ??_C@_0O@PNHGIFHA@setext?9pinAny?$AA@ 100ba53c     libeay32_EM_dbg.0.9.8e:obj_dat.obj
 0002:0000254c       ??_C@_0BB@IKLFBNP@setext?9pinSecure?$AA@ 100ba54c     libeay32_EM_dbg.0.9.8e:obj_dat.obj
 0002:00002560       ??_C@_0BI@IMGNFPLI@merchant?5initiated?5auth?$AA@ 100ba560     libeay32_EM_dbg.0.9.8e:obj_dat.obj
 0002:00002578       ??_C@_0O@IFMPKKOL@setext?9miAuth?$AA@ 100ba578     libeay32_EM_dbg.0.9.8e:obj_dat.obj
 0002:00002588       ??_C@_0BD@IMJHIOH@generic?5cryptogram?$AA@ 100ba588     libeay32_EM_dbg.0.9.8e:obj_dat.obj
 0002:0000259c       ??_C@_0BA@NKJJMGPC@setext?9genCrypt?$AA@ 100ba59c     libeay32_EM_dbg.0.9.8e:obj_dat.obj
 0002:000025ac       ??_C@_0BJ@BPGLEKIJ@setct?9BCIDistributionTBS?$AA@ 100ba5ac     libeay32_EM_dbg.0.9.8e:obj_dat.obj
 0002:000025c8       ??_C@_0BM@GINBKIMJ@setct?9CRLNotificationResTBS?$AA@ 100ba5c8     libeay32_EM_dbg.0.9.8e:obj_dat.obj
 0002:000025e4       ??_C@_0BJ@KMIJGANO@setct?9CRLNotificationTBS?$AA@ 100ba5e4     libeay32_EM_dbg.0.9.8e:obj_dat.obj
 0002:00002600       ??_C@_0BB@KEDMFAIN@setct?9CertResTBE?$AA@ 100ba600     libeay32_EM_dbg.0.9.8e:obj_dat.obj
 0002:00002614       ??_C@_0BC@KMAHLFJK@setct?9CertReqTBEX?$AA@ 100ba614     libeay32_EM_dbg.0.9.8e:obj_dat.obj
 0002:00002628       ??_C@_0BB@NOPMADON@setct?9CertReqTBE?$AA@ 100ba628     libeay32_EM_dbg.0.9.8e:obj_dat.obj
 0002:0000263c       ??_C@_0BE@MIADHNEP@setct?9RegFormReqTBE?$AA@ 100ba63c     libeay32_EM_dbg.0.9.8e:obj_dat.obj
 0002:00002650       ??_C@_0BH@PFFPEIML@setct?9BatchAdminResTBE?$AA@ 100ba650     libeay32_EM_dbg.0.9.8e:obj_dat.obj
 0002:00002668       ??_C@_0BH@IPJPBLKL@setct?9BatchAdminReqTBE?$AA@ 100ba668     libeay32_EM_dbg.0.9.8e:obj_dat.obj
 0002:00002680       ??_C@_0BE@MGLMPAHD@setct?9CredRevResTBE?$AA@ 100ba680     libeay32_EM_dbg.0.9.8e:obj_dat.obj
 0002:00002694       ??_C@_0BF@PGGAOKCB@setct?9CredRevReqTBEX?$AA@ 100ba694     libeay32_EM_dbg.0.9.8e:obj_dat.obj
 0002:000026ac       ??_C@_0BE@LMHMKDBD@setct?9CredRevReqTBE?$AA@ 100ba6ac     libeay32_EM_dbg.0.9.8e:obj_dat.obj
 0002:000026c0       ??_C@_0BB@NFFENEIP@setct?9CredResTBE?$AA@ 100ba6c0     libeay32_EM_dbg.0.9.8e:obj_dat.obj
 0002:000026d4       ??_C@_0BC@ECHILMDC@setct?9CredReqTBEX?$AA@ 100ba6d4     libeay32_EM_dbg.0.9.8e:obj_dat.obj
 0002:000026e8       ??_C@_0BB@KPJEIHOP@setct?9CredReqTBE?$AA@ 100ba6e8     libeay32_EM_dbg.0.9.8e:obj_dat.obj
 0002:000026fc       ??_C@_0BD@GIBDNMDG@setct?9CapRevResTBE?$AA@ 100ba6fc     libeay32_EM_dbg.0.9.8e:obj_dat.obj
 0002:00002710       ??_C@_0BE@PAHIPABC@setct?9CapRevReqTBEX?$AA@ 100ba710     libeay32_EM_dbg.0.9.8e:obj_dat.obj
 0002:00002724       ??_C@_0BD@BCNDIPFG@setct?9CapRevReqTBE?$AA@ 100ba724     libeay32_EM_dbg.0.9.8e:obj_dat.obj
 0002:00002738       ??_C@_0BA@MEFGIEBL@setct?9CapResTBE?$AA@ 100ba738     libeay32_EM_dbg.0.9.8e:obj_dat.obj
 0002:00002748       ??_C@_0BB@LFALOJDP@setct?9CapReqTBEX?$AA@ 100ba748     libeay32_EM_dbg.0.9.8e:obj_dat.obj
 0002:0000275c       ??_C@_0BA@LOJGNHHL@setct?9CapReqTBE?$AA@ 100ba75c     libeay32_EM_dbg.0.9.8e:obj_dat.obj
 0002:0000276c       ??_C@_0BF@KKFFJIHO@setct?9AuthRevResTBEB?$AA@ 100ba76c     libeay32_EM_dbg.0.9.8e:obj_dat.obj
 0002:00002784       ??_C@_0BE@MHAGABNC@setct?9AuthRevResTBE?$AA@ 100ba784     libeay32_EM_dbg.0.9.8e:obj_dat.obj
 0002:00002798       ??_C@_0BE@LNMGFCLC@setct?9AuthRevReqTBE?$AA@ 100ba798     libeay32_EM_dbg.0.9.8e:obj_dat.obj
 0002:000027ac       ??_C@_0BI@PALCIALL@setct?9AcqCardCodeMsgTBE?$AA@ 100ba7ac     libeay32_EM_dbg.0.9.8e:obj_dat.obj
 0002:000027c4       ??_C@_0BD@OMCOOIME@setct?9CapTokenTBEX?$AA@ 100ba7c4     libeay32_EM_dbg.0.9.8e:obj_dat.obj
 0002:000027d8       ??_C@_0BC@CIKKDLAH@setct?9CapTokenTBE?$AA@ 100ba7d8     libeay32_EM_dbg.0.9.8e:obj_dat.obj
 0002:000027ec       ??_C@_0BD@DHGMJDKO@setct?9AuthTokenTBE?$AA@ 100ba7ec     libeay32_EM_dbg.0.9.8e:obj_dat.obj
 0002:00002800       ??_C@_0BC@OEOIIPOH@setct?9AuthResTBEX?$AA@ 100ba800     libeay32_EM_dbg.0.9.8e:obj_dat.obj
 0002:00002814       ??_C@_0BB@IDPADFEK@setct?9AuthResTBE?$AA@ 100ba814     libeay32_EM_dbg.0.9.8e:obj_dat.obj
 0002:00002828       ??_C@_0BB@PJDAGGCK@setct?9AuthReqTBE?$AA@ 100ba828     libeay32_EM_dbg.0.9.8e:obj_dat.obj
 0002:0000283c       ??_C@_0BE@IBOAPLDD@setct?9PIUnsignedTBE?$AA@ 100ba83c     libeay32_EM_dbg.0.9.8e:obj_dat.obj
 0002:00002850       ??_C@_0BG@JDDNBPAG@setct?9PIDualSignedTBE?$AA@ 100ba850     libeay32_EM_dbg.0.9.8e:obj_dat.obj
 0002:00002868       ??_C@_0P@DLHKHMDJ@setct?9ErrorTBS?$AA@ 100ba868     libeay32_EM_dbg.0.9.8e:obj_dat.obj
 0002:00002878       ??_C@_0BE@OIDIJLCF@setct?9CertInqReqTBS?$AA@ 100ba878     libeay32_EM_dbg.0.9.8e:obj_dat.obj
 0002:0000288c       ??_C@_0BC@BIIFIBNO@setct?9CertResData?$AA@ 100ba88c     libeay32_EM_dbg.0.9.8e:obj_dat.obj
 0002:000028a0       ??_C@_0BB@MCGELGDK@setct?9CertReqTBS?$AA@ 100ba8a0     libeay32_EM_dbg.0.9.8e:obj_dat.obj
 0002:000028b4       ??_C@_0BC@FFENCANF@setct?9CertReqData?$AA@ 100ba8b4     libeay32_EM_dbg.0.9.8e:obj_dat.obj
 0002:000028c8       ??_C@_0BE@KOFLJLPI@setct?9RegFormResTBS?$AA@ 100ba8c8     libeay32_EM_dbg.0.9.8e:obj_dat.obj
 0002:000028dc       ??_C@_0BG@DIBJJIJB@setct?9MeAqCInitResTBS?$AA@ 100ba8dc     libeay32_EM_dbg.0.9.8e:obj_dat.obj
 0002:000028f4       ??_C@_0BG@OMHIHPPP@setct?9CardCInitResTBS?$AA@ 100ba8f4     libeay32_EM_dbg.0.9.8e:obj_dat.obj
 0002:0000290c       ??_C@_0BI@IHGLAGGD@setct?9BatchAdminResData?$AA@ 100ba90c     libeay32_EM_dbg.0.9.8e:obj_dat.obj
 0002:00002924       ??_C@_0BI@MKKDKHGI@setct?9BatchAdminReqData?$AA@ 100ba924     libeay32_EM_dbg.0.9.8e:obj_dat.obj
 0002:0000293c       ??_C@_0BC@CFHCKIIA@setct?9PCertResTBS?$AA@ 100ba93c     libeay32_EM_dbg.0.9.8e:obj_dat.obj
 0002:00002950       ??_C@_0BD@DDNGMNFC@setct?9PCertReqData?$AA@ 100ba950     libeay32_EM_dbg.0.9.8e:obj_dat.obj
 0002:00002964       ??_C@_0BF@ECOCNOGF@setct?9CredRevResData?$AA@ 100ba964     libeay32_EM_dbg.0.9.8e:obj_dat.obj
 0002:0000297c       ??_C@_0BF@OOMLDFOD@setct?9CredRevReqTBSX?$AA@ 100ba97c     libeay32_EM_dbg.0.9.8e:obj_dat.obj
 0002:00002994       ??_C@_0BE@KAOEBGME@setct?9CredRevReqTBS?$AA@ 100ba994     libeay32_EM_dbg.0.9.8e:obj_dat.obj
 0002:000029a8       ??_C@_0BC@PGPKIIHG@setct?9CredResData?$AA@ 100ba9a8     libeay32_EM_dbg.0.9.8e:obj_dat.obj
 0002:000029bc       ??_C@_0BC@FKNDGDPA@setct?9CredReqTBSX?$AA@ 100ba9bc     libeay32_EM_dbg.0.9.8e:obj_dat.obj
 0002:000029d0       ??_C@_0BB@LDAMDCDI@setct?9CredReqTBS?$AA@ 100ba9d0     libeay32_EM_dbg.0.9.8e:obj_dat.obj
 0002:000029e4       ??_C@_0BE@EEPKMEFG@setct?9CapRevResData?$AA@ 100ba9e4     libeay32_EM_dbg.0.9.8e:obj_dat.obj
 0002:000029f8       ??_C@_0BE@OINDCPNA@setct?9CapRevReqTBSX?$AA@ 100ba9f8     libeay32_EM_dbg.0.9.8e:obj_dat.obj
 0002:00002a0c       ??_C@_0BD@OELDKIB@setct?9CapRevReqTBS?$AA@ 100baa0c     libeay32_EM_dbg.0.9.8e:obj_dat.obj
 0002:00002a20       ??_C@_0BB@BIJNNHL@setct?9CapResData?$AA@ 100baa20     libeay32_EM_dbg.0.9.8e:obj_dat.obj
 0002:00002a34       ??_C@_0BB@KNKADGPN@setct?9CapReqTBSX?$AA@ 100baa34     libeay32_EM_dbg.0.9.8e:obj_dat.obj
 0002:00002a48       ??_C@_0BA@KCAOGCKM@setct?9CapReqTBS?$AA@ 100baa48     libeay32_EM_dbg.0.9.8e:obj_dat.obj
 0002:00002a58       ??_C@_0BE@NLJOLEAF@setct?9AuthRevResTBS?$AA@ 100baa58     libeay32_EM_dbg.0.9.8e:obj_dat.obj
 0002:00002a6c       ??_C@_0BF@ODDCPHOK@setct?9AuthRevResData?$AA@ 100baa6c     libeay32_EM_dbg.0.9.8e:obj_dat.obj
 0002:00002a84       ??_C@_0BE@KBFOOHGF@setct?9AuthRevReqTBS?$AA@ 100baa84     libeay32_EM_dbg.0.9.8e:obj_dat.obj
 0002:00002a98       ??_C@_0BF@LAOAGKEH@setct?9AcqCardCodeMsg?$AA@ 100baa98     libeay32_EM_dbg.0.9.8e:obj_dat.obj
 0002:00002ab0       ??_C@_0BC@DEDCIONA@setct?9CapTokenTBS?$AA@ 100baab0     libeay32_EM_dbg.0.9.8e:obj_dat.obj
 0002:00002ac4       ??_C@_0BD@BFGEHNIL@setct?9CapTokenData?$AA@ 100baac4     libeay32_EM_dbg.0.9.8e:obj_dat.obj
 0002:00002ad8       ??_C@_0BD@CLPECGHJ@setct?9AuthTokenTBS?$AA@ 100baad8     libeay32_EM_dbg.0.9.8e:obj_dat.obj
 0002:00002aec       ??_C@_0BC@PMEDFACF@setct?9AuthResTBSX?$AA@ 100baaec     libeay32_EM_dbg.0.9.8e:obj_dat.obj
 0002:00002b00       ??_C@_0BB@JPGIIAJN@setct?9AuthResTBS?$AA@ 100bab00     libeay32_EM_dbg.0.9.8e:obj_dat.obj
 0002:00002b14       ??_C@_0BB@OFKINDPN@setct?9AuthReqTBS?$AA@ 100bab14     libeay32_EM_dbg.0.9.8e:obj_dat.obj
 0002:00002b28       ??_C@_0P@NGDEPBBH@setct?9PResData?$AA@ 100bab28     libeay32_EM_dbg.0.9.8e:obj_dat.obj
 0002:00002b38       ??_C@_0N@GIGHFPBJ@setct?9PI?9TBS?$AA@ 100bab38     libeay32_EM_dbg.0.9.8e:obj_dat.obj
 0002:00002b48       ??_C@_0BD@GIEGHJGD@setct?9PInitResData?$AA@ 100bab48     libeay32_EM_dbg.0.9.8e:obj_dat.obj
 0002:00002b5c       ??_C@_0BC@DDFFKACM@setct?9CapTokenSeq?$AA@ 100bab5c     libeay32_EM_dbg.0.9.8e:obj_dat.obj
 0002:00002b70       ??_C@_0BI@CNLKCNFM@setct?9AuthRevResBaggage?$AA@ 100bab70     libeay32_EM_dbg.0.9.8e:obj_dat.obj
 0002:00002b88       ??_C@_0BI@DEMAFNK@setct?9AuthRevReqBaggage?$AA@ 100bab88     libeay32_EM_dbg.0.9.8e:obj_dat.obj
 0002:00002ba0       ??_C@_0BF@EFHLGKOJ@setct?9AuthResBaggage?$AA@ 100baba0     libeay32_EM_dbg.0.9.8e:obj_dat.obj
 0002:00002bb8       ??_C@_0P@LPBKKIBL@setct?9HODInput?$AA@ 100babb8     libeay32_EM_dbg.0.9.8e:obj_dat.obj
 0002:00002bc8       ??_C@_0BF@BDFGFMFJ@setct?9PIDataUnsigned?$AA@ 100babc8     libeay32_EM_dbg.0.9.8e:obj_dat.obj
 0002:00002be0       ??_C@_0N@PGCGIPOF@setct?9PIData?$AA@ 100babe0     libeay32_EM_dbg.0.9.8e:obj_dat.obj
 0002:00002bf0       ??_C@_08MNJJNIEC@setct?9PI?$AA@ 100babf0     libeay32_EM_dbg.0.9.8e:obj_dat.obj
 0002:00002bfc       ??_C@_0N@GHLAGDMC@setct?9OIData?$AA@ 100babfc     libeay32_EM_dbg.0.9.8e:obj_dat.obj
 0002:00002c0c       ??_C@_0O@PFJCCKAL@setct?9PANOnly?$AA@ 100bac0c     libeay32_EM_dbg.0.9.8e:obj_dat.obj
 0002:00002c1c       ??_C@_0P@LAMDLEMO@setct?9PANToken?$AA@ 100bac1c     libeay32_EM_dbg.0.9.8e:obj_dat.obj
 0002:00002c2c       ??_C@_0O@EKAPGBNN@setct?9PANData?$AA@ 100bac2c     libeay32_EM_dbg.0.9.8e:obj_dat.obj
 0002:00002c3c       ??_C@_09JHODGPNO@set?9brand?$AA@ 100bac3c     libeay32_EM_dbg.0.9.8e:obj_dat.obj
 0002:00002c48       ??_C@_0BH@PDPIEGPA@certificate?5extensions?$AA@ 100bac48     libeay32_EM_dbg.0.9.8e:obj_dat.obj
 0002:00002c60       ??_C@_0M@KEIBDDC@set?9certExt?$AA@ 100bac60     libeay32_EM_dbg.0.9.8e:obj_dat.obj
 0002:00002c6c       ??_C@_0L@LAAAKICM@set?9policy?$AA@ 100bac6c     libeay32_EM_dbg.0.9.8e:obj_dat.obj
 0002:00002c78       ??_C@_08OFDIOKIA@set?9attr?$AA@ 100bac78     libeay32_EM_dbg.0.9.8e:obj_dat.obj
 0002:00002c84       ??_C@_0BD@LEIDLLNO@message?5extensions?$AA@ 100bac84     libeay32_EM_dbg.0.9.8e:obj_dat.obj
 0002:00002c98       ??_C@_0L@PKPEIEIJ@set?9msgExt?$AA@ 100bac98     libeay32_EM_dbg.0.9.8e:obj_dat.obj
 0002:00002ca4       ??_C@_0O@HJGLMADJ@content?5types?$AA@ 100baca4     libeay32_EM_dbg.0.9.8e:obj_dat.obj
 0002:00002cb4       ??_C@_09EJPBIJJA@set?9ctype?$AA@ 100bacb4     libeay32_EM_dbg.0.9.8e:obj_dat.obj
 0002:00002cc0       ??_C@_0BP@KEIHJPNF@Secure?5Electronic?5Transactions?$AA@ 100bacc0     libeay32_EM_dbg.0.9.8e:obj_dat.obj
 0002:00002ce0       ??_C@_06KKEMDFAF@id?9set?$AA@ 100bace0     libeay32_EM_dbg.0.9.8e:obj_dat.obj
 0002:00002ce8       ??_C@_09NNMENHIH@pseudonym?$AA@ 100bace8     libeay32_EM_dbg.0.9.8e:obj_dat.obj
 0002:00002cf4       ??_C@_0BE@DAEHFOO@generationQualifier?$AA@ 100bacf4     libeay32_EM_dbg.0.9.8e:obj_dat.obj
 0002:00002d08       ??_C@_0BJ@KCNAIDP@id?9hex?9multipart?9message?$AA@ 100bad08     libeay32_EM_dbg.0.9.8e:obj_dat.obj
 0002:00002d24       ??_C@_0BH@ILCJEHBB@id?9hex?9partial?9message?$AA@ 100bad24     libeay32_EM_dbg.0.9.8e:obj_dat.obj
 0002:00002d3c       ??_C@_0BA@MOFCNIEE@mime?9mhs?9bodies?$AA@ 100bad3c     libeay32_EM_dbg.0.9.8e:obj_dat.obj
 0002:00002d4c       ??_C@_0BC@NIFMCBEJ@mime?9mhs?9headings?$AA@ 100bad4c     libeay32_EM_dbg.0.9.8e:obj_dat.obj
 0002:00002d60       ??_C@_08DNBACEKK@MIME?5MHS?$AA@ 100bad60     libeay32_EM_dbg.0.9.8e:obj_dat.obj
 0002:00002d6c       ??_C@_08HLONPBDI@mime?9mhs?$AA@ 100bad6c     libeay32_EM_dbg.0.9.8e:obj_dat.obj
 0002:00002d78       ??_C@_0BF@EFCCADKK@x500UniqueIdentifier?$AA@ 100bad78     libeay32_EM_dbg.0.9.8e:obj_dat.obj
 0002:00002d90       ??_C@_0BC@KCCHJGGO@documentPublisher?$AA@ 100bad90     libeay32_EM_dbg.0.9.8e:obj_dat.obj
 0002:00002da4       ??_C@_05KNIAAKIP@audio?$AA@ 100bada4     libeay32_EM_dbg.0.9.8e:obj_dat.obj
 0002:00002dac       ??_C@_0M@KIABODOB@dITRedirect?$AA@ 100badac     libeay32_EM_dbg.0.9.8e:obj_dat.obj
 0002:00002db8       ??_C@_0BC@CBOFINFC@personalSignature?$AA@ 100badb8     libeay32_EM_dbg.0.9.8e:obj_dat.obj
 0002:00002dcc       ??_C@_0BG@FLFPEGPE@subtreeMaximumQuality?$AA@ 100badcc     libeay32_EM_dbg.0.9.8e:obj_dat.obj
 0002:00002de4       ??_C@_0BG@HMOECBMF@subtreeMinimumQuality?$AA@ 100bade4     libeay32_EM_dbg.0.9.8e:obj_dat.obj
 0002:00002dfc       ??_C@_0BD@EHDOPADK@singleLevelQuality?$AA@ 100badfc     libeay32_EM_dbg.0.9.8e:obj_dat.obj
 0002:00002e10       ??_C@_0L@LMCCHBHL@dSAQuality?$AA@ 100bae10     libeay32_EM_dbg.0.9.8e:obj_dat.obj
 0002:00002e1c       ??_C@_0N@POAALOHC@buildingName?$AA@ 100bae1c     libeay32_EM_dbg.0.9.8e:obj_dat.obj
 0002:00002e2c       ??_C@_0BF@OFOHKDCI@mailPreferenceOption?$AA@ 100bae2c     libeay32_EM_dbg.0.9.8e:obj_dat.obj
 0002:00002e44       ??_C@_0N@DGNBNBGJ@janetMailbox?$AA@ 100bae44     libeay32_EM_dbg.0.9.8e:obj_dat.obj
 0002:00002e54       ??_C@_0BF@IANLBJMF@organizationalStatus?$AA@ 100bae54     libeay32_EM_dbg.0.9.8e:obj_dat.obj
 0002:00002e6c       ??_C@_0BE@MGDAFGCM@friendlyCountryName?$AA@ 100bae6c     libeay32_EM_dbg.0.9.8e:obj_dat.obj
 0002:00002e80       ??_C@_0BF@JICDDEFM@pagerTelephoneNumber?$AA@ 100bae80     libeay32_EM_dbg.0.9.8e:obj_dat.obj
 0002:00002e98       ??_C@_0BG@DCPABLLG@mobileTelephoneNumber?$AA@ 100bae98     libeay32_EM_dbg.0.9.8e:obj_dat.obj
 0002:00002eb0       ??_C@_0O@CCHLDBGG@personalTitle?$AA@ 100baeb0     libeay32_EM_dbg.0.9.8e:obj_dat.obj
 0002:00002ec0       ??_C@_0BC@NPJKACJF@homePostalAddress?$AA@ 100baec0     libeay32_EM_dbg.0.9.8e:obj_dat.obj
 0002:00002ed4       ??_C@_0P@OJOOFNGB@associatedName?$AA@ 100baed4     libeay32_EM_dbg.0.9.8e:obj_dat.obj
 0002:00002ee4       ??_C@_0BB@MEFMIBKO@associatedDomain?$AA@ 100baee4     libeay32_EM_dbg.0.9.8e:obj_dat.obj
 0002:00002ef8       ??_C@_0M@GHEAGPOE@cNAMERecord?$AA@ 100baef8     libeay32_EM_dbg.0.9.8e:obj_dat.obj
 0002:00002f04       ??_C@_09OCFHDJJF@sOARecord?$AA@ 100baf04     libeay32_EM_dbg.0.9.8e:obj_dat.obj
 0002:00002f10       ??_C@_08FBLONLGA@nSRecord?$AA@ 100baf10     libeay32_EM_dbg.0.9.8e:obj_dat.obj
 0002:00002f1c       ??_C@_08DFFJPLPD@mXRecord?$AA@ 100baf1c     libeay32_EM_dbg.0.9.8e:obj_dat.obj
 0002:00002f28       ??_C@_0BF@MIIMJDJB@pilotAttributeType27?$AA@ 100baf28     libeay32_EM_dbg.0.9.8e:obj_dat.obj
 0002:00002f40       ??_C@_07IBNMBOJB@aRecord?$AA@ 100baf40     libeay32_EM_dbg.0.9.8e:obj_dat.obj
 0002:00002f48       ??_C@_0P@ECLEJAJJ@lastModifiedBy?$AA@ 100baf48     libeay32_EM_dbg.0.9.8e:obj_dat.obj
 0002:00002f58       ??_C@_0BB@LHLABCIP@lastModifiedTime?$AA@ 100baf58     libeay32_EM_dbg.0.9.8e:obj_dat.obj
 0002:00002f6c       ??_C@_0N@CEOKELFP@otherMailbox?$AA@ 100baf6c     libeay32_EM_dbg.0.9.8e:obj_dat.obj
 0002:00002f7c       ??_C@_09EMBFDNKC@secretary?$AA@ 100baf7c     libeay32_EM_dbg.0.9.8e:obj_dat.obj
 0002:00002f88       ??_C@_0BE@CPLAKLNE@homeTelephoneNumber?$AA@ 100baf88     libeay32_EM_dbg.0.9.8e:obj_dat.obj
 0002:00002f9c       ??_C@_0BB@COFKDFJ@documentLocation?$AA@ 100baf9c     libeay32_EM_dbg.0.9.8e:obj_dat.obj
 0002:00002fb0       ??_C@_0P@DABDJKFB@documentAuthor?$AA@ 100bafb0     libeay32_EM_dbg.0.9.8e:obj_dat.obj
 0002:00002fc0       ??_C@_0BA@GHOLKFM@documentVersion?$AA@ 100bafc0     libeay32_EM_dbg.0.9.8e:obj_dat.obj
 0002:00002fd0       ??_C@_0O@BDIDABAC@documentTitle?$AA@ 100bafd0     libeay32_EM_dbg.0.9.8e:obj_dat.obj
 0002:00002fe0       ??_C@_0BD@MEPJGCEO@documentIdentifier?$AA@ 100bafe0     libeay32_EM_dbg.0.9.8e:obj_dat.obj
 0002:00002ff4       ??_C@_07JPLKDPHP@manager?$AA@ 100baff4     libeay32_EM_dbg.0.9.8e:obj_dat.obj
 0002:00002ffc       ??_C@_04OODOLJMA@host?$AA@ 100baffc     libeay32_EM_dbg.0.9.8e:obj_dat.obj
 0002:00003004       ??_C@_09CCPGMHEM@userClass?$AA@ 100bb004     libeay32_EM_dbg.0.9.8e:obj_dat.obj
 0002:00003010       ??_C@_05DOIFDPKA@photo?$AA@ 100bb010     libeay32_EM_dbg.0.9.8e:obj_dat.obj
 0002:00003018       ??_C@_0L@DGKNANFO@roomNumber?$AA@ 100bb018     libeay32_EM_dbg.0.9.8e:obj_dat.obj
 0002:00003024       ??_C@_0P@PAMFCEKP@favouriteDrink?$AA@ 100bb024     libeay32_EM_dbg.0.9.8e:obj_dat.obj
 0002:00003034       ??_C@_04NIDJFNBE@info?$AA@ 100bb034     libeay32_EM_dbg.0.9.8e:obj_dat.obj
 0002:0000303c       ??_C@_0O@PDNFEOHL@rfc822Mailbox?$AA@ 100bb03c     libeay32_EM_dbg.0.9.8e:obj_dat.obj
 0002:0000304c       ??_C@_04FFKLPPHM@mail?$AA@ 100bb04c     libeay32_EM_dbg.0.9.8e:obj_dat.obj
 0002:00003054       ??_C@_0BF@HDIIKJDI@textEncodedORAddress?$AA@ 100bb054     libeay32_EM_dbg.0.9.8e:obj_dat.obj
 0002:0000306c       ??_C@_06LPELCIKE@userId?$AA@ 100bb06c     libeay32_EM_dbg.0.9.8e:obj_dat.obj
 0002:00003074       ??_C@_03MJDGODDN@UID?$AA@  100bb074     libeay32_EM_dbg.0.9.8e:obj_dat.obj
 0002:00003078       ??_C@_0BE@DDFOMMI@qualityLabelledData?$AA@ 100bb078     libeay32_EM_dbg.0.9.8e:obj_dat.obj
 0002:0000308c       ??_C@_08MPJGPMC@pilotDSA?$AA@ 100bb08c     libeay32_EM_dbg.0.9.8e:obj_dat.obj
 0002:00003098       ??_C@_0BC@PLDKCMI@pilotOrganization?$AA@ 100bb098     libeay32_EM_dbg.0.9.8e:obj_dat.obj
 0002:000030ac       ??_C@_0BF@CONLNHDI@simpleSecurityObject?$AA@ 100bb0ac     libeay32_EM_dbg.0.9.8e:obj_dat.obj
 0002:000030c4       ??_C@_0BA@LKHIAMBK@friendlyCountry?$AA@ 100bb0c4     libeay32_EM_dbg.0.9.8e:obj_dat.obj
 0002:000030d4       ??_C@_0BE@OPAPHNCO@domainRelatedObject?$AA@ 100bb0d4     libeay32_EM_dbg.0.9.8e:obj_dat.obj
 0002:000030e8       ??_C@_09BOCGGGMK@dNSDomain?$AA@ 100bb0e8     libeay32_EM_dbg.0.9.8e:obj_dat.obj
 0002:000030f4       ??_C@_0BA@KIAIOBLD@rFC822localPart?$AA@ 100bb0f4     libeay32_EM_dbg.0.9.8e:obj_dat.obj
 0002:00003104       ??_C@_0P@OAPEDDHP@documentSeries?$AA@ 100bb104     libeay32_EM_dbg.0.9.8e:obj_dat.obj
 0002:00003114       ??_C@_04EKFCMFOP@room?$AA@ 100bb114     libeay32_EM_dbg.0.9.8e:obj_dat.obj
 0002:0000311c       ??_C@_08JEEDKNPB@document?$AA@ 100bb11c     libeay32_EM_dbg.0.9.8e:obj_dat.obj
 0002:00003128       ??_C@_07PMDLEBNF@account?$AA@ 100bb128     libeay32_EM_dbg.0.9.8e:obj_dat.obj
 0002:00003130       ??_C@_0M@NCGDCEIP@pilotPerson?$AA@ 100bb130     libeay32_EM_dbg.0.9.8e:obj_dat.obj
 0002:0000313c       ??_C@_0M@MCCFCPKP@pilotObject?$AA@ 100bb13c     libeay32_EM_dbg.0.9.8e:obj_dat.obj
 0002:00003148       ??_C@_0BK@LELMGJGD@caseIgnoreIA5StringSyntax?$AA@ 100bb148     libeay32_EM_dbg.0.9.8e:obj_dat.obj
 0002:00003164       ??_C@_0BA@KPIIGILK@iA5StringSyntax?$AA@ 100bb164     libeay32_EM_dbg.0.9.8e:obj_dat.obj
 0002:00003174       ??_C@_0M@DLMEDAFC@pilotGroups?$AA@ 100bb174     libeay32_EM_dbg.0.9.8e:obj_dat.obj
 0002:00003180       ??_C@_0BB@MJFNAIDM@pilotObjectClass?$AA@ 100bb180     libeay32_EM_dbg.0.9.8e:obj_dat.obj
 0002:00003194       ??_C@_0BF@CDEFHHCF@pilotAttributeSyntax?$AA@ 100bb194     libeay32_EM_dbg.0.9.8e:obj_dat.obj
 0002:000031ac       ??_C@_0BD@NEGIHOAI@pilotAttributeType?$AA@ 100bb1ac     libeay32_EM_dbg.0.9.8e:obj_dat.obj
 0002:000031c0       ??_C@_05KIBFDOPF@pilot?$AA@ 100bb1c0     libeay32_EM_dbg.0.9.8e:obj_dat.obj
 0002:000031c8       ??_C@_03BIDCBJP@ucl?$AA@   100bb1c8     libeay32_EM_dbg.0.9.8e:obj_dat.obj
 0002:000031cc       ??_C@_03OHCBHMED@pss?$AA@  100bb1cc     libeay32_EM_dbg.0.9.8e:obj_dat.obj
 0002:000031d0       ??_C@_04PJOLNDGD@data?$AA@ 100bb1d0     libeay32_EM_dbg.0.9.8e:obj_dat.obj
 0002:000031d8       ??_C@_0BI@EEABHGCD@Hold?5Instruction?5Reject?$AA@ 100bb1d8     libeay32_EM_dbg.0.9.8e:obj_dat.obj
 0002:000031f0       ??_C@_0BG@BDAACIJE@holdInstructionReject?$AA@ 100bb1f0     libeay32_EM_dbg.0.9.8e:obj_dat.obj
 0002:00003208       ??_C@_0BN@IJKNPIFC@Hold?5Instruction?5Call?5Issuer?$AA@ 100bb208     libeay32_EM_dbg.0.9.8e:obj_dat.obj
 0002:00003228       ??_C@_0BK@ENEKHHMB@holdInstructionCallIssuer?$AA@ 100bb228     libeay32_EM_dbg.0.9.8e:obj_dat.obj
 0002:00003244       ??_C@_0BG@ECBIHNGK@Hold?5Instruction?5None?$AA@ 100bb244     libeay32_EM_dbg.0.9.8e:obj_dat.obj
 0002:0000325c       ??_C@_0BE@KPEIPHPJ@holdInstructionNone?$AA@ 100bb25c     libeay32_EM_dbg.0.9.8e:obj_dat.obj
 0002:00003270       ??_C@_0BG@LHBPDMAN@Hold?5Instruction?5Code?$AA@ 100bb270     libeay32_EM_dbg.0.9.8e:obj_dat.obj
 0002:00003288       ??_C@_0BE@FKEPLGJO@holdInstructionCode?$AA@ 100bb288     libeay32_EM_dbg.0.9.8e:obj_dat.obj
 0002:0000329c       ??_C@_0M@JMFNEPEI@aes?9256?9cfb?$AA@ 100bb29c     libeay32_EM_dbg.0.9.8e:obj_dat.obj
 0002:000032a8       ??_C@_0M@EAFGNFML@AES?9256?9CFB?$AA@ 100bb2a8     libeay32_EM_dbg.0.9.8e:obj_dat.obj
 0002:000032b4       ??_C@_0M@NGILPAPA@aes?9256?9ofb?$AA@ 100bb2b4     libeay32_EM_dbg.0.9.8e:obj_dat.obj
 0002:000032c0       ??_C@_0M@KIAGKHD@AES?9256?9OFB?$AA@ 100bb2c0     libeay32_EM_dbg.0.9.8e:obj_dat.obj
 0002:000032cc       ??_C@_0M@ICEPNGNF@aes?9256?9cbc?$AA@ 100bb2cc     libeay32_EM_dbg.0.9.8e:obj_dat.obj
 0002:000032d8       ??_C@_0M@FOEEEMFG@AES?9256?9CBC?$AA@ 100bb2d8     libeay32_EM_dbg.0.9.8e:obj_dat.obj
 0002:000032e4       ??_C@_0M@LPPNNCHP@aes?9256?9ecb?$AA@ 100bb2e4     libeay32_EM_dbg.0.9.8e:obj_dat.obj
 0002:000032f0       ??_C@_0M@GDPGEIPM@AES?9256?9ECB?$AA@ 100bb2f0     libeay32_EM_dbg.0.9.8e:obj_dat.obj
 0002:000032fc       ??_C@_0M@EOODGAMJ@aes?9192?9cfb?$AA@ 100bb2fc     libeay32_EM_dbg.0.9.8e:obj_dat.obj
 0002:00003308       ??_C@_0M@JCOIPKEK@AES?9192?9CFB?$AA@ 100bb308     libeay32_EM_dbg.0.9.8e:obj_dat.obj
 0002:00003314       ??_C@_0M@EDFNPHB@aes?9192?9ofb?$AA@ 100bb314     libeay32_EM_dbg.0.9.8e:obj_dat.obj
 0002:00003320       ??_C@_0M@NIDOEFPC@AES?9192?9OFB?$AA@ 100bb320     libeay32_EM_dbg.0.9.8e:obj_dat.obj
 0002:0000332c       ??_C@_0M@FAPBPJFE@aes?9192?9cbc?$AA@ 100bb32c     libeay32_EM_dbg.0.9.8e:obj_dat.obj
 0002:00003338       ??_C@_0M@IMPKGDNH@AES?9192?9CBC?$AA@ 100bb338     libeay32_EM_dbg.0.9.8e:obj_dat.obj
 0002:00003344       ??_C@_0M@GNEDPNPO@aes?9192?9ecb?$AA@ 100bb344     libeay32_EM_dbg.0.9.8e:obj_dat.obj
 0002:00003350       ??_C@_0M@LBEIGHHN@AES?9192?9ECB?$AA@ 100bb350     libeay32_EM_dbg.0.9.8e:obj_dat.obj
 0002:0000335c       ??_C@_0M@ONHPBHFF@aes?9128?9cfb?$AA@ 100bb35c     libeay32_EM_dbg.0.9.8e:obj_dat.obj
 0002:00003368       ??_C@_0M@DBHEINNG@AES?9128?9CFB?$AA@ 100bb368     libeay32_EM_dbg.0.9.8e:obj_dat.obj
 0002:00003374       ??_C@_0M@KHKJKION@aes?9128?9ofb?$AA@ 100bb374     libeay32_EM_dbg.0.9.8e:obj_dat.obj
 0002:00003380       ??_C@_0M@HLKCDCGO@AES?9128?9OFB?$AA@ 100bb380     libeay32_EM_dbg.0.9.8e:obj_dat.obj
 0002:0000338c       ??_C@_0M@PDGNIOMI@aes?9128?9cbc?$AA@ 100bb38c     libeay32_EM_dbg.0.9.8e:obj_dat.obj
 0002:00003398       ??_C@_0M@CPGGBEEL@AES?9128?9CBC?$AA@ 100bb398     libeay32_EM_dbg.0.9.8e:obj_dat.obj
 0002:000033a4       ??_C@_0M@MONPIKGC@aes?9128?9ecb?$AA@ 100bb3a4     libeay32_EM_dbg.0.9.8e:obj_dat.obj
 0002:000033b0       ??_C@_0M@BCNEBAOB@AES?9128?9ECB?$AA@ 100bb3b0     libeay32_EM_dbg.0.9.8e:obj_dat.obj
 0002:000033bc       ??_C@_0BD@HDEEGCLB@Microsoft?5CSP?5Name?$AA@ 100bb3bc     libeay32_EM_dbg.0.9.8e:obj_dat.obj
 0002:000033d0       ??_C@_07BPKAKPJK@CSPName?$AA@ 100bb3d0     libeay32_EM_dbg.0.9.8e:obj_dat.obj
 0002:000033d8       ??_C@_0BA@DGJNDOPM@ecdsa?9with?9SHA1?$AA@ 100bb3d8     libeay32_EM_dbg.0.9.8e:obj_dat.obj
 0002:000033e8       ??_C@_0L@JJFEINOP@prime256v1?$AA@ 100bb3e8     libeay32_EM_dbg.0.9.8e:obj_dat.obj
 0002:000033f4       ??_C@_0L@HMEBAKJL@prime239v3?$AA@ 100bb3f4     libeay32_EM_dbg.0.9.8e:obj_dat.obj
 0002:00003400       ??_C@_0L@GFFKDLNK@prime239v2?$AA@ 100bb400     libeay32_EM_dbg.0.9.8e:obj_dat.obj
 0002:0000340c       ??_C@_0L@EOHHGIBJ@prime239v1?$AA@ 100bb40c     libeay32_EM_dbg.0.9.8e:obj_dat.obj
 0002:00003418       ??_C@_0L@GHGEOHJF@prime192v3?$AA@ 100bb418     libeay32_EM_dbg.0.9.8e:obj_dat.obj
 0002:00003424       ??_C@_0L@HOHPNGNE@prime192v2?$AA@ 100bb424     libeay32_EM_dbg.0.9.8e:obj_dat.obj
 0002:00003430       ??_C@_0L@FFFCIFBH@prime192v1?$AA@ 100bb430     libeay32_EM_dbg.0.9.8e:obj_dat.obj
 0002:0000343c       ??_C@_0P@NEOBKIMO@id?9ecPublicKey?$AA@ 100bb43c     libeay32_EM_dbg.0.9.8e:obj_dat.obj
 0002:0000344c       ??_C@_0BJ@HECCMKCN@characteristic?9two?9field?$AA@ 100bb44c     libeay32_EM_dbg.0.9.8e:obj_dat.obj
 0002:00003468       ??_C@_0M@LGLKIODB@prime?9field?$AA@ 100bb468     libeay32_EM_dbg.0.9.8e:obj_dat.obj
 0002:00003474       ??_C@_0L@HAOKGHPF@ANSI?5X9?462?$AA@ 100bb474     libeay32_EM_dbg.0.9.8e:obj_dat.obj
 0002:00003480       ??_C@_0L@LBMOMFCJ@ansi?9X9?962?$AA@ 100bb480     libeay32_EM_dbg.0.9.8e:obj_dat.obj
 0002:0000348c       ??_C@_0BP@DEKFNCEH@X509v3?5No?5Revocation?5Available?$AA@ 100bb48c     libeay32_EM_dbg.0.9.8e:obj_dat.obj
 0002:000034ac       ??_C@_0L@ECGDAGCK@noRevAvail?$AA@ 100bb4ac     libeay32_EM_dbg.0.9.8e:obj_dat.obj
 0002:000034b8       ??_C@_0BE@IECCFFCH@X509v3?5AC?5Targeting?$AA@ 100bb4b8     libeay32_EM_dbg.0.9.8e:obj_dat.obj
 0002:000034cc       ??_C@_0BC@JINDJNPM@targetInformation?$AA@ 100bb4cc     libeay32_EM_dbg.0.9.8e:obj_dat.obj
 0002:000034e0       ??_C@_0BK@DNMBLGM@X509v3?5Policy?5Constraints?$AA@ 100bb4e0     libeay32_EM_dbg.0.9.8e:obj_dat.obj
 0002:000034fc       ??_C@_0BC@IJLMCBHD@policyConstraints?$AA@ 100bb4fc     libeay32_EM_dbg.0.9.8e:obj_dat.obj
 0002:00003510       ??_C@_04IAMNPBLO@role?$AA@ 100bb510     libeay32_EM_dbg.0.9.8e:obj_dat.obj
 0002:00003518       ??_C@_0BA@PEFFHNFH@id?9aca?9encAttrs?$AA@ 100bb518     libeay32_EM_dbg.0.9.8e:obj_dat.obj
 0002:00003528       ??_C@_0BL@OMFIOBLF@Subject?5Information?5Access?$AA@ 100bb528     libeay32_EM_dbg.0.9.8e:obj_dat.obj
 0002:00003544       ??_C@_0BC@IEIBIKBA@subjectInfoAccess?$AA@ 100bb544     libeay32_EM_dbg.0.9.8e:obj_dat.obj
 0002:00003558       ??_C@_0M@BKAIKGEL@ac?9proxying?$AA@ 100bb558     libeay32_EM_dbg.0.9.8e:obj_dat.obj
 0002:00003564       ??_C@_0BF@JDOFKNPK@md4WithRSAEncryption?$AA@ 100bb564     libeay32_EM_dbg.0.9.8e:obj_dat.obj
 0002:0000357c       ??_C@_07MHHBEDHA@RSA?9MD4?$AA@ 100bb57c     libeay32_EM_dbg.0.9.8e:obj_dat.obj
 0002:00003584       ??_C@_09ECGCCLFI@clearance?$AA@ 100bb584     libeay32_EM_dbg.0.9.8e:obj_dat.obj
 0002:00003590       ??_C@_0BJ@MAOJIBHF@Selected?5Attribute?5Types?$AA@ 100bb590     libeay32_EM_dbg.0.9.8e:obj_dat.obj
 0002:000035ac       ??_C@_0BJ@BDDNHDDA@selected?9attribute?9types?$AA@ 100bb5ac     libeay32_EM_dbg.0.9.8e:obj_dat.obj
 0002:000035c8       ??_C@_04HIBGFPH@NULL?$AA@  100bb5c8     libeay32_EM_dbg.0.9.8e:obj_dat.obj
 0002:000035d0       ??_C@_06HFDFFJHI@Domain?$AA@ 100bb5d0     libeay32_EM_dbg.0.9.8e:obj_dat.obj
 0002:000035d8       ??_C@_06LKIIGAOE@domain?$AA@ 100bb5d8     libeay32_EM_dbg.0.9.8e:obj_dat.obj
 0002:000035e0       ??_C@_0BA@DMAKFKAH@domainComponent?$AA@ 100bb5e0     libeay32_EM_dbg.0.9.8e:obj_dat.obj
 0002:000035f0       ??_C@_02KMHJBPDH@DC?$AA@   100bb5f0     libeay32_EM_dbg.0.9.8e:obj_dat.obj
 0002:000035f4       ??_C@_08GPNKJGDG@dcObject?$AA@ 100bb5f4     libeay32_EM_dbg.0.9.8e:obj_dat.obj
 0002:00003600       ??_C@_08KAGHKPKK@dcobject?$AA@ 100bb600     libeay32_EM_dbg.0.9.8e:obj_dat.obj
 0002:0000360c       ??_C@_0M@CEEPHGPL@Enterprises?$AA@ 100bb60c     libeay32_EM_dbg.0.9.8e:obj_dat.obj
 0002:00003618       ??_C@_0M@DMHOKNAD@enterprises?$AA@ 100bb618     libeay32_EM_dbg.0.9.8e:obj_dat.obj
 0002:00003624       ??_C@_04JEGKNAHI@Mail?$AA@ 100bb624     libeay32_EM_dbg.0.9.8e:obj_dat.obj
 0002:0000362c       ??_C@_06JDJOGLHO@SNMPv2?$AA@ 100bb62c     libeay32_EM_dbg.0.9.8e:obj_dat.obj
 0002:00003634       ??_C@_06DKHMNHOO@snmpv2?$AA@ 100bb634     libeay32_EM_dbg.0.9.8e:obj_dat.obj
 0002:0000363c       ??_C@_08EDKKPLCC@Security?$AA@ 100bb63c     libeay32_EM_dbg.0.9.8e:obj_dat.obj
 0002:00003648       ??_C@_08MBFLHJIB@security?$AA@ 100bb648     libeay32_EM_dbg.0.9.8e:obj_dat.obj
 0002:00003654       ??_C@_07CFINJGKH@Private?$AA@ 100bb654     libeay32_EM_dbg.0.9.8e:obj_dat.obj
 0002:0000365c       ??_C@_07NMPLPEPB@private?$AA@ 100bb65c     libeay32_EM_dbg.0.9.8e:obj_dat.obj
 0002:00003664       ??_C@_0N@FKCIGJFM@Experimental?$AA@ 100bb664     libeay32_EM_dbg.0.9.8e:obj_dat.obj
 0002:00003674       ??_C@_0N@OJFGCCKJ@experimental?$AA@ 100bb674     libeay32_EM_dbg.0.9.8e:obj_dat.obj
 0002:00003684       ??_C@_0L@ENAJINDB@Management?$AA@ 100bb684     libeay32_EM_dbg.0.9.8e:obj_dat.obj
 0002:00003690       ??_C@_04PFNCJACF@mgmt?$AA@ 100bb690     libeay32_EM_dbg.0.9.8e:obj_dat.obj
 0002:00003698       ??_C@_09EOAFACM@Directory?$AA@ 100bb698     libeay32_EM_dbg.0.9.8e:obj_dat.obj
 0002:000036a4       ??_C@_09ELLNFDPM@directory?$AA@ 100bb6a4     libeay32_EM_dbg.0.9.8e:obj_dat.obj
 0002:000036b0       ??_C@_04BAMKDBHE@iana?$AA@ 100bb6b0     libeay32_EM_dbg.0.9.8e:obj_dat.obj
 0002:000036b8       ??_C@_04NMPANDAM@IANA?$AA@ 100bb6b8     libeay32_EM_dbg.0.9.8e:obj_dat.obj
 0002:000036c0       ??_C@_03CIOFGCAJ@dod?$AA@  100bb6c0     libeay32_EM_dbg.0.9.8e:obj_dat.obj
 0002:000036c4       ??_C@_03CFBOKPHF@DOD?$AA@  100bb6c4     libeay32_EM_dbg.0.9.8e:obj_dat.obj
 0002:000036c8       ??_C@_03MADHIGOI@org?$AA@  100bb6c8     libeay32_EM_dbg.0.9.8e:obj_dat.obj
 0002:000036cc       ??_C@_03MNMMELJE@ORG?$AA@  100bb6cc     libeay32_EM_dbg.0.9.8e:obj_dat.obj
 0002:000036d0       ??_C@_0CA@FIOIBJEO@directory?5services?5?9?5algorithms?$AA@ 100bb6d0     libeay32_EM_dbg.0.9.8e:obj_dat.obj
 0002:000036f0       ??_C@_0P@NMIAKCBG@X500algorithms?$AA@ 100bb6f0     libeay32_EM_dbg.0.9.8e:obj_dat.obj
 0002:00003700       ??_C@_0N@JHANBHGC@rsaSignature?$AA@ 100bb700     libeay32_EM_dbg.0.9.8e:obj_dat.obj
 0002:00003710       ??_C@_0L@INBPOG@Trust?5Root?$AA@ 100bb710     libeay32_EM_dbg.0.9.8e:obj_dat.obj
 0002:0000371c       ??_C@_09LNEPAILM@trustRoot?$AA@ 100bb71c     libeay32_EM_dbg.0.9.8e:obj_dat.obj
 0002:00003728       ??_C@_04LNEJFJGI@path?$AA@ 100bb728     libeay32_EM_dbg.0.9.8e:obj_dat.obj
 0002:00003730       ??_C@_05HDPIMK@valid?$AA@  100bb730     libeay32_EM_dbg.0.9.8e:obj_dat.obj
 0002:00003738       ??_C@_0BF@MPEDLKDP@Extended?5OCSP?5Status?$AA@ 100bb738     libeay32_EM_dbg.0.9.8e:obj_dat.obj
 0002:00003750       ??_C@_0P@EGENIBNC@extendedStatus?$AA@ 100bb750     libeay32_EM_dbg.0.9.8e:obj_dat.obj
 0002:00003760       ??_C@_0BF@CEIKAD@OCSP?5Service?5Locator?$AA@ 100bb760     libeay32_EM_dbg.0.9.8e:obj_dat.obj
 0002:00003778       ??_C@_0P@LCDAPLHC@serviceLocator?$AA@ 100bb778     libeay32_EM_dbg.0.9.8e:obj_dat.obj
 0002:00003788       ??_C@_0BE@JAFPABJB@OCSP?5Archive?5Cutoff?$AA@ 100bb788     libeay32_EM_dbg.0.9.8e:obj_dat.obj
 0002:0000379c       ??_C@_0O@FIEDPKGI@archiveCutoff?$AA@ 100bb79c     libeay32_EM_dbg.0.9.8e:obj_dat.obj
 0002:000037ac       ??_C@_0O@HFOALJCG@OCSP?5No?5Check?$AA@ 100bb7ac     libeay32_EM_dbg.0.9.8e:obj_dat.obj
 0002:000037bc       ??_C@_07MCKMCKHJ@noCheck?$AA@ 100bb7bc     libeay32_EM_dbg.0.9.8e:obj_dat.obj
 0002:000037c4       ??_C@_0BK@JKKLNLEI@Acceptable?5OCSP?5Responses?$AA@ 100bb7c4     libeay32_EM_dbg.0.9.8e:obj_dat.obj
 0002:000037e0       ??_C@_0BE@FBPDIHIK@acceptableResponses?$AA@ 100bb7e0     libeay32_EM_dbg.0.9.8e:obj_dat.obj
 0002:000037f4       ??_C@_0M@LCLKJALE@OCSP?5CRL?5ID?$AA@ 100bb7f4     libeay32_EM_dbg.0.9.8e:obj_dat.obj
 0002:00003800       ??_C@_05NOENOBME@CrlID?$AA@ 100bb800     libeay32_EM_dbg.0.9.8e:obj_dat.obj
 0002:00003808       ??_C@_0L@NCNDEJFL@OCSP?5Nonce?$AA@ 100bb808     libeay32_EM_dbg.0.9.8e:obj_dat.obj
 0002:00003814       ??_C@_05OJOPLPHH@Nonce?$AA@ 100bb814     libeay32_EM_dbg.0.9.8e:obj_dat.obj
 0002:0000381c       ??_C@_0BE@ONEEPEOL@Basic?5OCSP?5Response?$AA@ 100bb81c     libeay32_EM_dbg.0.9.8e:obj_dat.obj
 0002:00003830       ??_C@_0BC@KFAFMFFF@basicOCSPResponse?$AA@ 100bb830     libeay32_EM_dbg.0.9.8e:obj_dat.obj
 0002:00003844       ??_C@_07JCKMJMPC@ad?5dvcs?$AA@ 100bb844     libeay32_EM_dbg.0.9.8e:obj_dat.obj
 0002:0000384c       ??_C@_07JCCJJKFE@AD_DVCS?$AA@ 100bb84c     libeay32_EM_dbg.0.9.8e:obj_dat.obj
 0002:00003854       ??_C@_0BB@NMPPBOGK@AD?5Time?5Stamping?$AA@ 100bb854     libeay32_EM_dbg.0.9.8e:obj_dat.obj
 0002:00003868       ??_C@_0BA@PBBONLHE@ad_timestamping?$AA@ 100bb868     libeay32_EM_dbg.0.9.8e:obj_dat.obj
 0002:00003878       ??_C@_0BD@DDALHPCH@id?9cct?9PKIResponse?$AA@ 100bb878     libeay32_EM_dbg.0.9.8e:obj_dat.obj
 0002:0000388c       ??_C@_0P@FNCPPGJO@id?9cct?9PKIData?$AA@ 100bb88c     libeay32_EM_dbg.0.9.8e:obj_dat.obj
 0002:0000389c       ??_C@_0L@CDHPLMPE@id?9cct?9crs?$AA@ 100bb89c     libeay32_EM_dbg.0.9.8e:obj_dat.obj
 0002:000038a8       ??_C@_0BH@DJONLBHI@id?9qcs?9pkixQCSyntax?9v1?$AA@ 100bb8a8     libeay32_EM_dbg.0.9.8e:obj_dat.obj
 0002:000038c0       ??_C@_0M@FBOAJIIJ@id?9aca?9role?$AA@ 100bb8c0     libeay32_EM_dbg.0.9.8e:obj_dat.obj
 0002:000038cc       ??_C@_0N@HOPCGOGP@id?9aca?9group?$AA@ 100bb8cc     libeay32_EM_dbg.0.9.8e:obj_dat.obj
 0002:000038dc       ??_C@_0BI@IDHFJBKH@id?9aca?9chargingIdentity?$AA@ 100bb8dc     libeay32_EM_dbg.0.9.8e:obj_dat.obj
 0002:000038f4       ??_C@_0BG@GFJCFEAI@id?9aca?9accessIdentity?$AA@ 100bb8f4     libeay32_EM_dbg.0.9.8e:obj_dat.obj
 0002:0000390c       ??_C@_0BK@OFEDAOCA@id?9aca?9authenticationInfo?$AA@ 100bb90c     libeay32_EM_dbg.0.9.8e:obj_dat.obj
 0002:00003928       ??_C@_0BK@BJMNIGCJ@id?9pda?9countryOfResidence?$AA@ 100bb928     libeay32_EM_dbg.0.9.8e:obj_dat.obj
 0002:00003944       ??_C@_0BM@KMGEGNAB@id?9pda?9countryOfCitizenship?$AA@ 100bb944     libeay32_EM_dbg.0.9.8e:obj_dat.obj
 0002:00003960       ??_C@_0O@JMCFNPFD@id?9pda?9gender?$AA@ 100bb960     libeay32_EM_dbg.0.9.8e:obj_dat.obj
 0002:00003970       ??_C@_0BE@NIFFDBPJ@id?9pda?9placeOfBirth?$AA@ 100bb970     libeay32_EM_dbg.0.9.8e:obj_dat.obj
 0002:00003984       ??_C@_0BD@BADJMIPF@id?9pda?9dateOfBirth?$AA@ 100bb984     libeay32_EM_dbg.0.9.8e:obj_dat.obj
 0002:00003998       ??_C@_0BD@IGLADCFL@id?9on?9personalData?$AA@ 100bb998     libeay32_EM_dbg.0.9.8e:obj_dat.obj
 0002:000039ac       ??_C@_0BN@MIGHDJON@id?9cmc?9confirmCertAcceptance?$AA@ 100bb9ac     libeay32_EM_dbg.0.9.8e:obj_dat.obj
 0002:000039cc       ??_C@_0BG@EEIJMDPB@id?9cmc?9popLinkWitness?$AA@ 100bb9cc     libeay32_EM_dbg.0.9.8e:obj_dat.obj
 0002:000039e4       ??_C@_0BF@GGLCNKGO@id?9cmc?9popLinkRandom?$AA@ 100bb9e4     libeay32_EM_dbg.0.9.8e:obj_dat.obj
 0002:000039fc       ??_C@_0BE@JKLJLIIH@id?9cmc?9queryPending?$AA@ 100bb9fc     libeay32_EM_dbg.0.9.8e:obj_dat.obj
 0002:00003a10       ??_C@_0BE@CKMFMMDP@id?9cmc?9responseInfo?$AA@ 100bba10     libeay32_EM_dbg.0.9.8e:obj_dat.obj
 0002:00003a24       ??_C@_0P@PCIOIKNC@id?9cmc?9regInfo?$AA@ 100bba24     libeay32_EM_dbg.0.9.8e:obj_dat.obj
 0002:00003a34       ??_C@_0BF@BOEAJJNI@id?9cmc?9revokeRequest?$AA@ 100bba34     libeay32_EM_dbg.0.9.8e:obj_dat.obj
 0002:00003a4c       ??_C@_0O@OIGIOBJ@id?9cmc?9getCRL?$AA@ 100bba4c     libeay32_EM_dbg.0.9.8e:obj_dat.obj
 0002:00003a5c       ??_C@_0P@GMDPJKDO@id?9cmc?9getCert?$AA@ 100bba5c     libeay32_EM_dbg.0.9.8e:obj_dat.obj
 0002:00003a6c       ??_C@_0BF@BMODAINP@id?9cmc?9lraPOPWitness?$AA@ 100bba6c     libeay32_EM_dbg.0.9.8e:obj_dat.obj
 0002:00003a84       ??_C@_0BE@KBIPLENG@id?9cmc?9decryptedPOP?$AA@ 100bba84     libeay32_EM_dbg.0.9.8e:obj_dat.obj
 0002:00003a98       ??_C@_0BE@NILMJFN@id?9cmc?9encryptedPOP?$AA@ 100bba98     libeay32_EM_dbg.0.9.8e:obj_dat.obj
 0002:00003aac       ??_C@_0BF@HLOCACJF@id?9cmc?9addExtensions?$AA@ 100bbaac     libeay32_EM_dbg.0.9.8e:obj_dat.obj
 0002:00003ac4       ??_C@_0BG@JLHHNNCH@id?9cmc?9recipientNonce?$AA@ 100bbac4     libeay32_EM_dbg.0.9.8e:obj_dat.obj
 0002:00003adc       ??_C@_0BD@BCMJDDMP@id?9cmc?9senderNonce?$AA@ 100bbadc     libeay32_EM_dbg.0.9.8e:obj_dat.obj
 0002:00003af0       ??_C@_0BF@GEJAHBF@id?9cmc?9transactionId?$AA@ 100bbaf0     libeay32_EM_dbg.0.9.8e:obj_dat.obj
 0002:00003b08       ??_C@_0BC@LLJKCHEN@id?9cmc?9dataReturn?$AA@ 100bbb08     libeay32_EM_dbg.0.9.8e:obj_dat.obj
 0002:00003b1c       ??_C@_0BF@IDAHNDCK@id?9cmc?9identityProof?$AA@ 100bbb1c     libeay32_EM_dbg.0.9.8e:obj_dat.obj
 0002:00003b34       ??_C@_0BG@PPIINOMK@id?9cmc?9identification?$AA@ 100bbb34     libeay32_EM_dbg.0.9.8e:obj_dat.obj
 0002:00003b4c       ??_C@_0BC@CMNEPEAI@id?9cmc?9statusInfo?$AA@ 100bbb4c     libeay32_EM_dbg.0.9.8e:obj_dat.obj
 0002:00003b60       ??_C@_0O@OBGPPBGA@id?9alg?9dh?9pop?$AA@ 100bbb60     libeay32_EM_dbg.0.9.8e:obj_dat.obj
 0002:00003b70       ??_C@_0BI@KIODNBCM@id?9alg?9dh?9sig?9hmac?9sha1?$AA@ 100bbb70     libeay32_EM_dbg.0.9.8e:obj_dat.obj
 0002:00003b88       ??_C@_0BD@LAAJOBHI@id?9alg?9noSignature?$AA@ 100bbb88     libeay32_EM_dbg.0.9.8e:obj_dat.obj
 0002:00003b9c       ??_C@_0N@KIJONBNA@id?9alg?9des40?$AA@ 100bbb9c     libeay32_EM_dbg.0.9.8e:obj_dat.obj
 0002:00003bac       ??_C@_0BD@EEAPBNJJ@id?9regInfo?9certReq?$AA@ 100bbbac     libeay32_EM_dbg.0.9.8e:obj_dat.obj
 0002:00003bc0       ??_C@_0BF@FHFGHAHE@id?9regInfo?9utf8Pairs?$AA@ 100bbbc0     libeay32_EM_dbg.0.9.8e:obj_dat.obj
 0002:00003bd8       ??_C@_0BL@GHBPLPHM@id?9regCtrl?9protocolEncrKey?$AA@ 100bbbd8     libeay32_EM_dbg.0.9.8e:obj_dat.obj
 0002:00003bf4       ??_C@_0BF@GFJPNJIG@id?9regCtrl?9oldCertID?$AA@ 100bbbf4     libeay32_EM_dbg.0.9.8e:obj_dat.obj
 0002:00003c0c       ??_C@_0BN@ONKHMAOP@id?9regCtrl?9pkiArchiveOptions?$AA@ 100bbc0c     libeay32_EM_dbg.0.9.8e:obj_dat.obj
 0002:00003c2c       ??_C@_0BO@GJKPPLPL@id?9regCtrl?9pkiPublicationInfo?$AA@ 100bbc2c     libeay32_EM_dbg.0.9.8e:obj_dat.obj
 0002:00003c4c       ??_C@_0BJ@FBKKLLKP@id?9regCtrl?9authenticator?$AA@ 100bbc4c     libeay32_EM_dbg.0.9.8e:obj_dat.obj
 0002:00003c68       ??_C@_0BE@JDMKCIPE@id?9regCtrl?9regToken?$AA@ 100bbc68     libeay32_EM_dbg.0.9.8e:obj_dat.obj
 0002:00003c7c       ??_C@_0L@BGHMJHOP@id?9regInfo?$AA@ 100bbc7c     libeay32_EM_dbg.0.9.8e:obj_dat.obj
 0002:00003c88       ??_C@_0L@FDGKGANK@id?9regCtrl?$AA@ 100bbc88     libeay32_EM_dbg.0.9.8e:obj_dat.obj
 0002:00003c94       ??_C@_0BF@CLCJJGFI@id?9it?9origPKIMessage?$AA@ 100bbc94     libeay32_EM_dbg.0.9.8e:obj_dat.obj
 0002:00003cac       ??_C@_0BG@KCBHNMIK@id?9it?9confirmWaitTime?$AA@ 100bbcac     libeay32_EM_dbg.0.9.8e:obj_dat.obj
 0002:00003cc4       ??_C@_0BG@MKDHCJKF@id?9it?9implicitConfirm?$AA@ 100bbcc4     libeay32_EM_dbg.0.9.8e:obj_dat.obj
 0002:00003cdc       ??_C@_0BE@FOOOCPMH@id?9it?9revPassphrase?$AA@ 100bbcdc     libeay32_EM_dbg.0.9.8e:obj_dat.obj
 0002:00003cf0       ??_C@_0BG@KPIIFBLH@id?9it?9keyPairParamRep?$AA@ 100bbcf0     libeay32_EM_dbg.0.9.8e:obj_dat.obj
 0002:00003d08       ??_C@_0BG@LGJDGAPG@id?9it?9keyPairParamReq?$AA@ 100bbd08     libeay32_EM_dbg.0.9.8e:obj_dat.obj
 0002:00003d20       ??_C@_0BL@HBPHBFLO@id?9it?9subscriptionResponse?$AA@ 100bbd20     libeay32_EM_dbg.0.9.8e:obj_dat.obj
 0002:00003d3c       ??_C@_0BK@MKGCMKGI@id?9it?9subscriptionRequest?$AA@ 100bbd3c     libeay32_EM_dbg.0.9.8e:obj_dat.obj
 0002:00003d58       ??_C@_0BG@BPLKDJPD@id?9it?9unsupportedOIDs?$AA@ 100bbd58     libeay32_EM_dbg.0.9.8e:obj_dat.obj
 0002:00003d70       ??_C@_0BB@NHKBGJFG@id?9it?9currentCRL?$AA@ 100bbd70     libeay32_EM_dbg.0.9.8e:obj_dat.obj
 0002:00003d84       ??_C@_0BG@OAKEHPLC@id?9it?9caKeyUpdateInfo?$AA@ 100bbd84     libeay32_EM_dbg.0.9.8e:obj_dat.obj
 0002:00003d9c       ??_C@_0BH@JFBOPDCH@id?9it?9preferredSymmAlg?$AA@ 100bbd9c     libeay32_EM_dbg.0.9.8e:obj_dat.obj
 0002:00003db4       ??_C@_0BG@FKIDIODL@id?9it?9encKeyPairTypes?$AA@ 100bbdb4     libeay32_EM_dbg.0.9.8e:obj_dat.obj
 0002:00003dcc       ??_C@_0BH@POCENFBA@id?9it?9signKeyPairTypes?$AA@ 100bbdcc     libeay32_EM_dbg.0.9.8e:obj_dat.obj
 0002:00003de4       ??_C@_0BE@GJACIPND@id?9it?9caProtEncCert?$AA@ 100bbde4     libeay32_EM_dbg.0.9.8e:obj_dat.obj
 0002:00003df8       ??_C@_04FFLIHJGD@dvcs?$AA@ 100bbdf8     libeay32_EM_dbg.0.9.8e:obj_dat.obj
 0002:00003e00       ??_C@_04JJICJLBL@DVCS?$AA@ 100bbe00     libeay32_EM_dbg.0.9.8e:obj_dat.obj
 0002:00003e08       ??_C@_0L@DECDDCGF@IPSec?5User?$AA@ 100bbe08     libeay32_EM_dbg.0.9.8e:obj_dat.obj
 0002:00003e14       ??_C@_09GOHJKOFF@ipsecUser?$AA@ 100bbe14     libeay32_EM_dbg.0.9.8e:obj_dat.obj
 0002:00003e20       ??_C@_0N@EKDIOGLO@IPSec?5Tunnel?$AA@ 100bbe20     libeay32_EM_dbg.0.9.8e:obj_dat.obj
 0002:00003e30       ??_C@_0M@GMMHFFHI@ipsecTunnel?$AA@ 100bbe30     libeay32_EM_dbg.0.9.8e:obj_dat.obj
 0002:00003e3c       ??_C@_0BB@JEJDAICO@IPSec?5End?5System?$AA@ 100bbe3c     libeay32_EM_dbg.0.9.8e:obj_dat.obj
 0002:00003e50       ??_C@_0P@MKBFMAPP@ipsecEndSystem?$AA@ 100bbe50     libeay32_EM_dbg.0.9.8e:obj_dat.obj
 0002:00003e60       ??_C@_0L@HLNNPJEH@textNotice?$AA@ 100bbe60     libeay32_EM_dbg.0.9.8e:obj_dat.obj
 0002:00003e6c       ??_C@_0BG@JCJJBMAI@sbgp?9routerIdentifier?$AA@ 100bbe6c     libeay32_EM_dbg.0.9.8e:obj_dat.obj
 0002:00003e84       ??_C@_0BG@OJEHJDKA@sbgp?9autonomousSysNum?$AA@ 100bbe84     libeay32_EM_dbg.0.9.8e:obj_dat.obj
 0002:00003e9c       ??_C@_0BB@NNCKCHBC@sbgp?9ipAddrBlock?$AA@ 100bbe9c     libeay32_EM_dbg.0.9.8e:obj_dat.obj
 0002:00003eb0       ??_C@_0L@DLGBNBJE@aaControls?$AA@ 100bbeb0     libeay32_EM_dbg.0.9.8e:obj_dat.obj
 0002:00003ebc       ??_C@_0N@FPEEOJCI@ac?9targeting?$AA@ 100bbebc     libeay32_EM_dbg.0.9.8e:obj_dat.obj
 0002:00003ecc       ??_C@_0P@CIOHPJGC@ac?9auditEntity?$AA@ 100bbecc     libeay32_EM_dbg.0.9.8e:obj_dat.obj
 0002:00003edc       ??_C@_0N@FPMNLLM@qcStatements?$AA@ 100bbedc     libeay32_EM_dbg.0.9.8e:obj_dat.obj
 0002:00003eec       ??_C@_0P@KFKDECPH@Biometric?5Info?$AA@ 100bbeec     libeay32_EM_dbg.0.9.8e:obj_dat.obj
 0002:00003efc       ??_C@_0O@MPIIPAHM@biometricInfo?$AA@ 100bbefc     libeay32_EM_dbg.0.9.8e:obj_dat.obj
 0002:00003f0c       ??_C@_0P@MMOAAMFD@id?9mod?9cmp2000?$AA@ 100bbf0c     libeay32_EM_dbg.0.9.8e:obj_dat.obj
 0002:00003f1c       ??_C@_0M@GHDGNJKI@id?9mod?9dvcs?$AA@ 100bbf1c     libeay32_EM_dbg.0.9.8e:obj_dat.obj
 0002:00003f28       ??_C@_0M@EACKLPKH@id?9mod?9ocsp?$AA@ 100bbf28     libeay32_EM_dbg.0.9.8e:obj_dat.obj
 0002:00003f34       ??_C@_0BK@GAJOODEK@id?9mod?9timestamp?9protocol?$AA@ 100bbf34     libeay32_EM_dbg.0.9.8e:obj_dat.obj
 0002:00003f50       ??_C@_0BG@EPPFBJNH@id?9mod?9attribute?9cert?$AA@ 100bbf50     libeay32_EM_dbg.0.9.8e:obj_dat.obj
 0002:00003f68       ??_C@_0BJ@IGODAJIK@id?9mod?9qualified?9cert?993?$AA@ 100bbf68     libeay32_EM_dbg.0.9.8e:obj_dat.obj
 0002:00003f84       ??_C@_0BJ@GENFLKHG@id?9mod?9qualified?9cert?988?$AA@ 100bbf84     libeay32_EM_dbg.0.9.8e:obj_dat.obj
 0002:00003fa0       ??_C@_0L@MONEHBKH@id?9mod?9cmp?$AA@ 100bbfa0     libeay32_EM_dbg.0.9.8e:obj_dat.obj
 0002:00003fac       ??_C@_0BG@NAFGGBFM@id?9mod?9kea?9profile?993?$AA@ 100bbfac     libeay32_EM_dbg.0.9.8e:obj_dat.obj
 0002:00003fc4       ??_C@_0BG@DCGANCKA@id?9mod?9kea?9profile?988?$AA@ 100bbfc4     libeay32_EM_dbg.0.9.8e:obj_dat.obj
 0002:00003fdc       ??_C@_0L@KPDLDADF@id?9mod?9cmc?$AA@ 100bbfdc     libeay32_EM_dbg.0.9.8e:obj_dat.obj
 0002:00003fe8       ??_C@_0M@GHFPFJPB@id?9mod?9crmf?$AA@ 100bbfe8     libeay32_EM_dbg.0.9.8e:obj_dat.obj
 0002:00003ff4       ??_C@_0BF@EOKAKKIK@id?9pkix1?9implicit?993?$AA@ 100bbff4     libeay32_EM_dbg.0.9.8e:obj_dat.obj
 0002:0000400c       ??_C@_0BF@JEALIPIC@id?9pkix1?9explicit?993?$AA@ 100bc00c     libeay32_EM_dbg.0.9.8e:obj_dat.obj
 0002:00004024       ??_C@_0BF@KMJGBJHG@id?9pkix1?9implicit?988?$AA@ 100bc024     libeay32_EM_dbg.0.9.8e:obj_dat.obj
 0002:0000403c       ??_C@_0BF@HGDNDMHO@id?9pkix1?9explicit?988?$AA@ 100bc03c     libeay32_EM_dbg.0.9.8e:obj_dat.obj
 0002:00004054       ??_C@_06PONIBOCI@id?9cct?$AA@ 100bc054     libeay32_EM_dbg.0.9.8e:obj_dat.obj
 0002:0000405c       ??_C@_06ELIJBHPL@id?9qcs?$AA@ 100bc05c     libeay32_EM_dbg.0.9.8e:obj_dat.obj
 0002:00004064       ??_C@_06GDGEDALH@id?9aca?$AA@ 100bc064     libeay32_EM_dbg.0.9.8e:obj_dat.obj
 0002:0000406c       ??_C@_06IOIOBGMI@id?9pda?$AA@ 100bc06c     libeay32_EM_dbg.0.9.8e:obj_dat.obj
 0002:00004074       ??_C@_05OHNJGMJE@id?9on?$AA@ 100bc074     libeay32_EM_dbg.0.9.8e:obj_dat.obj
 0002:0000407c       ??_C@_06PBMFLHLE@id?9cmc?$AA@ 100bc07c     libeay32_EM_dbg.0.9.8e:obj_dat.obj
 0002:00004084       ??_C@_06DOGCNAAM@id?9alg?$AA@ 100bc084     libeay32_EM_dbg.0.9.8e:obj_dat.obj
 0002:0000408c       ??_C@_07OMHOPMIM@id?9pkip?$AA@ 100bc08c     libeay32_EM_dbg.0.9.8e:obj_dat.obj
 0002:00004094       ??_C@_05FDHJOKPN@id?9it?$AA@ 100bc094     libeay32_EM_dbg.0.9.8e:obj_dat.obj
 0002:0000409c       ??_C@_05EBEMBIDF@id?9qt?$AA@ 100bc09c     libeay32_EM_dbg.0.9.8e:obj_dat.obj
 0002:000040a4       ??_C@_0M@FNAFBNKE@id?9pkix?9mod?$AA@ 100bc0a4     libeay32_EM_dbg.0.9.8e:obj_dat.obj
 0002:000040b0       ??_C@_03ODADJPDG@md4?$AA@  100bc0b0     libeay32_EM_dbg.0.9.8e:obj_dat.obj
 0002:000040b4       ??_C@_03HLHMHGOI@MD4?$AA@  100bc0b4     libeay32_EM_dbg.0.9.8e:obj_dat.obj
 0002:000040b8       ??_C@_0CB@MICJDGGH@id?9smime?9cti?9ets?9proofOfCreation@ 100bc0b8     libeay32_EM_dbg.0.9.8e:obj_dat.obj
 0002:000040dc       ??_C@_0CB@DDLMHEBC@id?9smime?9cti?9ets?9proofOfApproval@ 100bc0dc     libeay32_EM_dbg.0.9.8e:obj_dat.obj
 0002:00004100       ??_C@_0BP@ODCAFFCM@id?9smime?9cti?9ets?9proofOfSender?$AA@ 100bc100     libeay32_EM_dbg.0.9.8e:obj_dat.obj
 0002:00004120       ??_C@_0CB@ICJGPMEP@id?9smime?9cti?9ets?9proofOfDelivery@ 100bc120     libeay32_EM_dbg.0.9.8e:obj_dat.obj
 0002:00004144       ??_C@_0CA@HNGOKBGC@id?9smime?9cti?9ets?9proofOfReceipt?$AA@ 100bc144     libeay32_EM_dbg.0.9.8e:obj_dat.obj
 0002:00004164       ??_C@_0BP@BCHFEGHC@id?9smime?9cti?9ets?9proofOfOrigin?$AA@ 100bc164     libeay32_EM_dbg.0.9.8e:obj_dat.obj
 0002:00004184       ??_C@_0BN@GPAAHNOH@id?9smime?9spq?9ets?9sqt?9unotice?$AA@ 100bc184     libeay32_EM_dbg.0.9.8e:obj_dat.obj
 0002:000041a4       ??_C@_0BJ@IMNKDGEG@id?9smime?9spq?9ets?9sqt?9uri?$AA@ 100bc1a4     libeay32_EM_dbg.0.9.8e:obj_dat.obj
 0002:000041c0       ??_C@_0BB@BMOBKAGE@id?9smime?9cd?9ldap?$AA@ 100bc1c0     libeay32_EM_dbg.0.9.8e:obj_dat.obj
 0002:000041d4       ??_C@_0BI@FIFDKKFJ@id?9smime?9alg?9CMSRC2wrap?$AA@ 100bc1d4     libeay32_EM_dbg.0.9.8e:obj_dat.obj
 0002:000041ec       ??_C@_0BJ@FOFHEIDB@id?9smime?9alg?9CMS3DESwrap?$AA@ 100bc1ec     libeay32_EM_dbg.0.9.8e:obj_dat.obj
 0002:00004208       ??_C@_0BC@COOODKPD@id?9smime?9alg?9ESDH?$AA@ 100bc208     libeay32_EM_dbg.0.9.8e:obj_dat.obj
 0002:0000421c       ??_C@_0BF@JNCPAJCA@id?9smime?9alg?9RC2wrap?$AA@ 100bc21c     libeay32_EM_dbg.0.9.8e:obj_dat.obj
 0002:00004234       ??_C@_0BG@HHELPNAK@id?9smime?9alg?93DESwrap?$AA@ 100bc234     libeay32_EM_dbg.0.9.8e:obj_dat.obj
 0002:0000424c       ??_C@_0BJ@FIJMOHBJ@id?9smime?9alg?9ESDHwithRC2?$AA@ 100bc24c     libeay32_EM_dbg.0.9.8e:obj_dat.obj
 0002:00004268       ??_C@_0BK@JNJOCCCB@id?9smime?9alg?9ESDHwith3DES?$AA@ 100bc268     libeay32_EM_dbg.0.9.8e:obj_dat.obj
 0002:00004284       ??_C@_0BF@KEMAMBKF@id?9smime?9aa?9dvcs?9dvc?$AA@ 100bc284     libeay32_EM_dbg.0.9.8e:obj_dat.obj
 0002:0000429c       ??_C@_0BK@HDBIPLFI@id?9smime?9aa?9signatureType?$AA@ 100bc29c     libeay32_EM_dbg.0.9.8e:obj_dat.obj
 0002:000042b8       ??_C@_0CB@BEMKNJGO@id?9smime?9aa?9ets?9archiveTimeStamp@ 100bc2b8     libeay32_EM_dbg.0.9.8e:obj_dat.obj
 0002:000042dc       ??_C@_0CB@CJNBPJE@id?9smime?9aa?9ets?9certCRLTimestamp@ 100bc2dc     libeay32_EM_dbg.0.9.8e:obj_dat.obj
 0002:00004300       ??_C@_0BN@HGLOGOFI@id?9smime?9aa?9ets?9escTimeStamp?$AA@ 100bc300     libeay32_EM_dbg.0.9.8e:obj_dat.obj
 0002:00004320       ??_C@_0CB@GOCEFPFO@id?9smime?9aa?9ets?9revocationValues@ 100bc320     libeay32_EM_dbg.0.9.8e:obj_dat.obj
 0002:00004344       ??_C@_0BL@IFKOLDIG@id?9smime?9aa?9ets?9certValues?$AA@ 100bc344     libeay32_EM_dbg.0.9.8e:obj_dat.obj
 0002:00004360       ??_C@_0BP@BCHJHNFO@id?9smime?9aa?9ets?9RevocationRefs?$AA@ 100bc360     libeay32_EM_dbg.0.9.8e:obj_dat.obj
 0002:00004380       ??_C@_0CA@NKIOCHLG@id?9smime?9aa?9ets?9CertificateRefs?$AA@ 100bc380     libeay32_EM_dbg.0.9.8e:obj_dat.obj
 0002:000043a0       ??_C@_0CB@GHKINGOH@id?9smime?9aa?9ets?9contentTimestamp@ 100bc3a0     libeay32_EM_dbg.0.9.8e:obj_dat.obj
 0002:000043c4       ??_C@_0BN@JFIFOPBH@id?9smime?9aa?9ets?9otherSigCert?$AA@ 100bc3c4     libeay32_EM_dbg.0.9.8e:obj_dat.obj
 0002:000043e4       ??_C@_0BL@KDJDAGDC@id?9smime?9aa?9ets?9signerAttr?$AA@ 100bc3e4     libeay32_EM_dbg.0.9.8e:obj_dat.obj
 0002:00004400       ??_C@_0BP@EODAELPO@id?9smime?9aa?9ets?9signerLocation?$AA@ 100bc400     libeay32_EM_dbg.0.9.8e:obj_dat.obj
 0002:00004420       ??_C@_0BP@OLIFPEIM@id?9smime?9aa?9ets?9commitmentType?$AA@ 100bc420     libeay32_EM_dbg.0.9.8e:obj_dat.obj
 0002:00004440       ??_C@_0BM@GKFMJCFL@id?9smime?9aa?9ets?9sigPolicyId?$AA@ 100bc440     libeay32_EM_dbg.0.9.8e:obj_dat.obj
 0002:0000445c       ??_C@_0BL@DHJOIJNE@id?9smime?9aa?9timeStampToken?$AA@ 100bc45c     libeay32_EM_dbg.0.9.8e:obj_dat.obj
 0002:00004478       ??_C@_0BO@CEEOANBD@id?9smime?9aa?9smimeEncryptCerts?$AA@ 100bc478     libeay32_EM_dbg.0.9.8e:obj_dat.obj
 0002:00004498       ??_C@_0BP@LHGJLGIB@id?9smime?9aa?9signingCertificate?$AA@ 100bc498     libeay32_EM_dbg.0.9.8e:obj_dat.obj
 0002:000044b8       ??_C@_0BK@LAPEFMP@id?9smime?9aa?9encrypKeyPref?$AA@ 100bc4b8     libeay32_EM_dbg.0.9.8e:obj_dat.obj
 0002:000044d4       ??_C@_0BN@LEFAEFL@id?9smime?9aa?9contentReference?$AA@ 100bc4d4     libeay32_EM_dbg.0.9.8e:obj_dat.obj
 0002:000044f4       ??_C@_0BN@NFAAOKEA@id?9smime?9aa?9equivalentLabels?$AA@ 100bc4f4     libeay32_EM_dbg.0.9.8e:obj_dat.obj
 0002:00004514       ??_C@_0BF@CFNHFPDB@id?9smime?9aa?9macValue?$AA@ 100bc514     libeay32_EM_dbg.0.9.8e:obj_dat.obj
 0002:0000452c       ??_C@_0BO@KMJGIAMK@id?9smime?9aa?9contentIdentifier?$AA@ 100bc52c     libeay32_EM_dbg.0.9.8e:obj_dat.obj
 0002:0000454c       ??_C@_0BN@GCCNOJCG@id?9smime?9aa?9encapContentType?$AA@ 100bc54c     libeay32_EM_dbg.0.9.8e:obj_dat.obj
 0002:0000456c       ??_C@_0BJ@LJLDKMDH@id?9smime?9aa?9msgSigDigest?$AA@ 100bc56c     libeay32_EM_dbg.0.9.8e:obj_dat.obj
 0002:00004588       ??_C@_0BI@EMGPJFHB@id?9smime?9aa?9contentHint?$AA@ 100bc588     libeay32_EM_dbg.0.9.8e:obj_dat.obj
 0002:000045a0       ??_C@_0BM@OEKGBMLE@id?9smime?9aa?9mlExpandHistory?$AA@ 100bc5a0     libeay32_EM_dbg.0.9.8e:obj_dat.obj
 0002:000045bc       ??_C@_0BK@DNJNJILO@id?9smime?9aa?9securityLabel?$AA@ 100bc5bc     libeay32_EM_dbg.0.9.8e:obj_dat.obj
 0002:000045d8       ??_C@_0BL@LMGNMPFD@id?9smime?9aa?9receiptRequest?$AA@ 100bc5d8     libeay32_EM_dbg.0.9.8e:obj_dat.obj
 0002:000045f4       ??_C@_0BN@POKJLKJJ@id?9smime?9ct?9DVCSResponseData?$AA@ 100bc5f4     libeay32_EM_dbg.0.9.8e:obj_dat.obj
 0002:00004614       ??_C@_0BM@MFKPCEGN@id?9smime?9ct?9DVCSRequestData?$AA@ 100bc614     libeay32_EM_dbg.0.9.8e:obj_dat.obj
 0002:00004630       ??_C@_0BI@BGKPNMK@id?9smime?9ct?9contentInfo?$AA@ 100bc630     libeay32_EM_dbg.0.9.8e:obj_dat.obj
 0002:00004648       ??_C@_0BE@FKPPBHI@id?9smime?9ct?9TDTInfo?$AA@ 100bc648     libeay32_EM_dbg.0.9.8e:obj_dat.obj
 0002:0000465c       ??_C@_0BE@KHNGFDDI@id?9smime?9ct?9TSTInfo?$AA@ 100bc65c     libeay32_EM_dbg.0.9.8e:obj_dat.obj
 0002:00004670       ??_C@_0BI@DBILCLFJ@id?9smime?9ct?9publishCert?$AA@ 100bc670     libeay32_EM_dbg.0.9.8e:obj_dat.obj
 0002:00004688       ??_C@_0BF@KGEHGOF@id?9smime?9ct?9authData?$AA@ 100bc688     libeay32_EM_dbg.0.9.8e:obj_dat.obj
 0002:000046a0       ??_C@_0BE@GCHIHBHA@id?9smime?9ct?9receipt?$AA@ 100bc6a0     libeay32_EM_dbg.0.9.8e:obj_dat.obj
 0002:000046b4       ??_C@_0BP@CCCOHHAI@id?9smime?9mod?9ets?9eSigPolicy?997?$AA@ 100bc6b4     libeay32_EM_dbg.0.9.8e:obj_dat.obj
 0002:000046d4       ??_C@_0BP@KEHEABPA@id?9smime?9mod?9ets?9eSigPolicy?988?$AA@ 100bc6d4     libeay32_EM_dbg.0.9.8e:obj_dat.obj
 0002:000046f4       ??_C@_0BP@POGMGJII@id?9smime?9mod?9ets?9eSignature?997?$AA@ 100bc6f4     libeay32_EM_dbg.0.9.8e:obj_dat.obj
 0002:00004714       ??_C@_0BP@HIDGBPHA@id?9smime?9mod?9ets?9eSignature?988?$AA@ 100bc714     libeay32_EM_dbg.0.9.8e:obj_dat.obj
 0002:00004734       ??_C@_0BE@PEENABNJ@id?9smime?9mod?9msg?9v3?$AA@ 100bc734     libeay32_EM_dbg.0.9.8e:obj_dat.obj
 0002:00004748       ??_C@_0BB@LBBEMNBN@id?9smime?9mod?9oid?$AA@ 100bc748     libeay32_EM_dbg.0.9.8e:obj_dat.obj
 0002:0000475c       ??_C@_0BB@MKJLIPEJ@id?9smime?9mod?9ess?$AA@ 100bc75c     libeay32_EM_dbg.0.9.8e:obj_dat.obj
 0002:00004770       ??_C@_0BB@PJEIFOOP@id?9smime?9mod?9cms?$AA@ 100bc770     libeay32_EM_dbg.0.9.8e:obj_dat.obj
 0002:00004784       ??_C@_0N@CFBKAPGC@id?9smime?9cti?$AA@ 100bc784     libeay32_EM_dbg.0.9.8e:obj_dat.obj
 0002:00004794       ??_C@_0N@PABBGIHI@id?9smime?9spq?$AA@ 100bc794     libeay32_EM_dbg.0.9.8e:obj_dat.obj
 0002:000047a4       ??_C@_0M@LHBAJBP@id?9smime?9cd?$AA@ 100bc7a4     libeay32_EM_dbg.0.9.8e:obj_dat.obj
 0002:000047b0       ??_C@_0N@DKFBIKP@id?9smime?9alg?$AA@ 100bc7b0     libeay32_EM_dbg.0.9.8e:obj_dat.obj
 0002:000047c0       ??_C@_0M@HFICCJDE@id?9smime?9aa?$AA@ 100bc7c0     libeay32_EM_dbg.0.9.8e:obj_dat.obj
 0002:000047cc       ??_C@_0M@EBLDBLEO@id?9smime?9ct?$AA@ 100bc7cc     libeay32_EM_dbg.0.9.8e:obj_dat.obj
 0002:000047d8       ??_C@_0N@GABIEKIN@id?9smime?9mod?$AA@ 100bc7d8     libeay32_EM_dbg.0.9.8e:obj_dat.obj
 0002:000047e8       ??_C@_06DFGHEKNE@S?1MIME?$AA@ 100bc7e8     libeay32_EM_dbg.0.9.8e:obj_dat.obj
 0002:000047f0       ??_C@_05HHBEAKJJ@SMIME?$AA@ 100bc7f0     libeay32_EM_dbg.0.9.8e:obj_dat.obj
 0002:000047f8       ??_C@_05HGOIFJJD@pkcs5?$AA@ 100bc7f8     libeay32_EM_dbg.0.9.8e:obj_dat.obj
 0002:00004800       ??_C@_05BCIEJMJH@pkcs1?$AA@ 100bc800     libeay32_EM_dbg.0.9.8e:obj_dat.obj
 0002:00004808       ??_C@_0L@DJCLIPOH@X9?457?5CM?5?$DP?$AA@ 100bc808     libeay32_EM_dbg.0.9.8e:obj_dat.obj
 0002:00004814       ??_C@_04CGFPFLFA@X9cm?$AA@ 100bc814     libeay32_EM_dbg.0.9.8e:obj_dat.obj
 0002:0000481c       ??_C@_05PAJLFBHD@X9?457?$AA@ 100bc81c     libeay32_EM_dbg.0.9.8e:obj_dat.obj
 0002:00004824       ??_C@_05OCCOPOJN@X9?957?$AA@ 100bc824     libeay32_EM_dbg.0.9.8e:obj_dat.obj
 0002:0000482c       ??_C@_0BD@NMCDOJHL@ISO?5US?5Member?5Body?$AA@ 100bc82c     libeay32_EM_dbg.0.9.8e:obj_dat.obj
 0002:00004840       ??_C@_06EKAADAMF@ISO?9US?$AA@ 100bc840     libeay32_EM_dbg.0.9.8e:obj_dat.obj
 0002:00004848       ??_C@_0BA@BGDAEHGF@ISO?5Member?5Body?$AA@ 100bc848     libeay32_EM_dbg.0.9.8e:obj_dat.obj
 0002:00004858       ??_C@_0M@CMICFDOA@member?9body?$AA@ 100bc858     libeay32_EM_dbg.0.9.8e:obj_dat.obj
 0002:00004864       ??_C@_03CMEHDJAL@iso?$AA@  100bc864     libeay32_EM_dbg.0.9.8e:obj_dat.obj
 0002:00004868       ??_C@_03CBLMPEHH@ISO?$AA@  100bc868     libeay32_EM_dbg.0.9.8e:obj_dat.obj
 0002:0000486c       ??_C@_0N@CPJNIPDD@OCSP?5Signing?$AA@ 100bc86c     libeay32_EM_dbg.0.9.8e:obj_dat.obj
 0002:0000487c       ??_C@_0M@HBKJLKNM@OCSPSigning?$AA@ 100bc87c     libeay32_EM_dbg.0.9.8e:obj_dat.obj
 0002:00004888       ??_C@_0L@CABCENFK@CA?5Issuers?$AA@ 100bc888     libeay32_EM_dbg.0.9.8e:obj_dat.obj
 0002:00004894       ??_C@_09GFPECPIH@caIssuers?$AA@ 100bc894     libeay32_EM_dbg.0.9.8e:obj_dat.obj
 0002:000048a0       ??_C@_04LOJOPNBE@OCSP?$AA@ 100bc8a0     libeay32_EM_dbg.0.9.8e:obj_dat.obj
 0002:000048a8       ??_C@_0BN@EILCOJAN@Authority?5Information?5Access?$AA@ 100bc8a8     libeay32_EM_dbg.0.9.8e:obj_dat.obj
 0002:000048c8       ??_C@_0BE@PLCGCINM@authorityInfoAccess?$AA@ 100bc8c8     libeay32_EM_dbg.0.9.8e:obj_dat.obj
 0002:000048dc       ??_C@_05BHKIKJBE@id?9ad?$AA@ 100bc8dc     libeay32_EM_dbg.0.9.8e:obj_dat.obj
 0002:000048e4       ??_C@_05BDFHFBBC@id?9pe?$AA@ 100bc8e4     libeay32_EM_dbg.0.9.8e:obj_dat.obj
 0002:000048ec       ??_C@_0M@DNNLEIMI@dnQualifier?$AA@ 100bc8ec     libeay32_EM_dbg.0.9.8e:obj_dat.obj
 0002:000048f8       ??_C@_04MEMAJGDJ@name?$AA@ 100bc8f8     libeay32_EM_dbg.0.9.8e:obj_dat.obj
 0002:00004900       ??_C@_0BC@GLHEKHCC@Extension?5Request?$AA@ 100bc900     libeay32_EM_dbg.0.9.8e:obj_dat.obj
 0002:00004914       ??_C@_06EJACAMDF@extReq?$AA@ 100bc914     libeay32_EM_dbg.0.9.8e:obj_dat.obj
 0002:0000491c       ??_C@_0BM@MEJAMAEO@Microsoft?5Extension?5Request?$AA@ 100bc91c     libeay32_EM_dbg.0.9.8e:obj_dat.obj
 0002:00004938       ??_C@_08HCCJAOPJ@msExtReq?$AA@ 100bc938     libeay32_EM_dbg.0.9.8e:obj_dat.obj
 0002:00004944       ??_C@_0BG@JLHBEJLP@pbeWithSHA1AndDES?9CBC?$AA@ 100bc944     libeay32_EM_dbg.0.9.8e:obj_dat.obj
 0002:0000495c       ??_C@_0N@GOPIPBOD@PBE?9SHA1?9DES?$AA@ 100bc95c     libeay32_EM_dbg.0.9.8e:obj_dat.obj
 0002:0000496c       ??_C@_0BF@CKDLCJKD@pbeWithMD5AndRC2?9CBC?$AA@ 100bc96c     libeay32_EM_dbg.0.9.8e:obj_dat.obj
 0002:00004984       ??_C@_0P@IDPFKEHM@PBE?9MD5?9RC2?964?$AA@ 100bc984     libeay32_EM_dbg.0.9.8e:obj_dat.obj
 0002:00004994       ??_C@_0BF@FOKDMACM@pbeWithMD2AndRC2?9CBC?$AA@ 100bc994     libeay32_EM_dbg.0.9.8e:obj_dat.obj
 0002:000049ac       ??_C@_0P@OHJEMJLF@PBE?9MD2?9RC2?964?$AA@ 100bc9ac     libeay32_EM_dbg.0.9.8e:obj_dat.obj
 0002:000049bc       ??_C@_0BE@CEEFMCAI@S?1MIME?5Capabilities?$AA@ 100bc9bc     libeay32_EM_dbg.0.9.8e:obj_dat.obj
 0002:000049d0       ??_C@_0L@LCBJGKJG@SMIME?9CAPS?$AA@ 100bc9d0     libeay32_EM_dbg.0.9.8e:obj_dat.obj
 0002:000049dc       ??_C@_0L@CLELMECA@rc2?964?9cbc?$AA@ 100bc9dc     libeay32_EM_dbg.0.9.8e:obj_dat.obj
 0002:000049e8       ??_C@_0L@OPHBIFFL@RC2?964?9CBC?$AA@ 100bc9e8     libeay32_EM_dbg.0.9.8e:obj_dat.obj
 0002:000049f4       ??_C@_0BN@KPMBKEE@Policy?5Qualifier?5User?5Notice?$AA@ 100bc9f4     libeay32_EM_dbg.0.9.8e:obj_dat.obj
 0002:00004a14       ??_C@_0O@CJFHFAHE@id?9qt?9unotice?$AA@ 100bca14     libeay32_EM_dbg.0.9.8e:obj_dat.obj
 0002:00004a24       ??_C@_0BF@HPKIKKPI@Policy?5Qualifier?5CPS?$AA@ 100bca24     libeay32_EM_dbg.0.9.8e:obj_dat.obj
 0002:00004a3c       ??_C@_09MIPGHKGJ@id?9qt?9cps?$AA@ 100bca3c     libeay32_EM_dbg.0.9.8e:obj_dat.obj
 0002:00004a48       ??_C@_0N@KANOAIP@hmacWithSHA1?$AA@ 100bca48     libeay32_EM_dbg.0.9.8e:obj_dat.obj
 0002:00004a58       ??_C@_06DEJMPFNK@PBMAC1?$AA@ 100bca58     libeay32_EM_dbg.0.9.8e:obj_dat.obj
 0002:00004a60       ??_C@_05EPMADBBF@PBES2?$AA@ 100bca60     libeay32_EM_dbg.0.9.8e:obj_dat.obj
 0002:00004a68       ??_C@_07KAOEJCFK@x509Crl?$AA@ 100bca68     libeay32_EM_dbg.0.9.8e:obj_dat.obj
 0002:00004a70       ??_C@_0BA@BFAOBDKH@sdsiCertificate?$AA@ 100bca70     libeay32_EM_dbg.0.9.8e:obj_dat.obj
 0002:00004a80       ??_C@_0BA@EMOFOCJL@x509Certificate?$AA@ 100bca80     libeay32_EM_dbg.0.9.8e:obj_dat.obj
 0002:00004a90       ??_C@_0L@BCMHPPAO@localKeyID?$AA@ 100bca90     libeay32_EM_dbg.0.9.8e:obj_dat.obj
 0002:00004a9c       ??_C@_0N@BGFMPLCM@friendlyName?$AA@ 100bca9c     libeay32_EM_dbg.0.9.8e:obj_dat.obj
 0002:00004aac       ??_C@_0BA@KAKLKBBC@safeContentsBag?$AA@ 100bcaac     libeay32_EM_dbg.0.9.8e:obj_dat.obj
 0002:00004abc       ??_C@_09DELDBPIE@secretBag?$AA@ 100bcabc     libeay32_EM_dbg.0.9.8e:obj_dat.obj
 0002:00004ac8       ??_C@_06JAFBIMLO@crlBag?$AA@ 100bcac8     libeay32_EM_dbg.0.9.8e:obj_dat.obj
 0002:00004ad0       ??_C@_07FDLMCII@certBag?$AA@ 100bcad0     libeay32_EM_dbg.0.9.8e:obj_dat.obj
 0002:00004ad8       ??_C@_0BE@ELJKIANF@pkcs8ShroudedKeyBag?$AA@ 100bcad8     libeay32_EM_dbg.0.9.8e:obj_dat.obj
 0002:00004aec       ??_C@_06BFGNOIAI@keyBag?$AA@ 100bcaec     libeay32_EM_dbg.0.9.8e:obj_dat.obj
 0002:00004af4       ??_C@_0BL@CKNKIMON@pbeWithSHA1And40BitRC2?9CBC?$AA@ 100bcaf4     libeay32_EM_dbg.0.9.8e:obj_dat.obj
 0002:00004b10       ??_C@_0BA@MNBMNMAN@PBE?9SHA1?9RC2?940?$AA@ 100bcb10     libeay32_EM_dbg.0.9.8e:obj_dat.obj
 0002:00004b20       ??_C@_0BM@DOLDINME@pbeWithSHA1And128BitRC2?9CBC?$AA@ 100bcb20     libeay32_EM_dbg.0.9.8e:obj_dat.obj
 0002:00004b3c       ??_C@_0BB@FNLJPIMG@PBE?9SHA1?9RC2?9128?$AA@ 100bcb3c     libeay32_EM_dbg.0.9.8e:obj_dat.obj
 0002:00004b50       ??_C@_0CB@NCMPKEGH@pbeWithSHA1And2?9KeyTripleDES?9CBC@ 100bcb50     libeay32_EM_dbg.0.9.8e:obj_dat.obj
 0002:00004b74       ??_C@_0O@HOHOOIGM@PBE?9SHA1?92DES?$AA@ 100bcb74     libeay32_EM_dbg.0.9.8e:obj_dat.obj
 0002:00004b84       ??_C@_0CB@FCNCEDP@pbeWithSHA1And3?9KeyTripleDES?9CBC@ 100bcb84     libeay32_EM_dbg.0.9.8e:obj_dat.obj
 0002:00004ba8       ??_C@_0O@EDBOMBNM@PBE?9SHA1?93DES?$AA@ 100bcba8     libeay32_EM_dbg.0.9.8e:obj_dat.obj
 0002:00004bb8       ??_C@_0BH@OCAEJMIL@pbeWithSHA1And40BitRC4?$AA@ 100bcbb8     libeay32_EM_dbg.0.9.8e:obj_dat.obj
 0002:00004bd0       ??_C@_0BA@ECFMCJKN@PBE?9SHA1?9RC4?940?$AA@ 100bcbd0     libeay32_EM_dbg.0.9.8e:obj_dat.obj
 0002:00004be0       ??_C@_0BI@LBIFCLPB@pbeWithSHA1And128BitRC4?$AA@ 100bcbe0     libeay32_EM_dbg.0.9.8e:obj_dat.obj
 0002:00004bf8       ??_C@_0BB@ILOABLNL@PBE?9SHA1?9RC4?9128?$AA@ 100bcbf8     libeay32_EM_dbg.0.9.8e:obj_dat.obj
 0002:00004c0c       ??_C@_0BD@PNDCMCDK@Strong?5Extranet?5ID?$AA@ 100bcc0c     libeay32_EM_dbg.0.9.8e:obj_dat.obj
 0002:00004c20       ??_C@_07DKMNOLMH@SXNetID?$AA@ 100bcc20     libeay32_EM_dbg.0.9.8e:obj_dat.obj
 0002:00004c28       ??_C@_0BA@JDBEMONE@Invalidity?5Date?$AA@ 100bcc28     libeay32_EM_dbg.0.9.8e:obj_dat.obj
 0002:00004c38       ??_C@_0P@BKEGCOMO@invalidityDate?$AA@ 100bcc38     libeay32_EM_dbg.0.9.8e:obj_dat.obj
 0002:00004c48       ??_C@_0BH@GODIEFKG@X509v3?5CRL?5Reason?5Code?$AA@ 100bcc48     libeay32_EM_dbg.0.9.8e:obj_dat.obj
 0002:00004c60       ??_C@_09MCDAGILE@CRLReason?$AA@ 100bcc60     libeay32_EM_dbg.0.9.8e:obj_dat.obj
 0002:00004c6c       ??_C@_0BL@HLNLPBHP@X509v3?5Delta?5CRL?5Indicator?$AA@ 100bcc6c     libeay32_EM_dbg.0.9.8e:obj_dat.obj
 0002:00004c88       ??_C@_08ECNAKPJJ@deltaCRL?$AA@ 100bcc88     libeay32_EM_dbg.0.9.8e:obj_dat.obj
 0002:00004c94       ??_C@_0BN@MDNLHLBL@Netscape?5Server?5Gated?5Crypto?$AA@ 100bcc94     libeay32_EM_dbg.0.9.8e:obj_dat.obj
 0002:00004cb4       ??_C@_05LFIIINKG@nsSGC?$AA@ 100bccb4     libeay32_EM_dbg.0.9.8e:obj_dat.obj
 0002:00004cbc       ??_C@_0CA@IJODBCMB@Microsoft?5Encrypted?5File?5System?$AA@ 100bccbc     libeay32_EM_dbg.0.9.8e:obj_dat.obj
 0002:00004cdc       ??_C@_05NGOIPCN@msEFS?$AA@ 100bccdc     libeay32_EM_dbg.0.9.8e:obj_dat.obj
 0002:00004ce4       ??_C@_0BO@FBDDCLK@Microsoft?5Server?5Gated?5Crypto?$AA@ 100bcce4     libeay32_EM_dbg.0.9.8e:obj_dat.obj
 0002:00004d04       ??_C@_05DDBMPPAI@msSGC?$AA@ 100bcd04     libeay32_EM_dbg.0.9.8e:obj_dat.obj
 0002:00004d0c       ??_C@_0BN@GNMCHNOI@Microsoft?5Trust?5List?5Signing?$AA@ 100bcd0c     libeay32_EM_dbg.0.9.8e:obj_dat.obj
 0002:00004d2c       ??_C@_09HGCLLDPK@msCTLSign?$AA@ 100bcd2c     libeay32_EM_dbg.0.9.8e:obj_dat.obj
 0002:00004d38       ??_C@_0CC@GKFNEBFA@Microsoft?5Commercial?5Code?5Signin@ 100bcd38     libeay32_EM_dbg.0.9.8e:obj_dat.obj
 0002:00004d5c       ??_C@_09PDGAMFAO@msCodeCom?$AA@ 100bcd5c     libeay32_EM_dbg.0.9.8e:obj_dat.obj
 0002:00004d68       ??_C@_0CC@NDDHKAMP@Microsoft?5Individual?5Code?5Signin@ 100bcd68     libeay32_EM_dbg.0.9.8e:obj_dat.obj
 0002:00004d8c       ??_C@_09EMNNPEBE@msCodeInd?$AA@ 100bcd8c     libeay32_EM_dbg.0.9.8e:obj_dat.obj
 0002:00004d98       ??_C@_0O@GMMBLMEE@Time?5Stamping?$AA@ 100bcd98     libeay32_EM_dbg.0.9.8e:obj_dat.obj
 0002:00004da8       ??_C@_0N@LONEBHPN@timeStamping?$AA@ 100bcda8     libeay32_EM_dbg.0.9.8e:obj_dat.obj
 0002:00004db8       ??_C@_0BC@BLBGFKKG@E?9mail?5Protection?$AA@ 100bcdb8     libeay32_EM_dbg.0.9.8e:obj_dat.obj
 0002:00004dcc       ??_C@_0BA@NPCFDPCO@emailProtection?$AA@ 100bcdcc     libeay32_EM_dbg.0.9.8e:obj_dat.obj
 0002:00004ddc       ??_C@_0N@CHJHLHFC@Code?5Signing?$AA@ 100bcddc     libeay32_EM_dbg.0.9.8e:obj_dat.obj
 0002:00004dec       ??_C@_0M@OJNCNGJ@codeSigning?$AA@ 100bcdec     libeay32_EM_dbg.0.9.8e:obj_dat.obj
 0002:00004df8       ??_C@_0BO@FEMCBEOF@TLS?5Web?5Client?5Authentication?$AA@ 100bcdf8     libeay32_EM_dbg.0.9.8e:obj_dat.obj
 0002:00004e18       ??_C@_0L@HCMKLLOP@clientAuth?$AA@ 100bce18     libeay32_EM_dbg.0.9.8e:obj_dat.obj
 0002:00004e24       ??_C@_0BO@HPFOJNNE@TLS?5Web?5Server?5Authentication?$AA@ 100bce24     libeay32_EM_dbg.0.9.8e:obj_dat.obj
 0002:00004e44       ??_C@_0L@CINGAJGN@serverAuth?$AA@ 100bce44     libeay32_EM_dbg.0.9.8e:obj_dat.obj
 0002:00004e50       ??_C@_05DEJBPLJH@id?9kp?$AA@ 100bce50     libeay32_EM_dbg.0.9.8e:obj_dat.obj
 0002:00004e58       ??_C@_04EAPCHJAG@PKIX?$AA@ 100bce58     libeay32_EM_dbg.0.9.8e:obj_dat.obj
 0002:00004e60       ??_C@_0BK@KFMGFBEG@X509v3?5Extended?5Key?5Usage?$AA@ 100bce60     libeay32_EM_dbg.0.9.8e:obj_dat.obj
 0002:00004e7c       ??_C@_0BB@KGNEOBKL@zlib?5compression?$AA@ 100bce7c     libeay32_EM_dbg.0.9.8e:obj_dat.obj
 0002:00004e90       ??_C@_04CHLIKDMF@ZLIB?$AA@ 100bce90     libeay32_EM_dbg.0.9.8e:obj_dat.obj
 0002:00004e98       ??_C@_0BH@CAEIMNHD@run?5length?5compression?$AA@ 100bce98     libeay32_EM_dbg.0.9.8e:obj_dat.obj
 0002:00004eb0       ??_C@_03ELDBCICO@RLE?$AA@  100bceb0     libeay32_EM_dbg.0.9.8e:obj_dat.obj
 0002:00004eb4       ??_C@_07NLMEMEEK@rc5?9ofb?$AA@ 100bceb4     libeay32_EM_dbg.0.9.8e:obj_dat.obj
 0002:00004ebc       ??_C@_07OAPEFCPM@RC5?9OFB?$AA@ 100bcebc     libeay32_EM_dbg.0.9.8e:obj_dat.obj
 0002:00004ec4       ??_C@_07JBBCHLPC@rc5?9cfb?$AA@ 100bcec4     libeay32_EM_dbg.0.9.8e:obj_dat.obj
 0002:00004ecc       ??_C@_07KKCCONEE@RC5?9CFB?$AA@ 100bcecc     libeay32_EM_dbg.0.9.8e:obj_dat.obj
 0002:00004ed4       ??_C@_07LCLCOGMF@rc5?9ecb?$AA@ 100bced4     libeay32_EM_dbg.0.9.8e:obj_dat.obj
 0002:00004edc       ??_C@_07IJICHAHD@RC5?9ECB?$AA@ 100bcedc     libeay32_EM_dbg.0.9.8e:obj_dat.obj
 0002:00004ee4       ??_C@_07IPAAOCGP@rc5?9cbc?$AA@ 100bcee4     libeay32_EM_dbg.0.9.8e:obj_dat.obj
 0002:00004eec       ??_C@_07LEDAHENJ@RC5?9CBC?$AA@ 100bceec     libeay32_EM_dbg.0.9.8e:obj_dat.obj
 0002:00004ef4       ??_C@_0BB@DCJDAKFH@ripemd160WithRSA?$AA@ 100bcef4     libeay32_EM_dbg.0.9.8e:obj_dat.obj
 0002:00004f08       ??_C@_0O@JPOIHGOH@RSA?9RIPEMD160?$AA@ 100bcf08     libeay32_EM_dbg.0.9.8e:obj_dat.obj
 0002:00004f18       ??_C@_09EDIPKBN@ripemd160?$AA@ 100bcf18     libeay32_EM_dbg.0.9.8e:obj_dat.obj
 0002:00004f24       ??_C@_09DJDCAKJG@RIPEMD160?$AA@ 100bcf24     libeay32_EM_dbg.0.9.8e:obj_dat.obj
 0002:00004f30       ??_C@_0O@GMANLAEO@dsaEncryption?$AA@ 100bcf30     libeay32_EM_dbg.0.9.8e:obj_dat.obj
 0002:00004f40       ??_C@_03ENFFABCE@DSA?$AA@  100bcf40     libeay32_EM_dbg.0.9.8e:obj_dat.obj
 0002:00004f44       ??_C@_0M@KECGAPAA@sha1WithRSA?$AA@ 100bcf44     libeay32_EM_dbg.0.9.8e:obj_dat.obj
 0002:00004f50       ??_C@_0L@EMMEGDKK@RSA?9SHA1?92?$AA@ 100bcf50     libeay32_EM_dbg.0.9.8e:obj_dat.obj
 0002:00004f5c       ??_C@_08GOLKFMKI@md5?9sha1?$AA@ 100bcf5c     libeay32_EM_dbg.0.9.8e:obj_dat.obj
 0002:00004f68       ??_C@_08EMIDHKIH@MD5?9SHA1?$AA@ 100bcf68     libeay32_EM_dbg.0.9.8e:obj_dat.obj
 0002:00004f74       ??_C@_0M@EFJKPOPH@dsaWithSHA1?$AA@ 100bcf74     libeay32_EM_dbg.0.9.8e:obj_dat.obj
 0002:00004f80       ??_C@_08IOHJAANG@DSA?9SHA1?$AA@ 100bcf80     libeay32_EM_dbg.0.9.8e:obj_dat.obj
 0002:00004f8c       ??_C@_0BG@JCFINJGL@pbeWithMD5AndCast5CBC?$AA@ 100bcf8c     libeay32_EM_dbg.0.9.8e:obj_dat.obj
 0002:00004fa4       ??_C@_09ECHHPLBP@cast5?9ofb?$AA@ 100bcfa4     libeay32_EM_dbg.0.9.8e:obj_dat.obj
 0002:00004fb0       ??_C@_09LEOLOMNK@CAST5?9OFB?$AA@ 100bcfb0     libeay32_EM_dbg.0.9.8e:obj_dat.obj
 0002:00004fbc       ??_C@_09IKBEEKH@cast5?9cfb?$AA@ 100bcfbc     libeay32_EM_dbg.0.9.8e:obj_dat.obj
 0002:00004fc8       ??_C@_09PODNFDGC@CAST5?9CFB?$AA@ 100bcfc8     libeay32_EM_dbg.0.9.8e:obj_dat.obj
 0002:00004fd4       ??_C@_09CLABNJJA@cast5?9ecb?$AA@ 100bcfd4     libeay32_EM_dbg.0.9.8e:obj_dat.obj
 0002:00004fe0       ??_C@_09NNJNMOFF@CAST5?9ECB?$AA@ 100bcfe0     libeay32_EM_dbg.0.9.8e:obj_dat.obj
 0002:00004fec       ??_C@_09BGLDNNDK@cast5?9cbc?$AA@ 100bcfec     libeay32_EM_dbg.0.9.8e:obj_dat.obj
 0002:00004ff8       ??_C@_09OACPMKPP@CAST5?9CBC?$AA@ 100bcff8     libeay32_EM_dbg.0.9.8e:obj_dat.obj
 0002:00005004       ??_C@_0M@PPJNHBMP@description?$AA@ 100bd004     libeay32_EM_dbg.0.9.8e:obj_dat.obj
 0002:00005010       ??_C@_05PHLGJONK@title?$AA@ 100bd010     libeay32_EM_dbg.0.9.8e:obj_dat.obj
 0002:00005018       ??_C@_0N@OMOHFKCJ@serialNumber?$AA@ 100bd018     libeay32_EM_dbg.0.9.8e:obj_dat.obj
 0002:00005028       ??_C@_0L@CNDCBNIN@md5WithRSA?$AA@ 100bd028     libeay32_EM_dbg.0.9.8e:obj_dat.obj
 0002:00005034       ??_C@_0L@NACEPNFC@RSA?9NP?9MD5?$AA@ 100bd034     libeay32_EM_dbg.0.9.8e:obj_dat.obj
 0002:00005040       ??_C@_0BP@EGHJGANM@X509v3?5CRL?5Distribution?5Points?$AA@ 100bd040     libeay32_EM_dbg.0.9.8e:obj_dat.obj
 0002:00005060       ??_C@_0BG@CCHGOEBE@crlDistributionPoints?$AA@ 100bd060     libeay32_EM_dbg.0.9.8e:obj_dat.obj
 0002:00005078       ??_C@_08PAKNLFON@initials?$AA@ 100bd078     libeay32_EM_dbg.0.9.8e:obj_dat.obj
 0002:00005084       ??_C@_07LNKFHLHI@surname?$AA@ 100bd084     libeay32_EM_dbg.0.9.8e:obj_dat.obj
 0002:0000508c       ??_C@_02LONEIP@SN?$AA@     100bd08c     libeay32_EM_dbg.0.9.8e:obj_dat.obj
 0002:00005090       ??_C@_09GCBNJLNP@givenName?$AA@ 100bd090     libeay32_EM_dbg.0.9.8e:obj_dat.obj
 0002:0000509c       ??_C@_02BLJBNPCD@GN?$AA@   100bd09c     libeay32_EM_dbg.0.9.8e:obj_dat.obj
 0002:000050a0       ??_C@_0L@CHEFJHBP@rc2?940?9cbc?$AA@ 100bd0a0     libeay32_EM_dbg.0.9.8e:obj_dat.obj
 0002:000050ac       ??_C@_0L@ODHPNGGE@RC2?940?9CBC?$AA@ 100bd0ac     libeay32_EM_dbg.0.9.8e:obj_dat.obj
 0002:000050b8       ??_C@_06GNNJIOGN@rc4?940?$AA@ 100bd0b8     libeay32_EM_dbg.0.9.8e:obj_dat.obj
 0002:000050c0       ??_C@_06KFMILCMH@RC4?940?$AA@ 100bd0c0     libeay32_EM_dbg.0.9.8e:obj_dat.obj
 0002:000050c8       ??_C@_0M@HGGNEPNN@mdc2WithRSA?$AA@ 100bd0c8     libeay32_EM_dbg.0.9.8e:obj_dat.obj
 0002:000050d4       ??_C@_08OMAMCKNL@RSA?9MDC2?$AA@ 100bd0d4     libeay32_EM_dbg.0.9.8e:obj_dat.obj
 0002:000050e0       ??_C@_04ELNKPKEC@mdc2?$AA@ 100bd0e0     libeay32_EM_dbg.0.9.8e:obj_dat.obj
 0002:000050e8       ??_C@_04BCGEDMJI@MDC2?$AA@ 100bd0e8     libeay32_EM_dbg.0.9.8e:obj_dat.obj
 0002:000050f0       ??_C@_06OBJCCDFN@bf?9ofb?$AA@ 100bd0f0     libeay32_EM_dbg.0.9.8e:obj_dat.obj
 0002:000050f8       ??_C@_06CEHINCIL@BF?9OFB?$AA@ 100bd0f8     libeay32_EM_dbg.0.9.8e:obj_dat.obj
 0002:00005100       ??_C@_06KLEEJMOF@bf?9cfb?$AA@ 100bd100     libeay32_EM_dbg.0.9.8e:obj_dat.obj
 0002:00005108       ??_C@_06GOKOGNDD@BF?9CFB?$AA@ 100bd108     libeay32_EM_dbg.0.9.8e:obj_dat.obj
 0002:00005110       ??_C@_06IIOEABNC@bf?9ecb?$AA@ 100bd110     libeay32_EM_dbg.0.9.8e:obj_dat.obj
 0002:00005118       ??_C@_06ENAOPAAE@BF?9ECB?$AA@ 100bd118     libeay32_EM_dbg.0.9.8e:obj_dat.obj
 0002:00005120       ??_C@_06LFFGAFHI@bf?9cbc?$AA@ 100bd120     libeay32_EM_dbg.0.9.8e:obj_dat.obj
 0002:00005128       ??_C@_06HALMPEKO@BF?9CBC?$AA@ 100bd128     libeay32_EM_dbg.0.9.8e:obj_dat.obj
 0002:00005130       ??_C@_0CA@GODCHEHD@X509v3?5Authority?5Key?5Identifier?$AA@ 100bd130     libeay32_EM_dbg.0.9.8e:obj_dat.obj
 0002:00005150       ??_C@_0BH@ICHFALGD@authorityKeyIdentifier?$AA@ 100bd150     libeay32_EM_dbg.0.9.8e:obj_dat.obj
 0002:00005168       ??_C@_0BM@OOFGKLPK@X509v3?5Certificate?5Policies?$AA@ 100bd168     libeay32_EM_dbg.0.9.8e:obj_dat.obj
 0002:00005184       ??_C@_0BE@OLMJNPEP@certificatePolicies?$AA@ 100bd184     libeay32_EM_dbg.0.9.8e:obj_dat.obj
 0002:00005198       ??_C@_0BC@PCPNBDDJ@X509v3?5CRL?5Number?$AA@ 100bd198     libeay32_EM_dbg.0.9.8e:obj_dat.obj
 0002:000051ac       ??_C@_09JDPHHKMA@crlNumber?$AA@ 100bd1ac     libeay32_EM_dbg.0.9.8e:obj_dat.obj
 0002:000051b8       ??_C@_0BJ@FBHDAJML@X509v3?5Basic?5Constraints?$AA@ 100bd1b8     libeay32_EM_dbg.0.9.8e:obj_dat.obj
 0002:000051d4       ??_C@_0BP@FMJCGPCG@X509v3?5Issuer?5Alternative?5Name?$AA@ 100bd1d4     libeay32_EM_dbg.0.9.8e:obj_dat.obj
 0002:000051f4       ??_C@_0O@DLIFHFCD@issuerAltName?$AA@ 100bd1f4     libeay32_EM_dbg.0.9.8e:obj_dat.obj
 0002:00005204       ??_C@_0CA@OPCJJLNF@X509v3?5Subject?5Alternative?5Name?$AA@ 100bd204     libeay32_EM_dbg.0.9.8e:obj_dat.obj
 0002:00005224       ??_C@_0P@EOFJHHKD@subjectAltName?$AA@ 100bd224     libeay32_EM_dbg.0.9.8e:obj_dat.obj
 0002:00005234       ??_C@_0CA@CLGHAMIP@X509v3?5Private?5Key?5Usage?5Period?$AA@ 100bd234     libeay32_EM_dbg.0.9.8e:obj_dat.obj
 0002:00005254       ??_C@_0BG@JOIAJOMN@privateKeyUsagePeriod?$AA@ 100bd254     libeay32_EM_dbg.0.9.8e:obj_dat.obj
 0002:0000526c       ??_C@_0BB@BPPOKNBO@X509v3?5Key?5Usage?$AA@ 100bd26c     libeay32_EM_dbg.0.9.8e:obj_dat.obj
 0002:00005280       ??_C@_0BO@ILPNOINJ@X509v3?5Subject?5Key?5Identifier?$AA@ 100bd280     libeay32_EM_dbg.0.9.8e:obj_dat.obj
 0002:000052a0       ??_C@_0BF@MOEDIMBI@subjectKeyIdentifier?$AA@ 100bd2a0     libeay32_EM_dbg.0.9.8e:obj_dat.obj
 0002:000052b8       ??_C@_05NDHEMDL@id?9ce?$AA@ 100bd2b8     libeay32_EM_dbg.0.9.8e:obj_dat.obj
 0002:000052c0       ??_C@_08KPMCEEEO@desx?9cbc?$AA@ 100bd2c0     libeay32_EM_dbg.0.9.8e:obj_dat.obj
 0002:000052cc       ??_C@_08BBKPFFGN@DESX?9CBC?$AA@ 100bd2cc     libeay32_EM_dbg.0.9.8e:obj_dat.obj
 0002:000052d8       ??_C@_0BO@KKKBMKBD@Netscape?5Certificate?5Sequence?$AA@ 100bd2d8     libeay32_EM_dbg.0.9.8e:obj_dat.obj
 0002:000052f8       ??_C@_0P@OCCBBJKK@nsCertSequence?$AA@ 100bd2f8     libeay32_EM_dbg.0.9.8e:obj_dat.obj
 0002:00005308       ??_C@_0BB@DCFBGIOA@Netscape?5Comment?$AA@ 100bd308     libeay32_EM_dbg.0.9.8e:obj_dat.obj
 0002:0000531c       ??_C@_09BALDFHMJ@nsComment?$AA@ 100bd31c     libeay32_EM_dbg.0.9.8e:obj_dat.obj
 0002:00005328       ??_C@_0BJ@GMBLEMAL@Netscape?5SSL?5Server?5Name?$AA@ 100bd328     libeay32_EM_dbg.0.9.8e:obj_dat.obj
 0002:00005344       ??_C@_0BA@KNOKNJNE@nsSslServerName?$AA@ 100bd344     libeay32_EM_dbg.0.9.8e:obj_dat.obj
 0002:00005354       ??_C@_0BH@EMEFHLC@Netscape?5CA?5Policy?5Url?$AA@ 100bd354     libeay32_EM_dbg.0.9.8e:obj_dat.obj
 0002:0000536c       ??_C@_0O@DHDIMJD@nsCaPolicyUrl?$AA@ 100bd36c     libeay32_EM_dbg.0.9.8e:obj_dat.obj
 0002:0000537c       ??_C@_0BF@FKENIIHB@Netscape?5Renewal?5Url?$AA@ 100bd37c     libeay32_EM_dbg.0.9.8e:obj_dat.obj
 0002:00005394       ??_C@_0N@JILHKMLM@nsRenewalUrl?$AA@ 100bd394     libeay32_EM_dbg.0.9.8e:obj_dat.obj
 0002:000053a4       ??_C@_0BL@EMOMOFDB@Netscape?5CA?5Revocation?5Url?$AA@ 100bd3a4     libeay32_EM_dbg.0.9.8e:obj_dat.obj
 0002:000053c0       ??_C@_0BC@IKAPCMGG@nsCaRevocationUrl?$AA@ 100bd3c0     libeay32_EM_dbg.0.9.8e:obj_dat.obj
 0002:000053d4       ??_C@_0BI@BCDINENC@Netscape?5Revocation?5Url?$AA@ 100bd3d4     libeay32_EM_dbg.0.9.8e:obj_dat.obj
 0002:000053ec       ??_C@_0BA@DKPGPAKK@nsRevocationUrl?$AA@ 100bd3ec     libeay32_EM_dbg.0.9.8e:obj_dat.obj
 0002:000053fc       ??_C@_0BC@DIHCABP@Netscape?5Base?5Url?$AA@ 100bd3fc     libeay32_EM_dbg.0.9.8e:obj_dat.obj
 0002:00005410       ??_C@_09OCIGDOMM@nsBaseUrl?$AA@ 100bd410     libeay32_EM_dbg.0.9.8e:obj_dat.obj
 0002:0000541c       ??_C@_0BD@NFPBEMEE@Netscape?5Cert?5Type?$AA@ 100bd41c     libeay32_EM_dbg.0.9.8e:obj_dat.obj
 0002:00005430       ??_C@_0BA@DDLLDHEM@dsaWithSHA1?9old?$AA@ 100bd430     libeay32_EM_dbg.0.9.8e:obj_dat.obj
 0002:00005440       ??_C@_0N@ONIKBKNK@DSA?9SHA1?9old?$AA@ 100bd440     libeay32_EM_dbg.0.9.8e:obj_dat.obj
 0002:00005450       ??_C@_06KBOEGBGA@PBKDF2?$AA@ 100bd450     libeay32_EM_dbg.0.9.8e:obj_dat.obj
 0002:00005458       ??_C@_0BG@IBNNJING@pbeWithSHA1AndRC2?9CBC?$AA@ 100bd458     libeay32_EM_dbg.0.9.8e:obj_dat.obj
 0002:00005470       ??_C@_0BA@KKPEMNGH@PBE?9SHA1?9RC2?964?$AA@ 100bd470     libeay32_EM_dbg.0.9.8e:obj_dat.obj
 0002:00005480       ??_C@_0BC@FFHHBCCH@dsaEncryption?9old?$AA@ 100bd480     libeay32_EM_dbg.0.9.8e:obj_dat.obj
 0002:00005494       ??_C@_07PLHLFGGF@DSA?9old?$AA@ 100bd494     libeay32_EM_dbg.0.9.8e:obj_dat.obj
 0002:0000549c       ??_C@_0L@BEHMICBH@dsaWithSHA?$AA@ 100bd49c     libeay32_EM_dbg.0.9.8e:obj_dat.obj
 0002:000054a8       ??_C@_07JGDBCPKH@DSA?9SHA?$AA@ 100bd4a8     libeay32_EM_dbg.0.9.8e:obj_dat.obj
 0002:000054b0       ??_C@_0BG@DALFFFBE@sha1WithRSAEncryption?$AA@ 100bd4b0     libeay32_EM_dbg.0.9.8e:obj_dat.obj
 0002:000054c8       ??_C@_08FBKDDLCN@RSA?9SHA1?$AA@ 100bd4c8     libeay32_EM_dbg.0.9.8e:obj_dat.obj
 0002:000054d4       ??_C@_04PGHFOLLE@sha1?$AA@ 100bd4d4     libeay32_EM_dbg.0.9.8e:obj_dat.obj
 0002:000054dc       ??_C@_04KPMLCNGO@SHA1?$AA@ 100bd4dc     libeay32_EM_dbg.0.9.8e:obj_dat.obj
 0002:000054e4       ??_C@_0N@LODGAID@des?9ede3?9ofb?$AA@ 100bd4e4     libeay32_EM_dbg.0.9.8e:obj_dat.obj
 0002:000054f4       ??_C@_0N@JPPBGLEM@DES?9EDE3?9OFB?$AA@ 100bd4f4     libeay32_EM_dbg.0.9.8e:obj_dat.obj
 0002:00005504       ??_C@_0M@BOHDOFGF@des?9ede?9ofb?$AA@ 100bd504     libeay32_EM_dbg.0.9.8e:obj_dat.obj
 0002:00005510       ??_C@_0M@PDBPCBBK@DES?9EDE?9OFB?$AA@ 100bd510     libeay32_EM_dbg.0.9.8e:obj_dat.obj
 0002:0000551c       ??_C@_0N@EBDFNPDL@des?9ede3?9cfb?$AA@ 100bd51c     libeay32_EM_dbg.0.9.8e:obj_dat.obj
 0002:0000552c       ??_C@_0N@NFCHNEPE@DES?9EDE3?9CFB?$AA@ 100bd52c     libeay32_EM_dbg.0.9.8e:obj_dat.obj
 0002:0000553c       ??_C@_0M@FEKFFKNN@des?9ede?9cfb?$AA@ 100bd53c     libeay32_EM_dbg.0.9.8e:obj_dat.obj
 0002:00005548       ??_C@_0M@LJMJJOKC@DES?9EDE?9CFB?$AA@ 100bd548     libeay32_EM_dbg.0.9.8e:obj_dat.obj
 0002:00005554       ??_C@_0BD@JJEILMNP@Netscape?5Data?5Type?$AA@ 100bd554     libeay32_EM_dbg.0.9.8e:obj_dat.obj
 0002:00005568       ??_C@_0L@FIMLGGPA@nsDataType?$AA@ 100bd568     libeay32_EM_dbg.0.9.8e:obj_dat.obj
 0002:00005574       ??_C@_0BP@LHPGKGFM@Netscape?5Certificate?5Extension?$AA@ 100bd574     libeay32_EM_dbg.0.9.8e:obj_dat.obj
 0002:00005594       ??_C@_09JDCKDNMG@nsCertExt?$AA@ 100bd594     libeay32_EM_dbg.0.9.8e:obj_dat.obj
 0002:000055a0       ??_C@_0BO@IAIBEBGO@Netscape?5Communications?5Corp?4?$AA@ 100bd5a0     libeay32_EM_dbg.0.9.8e:obj_dat.obj
 0002:000055c0       ??_C@_08BDEPHMAF@Netscape?$AA@ 100bd5c0     libeay32_EM_dbg.0.9.8e:obj_dat.obj
 0002:000055cc       ??_C@_0BO@LDCCNBPE@extendedCertificateAttributes?$AA@ 100bd5cc     libeay32_EM_dbg.0.9.8e:obj_dat.obj
 0002:000055ec       ??_C@_0BE@MACPCAPF@unstructuredAddress?$AA@ 100bd5ec     libeay32_EM_dbg.0.9.8e:obj_dat.obj
 0002:00005600       ??_C@_0BC@OKHONEEM@challengePassword?$AA@ 100bd600     libeay32_EM_dbg.0.9.8e:obj_dat.obj
 0002:00005614       ??_C@_0BB@IPFGMODP@countersignature?$AA@ 100bd614     libeay32_EM_dbg.0.9.8e:obj_dat.obj
 0002:00005628       ??_C@_0M@IJBJCCMP@signingTime?$AA@ 100bd628     libeay32_EM_dbg.0.9.8e:obj_dat.obj
 0002:00005634       ??_C@_0O@JDGJDGC@messageDigest?$AA@ 100bd634     libeay32_EM_dbg.0.9.8e:obj_dat.obj
 0002:00005644       ??_C@_0M@DOEFOEJD@contentType?$AA@ 100bd644     libeay32_EM_dbg.0.9.8e:obj_dat.obj
 0002:00005650       ??_C@_0BB@CJIILOEM@unstructuredName?$AA@ 100bd650     libeay32_EM_dbg.0.9.8e:obj_dat.obj
 0002:00005664       ??_C@_0N@IHLBAGEP@emailAddress?$AA@ 100bd664     libeay32_EM_dbg.0.9.8e:obj_dat.obj
 0002:00005674       ??_C@_05NKFNBGJP@pkcs9?$AA@ 100bd674     libeay32_EM_dbg.0.9.8e:obj_dat.obj
 0002:0000567c       ??_C@_08OGDEHPAF@idea?9ofb?$AA@ 100bd67c     libeay32_EM_dbg.0.9.8e:obj_dat.obj
 0002:00005688       ??_C@_08FIFJGOCG@IDEA?9OFB?$AA@ 100bd688     libeay32_EM_dbg.0.9.8e:obj_dat.obj
 0002:00005694       ??_C@_07NLMBCAKN@des?9ofb?$AA@ 100bd694     libeay32_EM_dbg.0.9.8e:obj_dat.obj
 0002:0000569c       ??_C@_07OHFNLDCN@DES?9OFB?$AA@ 100bd69c     libeay32_EM_dbg.0.9.8e:obj_dat.obj
 0002:000056a4       ??_C@_0N@FPCHEGKG@des?9ede3?9cbc?$AA@ 100bd6a4     libeay32_EM_dbg.0.9.8e:obj_dat.obj
 0002:000056b4       ??_C@_0N@MLDFENGJ@DES?9EDE3?9CBC?$AA@ 100bd6b4     libeay32_EM_dbg.0.9.8e:obj_dat.obj
 0002:000056c4       ??_C@_0M@EKLHMDEA@des?9ede?9cbc?$AA@ 100bd6c4     libeay32_EM_dbg.0.9.8e:obj_dat.obj
 0002:000056d0       ??_C@_0M@KHNLAHDP@DES?9EDE?9CBC?$AA@ 100bd6d0     libeay32_EM_dbg.0.9.8e:obj_dat.obj
 0002:000056dc       ??_C@_0BF@LIDINENF@shaWithRSAEncryption?$AA@ 100bd6dc     libeay32_EM_dbg.0.9.8e:obj_dat.obj
 0002:000056f4       ??_C@_07CMOFBHAL@RSA?9SHA?$AA@ 100bd6f4     libeay32_EM_dbg.0.9.8e:obj_dat.obj
 0002:000056fc       ??_C@_03JNBDOPOP@sha?$AA@  100bd6fc     libeay32_EM_dbg.0.9.8e:obj_dat.obj
 0002:00005700       ??_C@_03JAOICCJD@SHA?$AA@  100bd700     libeay32_EM_dbg.0.9.8e:obj_dat.obj
 0002:00005704       ??_C@_07MGMBPEPC@rc2?9ofb?$AA@ 100bd704     libeay32_EM_dbg.0.9.8e:obj_dat.obj
 0002:0000570c       ??_C@_07PNPBGCEE@RC2?9OFB?$AA@ 100bd70c     libeay32_EM_dbg.0.9.8e:obj_dat.obj
 0002:00005714       ??_C@_07IMBHELEK@rc2?9cfb?$AA@ 100bd714     libeay32_EM_dbg.0.9.8e:obj_dat.obj
 0002:0000571c       ??_C@_07LHCHNNPM@RC2?9CFB?$AA@ 100bd71c     libeay32_EM_dbg.0.9.8e:obj_dat.obj
 0002:00005724       ??_C@_07KPLHNGHN@rc2?9ecb?$AA@ 100bd724     libeay32_EM_dbg.0.9.8e:obj_dat.obj
 0002:0000572c       ??_C@_07JEIHEAML@RC2?9ECB?$AA@ 100bd72c     libeay32_EM_dbg.0.9.8e:obj_dat.obj
 0002:00005734       ??_C@_07JCAFNCNH@rc2?9cbc?$AA@ 100bd734     libeay32_EM_dbg.0.9.8e:obj_dat.obj
 0002:0000573c       ??_C@_07KJDFEEGB@RC2?9CBC?$AA@ 100bd73c     libeay32_EM_dbg.0.9.8e:obj_dat.obj
 0002:00005744       ??_C@_08IPECFNIK@idea?9ecb?$AA@ 100bd744     libeay32_EM_dbg.0.9.8e:obj_dat.obj
 0002:00005750       ??_C@_08DBCPEMKJ@IDEA?9ECB?$AA@ 100bd750     libeay32_EM_dbg.0.9.8e:obj_dat.obj
 0002:0000575c       ??_C@_08KMOCMALN@idea?9cfb?$AA@ 100bd75c     libeay32_EM_dbg.0.9.8e:obj_dat.obj
 0002:00005768       ??_C@_08BCIPNBJO@IDEA?9CFB?$AA@ 100bd768     libeay32_EM_dbg.0.9.8e:obj_dat.obj
 0002:00005774       ??_C@_08LCPAFJCA@idea?9cbc?$AA@ 100bd774     libeay32_EM_dbg.0.9.8e:obj_dat.obj
 0002:00005780       ??_C@_08MJNEIAD@IDEA?9CBC?$AA@ 100bd780     libeay32_EM_dbg.0.9.8e:obj_dat.obj
 0002:0000578c       ??_C@_08LJCBLNOK@des?9ede3?$AA@ 100bd78c     libeay32_EM_dbg.0.9.8e:obj_dat.obj
 0002:00005798       ??_C@_08FEKFKCFJ@DES?9EDE3?$AA@ 100bd798     libeay32_EM_dbg.0.9.8e:obj_dat.obj
 0002:000057a4       ??_C@_07PILJICGA@des?9ede?$AA@ 100bd7a4     libeay32_EM_dbg.0.9.8e:obj_dat.obj
 0002:000057ac       ??_C@_07MECFBBOA@DES?9EDE?$AA@ 100bd7ac     libeay32_EM_dbg.0.9.8e:obj_dat.obj
 0002:000057b4       ??_C@_07IPAFAGII@des?9cbc?$AA@ 100bd7b4     libeay32_EM_dbg.0.9.8e:obj_dat.obj
 0002:000057bc       ??_C@_07LDJJJFAI@DES?9CBC?$AA@ 100bd7bc     libeay32_EM_dbg.0.9.8e:obj_dat.obj
 0002:000057c4       ??_C@_07JBBHJPBF@des?9cfb?$AA@ 100bd7c4     libeay32_EM_dbg.0.9.8e:obj_dat.obj
 0002:000057cc       ??_C@_07KNILAMJF@DES?9CFB?$AA@ 100bd7cc     libeay32_EM_dbg.0.9.8e:obj_dat.obj
 0002:000057d4       ??_C@_07LCLHACCC@des?9ecb?$AA@ 100bd7d4     libeay32_EM_dbg.0.9.8e:obj_dat.obj
 0002:000057dc       ??_C@_07IOCLJBKC@DES?9ECB?$AA@ 100bd7dc     libeay32_EM_dbg.0.9.8e:obj_dat.obj
 0002:000057e4       ??_C@_0P@HCMIBBEB@dhKeyAgreement?$AA@ 100bd7e4     libeay32_EM_dbg.0.9.8e:obj_dat.obj
 0002:000057f4       ??_C@_05CALCPOBF@pkcs3?$AA@ 100bd7f4     libeay32_EM_dbg.0.9.8e:obj_dat.obj
 0002:000057fc       ??_C@_0BE@CAMKAFJN@pkcs7?9encryptedData?$AA@ 100bd7fc     libeay32_EM_dbg.0.9.8e:obj_dat.obj
 0002:00005810       ??_C@_0BB@CJNFBHDI@pkcs7?9digestData?$AA@ 100bd810     libeay32_EM_dbg.0.9.8e:obj_dat.obj
 0002:00005824       ??_C@_0BN@LMEEMCPG@pkcs7?9signedAndEnvelopedData?$AA@ 100bd824     libeay32_EM_dbg.0.9.8e:obj_dat.obj
 0002:00005844       ??_C@_0BE@FAIIHMP@pkcs7?9envelopedData?$AA@ 100bd844     libeay32_EM_dbg.0.9.8e:obj_dat.obj
 0002:00005858       ??_C@_0BB@PEKKHBEJ@pkcs7?9signedData?$AA@ 100bd858     libeay32_EM_dbg.0.9.8e:obj_dat.obj
 0002:0000586c       ??_C@_0L@BCKMJOMA@pkcs7?9data?$AA@ 100bd86c     libeay32_EM_dbg.0.9.8e:obj_dat.obj
 0002:00005878       ??_C@_05EENODLBB@pkcs7?$AA@ 100bd878     libeay32_EM_dbg.0.9.8e:obj_dat.obj
 0002:00005880       ??_C@_03DFNMMEBL@rsa?$AA@  100bd880     libeay32_EM_dbg.0.9.8e:obj_dat.obj
 0002:00005884       ??_C@_03DICHAJGH@RSA?$AA@  100bd884     libeay32_EM_dbg.0.9.8e:obj_dat.obj
 0002:00005888       ??_C@_0BH@LAMMAAM@organizationalUnitName?$AA@ 100bd888     libeay32_EM_dbg.0.9.8e:obj_dat.obj
 0002:000058a0       ??_C@_02LMLEEFAB@OU?$AA@   100bd8a0     libeay32_EM_dbg.0.9.8e:obj_dat.obj
 0002:000058a4       ??_C@_0BB@GBCNPHLL@organizationName?$AA@ 100bd8a4     libeay32_EM_dbg.0.9.8e:obj_dat.obj
 0002:000058b8       ??_C@_01MJMHLOMK@O?$AA@    100bd8b8     libeay32_EM_dbg.0.9.8e:obj_dat.obj
 0002:000058bc       ??_C@_0BE@NKDCJFMD@stateOrProvinceName?$AA@ 100bd8bc     libeay32_EM_dbg.0.9.8e:obj_dat.obj
 0002:000058d0       ??_C@_02LAJDCOFE@ST?$AA@   100bd8d0     libeay32_EM_dbg.0.9.8e:obj_dat.obj
 0002:000058d4       ??_C@_0N@LEDCGGBI@localityName?$AA@ 100bd8d4     libeay32_EM_dbg.0.9.8e:obj_dat.obj
 0002:000058e4       ??_C@_01OCOKONAJ@L?$AA@    100bd8e4     libeay32_EM_dbg.0.9.8e:obj_dat.obj
 0002:000058e8       ??_C@_0M@NPBHECMC@countryName?$AA@ 100bd8e8     libeay32_EM_dbg.0.9.8e:obj_dat.obj
 0002:000058f4       ??_C@_01GFHCPBMG@C?$AA@    100bd8f4     libeay32_EM_dbg.0.9.8e:obj_dat.obj
 0002:000058f8       ??_C@_0L@OILMNBLH@commonName?$AA@ 100bd8f8     libeay32_EM_dbg.0.9.8e:obj_dat.obj
 0002:00005904       ??_C@_02BMJIHHPP@CN?$AA@   100bd904     libeay32_EM_dbg.0.9.8e:obj_dat.obj
 0002:00005908       ??_C@_04NMKEOMFB@X509?$AA@ 100bd908     libeay32_EM_dbg.0.9.8e:obj_dat.obj
 0002:00005910       ??_C@_0BL@NJHHPHOL@directory?5services?5?$CIX?4500?$CJ?$AA@ 100bd910     libeay32_EM_dbg.0.9.8e:obj_dat.obj
 0002:0000592c       ??_C@_04NGGFHBI@X500?$AA@  100bd92c     libeay32_EM_dbg.0.9.8e:obj_dat.obj
 0002:00005934       ??_C@_0BF@DAJHPIMK@pbeWithMD5AndDES?9CBC?$AA@ 100bd934     libeay32_EM_dbg.0.9.8e:obj_dat.obj
 0002:0000594c       ??_C@_0M@KBNDBPIJ@PBE?9MD5?9DES?$AA@ 100bd94c     libeay32_EM_dbg.0.9.8e:obj_dat.obj
 0002:00005958       ??_C@_0BF@EEAPBBEF@pbeWithMD2AndDES?9CBC?$AA@ 100bd958     libeay32_EM_dbg.0.9.8e:obj_dat.obj
 0002:00005970       ??_C@_0M@LMNGCPDB@PBE?9MD2?9DES?$AA@ 100bd970     libeay32_EM_dbg.0.9.8e:obj_dat.obj
 0002:0000597c       ??_C@_0BF@EEAHCNKC@md5WithRSAEncryption?$AA@ 100bd97c     libeay32_EM_dbg.0.9.8e:obj_dat.obj
 0002:00005994       ??_C@_07NOGKHCDB@RSA?9MD5?$AA@ 100bd994     libeay32_EM_dbg.0.9.8e:obj_dat.obj
 0002:0000599c       ??_C@_0BF@ODJKGOJ@md2WithRSAEncryption?$AA@ 100bd99c     libeay32_EM_dbg.0.9.8e:obj_dat.obj
 0002:000059b4       ??_C@_07JBCLOEPG@RSA?9MD2?$AA@ 100bd9b4     libeay32_EM_dbg.0.9.8e:obj_dat.obj
 0002:000059bc       ??_C@_0O@PCHNMHJE@rsaEncryption?$AA@ 100bd9bc     libeay32_EM_dbg.0.9.8e:obj_dat.obj
 0002:000059cc       ??_C@_03OODGMOHK@rc4?$AA@  100bd9cc     libeay32_EM_dbg.0.9.8e:obj_dat.obj
 0002:000059d0       ??_C@_03HGEJCHKE@RC4?$AA@  100bd9d0     libeay32_EM_dbg.0.9.8e:obj_dat.obj
 0002:000059d4       ??_C@_03PKBIKOHH@md5?$AA@  100bd9d4     libeay32_EM_dbg.0.9.8e:obj_dat.obj
 0002:000059d8       ??_C@_03GCGHEHKJ@MD5?$AA@  100bd9d8     libeay32_EM_dbg.0.9.8e:obj_dat.obj
 0002:000059dc       ??_C@_03LFFJDILA@md2?$AA@  100bd9dc     libeay32_EM_dbg.0.9.8e:obj_dat.obj
 0002:000059e0       ??_C@_03CNCGNBGO@MD2?$AA@  100bd9e0     libeay32_EM_dbg.0.9.8e:obj_dat.obj
 0002:000059e4       ??_C@_0BN@EBHJCEC@RSA?5Data?5Security?0?5Inc?4?5PKCS?$AA@ 100bd9e4     libeay32_EM_dbg.0.9.8e:obj_dat.obj
 0002:00005a04       ??_C@_04GCKLMHGD@pkcs?$AA@ 100bda04     libeay32_EM_dbg.0.9.8e:obj_dat.obj
 0002:00005a0c       ??_C@_0BI@MPBNCOIB@RSA?5Data?5Security?0?5Inc?4?$AA@ 100bda0c     libeay32_EM_dbg.0.9.8e:obj_dat.obj
 0002:00005a24       ??_C@_06GGEMKGKC@rsadsi?$AA@ 100bda24     libeay32_EM_dbg.0.9.8e:obj_dat.obj
 0002:00005a2c       ??_C@_09MLGAJAED@undefined?$AA@ 100bda2c     libeay32_EM_dbg.0.9.8e:obj_dat.obj
 0002:00005a38       ??_C@_05DBLJEJPC@UNDEF?$AA@ 100bda38     libeay32_EM_dbg.0.9.8e:obj_dat.obj
 0002:00005a40       ??_C@_0BL@BPKKLIHO@?4?2crypto?2objects?2obj_dat?4c?$AA@ 100bda40     libeay32_EM_dbg.0.9.8e:obj_dat.obj
 0002:00005a5c       ??_C@_04MDEFHJHM@?4?$CFlu?$AA@ 100bda5c     libeay32_EM_dbg.0.9.8e:obj_dat.obj
 0002:00005a64       ??_C@_08DFMPDBMK@X509_SIG?$AA@ 100bda64     libeay32_EM_dbg.0.9.8e:x_sig.obj
 0002:00005a70       ??_C@_05CJCEEADM@algor?$AA@ 100bda70     libeay32_EM_dbg.0.9.8e:x_sig.obj
 0002:00005e64       ??_C@_0BF@PJIDMOFK@?4?2crypto?2evp?2e_aes?4c?$AA@ 100bde64     libeay32_EM_dbg.0.9.8e:e_aes.obj
 0002:00005e7c       ??_C@_04BBEMPLKC@iqmp?$AA@ 100bde7c     libeay32_EM_dbg.0.9.8e:rsa_asn1.obj
 0002:00005e84       ??_C@_04PENPDGE@dmq1?$AA@  100bde84     libeay32_EM_dbg.0.9.8e:rsa_asn1.obj
 0002:00005e8c       ??_C@_04OIPJJFD@dmp1?$AA@  100bde8c     libeay32_EM_dbg.0.9.8e:rsa_asn1.obj
 0002:00005e94       ??_C@_01IIACKFLH@q?$AA@    100bde94     libeay32_EM_dbg.0.9.8e:rsa_asn1.obj
 0002:00005e98       ??_C@_01JBBJJEPG@p?$AA@    100bde98     libeay32_EM_dbg.0.9.8e:rsa_asn1.obj
 0002:00005e9c       ??_C@_01LPLHEDKD@d?$AA@    100bde9c     libeay32_EM_dbg.0.9.8e:rsa_asn1.obj
 0002:00005ea0       ??_C@_01KGKMHCOC@e?$AA@    100bdea0     libeay32_EM_dbg.0.9.8e:rsa_asn1.obj
 0002:00005ea4       ??_C@_01EFFIKLCJ@n?$AA@    100bdea4     libeay32_EM_dbg.0.9.8e:rsa_asn1.obj
 0002:00005fec       ??_C@_0BK@LDALPMGB@?4?2crypto?2pkcs12?2p12_utl?4c?$AA@ 100bdfec     libeay32_EM_dbg.0.9.8e:p12_utl.obj
 0002:00006008       ??_C@_0P@OMHBNPIC@X509_EXTENSION?$AA@ 100be008     libeay32_EM_dbg.0.9.8e:x_exten.obj
 0002:00006018       ??_C@_05MFEJDJP@value?$AA@ 100be018     libeay32_EM_dbg.0.9.8e:x_exten.obj
 0002:00006020       ??_C@_06IEOJBDIK@object?$AA@ 100be020     libeay32_EM_dbg.0.9.8e:x_exten.obj
 0002:00006080       ??_C@_0BJ@GHBNBDLB@?4?2crypto?2pkcs7?2pk7_lib?4c?$AA@ 100be080     libeay32_EM_dbg.0.9.8e:pk7_lib.obj
 0002:0000609c       ??_C@_0BK@LMEFMLFD@?4?2crypto?2pkcs7?2pk7_doit?4c?$AA@ 100be09c     libeay32_EM_dbg.0.9.8e:pk7_doit.obj
 0002:000060b8       ??_C@_0BB@BIPBIGGF@PKCS12_AUTHSAFES?$AA@ 100be0b8     libeay32_EM_dbg.0.9.8e:p12_asn.obj
 0002:000060cc       ??_C@_0BA@MCGBLIFE@PKCS12_SAFEBAGS?$AA@ 100be0cc     libeay32_EM_dbg.0.9.8e:p12_asn.obj
 0002:000060dc       ??_C@_06CEIPPJF@attrib?$AA@ 100be0dc     libeay32_EM_dbg.0.9.8e:p12_asn.obj
 0002:000060e4       ??_C@_0P@EECFPDPC@PKCS12_SAFEBAG?$AA@ 100be0e4     libeay32_EM_dbg.0.9.8e:p12_asn.obj
 0002:000060f4       ??_C@_09EBGANBLK@value?4bag?$AA@ 100be0f4     libeay32_EM_dbg.0.9.8e:p12_asn.obj
 0002:00006100       ??_C@_0M@NFMGHALF@value?4safes?$AA@ 100be100     libeay32_EM_dbg.0.9.8e:p12_asn.obj
 0002:0000610c       ??_C@_0P@FIADCDOI@value?4shkeybag?$AA@ 100be10c     libeay32_EM_dbg.0.9.8e:p12_asn.obj
 0002:0000611c       ??_C@_0N@DOAHKDFI@value?4keybag?$AA@ 100be11c     libeay32_EM_dbg.0.9.8e:p12_asn.obj
 0002:0000612c       ??_C@_0M@BNPBMADO@PKCS12_BAGS?$AA@ 100be12c     libeay32_EM_dbg.0.9.8e:p12_asn.obj
 0002:00006138       ??_C@_0P@OEFHMPFE@value?4sdsicert?$AA@ 100be138     libeay32_EM_dbg.0.9.8e:p12_asn.obj
 0002:00006148       ??_C@_0O@KKFHCJNP@value?4x509crl?$AA@ 100be148     libeay32_EM_dbg.0.9.8e:p12_asn.obj
 0002:00006158       ??_C@_0P@IGODMFMC@value?4x509cert?$AA@ 100be158     libeay32_EM_dbg.0.9.8e:p12_asn.obj
 0002:00006168       ??_C@_0M@PABGOMNF@value?4other?$AA@ 100be168     libeay32_EM_dbg.0.9.8e:p12_asn.obj
 0002:00006174       ??_C@_0BA@LPMCLHLH@PKCS12_MAC_DATA?$AA@ 100be174     libeay32_EM_dbg.0.9.8e:p12_asn.obj
 0002:00006184       ??_C@_04BKLHDIKK@iter?$AA@ 100be184     libeay32_EM_dbg.0.9.8e:p12_asn.obj
 0002:0000618c       ??_C@_04OKLIMCN@salt?$AA@  100be18c     libeay32_EM_dbg.0.9.8e:p12_asn.obj
 0002:00006194       ??_C@_05DMLMEGOG@dinfo?$AA@ 100be194     libeay32_EM_dbg.0.9.8e:p12_asn.obj
 0002:0000619c       ??_C@_06CKOLGKJK@PKCS12?$AA@ 100be19c     libeay32_EM_dbg.0.9.8e:p12_asn.obj
 0002:000061a4       ??_C@_03BADCJGEO@mac?$AA@  100be1a4     libeay32_EM_dbg.0.9.8e:p12_asn.obj
 0002:000061a8       ??_C@_09HFIAEJAG@authsafes?$AA@ 100be1a8     libeay32_EM_dbg.0.9.8e:p12_asn.obj
 0002:0000649c       ??_C@_0BK@KJEJJLK@?4?2crypto?2x509v3?2v3_conf?4c?$AA@ 100be49c     libeay32_EM_dbg.0.9.8e:v3_conf.obj
 0002:000064b8       ??_C@_06KFEJCPI@value?$DN?$AA@ 100be4b8     libeay32_EM_dbg.0.9.8e:v3_conf.obj
 0002:00006590       _STACK_version             100be590     libeay32_EM_dbg.0.9.8e:stack.obj
 0002:000065bc       ??_C@_0BH@GBDCJGGB@?4?2crypto?2stack?2stack?4c?$AA@ 100be5bc     libeay32_EM_dbg.0.9.8e:stack.obj
 0002:000065d4       ??_C@_0BH@MODMECLL@?4?2crypto?2bio?2bio_lib?4c?$AA@ 100be5d4     libeay32_EM_dbg.0.9.8e:bio_lib.obj
 0002:000065ec       ??_C@_01CLKCMJKC@?5?$AA@   100be5ec     libeay32_EM_dbg.0.9.8e:bio_lib.obj
 0002:000065f0       ??_C@_0BA@OPHCNPAP@AUTHORITY_KEYID?$AA@ 100be5f0     libeay32_EM_dbg.0.9.8e:v3_akeya.obj
 0002:00006600       ??_C@_05CNHMOIOC@keyid?$AA@ 100be600     libeay32_EM_dbg.0.9.8e:v3_akeya.obj
 0002:00006660       ??_C@_09KGNJKBNF@X509_NAME?$AA@ 100be660     libeay32_EM_dbg.0.9.8e:x_name.obj
 0002:0000666c       ??_C@_0BD@FDNDONGH@X509_NAME_INTERNAL?$AA@ 100be66c     libeay32_EM_dbg.0.9.8e:x_name.obj
 0002:00006680       ??_C@_04FABLJDN@Name?$AA@  100be680     libeay32_EM_dbg.0.9.8e:x_name.obj
 0002:00006688       ??_C@_0BC@GJMCELDI@X509_NAME_ENTRIES?$AA@ 100be688     libeay32_EM_dbg.0.9.8e:x_name.obj
 0002:0000669c       ??_C@_04IEOKPFHO@RDNS?$AA@ 100be69c     libeay32_EM_dbg.0.9.8e:x_name.obj
 0002:000066a4       ??_C@_0BA@KEPIIMOE@X509_NAME_ENTRY?$AA@ 100be6a4     libeay32_EM_dbg.0.9.8e:x_name.obj
 0002:00006758       _x509_name_ff              100be758     libeay32_EM_dbg.0.9.8e:x_name.obj
 0002:0000678c       ??_C@_0BH@KOHBKEEJ@?4?2crypto?2asn1?2x_name?4c?$AA@ 100be78c     libeay32_EM_dbg.0.9.8e:x_name.obj
 0002:000067a4       ??_C@_0BK@DKHHBKED@?4?2crypto?2pkcs7?2pk7_attr?4c?$AA@ 100be7a4     libeay32_EM_dbg.0.9.8e:pk7_attr.obj
 0002:000067c0       ??_C@_0BJ@KHABNHFN@?4?2crypto?2x509?2x509_cmp?4c?$AA@ 100be7c0     libeay32_EM_dbg.0.9.8e:x509_cmp.obj
 0002:000067dc       ??_C@_0L@BFHONDPK@X509_ALGOR?$AA@ 100be7dc     libeay32_EM_dbg.0.9.8e:x_algor.obj
 0002:000067e8       ??_C@_09DAGAJHIH@parameter?$AA@ 100be7e8     libeay32_EM_dbg.0.9.8e:x_algor.obj
 0002:00006838       ??_C@_09NKDPGBBA@cert_info?$AA@ 100be838     libeay32_EM_dbg.0.9.8e:x_x509.obj
 0002:00006844       ??_C@_09LCJGKABB@X509_CINF?$AA@ 100be844     libeay32_EM_dbg.0.9.8e:x_x509.obj
 0002:00006850       ??_C@_0L@ICCCPLKC@extensions?$AA@ 100be850     libeay32_EM_dbg.0.9.8e:x_x509.obj
 0002:0000685c       ??_C@_0L@JMFHLKAL@subjectUID?$AA@ 100be85c     libeay32_EM_dbg.0.9.8e:x_x509.obj
 0002:00006868       ??_C@_09KIIAMAEE@issuerUID?$AA@ 100be868     libeay32_EM_dbg.0.9.8e:x_x509.obj
 0002:00006874       ??_C@_03ICHNJLJF@key?$AA@  100be874     libeay32_EM_dbg.0.9.8e:x_x509.obj
 0002:00006878       ??_C@_08GCHKOCBP@validity?$AA@ 100be878     libeay32_EM_dbg.0.9.8e:x_x509.obj
 0002:000069dc       ??_C@_0BI@IGECNGFF@?4?2crypto?2x509?2x509_lu?4c?$AA@ 100be9dc     libeay32_EM_dbg.0.9.8e:x509_lu.obj
 0002:00006bfc       ??_C@_0BH@BCEPEGOE@?4?2crypto?2pem?2pem_pk8?4c?$AA@ 100bebfc     libeay32_EM_dbg.0.9.8e:pem_pk8.obj
 0002:00006c14       ??_C@_0BG@OLFPLKDJ@ENCRYPTED?5PRIVATE?5KEY?$AA@ 100bec14     libeay32_EM_dbg.0.9.8e:pem_pk8.obj
 0002:00006c2c       ??_C@_0M@GKANOOJ@PRIVATE?5KEY?$AA@ 100bec2c     libeay32_EM_dbg.0.9.8e:pem_pk8.obj
 0002:00006c38       ??_C@_0DE@JBNNAKOP@called?5a?5function?5that?5was?5disab@ 100bec38     libeay32_EM_dbg.0.9.8e:err.obj
 0002:00006c6c       ??_C@_0P@LPIEGNHB@internal?5error?$AA@ 100bec6c     libeay32_EM_dbg.0.9.8e:err.obj
 0002:00006c7c       ??_C@_0BI@MMHLKOF@passed?5a?5null?5parameter?$AA@ 100bec7c     libeay32_EM_dbg.0.9.8e:err.obj
 0002:00006c94       ??_C@_0CG@JFIACAPA@called?5a?5function?5you?5should?5not@ 100bec94     libeay32_EM_dbg.0.9.8e:err.obj
 0002:00006cbc       ??_C@_0P@BOLAOBGL@malloc?5failure?$AA@ 100becbc     libeay32_EM_dbg.0.9.8e:err.obj
 0002:00006ccc       ??_C@_05FAMCFOJB@fatal?$AA@ 100beccc     libeay32_EM_dbg.0.9.8e:err.obj
 0002:00006cd4       ??_C@_0BB@LLCBNOLO@missing?5asn1?5eos?$AA@ 100becd4     libeay32_EM_dbg.0.9.8e:err.obj
 0002:00006ce8       ??_C@_0BF@JKEELALH@asn1?5length?5mismatch?$AA@ 100bece8     libeay32_EM_dbg.0.9.8e:err.obj
 0002:00006d00       ??_C@_0BL@PKJJDDDF@expecting?5an?5asn1?5sequence?$AA@ 100bed00     libeay32_EM_dbg.0.9.8e:err.obj
 0002:00006d1c       ??_C@_0BJ@KHBMOGBI@bad?5get?5asn1?5object?5call?$AA@ 100bed1c     libeay32_EM_dbg.0.9.8e:err.obj
 0002:00006d38       ??_C@_0BH@LJENPHMF@bad?5asn1?5object?5header?$AA@ 100bed38     libeay32_EM_dbg.0.9.8e:err.obj
 0002:00006d50       ??_C@_0BC@JPACPGKL@nested?5asn1?5error?$AA@ 100bed50     libeay32_EM_dbg.0.9.8e:err.obj
 0002:00006d64       ??_C@_08BIAIHGB@OCSP?5lib?$AA@ 100bed64     libeay32_EM_dbg.0.9.8e:err.obj
 0002:00006d70       ??_C@_0L@NEGIHAGL@ENGINE?5lib?$AA@ 100bed70     libeay32_EM_dbg.0.9.8e:err.obj
 0002:00006d7c       ??_C@_07HLMFDJCH@DSO?5lib?$AA@ 100bed7c     libeay32_EM_dbg.0.9.8e:err.obj
 0002:00006d84       ??_C@_08IAGEJILJ@RAND?5lib?$AA@ 100bed84     libeay32_EM_dbg.0.9.8e:err.obj
 0002:00006d90       ??_C@_0L@FBHADCPC@PKCS12?5lib?$AA@ 100bed90     libeay32_EM_dbg.0.9.8e:err.obj
 0002:00006d9c       ??_C@_0L@OHLIEDB@X509V3?5lib?$AA@ 100bed9c     libeay32_EM_dbg.0.9.8e:err.obj
 0002:00006da8       ??_C@_09PFAKBDBP@PKCS7?5lib?$AA@ 100beda8     libeay32_EM_dbg.0.9.8e:err.obj
 0002:00006db4       ??_C@_07HOAEPDCA@BIO?5lib?$AA@ 100bedb4     libeay32_EM_dbg.0.9.8e:err.obj
 0002:00006dbc       ??_C@_07ILCPHDLL@SSL?5lib?$AA@ 100bedbc     libeay32_EM_dbg.0.9.8e:err.obj
 0002:00006dc4       ??_C@_06FNJAJMKI@EC?5lib?$AA@ 100bedc4     libeay32_EM_dbg.0.9.8e:err.obj
 0002:00006dcc       ??_C@_0L@GEIMIIEL@CRYPTO?5lib?$AA@ 100bedcc     libeay32_EM_dbg.0.9.8e:err.obj
 0002:00006dd8       ??_C@_08GDJNHNLC@CONF?5lib?$AA@ 100bedd8     libeay32_EM_dbg.0.9.8e:err.obj
 0002:00006de4       ??_C@_08HAFIEMCJ@ASN1?5lib?$AA@ 100bede4     libeay32_EM_dbg.0.9.8e:err.obj
 0002:00006df0       ??_C@_08DGLLDICE@X509?5lib?$AA@ 100bedf0     libeay32_EM_dbg.0.9.8e:err.obj
 0002:00006dfc       ??_C@_07EBMPFIFH@DSA?5lib?$AA@ 100bedfc     libeay32_EM_dbg.0.9.8e:err.obj
 0002:00006e04       ??_C@_07MKPCAOAJ@PEM?5lib?$AA@ 100bee04     libeay32_EM_dbg.0.9.8e:err.obj
 0002:00006e0c       ??_C@_07LHMLCDLI@OBJ?5lib?$AA@ 100bee0c     libeay32_EM_dbg.0.9.8e:err.obj
 0002:00006e14       ??_C@_07PJHFFEFC@BUF?5lib?$AA@ 100bee14     libeay32_EM_dbg.0.9.8e:err.obj
 0002:00006e1c       ??_C@_07BHNHKGFA@EVP?5lib?$AA@ 100bee1c     libeay32_EM_dbg.0.9.8e:err.obj
 0002:00006e24       ??_C@_06JBCAGHNP@DH?5lib?$AA@ 100bee24     libeay32_EM_dbg.0.9.8e:err.obj
 0002:00006e2c       ??_C@_07PLBLGAPL@RSA?5lib?$AA@ 100bee2c     libeay32_EM_dbg.0.9.8e:err.obj
 0002:00006e34       ??_C@_06CEKJLBPI@BN?5lib?$AA@ 100bee34     libeay32_EM_dbg.0.9.8e:err.obj
 0002:00006e3c       ??_C@_0L@NFMIFFDK@system?5lib?$AA@ 100bee3c     libeay32_EM_dbg.0.9.8e:err.obj
 0002:00006e48       ??_C@_05FHPOAJDB@fread?$AA@ 100bee48     libeay32_EM_dbg.0.9.8e:err.obj
 0002:00006e50       ??_C@_07OPAOJOOA@opendir?$AA@ 100bee50     libeay32_EM_dbg.0.9.8e:err.obj
 0002:00006e58       ??_C@_0L@LNCNEFCG@WSAstartup?$AA@ 100bee58     libeay32_EM_dbg.0.9.8e:err.obj
 0002:00006e64       ??_C@_06MPKMECK@accept?$AA@ 100bee64     libeay32_EM_dbg.0.9.8e:err.obj
 0002:00006e6c       ??_C@_06OODDLKLE@listen?$AA@ 100bee6c     libeay32_EM_dbg.0.9.8e:err.obj
 0002:00006e74       ??_C@_04NPNJNMMP@bind?$AA@ 100bee74     libeay32_EM_dbg.0.9.8e:err.obj
 0002:00006e7c       ??_C@_0M@PBPOCKDG@ioctlsocket?$AA@ 100bee7c     libeay32_EM_dbg.0.9.8e:err.obj
 0002:00006e88       ??_C@_06HBELJPBO@socket?$AA@ 100bee88     libeay32_EM_dbg.0.9.8e:err.obj
 0002:00006e90       ??_C@_0O@NKLJGHIL@getservbyname?$AA@ 100bee90     libeay32_EM_dbg.0.9.8e:err.obj
 0002:00006ea0       ??_C@_07KAIBNCHO@connect?$AA@ 100beea0     libeay32_EM_dbg.0.9.8e:err.obj
 0002:00006ea8       ??_C@_05FFKPLNPJ@fopen?$AA@ 100beea8     libeay32_EM_dbg.0.9.8e:err.obj
 0002:00006eb0       ??_C@_0O@LJIADBLP@OCSP?5routines?$AA@ 100beeb0     libeay32_EM_dbg.0.9.8e:err.obj
 0002:00006ec0       ??_C@_0BA@MMHCJFKD@engine?5routines?$AA@ 100beec0     libeay32_EM_dbg.0.9.8e:err.obj
 0002:00006ed0       ??_C@_0BF@BDHLAIEM@DSO?5support?5routines?$AA@ 100beed0     libeay32_EM_dbg.0.9.8e:err.obj
 0002:00006ee8       ??_C@_0BI@GMPKPCPG@random?5number?5generator?$AA@ 100beee8     libeay32_EM_dbg.0.9.8e:err.obj
 0002:00006f00       ??_C@_0BA@KPFPMFD@PKCS12?5routines?$AA@ 100bef00     libeay32_EM_dbg.0.9.8e:err.obj
 0002:00006f10       ??_C@_0BB@LKDEPKLM@X509?5V3?5routines?$AA@ 100bef10     libeay32_EM_dbg.0.9.8e:err.obj
 0002:00006f24       ??_C@_0P@FBDCKDAN@PKCS7?5routines?$AA@ 100bef24     libeay32_EM_dbg.0.9.8e:err.obj
 0002:00006f34       ??_C@_0N@HGNFKBOI@BIO?5routines?$AA@ 100bef34     libeay32_EM_dbg.0.9.8e:err.obj
 0002:00006f44       ??_C@_0N@GAIJLNCL@SSL?5routines?$AA@ 100bef44     libeay32_EM_dbg.0.9.8e:err.obj
 0002:00006f54       ??_C@_0BI@NNCFPCDI@elliptic?5curve?5routines?$AA@ 100bef54     libeay32_EM_dbg.0.9.8e:err.obj
 0002:00006f6c       ??_C@_0BK@GOIAPJCF@common?5libcrypto?5routines?$AA@ 100bef6c     libeay32_EM_dbg.0.9.8e:err.obj
 0002:00006f88       ??_C@_0BM@FNIFPKKP@configuration?5file?5routines?$AA@ 100bef88     libeay32_EM_dbg.0.9.8e:err.obj
 0002:00006fa4       ??_C@_0BH@OKMDKJBH@asn1?5encoding?5routines?$AA@ 100befa4     libeay32_EM_dbg.0.9.8e:err.obj
 0002:00006fbc       ??_C@_0BK@MLDIFNOG@x509?5certificate?5routines?$AA@ 100befbc     libeay32_EM_dbg.0.9.8e:err.obj
 0002:00006fd8       ??_C@_0N@EPLKEPHE@dsa?5routines?$AA@ 100befd8     libeay32_EM_dbg.0.9.8e:err.obj
 0002:00006fe8       ??_C@_0N@PPOIEGDJ@PEM?5routines?$AA@ 100befe8     libeay32_EM_dbg.0.9.8e:err.obj
 0002:00006ff8       ??_C@_0BL@GAJLDLEG@object?5identifier?5routines?$AA@ 100beff8     libeay32_EM_dbg.0.9.8e:err.obj
 0002:00007014       ??_C@_0BH@GHBGFOKA@memory?5buffer?5routines?$AA@ 100bf014     libeay32_EM_dbg.0.9.8e:err.obj
 0002:0000702c       ??_C@_0BK@KCBHLAIJ@digital?5envelope?5routines?$AA@ 100bf02c     libeay32_EM_dbg.0.9.8e:err.obj
 0002:00007048       ??_C@_0BI@BELEOFAM@Diffie?9Hellman?5routines?$AA@ 100bf048     libeay32_EM_dbg.0.9.8e:err.obj
 0002:00007060       ??_C@_0N@FLFIDGHD@rsa?5routines?$AA@ 100bf060     libeay32_EM_dbg.0.9.8e:err.obj
 0002:00007070       ??_C@_0BA@BALAMMCD@bignum?5routines?$AA@ 100bf070     libeay32_EM_dbg.0.9.8e:err.obj
 0002:00007080       ??_C@_0P@KJHLNCML@system?5library?$AA@ 100bf080     libeay32_EM_dbg.0.9.8e:err.obj
 0002:00007090       ??_C@_0BA@JLJAKIKL@unknown?5library?$AA@ 100bf090     libeay32_EM_dbg.0.9.8e:err.obj
 0002:000070cc       ??_C@_0BD@CKILGKAI@?4?2crypto?2err?2err?4c?$AA@ 100bf0cc     libeay32_EM_dbg.0.9.8e:err.obj
 0002:000070e0       ??_C@_0BE@CGMKPIME@int_err_get?5?$CIerr?4c?$CJ?$AA@ 100bf0e0     libeay32_EM_dbg.0.9.8e:err.obj
 0002:000070f4       ??_C@_0BH@KBGLDIDO@int_thread_get?5?$CIerr?4c?$CJ?$AA@ 100bf0f4     libeay32_EM_dbg.0.9.8e:err.obj
 0002:0000710c       ??_C@_07CIFAGBMG@unknown?$AA@ 100bf10c     libeay32_EM_dbg.0.9.8e:err.obj
 0002:00007114       ??_C@_02JDNIPIGD@NA?$AA@   100bf114     libeay32_EM_dbg.0.9.8e:err.obj
 0002:00007118       ??_C@_0BF@IKLBHEFA@error?3?$CF08lX?3?$CFs?3?$CFs?3?$CFs?$AA@ 100bf118     libeay32_EM_dbg.0.9.8e:err.obj
 0002:00007130       ??_C@_0M@MNMDFDLE@reason?$CI?$CFlu?$CJ?$AA@ 100bf130     libeay32_EM_dbg.0.9.8e:err.obj
 0002:0000713c       ??_C@_09IANFNLBB@func?$CI?$CFlu?$CJ?$AA@ 100bf13c     libeay32_EM_dbg.0.9.8e:err.obj
 0002:00007148       ??_C@_08PFHOCFHJ@lib?$CI?$CFlu?$CJ?$AA@ 100bf148     libeay32_EM_dbg.0.9.8e:err.obj
 0002:000071a0       ??_C@_0BI@HLOHDLB@?4?2crypto?2pem?2pem_pkey?4c?$AA@ 100bf1a0     libeay32_EM_dbg.0.9.8e:pem_pkey.obj
 0002:000071b8       ??_C@_0P@NNHMEHEI@EC?5PRIVATE?5KEY?$AA@ 100bf1b8     libeay32_EM_dbg.0.9.8e:pem_pkey.obj
 0002:000071c8       ??_C@_0BA@JLKNDKJH@DSA?5PRIVATE?5KEY?$AA@ 100bf1c8     libeay32_EM_dbg.0.9.8e:pem_pkey.obj
 0002:000071d8       ??_C@_0BA@COBLGNON@RSA?5PRIVATE?5KEY?$AA@ 100bf1d8     libeay32_EM_dbg.0.9.8e:pem_pkey.obj
 0002:000071e8       ??_C@_0BA@MHDCIJI@ANY?5PRIVATE?5KEY?$AA@ 100bf1e8     libeay32_EM_dbg.0.9.8e:pem_pkey.obj
 0002:000072a8       _X509_version              100bf2a8     libeay32_EM_dbg.0.9.8e:x509_vfy.obj
 0002:000072d4       ??_C@_0BJ@POMCDKOO@?4?2crypto?2x509?2x509_vfy?4c?$AA@ 100bf2d4     libeay32_EM_dbg.0.9.8e:x509_vfy.obj
 0002:000072f0       ??_C@_0BK@PIJCOFLE@OPENSSL_ALLOW_PROXY_CERTS?$AA@ 100bf2f0     libeay32_EM_dbg.0.9.8e:x509_vfy.obj
 0002:0000730c       ??_C@_07DLHCIBDH@default?$AA@ 100bf30c     libeay32_EM_dbg.0.9.8e:x509_vfy.obj
 0002:00007318       __real@4018000000000000    100bf318     libeay32_EM_dbg.0.9.8e:rand_win.obj
 0002:00007320       __real@4022000000000000    100bf320     libeay32_EM_dbg.0.9.8e:rand_win.obj
 0002:00007328       __real@4014000000000000    100bf328     libeay32_EM_dbg.0.9.8e:rand_win.obj
 0002:00007330       __real@4008000000000000    100bf330     libeay32_EM_dbg.0.9.8e:rand_win.obj
 0002:00007338       ??_C@_0N@KIGOLBLC@Module32Next?$AA@ 100bf338     libeay32_EM_dbg.0.9.8e:rand_win.obj
 0002:00007348       ??_C@_0O@CNMFJJGO@Module32First?$AA@ 100bf348     libeay32_EM_dbg.0.9.8e:rand_win.obj
 0002:00007358       ??_C@_0N@LDGMJMKG@Thread32Next?$AA@ 100bf358     libeay32_EM_dbg.0.9.8e:rand_win.obj
 0002:00007368       ??_C@_0O@DHAEEPDO@Thread32First?$AA@ 100bf368     libeay32_EM_dbg.0.9.8e:rand_win.obj
 0002:00007378       ??_C@_0O@LGJLFMBH@Process32Next?$AA@ 100bf378     libeay32_EM_dbg.0.9.8e:rand_win.obj
 0002:00007388       ??_C@_0P@ILGHDLOE@Process32First?$AA@ 100bf388     libeay32_EM_dbg.0.9.8e:rand_win.obj
 0002:00007398       ??_C@_0P@EPDKPNHA@Heap32ListNext?$AA@ 100bf398     libeay32_EM_dbg.0.9.8e:rand_win.obj
 0002:000073a8       ??_C@_0BA@FIEIGOLO@Heap32ListFirst?$AA@ 100bf3a8     libeay32_EM_dbg.0.9.8e:rand_win.obj
 0002:000073b8       ??_C@_0L@CMGAAJA@Heap32Next?$AA@ 100bf3b8     libeay32_EM_dbg.0.9.8e:rand_win.obj
 0002:000073c4       ??_C@_0M@PIAPHADL@Heap32First?$AA@ 100bf3c4     libeay32_EM_dbg.0.9.8e:rand_win.obj
 0002:000073d0       ??_C@_0BI@GJJDGJIM@CloseToolhelp32Snapshot?$AA@ 100bf3d0     libeay32_EM_dbg.0.9.8e:rand_win.obj
 0002:000073e8       ??_C@_0BJ@JEFKDHMD@CreateToolhelp32Snapshot?$AA@ 100bf3e8     libeay32_EM_dbg.0.9.8e:rand_win.obj
 0002:00007408       __real@4000000000000000    100bf408     libeay32_EM_dbg.0.9.8e:rand_win.obj
 0002:00007410       ??_C@_0P@KCBGCFMP@GetQueueStatus?$AA@ 100bf410     libeay32_EM_dbg.0.9.8e:rand_win.obj
 0002:00007420       ??_C@_0O@IGNBKOOJ@GetCursorInfo?$AA@ 100bf420     libeay32_EM_dbg.0.9.8e:rand_win.obj
 0002:00007430       ??_C@_0BE@IIKKNMMA@GetForegroundWindow?$AA@ 100bf430     libeay32_EM_dbg.0.9.8e:rand_win.obj
 0002:00007444       ??_C@_0L@NDEGIDAG@USER32?4DLL?$AA@ 100bf444     libeay32_EM_dbg.0.9.8e:rand_win.obj
 0002:00007450       __real@4050000000000000    100bf450     libeay32_EM_dbg.0.9.8e:rand_win.obj
 0002:00007458       ??_C@_1FM@ELACHIDN@?$AAI?$AAn?$AAt?$AAe?$AAl?$AA?5?$AAH?$AAa?$AAr?$AAd?$AAw?$AAa?$AAr?$AAe?$AA?5?$AAC?$AAr?$AAy?$AAp?$AAt?$AAo?$AAg?$AAr?$AAa?$AAp?$AAh?$AAi?$AAc?$AA?5?$AAS?$AAe?$AAr@ 100bf458     libeay32_EM_dbg.0.9.8e:rand_win.obj
 0002:000074b4       ??_C@_0BE@FBIJLPPP@CryptReleaseContext?$AA@ 100bf4b4     libeay32_EM_dbg.0.9.8e:rand_win.obj
 0002:000074c8       ??_C@_0P@HGPEDCEI@CryptGenRandom?$AA@ 100bf4c8     libeay32_EM_dbg.0.9.8e:rand_win.obj
 0002:000074d8       ??_C@_0BF@JHHBLAOM@CryptAcquireContextW?$AA@ 100bf4d8     libeay32_EM_dbg.0.9.8e:rand_win.obj
 0002:000074f0       __real@4031000000000000    100bf4f0     libeay32_EM_dbg.0.9.8e:rand_win.obj
 0002:000074f8       ??_C@_1BK@FJCAAMNP@?$AAL?$AAa?$AAn?$AAm?$AAa?$AAn?$AAS?$AAe?$AAr?$AAv?$AAe?$AAr?$AA?$AA@ 100bf4f8     libeay32_EM_dbg.0.9.8e:rand_win.obj
 0002:00007518       __real@4046800000000000    100bf518     libeay32_EM_dbg.0.9.8e:rand_win.obj
 0002:00007520       ??_C@_1CE@MINGJEKI@?$AAL?$AAa?$AAn?$AAm?$AAa?$AAn?$AAW?$AAo?$AAr?$AAk?$AAs?$AAt?$AAa?$AAt?$AAi?$AAo?$AAn?$AA?$AA@ 100bf520     libeay32_EM_dbg.0.9.8e:rand_win.obj
 0002:00007544       ??_C@_0BB@EODNGDFL@NetApiBufferFree?$AA@ 100bf544     libeay32_EM_dbg.0.9.8e:rand_win.obj
 0002:00007558       ??_C@_0BB@NIBHPBJM@NetStatisticsGet?$AA@ 100bf558     libeay32_EM_dbg.0.9.8e:rand_win.obj
 0002:0000756c       ??_C@_0N@HNENINMF@NETAPI32?4DLL?$AA@ 100bf56c     libeay32_EM_dbg.0.9.8e:rand_win.obj
 0002:0000757c       ??_C@_0N@NHGLKGEC@KERNEL32?4DLL?$AA@ 100bf57c     libeay32_EM_dbg.0.9.8e:rand_win.obj
 0002:0000758c       ??_C@_0N@JJPEKNFO@ADVAPI32?4DLL?$AA@ 100bf58c     libeay32_EM_dbg.0.9.8e:rand_win.obj
 0002:0000759c       ??_C@_0BJ@OIDOBJG@?4?2crypto?2rand?2rand_win?4c?$AA@ 100bf59c     libeay32_EM_dbg.0.9.8e:rand_win.obj
 0002:000075b8       ??_C@_07JPHDIPNG@DISPLAY?$AA@ 100bf5b8     libeay32_EM_dbg.0.9.8e:rand_win.obj
 0002:000075c0       ??_C@_0BF@FMBDDPDA@?4?2crypto?2evp?2p_lib?4c?$AA@ 100bf5c0     libeay32_EM_dbg.0.9.8e:p_lib.obj
 0002:000076a8       ??_C@_0BF@ENPOEMCO@?4?2crypto?2evp?2e_rc5?4c?$AA@ 100bf6a8     libeay32_EM_dbg.0.9.8e:e_rc5.obj
 0002:000076c0       _ASN1_version              100bf6c0     libeay32_EM_dbg.0.9.8e:asn1_lib.obj
 0002:000076ec       ??_C@_0BJ@BDGDICBL@?4?2crypto?2asn1?2asn1_lib?4c?$AA@ 100bf6ec     libeay32_EM_dbg.0.9.8e:asn1_lib.obj
 0002:00007708       ??_C@_08CLFLHNDD@address?$DN?$AA@ 100bf708     libeay32_EM_dbg.0.9.8e:asn1_lib.obj
 0002:00007714       ??_C@_08CPJNFLGB@?5offset?$DN?$AA@ 100bf714     libeay32_EM_dbg.0.9.8e:asn1_lib.obj
 0002:00007720       ??_C@_0BE@PGIFFILK@CERTIFICATE?5REQUEST?$AA@ 100bf720     libeay32_EM_dbg.0.9.8e:pem_all.obj
 0002:00007734       ??_C@_0BI@BBDALNCF@NEW?5CERTIFICATE?5REQUEST?$AA@ 100bf734     libeay32_EM_dbg.0.9.8e:pem_all.obj
 0002:0000774c       ??_C@_08ONNDIEBB@X509?5CRL?$AA@ 100bf74c     libeay32_EM_dbg.0.9.8e:pem_all.obj
 0002:00007758       ??_C@_0BD@BACHDDOD@?4?2crypto?2ex_data?4c?$AA@ 100bf758     libeay32_EM_dbg.0.9.8e:ex_data.obj
 0002:0000776c       ??_C@_0BJ@GIEGEKPM@?4?2crypto?2asn1?2a_object?4c?$AA@ 100bf76c     libeay32_EM_dbg.0.9.8e:a_object.obj
 0002:00007788       ??_C@_09OJNEAJGG@?$DMINVALID?$DO?$AA@ 100bf788     libeay32_EM_dbg.0.9.8e:a_object.obj
 0002:00007794       ??_C@_0BJ@BDIDBFLG@?4?2crypto?2asn1?2tasn_enc?4c?$AA@ 100bf794     libeay32_EM_dbg.0.9.8e:tasn_enc.obj
 0002:000077b0       ??_C@_0O@DIEIKEFB@memory?5buffer?$AA@ 100bf7b0     libeay32_EM_dbg.0.9.8e:bss_mem.obj
 0002:000077c0       ??_C@_0BH@IKAJIAMC@?4?2crypto?2bio?2bss_mem?4c?$AA@ 100bf7c0     libeay32_EM_dbg.0.9.8e:bss_mem.obj
 0002:000077d8       ??_C@_0BB@KDJGCOOH@?$CFlu?3?$CFs?3?$CFs?3?$CFd?3?$CFs?6?$AA@ 100bf7d8     libeay32_EM_dbg.0.9.8e:err_prn.obj
 0002:000077ec       ??_C@_02DKCKIIND@?$CFs?$AA@ 100bf7ec     libeay32_EM_dbg.0.9.8e:err_prn.obj
 0002:00007908       ??_C@_0BG@JMNNPFBP@?4?2crypto?2asn1?2a_int?4c?$AA@ 100bf908     libeay32_EM_dbg.0.9.8e:a_int.obj
 0002:00007968       ??_C@_02PCIJFNDE@?$AN?6?$AA@ 100bf968     libeay32_EM_dbg.0.9.8e:pk7_mime.obj
 0002:0000796c       ??_C@_0BK@OCKBPLKH@?4?2crypto?2pkcs7?2pk7_mime?4c?$AA@ 100bf96c     libeay32_EM_dbg.0.9.8e:pk7_mime.obj
 0002:00007988       ??_C@_06BPMLCLKK@type?3?5?$AA@ 100bf988     libeay32_EM_dbg.0.9.8e:pk7_mime.obj
 0002:00007990       ??_C@_0N@MCOKKOFB@content?9type?$AA@ 100bf990     libeay32_EM_dbg.0.9.8e:pk7_mime.obj
 0002:000079a0       ??_C@_0BN@PPPPFNNH@Content?9Type?3?5text?1plain?$AN?6?$AN?6?$AA@ 100bf9a0     libeay32_EM_dbg.0.9.8e:pk7_mime.obj
 0002:000079c0       ??_C@_0L@NPNLKGOJ@text?1plain?$AA@ 100bf9c0     libeay32_EM_dbg.0.9.8e:pk7_mime.obj
 0002:000079cc       ??_C@_08EOPONIBF@maxsize?$DN?$AA@ 100bf9cc     libeay32_EM_dbg.0.9.8e:a_mbstr.obj
 0002:000079d8       ??_C@_08JJBFGKFE@minsize?$DN?$AA@ 100bf9d8     libeay32_EM_dbg.0.9.8e:a_mbstr.obj
 0002:000079e4       ??_C@_03JALODAI@?$CFld?$AA@ 100bf9e4     libeay32_EM_dbg.0.9.8e:a_mbstr.obj
 0002:000079e8       ??_C@_0BI@LIGHHEPI@?4?2crypto?2asn1?2a_mbstr?4c?$AA@ 100bf9e8     libeay32_EM_dbg.0.9.8e:a_mbstr.obj
 0002:00007a00       ??_C@_0M@PCEPOGPN@?8?$CI?$CJ?$CL?0?9?4?1?3?$DN?$DP?$AA@ 100bfa00     libeay32_EM_dbg.0.9.8e:a_mbstr.obj
 0002:00007aa0       ??_C@_0P@GJDBGGFH@socket?5connect?$AA@ 100bfaa0     libeay32_EM_dbg.0.9.8e:bss_conn.obj
 0002:00007ab0       ??_C@_0BI@GOGCPGDN@?4?2crypto?2bio?2bss_conn?4c?$AA@ 100bfab0     libeay32_EM_dbg.0.9.8e:bss_conn.obj
 0002:00007ac8       ??_C@_01JLIPDDHJ@?3?$AA@   100bfac8     libeay32_EM_dbg.0.9.8e:bss_conn.obj
 0002:00007acc       ??_C@_05PBGCLELH@host?$DN?$AA@ 100bfacc     libeay32_EM_dbg.0.9.8e:bss_conn.obj
 0002:00007ad4       ??_C@_0M@PCENNPGA@?$CFd?4?$CFd?4?$CFd?4?$CFd?$AA@ 100bfad4     libeay32_EM_dbg.0.9.8e:bss_conn.obj
 0002:00007ae0       ??_C@_0BA@CJBGKJNL@not?5initialized?$AA@ 100bfae0     libeay32_EM_dbg.0.9.8e:bss_conn.obj
 0002:00007af0       ??_C@_0O@LAGOGLFJ@socket?5accept?$AA@ 100bfaf0     libeay32_EM_dbg.0.9.8e:bss_acpt.obj
 0002:00007b00       ??_C@_0BI@GOELLJHH@?4?2crypto?2bio?2bss_acpt?4c?$AA@ 100bfb00     libeay32_EM_dbg.0.9.8e:bss_acpt.obj
 0002:00007b18       ??_C@_0BH@HCDEFMEH@?4?2crypto?2evp?2evp_lib?4c?$AA@ 100bfb18     libeay32_EM_dbg.0.9.8e:evp_lib.obj
 0002:00007b30       ??_C@_0BD@LHHAEAAJ@l?5?$DM?$DN?5sizeof?$CIc?9?$DOiv?$CJ?$AA@ 100bfb30     libeay32_EM_dbg.0.9.8e:evp_lib.obj
 0002:00007b44       ??_C@_0BD@CKKMELBK@j?5?$DM?$DN?5sizeof?$CIc?9?$DOiv?$CJ?$AA@ 100bfb44     libeay32_EM_dbg.0.9.8e:evp_lib.obj
 0002:00007b58       ??_C@_0BB@PLKCHANP@error?5number?5?$CFld?$AA@ 100bfb58     libeay32_EM_dbg.0.9.8e:x509_txt.obj
 0002:00007b6c       ??_C@_0DD@IBFFGHC@RFC?53779?5resource?5not?5subset?5of?5@ 100bfb6c     libeay32_EM_dbg.0.9.8e:x509_txt.obj
 0002:00007ba0       ??_C@_0BD@KPLGPDJA@no?5explicit?5policy?$AA@ 100bfba0     libeay32_EM_dbg.0.9.8e:x509_txt.obj
 0002:00007bb4       ??_C@_0DF@JOCKIEDN@invalid?5or?5inconsistent?5certific@ 100bfbb4     libeay32_EM_dbg.0.9.8e:x509_txt.obj
 0002:00007bec       ??_C@_0CO@BIBMOLPK@invalid?5or?5inconsistent?5certific@ 100bfbec     libeay32_EM_dbg.0.9.8e:x509_txt.obj
 0002:00007c1c       ??_C@_0CB@OODOOIP@unhandled?5critical?5CRL?5extension@ 100bfc1c     libeay32_EM_dbg.0.9.8e:x509_txt.obj
 0002:00007c40       ??_C@_0CN@HJJGOKEM@key?5usage?5does?5not?5include?5digit@ 100bfc40     libeay32_EM_dbg.0.9.8e:x509_txt.obj
 0002:00007c70       ??_C@_0CH@JKPBLJBP@key?5usage?5does?5not?5include?5CRL?5s@ 100bfc70     libeay32_EM_dbg.0.9.8e:x509_txt.obj
 0002:00007c98       ??_C@_0BN@DHGAFJG@unhandled?5critical?5extension?$AA@ 100bfc98     libeay32_EM_dbg.0.9.8e:x509_txt.obj
 0002:00007cb8       ??_C@_0CF@OOPBMEA@unable?5to?5get?5CRL?5issuer?5certifi@ 100bfcb8     libeay32_EM_dbg.0.9.8e:x509_txt.obj
 0002:00007ce0       ??_C@_0CP@EEPOGHPG@key?5usage?5does?5not?5include?5certi@ 100bfce0     libeay32_EM_dbg.0.9.8e:x509_txt.obj
 0002:00007d10       ??_C@_0CM@GGIKLLEP@authority?5and?5issuer?5serial?5numb@ 100bfd10     libeay32_EM_dbg.0.9.8e:x509_txt.obj
 0002:00007d3c       ??_C@_0CO@HGJKNPBG@authority?5and?5subject?5key?5identi@ 100bfd3c     libeay32_EM_dbg.0.9.8e:x509_txt.obj
 0002:00007d6c       ??_C@_0BI@OHGOAFON@subject?5issuer?5mismatch?$AA@ 100bfd6c     libeay32_EM_dbg.0.9.8e:x509_txt.obj
 0002:00007d84       ??_C@_0CB@HLIFGCCB@application?5verification?5failure@ 100bfd84     libeay32_EM_dbg.0.9.8e:x509_txt.obj
 0002:00007da8       ??_C@_0BF@OJPAOPB@certificate?5rejected?$AA@ 100bfda8     libeay32_EM_dbg.0.9.8e:x509_txt.obj
 0002:00007dc0       ??_C@_0BI@GDICGBPK@certificate?5not?5trusted?$AA@ 100bfdc0     libeay32_EM_dbg.0.9.8e:x509_txt.obj
 0002:00007dd8       ??_C@_0CA@LPAJAMFA@unsupported?5certificate?5purpose?$AA@ 100bfdd8     libeay32_EM_dbg.0.9.8e:x509_txt.obj
 0002:00007df8       ??_C@_0DP@OLPCKKGC@proxy?5cerificates?5not?5allowed?0?5p@ 100bfdf8     libeay32_EM_dbg.0.9.8e:x509_txt.obj
 0002:00007e38       ??_C@_0CG@BIOFEFIK@proxy?5path?5length?5constraint?5exc@ 100bfe38     libeay32_EM_dbg.0.9.8e:x509_txt.obj
 0002:00007e60       ??_C@_0CA@LLGONKGK@path?5length?5constraint?5exceeded?$AA@ 100bfe60     libeay32_EM_dbg.0.9.8e:x509_txt.obj
 0002:00007e80       ??_C@_0CN@GNFODAID@invalid?5non?9CA?5certificate?5?$CIhas?5@ 100bfe80     libeay32_EM_dbg.0.9.8e:x509_txt.obj
 0002:00007eb0       ??_C@_0BH@EKEBOKH@invalid?5CA?5certificate?$AA@ 100bfeb0     libeay32_EM_dbg.0.9.8e:x509_txt.obj
 0002:00007ec8       ??_C@_0BE@PBLGGMOB@certificate?5revoked?$AA@ 100bfec8     libeay32_EM_dbg.0.9.8e:x509_txt.obj
 0002:00007edc       ??_C@_0BL@JGHJBAMD@certificate?5chain?5too?5long?$AA@ 100bfedc     libeay32_EM_dbg.0.9.8e:x509_txt.obj
 0002:00007ef8       ??_C@_0CH@PCOLJJF@unable?5to?5verify?5the?5first?5certi@ 100bfef8     libeay32_EM_dbg.0.9.8e:x509_txt.obj
 0002:00007f20       ??_C@_0CH@NBHLNPJC@unable?5to?5get?5local?5issuer?5certi@ 100bff20     libeay32_EM_dbg.0.9.8e:x509_txt.obj
 0002:00007f48       ??_C@_0CN@GCPAFAGL@self?5signed?5certificate?5in?5certi@ 100bff48     libeay32_EM_dbg.0.9.8e:x509_txt.obj
 0002:00007f78       ??_C@_0BI@PBDHIKFI@self?5signed?5certificate?$AA@ 100bff78     libeay32_EM_dbg.0.9.8e:x509_txt.obj
 0002:00007f90       ??_C@_0O@BNNCBLEN@out?5of?5memory?$AA@ 100bff90     libeay32_EM_dbg.0.9.8e:x509_txt.obj
 0002:00007fa0       ??_C@_0CH@DKJJKKIC@format?5error?5in?5CRL?8s?5nextUpdate@ 100bffa0     libeay32_EM_dbg.0.9.8e:x509_txt.obj
 0002:00007fc8       ??_C@_0CH@OEGANADM@format?5error?5in?5CRL?8s?5lastUpdate@ 100bffc8     libeay32_EM_dbg.0.9.8e:x509_txt.obj
 0002:00007ff0       ??_C@_0CN@NPHCNDGF@format?5error?5in?5certificate?8s?5no@ 100bfff0     libeay32_EM_dbg.0.9.8e:x509_txt.obj
 0002:00008020       ??_C@_0CO@BGGBNHHG@format?5error?5in?5certificate?8s?5no@ 100c0020     libeay32_EM_dbg.0.9.8e:x509_txt.obj
 0002:00008050       ??_C@_0BA@JMGDIGAP@CRL?5has?5expired?$AA@ 100c0050     libeay32_EM_dbg.0.9.8e:x509_txt.obj
 0002:00008060       ??_C@_0BI@HHICNLNC@certificate?5has?5expired?$AA@ 100c0060     libeay32_EM_dbg.0.9.8e:x509_txt.obj
 0002:00008078       ??_C@_0BF@MIBPKMEH@CRL?5is?5not?5yet?5valid?$AA@ 100c0078     libeay32_EM_dbg.0.9.8e:x509_txt.obj
 0002:00008090       ??_C@_0BN@JFLHFAGA@certificate?5is?5not?5yet?5valid?$AA@ 100c0090     libeay32_EM_dbg.0.9.8e:x509_txt.obj
 0002:000080b0       ??_C@_0BG@PKEGLGEB@CRL?5signature?5failure?$AA@ 100c00b0     libeay32_EM_dbg.0.9.8e:x509_txt.obj
 0002:000080c8       ??_C@_0BO@FPBBKLNG@certificate?5signature?5failure?$AA@ 100c00c8     libeay32_EM_dbg.0.9.8e:x509_txt.obj
 0002:000080e8       ??_C@_0CD@KOEKDJOF@unable?5to?5decode?5issuer?5public?5k@ 100c00e8     libeay32_EM_dbg.0.9.8e:x509_txt.obj
 0002:0000810c       ??_C@_0CC@KFEPDDPF@unable?5to?5decrypt?5CRL?8s?5signatur@ 100c010c     libeay32_EM_dbg.0.9.8e:x509_txt.obj
 0002:00008130       ??_C@_0CK@LBDBBNHI@unable?5to?5decrypt?5certificate?8s?5@ 100c0130     libeay32_EM_dbg.0.9.8e:x509_txt.obj
 0002:0000815c       ??_C@_0BO@CIOBDJGN@unable?5to?5get?5certificate?5CRL?$AA@ 100c015c     libeay32_EM_dbg.0.9.8e:x509_txt.obj
 0002:0000817c       ??_C@_0CB@KFJODNFN@unable?5to?5get?5issuer?5certificate@ 100c017c     libeay32_EM_dbg.0.9.8e:x509_txt.obj
 0002:000081a0       ??_C@_02MFDMBIJM@ok?$AA@   100c01a0     libeay32_EM_dbg.0.9.8e:x509_txt.obj
 0002:000081a4       ??_C@_06KDGDAFPH@cipher?$AA@ 100c01a4     libeay32_EM_dbg.0.9.8e:bio_enc.obj
 0002:000081ac       ??_C@_0BH@GLJJADKE@?4?2crypto?2evp?2bio_enc?4c?$AA@ 100c01ac     libeay32_EM_dbg.0.9.8e:bio_enc.obj
 0002:000081c4       ??_C@_06HOHPNJLC@buffer?$AA@ 100c01c4     libeay32_EM_dbg.0.9.8e:bf_buff.obj
 0002:000081cc       ??_C@_0BH@HEBHEJFA@?4?2crypto?2bio?2bf_buff?4c?$AA@ 100c01cc     libeay32_EM_dbg.0.9.8e:bf_buff.obj
 0002:000081e4       ??_C@_0BF@MNAMDHDJ@?4?2crypto?2evp?2p_dec?4c?$AA@ 100c01e4     libeay32_EM_dbg.0.9.8e:p_dec.obj
 0002:000081fc       ??_C@_0P@ONGHGJEC@message?5digest?$AA@ 100c01fc     libeay32_EM_dbg.0.9.8e:bio_md.obj
 0002:0000820c       ??_C@_0BI@NFPKAKEA@Eric?5Young?8s?5PKCS?$CD1?5RSA?$AA@ 100c020c     libeay32_EM_dbg.0.9.8e:rsa_eay.obj
 0002:00008224       ??_C@_0BH@FEEKPMJH@?4?2crypto?2rsa?2rsa_eay?4c?$AA@ 100c0224     libeay32_EM_dbg.0.9.8e:rsa_eay.obj
 0002:0000823c       ??_C@_0BL@BEBELKO@?4?2crypto?2engine?2eng_init?4c?$AA@ 100c023c     libeay32_EM_dbg.0.9.8e:eng_init.obj
 0002:0000825c       ??_C@_0BH@CIPLCBLK@?4?2crypto?2bn?2bn_blind?4c?$AA@ 100c025c     libeay32_EM_dbg.0.9.8e:bn_blind.obj
 0002:00008274       ??_C@_04OLDKMDKP@comp?$AA@ 100c0274     libeay32_EM_dbg.0.9.8e:cryptlib.obj
 0002:0000827c       ??_C@_05ODGDKDLF@store?$AA@ 100c027c     libeay32_EM_dbg.0.9.8e:cryptlib.obj
 0002:00008284       ??_C@_0M@FNJFEIGB@ec_pre_comp?$AA@ 100c0284     libeay32_EM_dbg.0.9.8e:cryptlib.obj
 0002:00008290       ??_C@_02LAJDHPIK@bn?$AA@   100c0290     libeay32_EM_dbg.0.9.8e:cryptlib.obj
 0002:00008294       ??_C@_04KDGGCKGB@ecdh?$AA@ 100c0294     libeay32_EM_dbg.0.9.8e:cryptlib.obj
 0002:0000829c       ??_C@_02HCBHEC@ec?$AA@     100c029c     libeay32_EM_dbg.0.9.8e:cryptlib.obj
 0002:000082a0       ??_C@_05FGIDCBJD@ecdsa?$AA@ 100c02a0     libeay32_EM_dbg.0.9.8e:cryptlib.obj
 0002:000082a8       ??_C@_02OGLLFMLI@ui?$AA@   100c02a8     libeay32_EM_dbg.0.9.8e:cryptlib.obj
 0002:000082ac       ??_C@_06LOBMEHPF@engine?$AA@ 100c02ac     libeay32_EM_dbg.0.9.8e:cryptlib.obj
 0002:000082b4       ??_C@_07HGGNMPAJ@dynlock?$AA@ 100c02b4     libeay32_EM_dbg.0.9.8e:cryptlib.obj
 0002:000082bc       ??_C@_03NOCNOBNG@dso?$AA@  100c02bc     libeay32_EM_dbg.0.9.8e:cryptlib.obj
 0002:000082c0       ??_C@_0O@PMFKBDME@debug_malloc2?$AA@ 100c02c0     libeay32_EM_dbg.0.9.8e:cryptlib.obj
 0002:000082d0       ??_C@_02OCEEKELO@dh?$AA@   100c02d0     libeay32_EM_dbg.0.9.8e:cryptlib.obj
 0002:000082d4       ??_C@_0N@BGAJKBNF@RSA_blinding?$AA@ 100c02d4     libeay32_EM_dbg.0.9.8e:cryptlib.obj
 0002:000082e4       ??_C@_07OMHHFDME@readdir?$AA@ 100c02e4     libeay32_EM_dbg.0.9.8e:cryptlib.obj
 0002:000082ec       ??_C@_0O@BFBCKHPD@gethostbyname?$AA@ 100c02ec     libeay32_EM_dbg.0.9.8e:cryptlib.obj
 0002:000082fc       ??_C@_03OHAMFFNA@BIO?$AA@  100c02fc     libeay32_EM_dbg.0.9.8e:cryptlib.obj
 0002:00008300       ??_C@_0N@CLEMOJNL@debug_malloc?$AA@ 100c0300     libeay32_EM_dbg.0.9.8e:cryptlib.obj
 0002:00008310       ??_C@_05NFNCBLNG@rand2?$AA@ 100c0310     libeay32_EM_dbg.0.9.8e:cryptlib.obj
 0002:00008318       ??_C@_04HKINGDKC@rand?$AA@ 100c0318     libeay32_EM_dbg.0.9.8e:cryptlib.obj
 0002:00008320       ??_C@_0L@NKBFNPDB@ssl_method?$AA@ 100c0320     libeay32_EM_dbg.0.9.8e:cryptlib.obj
 0002:0000832c       ??_C@_03DIMONNDD@ssl?$AA@  100c032c     libeay32_EM_dbg.0.9.8e:cryptlib.obj
 0002:00008330       ??_C@_0O@LOCLBOHA@ssl_sess_cert?$AA@ 100c0330     libeay32_EM_dbg.0.9.8e:cryptlib.obj
 0002:00008340       ??_C@_0M@OAEAFGMD@ssl_session?$AA@ 100c0340     libeay32_EM_dbg.0.9.8e:cryptlib.obj
 0002:0000834c       ??_C@_08INIFBEOB@ssl_cert?$AA@ 100c034c     libeay32_EM_dbg.0.9.8e:cryptlib.obj
 0002:00008358       ??_C@_07DNHKIAPH@ssl_ctx?$AA@ 100c0358     libeay32_EM_dbg.0.9.8e:cryptlib.obj
 0002:00008360       ??_C@_0L@JCDDFIOK@x509_store?$AA@ 100c0360     libeay32_EM_dbg.0.9.8e:cryptlib.obj
 0002:0000836c       ??_C@_08NBJJIGBN@evp_pkey?$AA@ 100c036c     libeay32_EM_dbg.0.9.8e:cryptlib.obj
 0002:00008378       ??_C@_03EAKOMMFI@dsa?$AA@  100c0378     libeay32_EM_dbg.0.9.8e:cryptlib.obj
 0002:0000837c       ??_C@_08BHPLFFMD@x509_req?$AA@ 100c037c     libeay32_EM_dbg.0.9.8e:cryptlib.obj
 0002:00008388       ??_C@_08BJFLLMNA@x509_crl?$AA@ 100c0388     libeay32_EM_dbg.0.9.8e:cryptlib.obj
 0002:00008394       ??_C@_09HNLHIFBP@x509_pkey?$AA@ 100c0394     libeay32_EM_dbg.0.9.8e:cryptlib.obj
 0002:000083a0       ??_C@_09DJEHILFA@x509_info?$AA@ 100c03a0     libeay32_EM_dbg.0.9.8e:cryptlib.obj
 0002:000083ac       ??_C@_04BNGFMDFF@x509?$AA@ 100c03ac     libeay32_EM_dbg.0.9.8e:cryptlib.obj
 0002:000083b4       ??_C@_07OALPHBKG@ex_data?$AA@ 100c03b4     libeay32_EM_dbg.0.9.8e:cryptlib.obj
 0002:000083bc       ??_C@_03JIDPIAJI@err?$AA@  100c03bc     libeay32_EM_dbg.0.9.8e:cryptlib.obj
 0002:000083c0       ??_C@_09OGFJIAEE@?$DM?$DMERROR?$DO?$DO?$AA@ 100c03c0     libeay32_EM_dbg.0.9.8e:cryptlib.obj
 0002:0000846c       ??_C@_0BE@MCNNLDKP@?4?2crypto?2cryptlib?4c?$AA@ 100c046c     libeay32_EM_dbg.0.9.8e:cryptlib.obj
 0002:00008480       ??_C@_0BA@LPBALOME@pointer?5?$CB?$DN?5NULL?$AA@ 100c0480     libeay32_EM_dbg.0.9.8e:cryptlib.obj
 0002:00008490       ??_C@_1BG@MLNJHGBB@?$AAS?$AAe?$AAr?$AAv?$AAi?$AAc?$AAe?$AA?9?$AA0?$AAx?$AA?$AA@ 100c0490     libeay32_EM_dbg.0.9.8e:cryptlib.obj
 0002:000084a8       ??_C@_0P@LIPMGDB@OpenSSL?3?5FATAL?$AA@ 100c04a8     libeay32_EM_dbg.0.9.8e:cryptlib.obj
 0002:000084b8       ??_C@_07BKGNFEDL@OPENSSL?$AA@ 100c04b8     libeay32_EM_dbg.0.9.8e:cryptlib.obj
 0002:000084c0       ??_C@_1BE@NLCFDLCA@?$AAn?$AAo?$AA?5?$AAs?$AAt?$AAa?$AAc?$AAk?$AA?$DP?$AA?$AA@ 100c04c0     libeay32_EM_dbg.0.9.8e:cryptlib.obj
 0002:000084d4       ??_C@_0DG@JJAMFCAP@?$CFs?$CI?$CFd?$CJ?3?5OpenSSL?5internal?5error?0?5@ 100c04d4     libeay32_EM_dbg.0.9.8e:cryptlib.obj
 0002:0000850c       ??_C@_0BF@LAJPHOCL@?4?2crypto?2bn?2bn_ctx?4c?$AA@ 100c050c     libeay32_EM_dbg.0.9.8e:bn_ctx.obj
 0002:00008524       ??_C@_0BF@ODABJPII@?4?2crypto?2bn?2bn_gcd?4c?$AA@ 100c0524     libeay32_EM_dbg.0.9.8e:bn_gcd.obj
 0002:0000853c       ??_C@_0BF@IHHIKAIF@?4?2crypto?2bn?2bn_add?4c?$AA@ 100c053c     libeay32_EM_dbg.0.9.8e:bn_add.obj
 0002:00008554       ??_C@_0BH@MJHCPJFL@?4?2crypto?2pem?2pem_oth?4c?$AA@ 100c0554     libeay32_EM_dbg.0.9.8e:pem_oth.obj
 0002:0000856c       _PEM_version               100c056c     libeay32_EM_dbg.0.9.8e:pem_lib.obj
 0002:000085a8       ??_C@_0DE@MBHEFEFO@phrase?5is?5too?5short?0?5needs?5to?5be@ 100c05a8     libeay32_EM_dbg.0.9.8e:pem_lib.obj
 0002:000085dc       ??_C@_0BH@LICLDIKC@?4?2crypto?2pem?2pem_lib?4c?$AA@ 100c05dc     libeay32_EM_dbg.0.9.8e:pem_lib.obj
 0002:000085f4       ??_C@_0BH@FDMMOMD@Enter?5PEM?5pass?5phrase?3?$AA@ 100c05f4     libeay32_EM_dbg.0.9.8e:pem_lib.obj
 0002:0000860c       ??_C@_09NEFHHFED@ENCRYPTED?$AA@ 100c060c     libeay32_EM_dbg.0.9.8e:pem_lib.obj
 0002:00008618       ??_C@_0L@JOOMHNBL@DEK?9Info?3?5?$AA@ 100c0618     libeay32_EM_dbg.0.9.8e:pem_lib.obj
 0002:00008624       ??_C@_0M@NNIFEEDF@Expecting?3?5?$AA@ 100c0624     libeay32_EM_dbg.0.9.8e:pem_lib.obj
 0002:00008630       ??_C@_0BE@LHICLJDN@TRUSTED?5CERTIFICATE?$AA@ 100c0630     libeay32_EM_dbg.0.9.8e:pem_lib.obj
 0002:00008644       ??_C@_0BB@PKKMAABO@X509?5CERTIFICATE?$AA@ 100c0644     libeay32_EM_dbg.0.9.8e:pem_lib.obj
 0002:00008658       ??_C@_0M@ILILCPAC@Proc?9Type?3?5?$AA@ 100c0658     libeay32_EM_dbg.0.9.8e:pem_lib.obj
 0002:00008664       ??_C@_09KLIMLKKH@?9?9?9?9?9END?5?$AA@ 100c0664     libeay32_EM_dbg.0.9.8e:pem_lib.obj
 0002:00008670       ??_C@_06NGLIMPFK@?9?9?9?9?9?6?$AA@ 100c0670     libeay32_EM_dbg.0.9.8e:pem_lib.obj
 0002:00008678       ??_C@_0M@ILJMFDEM@?9?9?9?9?9BEGIN?5?$AA@ 100c0678     libeay32_EM_dbg.0.9.8e:pem_lib.obj
 0002:00008684       ??_C@_07DKNGGOEP@doapr?$CI?$CJ?$AA@ 100c0684     libeay32_EM_dbg.0.9.8e:b_print.obj
 0002:0000868c       ??_C@_0BH@PHJMFNI@?4?2crypto?2bio?2b_print?4c?$AA@ 100c068c     libeay32_EM_dbg.0.9.8e:b_print.obj
 0002:000086a4       ??_C@_06CBHGEMFM@?$DMNULL?$DO?$AA@ 100c06a4     libeay32_EM_dbg.0.9.8e:b_print.obj
 0002:000086ac       ??_C@_0BB@JCEFLFJE@0123456789abcdef?$AA@ 100c06ac     libeay32_EM_dbg.0.9.8e:b_print.obj
 0002:000086c0       ??_C@_0BB@JGGOGLEG@0123456789ABCDEF?$AA@ 100c06c0     libeay32_EM_dbg.0.9.8e:b_print.obj
 0002:000086d4       ??_C@_02MDDDDAID@0x?$AA@   100c06d4     libeay32_EM_dbg.0.9.8e:b_print.obj
 0002:000086d8       __real@4024000000000000    100c06d8     libeay32_EM_dbg.0.9.8e:b_print.obj
 0002:000086e0       __real@3fe0000000000000    100c06e0     libeay32_EM_dbg.0.9.8e:b_print.obj
 0002:00008fe8       ??_C@_0BM@JJNBBBD@?4?2crypto?2engine?2tb_cipher?4c?$AA@ 100c0fe8     libeay32_EM_dbg.0.9.8e:tb_cipher.obj
 0002:00009004       ??_C@_0BH@HEBAELGA@ASN1_OCTET_STRING_NDEF?$AA@ 100c1004     libeay32_EM_dbg.0.9.8e:tasn_typ.obj
 0002:0000901c       ??_C@_0O@JKANHMPI@ASN1_FBOOLEAN?$AA@ 100c101c     libeay32_EM_dbg.0.9.8e:tasn_typ.obj
 0002:0000902c       ??_C@_0O@BIDLBGAP@ASN1_TBOOLEAN?$AA@ 100c102c     libeay32_EM_dbg.0.9.8e:tasn_typ.obj
 0002:0000903c       ??_C@_0N@HMAPMMGF@ASN1_BOOLEAN?$AA@ 100c103c     libeay32_EM_dbg.0.9.8e:tasn_typ.obj
 0002:0000904c       ??_C@_0BA@CBHCBCAE@DIRECTORYSTRING?$AA@ 100c104c     libeay32_EM_dbg.0.9.8e:tasn_typ.obj
 0002:0000905c       ??_C@_0M@FANFDIEE@DISPLAYTEXT?$AA@ 100c105c     libeay32_EM_dbg.0.9.8e:tasn_typ.obj
 0002:00009068       ??_C@_0P@NDKOCAEJ@ASN1_PRINTABLE?$AA@ 100c1068     libeay32_EM_dbg.0.9.8e:tasn_typ.obj
 0002:00009078       ??_C@_0O@NJFCFMGE@ASN1_SEQUENCE?$AA@ 100c1078     libeay32_EM_dbg.0.9.8e:tasn_typ.obj
 0002:00009088       ??_C@_08FIDCPDIJ@ASN1_ANY?$AA@ 100c1088     libeay32_EM_dbg.0.9.8e:tasn_typ.obj
 0002:00009094       ??_C@_0P@CHICPHIN@ASN1_BMPSTRING?$AA@ 100c1094     libeay32_EM_dbg.0.9.8e:tasn_typ.obj
 0002:000090a4       ??_C@_0BF@DMDDFBNJ@ASN1_UNIVERSALSTRING?$AA@ 100c10a4     libeay32_EM_dbg.0.9.8e:tasn_typ.obj
 0002:000090bc       ??_C@_0BD@HMMCNBGD@ASN1_VISIBLESTRING?$AA@ 100c10bc     libeay32_EM_dbg.0.9.8e:tasn_typ.obj
 0002:000090d0       ??_C@_0BF@MPJFOIHC@ASN1_GENERALIZEDTIME?$AA@ 100c10d0     libeay32_EM_dbg.0.9.8e:tasn_typ.obj
 0002:000090e8       ??_C@_0N@OIMCLPEM@ASN1_UTCTIME?$AA@ 100c10e8     libeay32_EM_dbg.0.9.8e:tasn_typ.obj
 0002:000090f8       ??_C@_0BD@EMMGLGMD@ASN1_GENERALSTRING?$AA@ 100c10f8     libeay32_EM_dbg.0.9.8e:tasn_typ.obj
 0002:0000910c       ??_C@_0P@KBFNFBLB@ASN1_IA5STRING?$AA@ 100c110c     libeay32_EM_dbg.0.9.8e:tasn_typ.obj
 0002:0000911c       ??_C@_0P@GDIFPLAP@ASN1_T61STRING?$AA@ 100c111c     libeay32_EM_dbg.0.9.8e:tasn_typ.obj
 0002:0000912c       ??_C@_0BF@CPDMNKCA@ASN1_PRINTABLESTRING?$AA@ 100c112c     libeay32_EM_dbg.0.9.8e:tasn_typ.obj
 0002:00009144       ??_C@_0BA@LEPDCAOC@ASN1_UTF8STRING?$AA@ 100c1144     libeay32_EM_dbg.0.9.8e:tasn_typ.obj
 0002:00009154       ??_C@_0M@BJNOJGBL@ASN1_OBJECT?$AA@ 100c1154     libeay32_EM_dbg.0.9.8e:tasn_typ.obj
 0002:00009160       ??_C@_09NHFFCPKK@ASN1_NULL?$AA@ 100c1160     libeay32_EM_dbg.0.9.8e:tasn_typ.obj
 0002:0000916c       ??_C@_0BC@PEBEKNCO@ASN1_OCTET_STRING?$AA@ 100c116c     libeay32_EM_dbg.0.9.8e:tasn_typ.obj
 0002:00009180       ??_C@_0BA@LJHGDIKH@ASN1_BIT_STRING?$AA@ 100c1180     libeay32_EM_dbg.0.9.8e:tasn_typ.obj
 0002:00009190       ??_C@_0BA@CLGIIAJD@ASN1_ENUMERATED?$AA@ 100c1190     libeay32_EM_dbg.0.9.8e:tasn_typ.obj
 0002:000091a0       ??_C@_0N@KIGEHGKE@ASN1_INTEGER?$AA@ 100c11a0     libeay32_EM_dbg.0.9.8e:tasn_typ.obj
 0002:0000946c       ??_C@_0P@IBKNNFL@X509_ATTRIBUTE?$AA@ 100c146c     libeay32_EM_dbg.0.9.8e:x_attrib.obj
 0002:0000947c       ??_C@_0N@MCAEPLPL@value?4single?$AA@ 100c147c     libeay32_EM_dbg.0.9.8e:x_attrib.obj
 0002:0000948c       ??_C@_09MPCDAIAO@value?4set?$AA@ 100c148c     libeay32_EM_dbg.0.9.8e:x_attrib.obj
 0002:00009520       ??_C@_0M@INJPOKDH@X509_PUBKEY?$AA@ 100c1520     libeay32_EM_dbg.0.9.8e:x_pubkey.obj
 0002:0000952c       ??_C@_0L@PJCANJEE@public_key?$AA@ 100c152c     libeay32_EM_dbg.0.9.8e:x_pubkey.obj
 0002:00009594       ??_C@_0BJ@MMDFAHEK@?4?2crypto?2asn1?2x_pubkey?4c?$AA@ 100c1594     libeay32_EM_dbg.0.9.8e:x_pubkey.obj
 0002:00009630       ??_C@_05GCCLHHOK@Type?$DN?$AA@ 100c1630     libeay32_EM_dbg.0.9.8e:tasn_dec.obj
 0002:00009638       ??_C@_06GPKHKFJE@Field?$DN?$AA@ 100c1638     libeay32_EM_dbg.0.9.8e:tasn_dec.obj
 0002:00009640       ??_C@_07NHKPEHKF@?0?5Type?$DN?$AA@ 100c1640     libeay32_EM_dbg.0.9.8e:tasn_dec.obj
 0002:00009648       ??_C@_0BJ@KPAPPHAC@?4?2crypto?2asn1?2tasn_dec?4c?$AA@ 100c1648     libeay32_EM_dbg.0.9.8e:tasn_dec.obj
 0002:00009664       ??_C@_0BJ@NBOPBEKM@?4?2crypto?2asn1?2tasn_new?4c?$AA@ 100c1664     libeay32_EM_dbg.0.9.8e:tasn_new.obj
 0002:00009680       ??_C@_0BG@LIBBNHAF@?4?2crypto?2asn1?2a_dup?4c?$AA@ 100c1680     libeay32_EM_dbg.0.9.8e:a_dup.obj
 0002:00009698       _IDEA_version              100c1698     libeay32_EM_dbg.0.9.8e:i_ecb.obj
 0002:000096c0       ??_C@_0BM@LJNAPALK@?4?2crypto?2engine?2tb_digest?4c?$AA@ 100c16c0     libeay32_EM_dbg.0.9.8e:tb_digest.obj
 0002:000096dc       ??_C@_0P@BDECDGPA@X509_CERT_PAIR?$AA@ 100c16dc     libeay32_EM_dbg.0.9.8e:x_x509a.obj
 0002:000096ec       ??_C@_07KOIEOCCE@reverse?$AA@ 100c16ec     libeay32_EM_dbg.0.9.8e:x_x509a.obj
 0002:000096f4       ??_C@_07CJMBKHEI@forward?$AA@ 100c16f4     libeay32_EM_dbg.0.9.8e:x_x509a.obj
 0002:000096fc       ??_C@_0O@LJIIOIG@X509_CERT_AUX?$AA@ 100c16fc     libeay32_EM_dbg.0.9.8e:x_x509a.obj
 0002:0000970c       ??_C@_05BGEKGIIP@other?$AA@ 100c170c     libeay32_EM_dbg.0.9.8e:x_x509a.obj
 0002:00009714       ??_C@_05NKHOCLEE@alias?$AA@ 100c1714     libeay32_EM_dbg.0.9.8e:x_x509a.obj
 0002:0000971c       ??_C@_06JPOFNODM@reject?$AA@ 100c171c     libeay32_EM_dbg.0.9.8e:x_x509a.obj
 0002:00009724       ??_C@_05BMJJJIHB@trust?$AA@ 100c1724     libeay32_EM_dbg.0.9.8e:x_x509a.obj
 0002:00009828       ??_C@_01NEMOKFLO@?$DN?$AA@ 100c1828     libeay32_EM_dbg.0.9.8e:a_strex.obj
 0002:0000982c       ??_C@_03MHLONNLM@?5?$DN?5?$AA@ 100c182c     libeay32_EM_dbg.0.9.8e:a_strex.obj
 0002:00009830       ??_C@_02LNAEAIDO@?$DL?5?$AA@ 100c1830     libeay32_EM_dbg.0.9.8e:a_strex.obj
 0002:00009834       ??_C@_01MIFGBAGJ@?$CL?$AA@ 100c1834     libeay32_EM_dbg.0.9.8e:a_strex.obj
 0002:00009838       ??_C@_03NPBFACHO@?5?$CL?5?$AA@ 100c1838     libeay32_EM_dbg.0.9.8e:a_strex.obj
 0002:0000983c       ??_C@_01BJJEKLCA@?$CC?$AA@ 100c183c     libeay32_EM_dbg.0.9.8e:a_strex.obj
 0002:00009840       ??_C@_05JJPGCIKH@?2?$CF02X?$AA@ 100c1840     libeay32_EM_dbg.0.9.8e:a_strex.obj
 0002:00009848       ??_C@_01KICIPPFI@?2?$AA@   100c1848     libeay32_EM_dbg.0.9.8e:a_strex.obj
 0002:0000984c       ??_C@_07FDBPKGOC@?2U?$CF04lX?$AA@ 100c184c     libeay32_EM_dbg.0.9.8e:a_strex.obj
 0002:00009854       ??_C@_07IOFGAIHD@?2W?$CF08lX?$AA@ 100c1854     libeay32_EM_dbg.0.9.8e:a_strex.obj
 0002:0000985c       ??_C@_0BI@CMDJHDOG@?4?2crypto?2asn1?2a_strex?4c?$AA@ 100c185c     libeay32_EM_dbg.0.9.8e:a_strex.obj
 0002:00009874       ??_C@_01IPJKGB@?$CD?$AA@   100c1874     libeay32_EM_dbg.0.9.8e:a_strex.obj
 0002:00009878       ??_C@_0BE@LDIFBBLG@PKCS8_PRIV_KEY_INFO?$AA@ 100c1878     libeay32_EM_dbg.0.9.8e:p8_pkey.obj
 0002:0000988c       ??_C@_04JMMJFDFL@pkey?$AA@ 100c188c     libeay32_EM_dbg.0.9.8e:p8_pkey.obj
 0002:00009894       ??_C@_07PLCMOKAM@pkeyalg?$AA@ 100c1894     libeay32_EM_dbg.0.9.8e:p8_pkey.obj
 0002:00009924       ??_C@_05DLJFLBDA@TYPE?$DN?$AA@ 100c1924     libeay32_EM_dbg.0.9.8e:evp_pkey.obj
 0002:0000992c       ??_C@_0BI@NHBEHKCC@?4?2crypto?2evp?2evp_pkey?4c?$AA@ 100c192c     libeay32_EM_dbg.0.9.8e:evp_pkey.obj
 0002:00009944       ??_C@_06HGILBMJP@rmd160?$AA@ 100c1944     libeay32_EM_dbg.0.9.8e:c_alld.obj
 0002:0000994c       ??_C@_06ICCLKODP@ripemd?$AA@ 100c194c     libeay32_EM_dbg.0.9.8e:c_alld.obj
 0002:00009954       ??_C@_04LMAPAHKG@dss1?$AA@ 100c1954     libeay32_EM_dbg.0.9.8e:c_alld.obj
 0002:0000995c       ??_C@_04OFLBMBHM@DSS1?$AA@ 100c195c     libeay32_EM_dbg.0.9.8e:c_alld.obj
 0002:00009964       ??_C@_09KCHAKJIH@ssl3?9sha1?$AA@ 100c1964     libeay32_EM_dbg.0.9.8e:c_alld.obj
 0002:00009970       ??_C@_08CBANLEIB@ssl3?9md5?$AA@ 100c1970     libeay32_EM_dbg.0.9.8e:c_alld.obj
 0002:0000997c       ??_C@_08OKFBGHCE@ssl2?9md5?$AA@ 100c197c     libeay32_EM_dbg.0.9.8e:c_alld.obj
 0002:00009988       ??_C@_0M@MJDEJAJF@camellia256?$AA@ 100c1988     libeay32_EM_dbg.0.9.8e:c_allc.obj
 0002:00009994       ??_C@_0M@GKJDDEDB@CAMELLIA256?$AA@ 100c1994     libeay32_EM_dbg.0.9.8e:c_allc.obj
 0002:000099a0       ??_C@_0M@LGPHADBL@camellia192?$AA@ 100c19a0     libeay32_EM_dbg.0.9.8e:c_allc.obj
 0002:000099ac       ??_C@_0M@BFFAKHLP@CAMELLIA192?$AA@ 100c19ac     libeay32_EM_dbg.0.9.8e:c_allc.obj
 0002:000099b8       ??_C@_0M@EAENAEHA@camellia128?$AA@ 100c19b8     libeay32_EM_dbg.0.9.8e:c_allc.obj
 0002:000099c4       ??_C@_0M@ODOKKANE@CAMELLIA128?$AA@ 100c19c4     libeay32_EM_dbg.0.9.8e:c_allc.obj
 0002:000099d0       ??_C@_06FIIHOFAC@aes256?$AA@ 100c19d0     libeay32_EM_dbg.0.9.8e:c_allc.obj
 0002:000099d8       ??_C@_06FBFHPGKM@AES256?$AA@ 100c19d8     libeay32_EM_dbg.0.9.8e:c_allc.obj
 0002:000099e0       ??_C@_06CHEEHGIM@aes192?$AA@ 100c19e0     libeay32_EM_dbg.0.9.8e:c_allc.obj
 0002:000099e8       ??_C@_06COJEGFCC@AES192?$AA@ 100c19e8     libeay32_EM_dbg.0.9.8e:c_allc.obj
 0002:000099f0       ??_C@_06NBPOHBOH@aes128?$AA@ 100c19f0     libeay32_EM_dbg.0.9.8e:c_allc.obj
 0002:000099f8       ??_C@_06NICOGCEJ@AES128?$AA@ 100c19f8     libeay32_EM_dbg.0.9.8e:c_allc.obj
 0002:00009a00       ??_C@_03GPFCBGOF@RC5?$AA@  100c1a00     libeay32_EM_dbg.0.9.8e:c_allc.obj
 0002:00009a04       ??_C@_03PHCNPPDL@rc5?$AA@  100c1a04     libeay32_EM_dbg.0.9.8e:c_allc.obj
 0002:00009a08       ??_C@_08DICLOHAG@cast?9cbc?$AA@ 100c1a08     libeay32_EM_dbg.0.9.8e:c_allc.obj
 0002:00009a14       ??_C@_08ILLNDLFJ@CAST?9cbc?$AA@ 100c1a14     libeay32_EM_dbg.0.9.8e:c_allc.obj
 0002:00009a20       ??_C@_04HJDBPPOC@cast?$AA@ 100c1a20     libeay32_EM_dbg.0.9.8e:c_allc.obj
 0002:00009a28       ??_C@_04LFALBNJK@CAST?$AA@ 100c1a28     libeay32_EM_dbg.0.9.8e:c_allc.obj
 0002:00009a30       ??_C@_08CMDBPLDA@blowfish?$AA@ 100c1a30     libeay32_EM_dbg.0.9.8e:c_allc.obj
 0002:00009a3c       ??_C@_02HIEKPFIC@bf?$AA@   100c1a3c     libeay32_EM_dbg.0.9.8e:c_allc.obj
 0002:00009a40       ??_C@_02NFIDJHMA@BF?$AA@   100c1a40     libeay32_EM_dbg.0.9.8e:c_allc.obj
 0002:00009a44       ??_C@_03LIGMGJPM@rc2?$AA@  100c1a44     libeay32_EM_dbg.0.9.8e:c_allc.obj
 0002:00009a48       ??_C@_03CABDIACC@RC2?$AA@  100c1a48     libeay32_EM_dbg.0.9.8e:c_allc.obj
 0002:00009a4c       ??_C@_04CLEBCOKH@idea?$AA@ 100c1a4c     libeay32_EM_dbg.0.9.8e:c_allc.obj
 0002:00009a54       ??_C@_04OHHLMMNP@IDEA?$AA@ 100c1a54     libeay32_EM_dbg.0.9.8e:c_allc.obj
 0002:00009a5c       ??_C@_04PLELGNGH@des3?$AA@ 100c1a5c     libeay32_EM_dbg.0.9.8e:c_allc.obj
 0002:00009a64       ??_C@_04KCPFKLLN@DES3?$AA@ 100c1a64     libeay32_EM_dbg.0.9.8e:c_allc.obj
 0002:00009a6c       ??_C@_03CAPBGDEJ@des?$AA@  100c1a6c     libeay32_EM_dbg.0.9.8e:c_allc.obj
 0002:00009a70       ??_C@_03CNAKKODF@DES?$AA@  100c1a70     libeay32_EM_dbg.0.9.8e:c_allc.obj
 0002:00009a74       ??_C@_04OIMGPLKJ@desx?$AA@ 100c1a74     libeay32_EM_dbg.0.9.8e:c_allc.obj
 0002:00009a7c       ??_C@_04CEPMBJNB@DESX?$AA@ 100c1a7c     libeay32_EM_dbg.0.9.8e:c_allc.obj
 0002:00009a84       _SHA1_version              100c1a84     libeay32_EM_dbg.0.9.8e:sha1dgst.obj
 0002:00009ab0       _SHA256_version            100c1ab0     libeay32_EM_dbg.0.9.8e:sha256.obj
 0002:00009be0       _SHA512_version            100c1be0     libeay32_EM_dbg.0.9.8e:sha512.obj
 0002:00009e90       ??_C@_0BJ@BNFJHNHM@?4?2crypto?2buffer?2buffer?4c?$AA@ 100c1e90     libeay32_EM_dbg.0.9.8e:buffer.obj
 0002:00009eb0       _DES_SPtrans               100c1eb0     libeay32_EM_dbg.0.9.8e:ecb_enc.obj
 0002:0000a6b0       _OSSL_libdes_version       100c26b0     libeay32_EM_dbg.0.9.8e:ecb_enc.obj
 0002:0000a6dc       _OSSL_DES_version          100c26dc     libeay32_EM_dbg.0.9.8e:ecb_enc.obj
 0002:0000a704       _RC2_version               100c2704     libeay32_EM_dbg.0.9.8e:rc2_ecb.obj
 0002:0000a72c       ??_C@_0BJ@IFLEADKK@?4?2crypto?2asn1?2evp_asn1?4c?$AA@ 100c272c     libeay32_EM_dbg.0.9.8e:evp_asn1.obj
 0002:0000a748       _RAND_version              100c2748     libeay32_EM_dbg.0.9.8e:md_rand.obj
 0002:0000a770       __real@4040000000000000    100c2770     libeay32_EM_dbg.0.9.8e:md_rand.obj
 0002:0000a778       ??_C@_0BI@MJCOAGKM@?4?2crypto?2rand?2md_rand?4c?$AA@ 100c2778     libeay32_EM_dbg.0.9.8e:md_rand.obj
 0002:0000a790       ??_C@_0EK@MHBHPLPP@You?5need?5to?5read?5the?5OpenSSL?5FAQ@ 100c2790     libeay32_EM_dbg.0.9.8e:md_rand.obj
 0002:0000a7dc       ??_C@_0BF@KNMHCCP@?4?4?4?4?4?4?4?4?4?4?4?4?4?4?4?4?4?4?4?4?$AA@ 100c27dc     libeay32_EM_dbg.0.9.8e:md_rand.obj
 0002:0000a80c       ??_C@_0BJ@BDGEMPMC@?4?2crypto?2x509v3?2v3_utl?4c?$AA@ 100c280c     libeay32_EM_dbg.0.9.8e:v3_utl.obj
 0002:0000a828       ??_C@_05MAJJAKPI@FALSE?$AA@ 100c2828     libeay32_EM_dbg.0.9.8e:v3_utl.obj
 0002:0000a830       ??_C@_04HCDDPBNL@TRUE?$AA@ 100c2830     libeay32_EM_dbg.0.9.8e:v3_utl.obj
 0002:0000a838       ??_C@_08PCLJGJAL@section?3?$AA@ 100c2838     libeay32_EM_dbg.0.9.8e:v3_utl.obj
 0002:0000a844       ??_C@_06FONLLLNC@?0name?3?$AA@ 100c2844     libeay32_EM_dbg.0.9.8e:v3_utl.obj
 0002:0000a84c       ??_C@_07BDICHDDB@?0value?3?$AA@ 100c284c     libeay32_EM_dbg.0.9.8e:v3_utl.obj
 0002:0000a854       ??_C@_02KAJCLHKP@no?$AA@   100c2854     libeay32_EM_dbg.0.9.8e:v3_utl.obj
 0002:0000a858       ??_C@_02NFLNFON@NO?$AA@    100c2858     libeay32_EM_dbg.0.9.8e:v3_utl.obj
 0002:0000a85c       ??_C@_01NANMIPIL@N?$AA@    100c285c     libeay32_EM_dbg.0.9.8e:v3_utl.obj
 0002:0000a860       ??_C@_05LAPONLG@false?$AA@ 100c2860     libeay32_EM_dbg.0.9.8e:v3_utl.obj
 0002:0000a868       ??_C@_03ICICOMAL@yes?$AA@  100c2868     libeay32_EM_dbg.0.9.8e:v3_utl.obj
 0002:0000a86c       ??_C@_03IPHJCBHH@YES?$AA@  100c286c     libeay32_EM_dbg.0.9.8e:v3_utl.obj
 0002:0000a870       ??_C@_01EANLCPLP@y?$AA@    100c2870     libeay32_EM_dbg.0.9.8e:v3_utl.obj
 0002:0000a874       ??_C@_01NFFPALBN@Y?$AA@    100c2874     libeay32_EM_dbg.0.9.8e:v3_utl.obj
 0002:0000a878       ??_C@_04LOAJBDKD@true?$AA@ 100c2878     libeay32_EM_dbg.0.9.8e:v3_utl.obj
 0002:0000a880       ??_C@_03MKABNOCG@Dec?$AA@  100c2880     libeay32_EM_dbg.0.9.8e:t_x509.obj
 0002:0000a884       ??_C@_03JPJOFNIA@Nov?$AA@  100c2884     libeay32_EM_dbg.0.9.8e:t_x509.obj
 0002:0000a888       ??_C@_03BMAOKBAD@Oct?$AA@  100c2888     libeay32_EM_dbg.0.9.8e:t_x509.obj
 0002:0000a88c       ??_C@_03GGCAPAJC@Sep?$AA@  100c288c     libeay32_EM_dbg.0.9.8e:t_x509.obj
 0002:0000a890       ??_C@_03IFJFEIGA@Aug?$AA@  100c2890     libeay32_EM_dbg.0.9.8e:t_x509.obj
 0002:0000a894       ??_C@_03LBGABGKK@Jul?$AA@  100c2894     libeay32_EM_dbg.0.9.8e:t_x509.obj
 0002:0000a898       ??_C@_03IDFGHECI@Jun?$AA@  100c2898     libeay32_EM_dbg.0.9.8e:t_x509.obj
 0002:0000a89c       ??_C@_03CNMDKL@May?$AA@    100c289c     libeay32_EM_dbg.0.9.8e:t_x509.obj
 0002:0000a8a0       ??_C@_03LEOLGMJP@Apr?$AA@  100c28a0     libeay32_EM_dbg.0.9.8e:t_x509.obj
 0002:0000a8a4       ??_C@_03ODNJBKGA@Mar?$AA@  100c28a4     libeay32_EM_dbg.0.9.8e:t_x509.obj
 0002:0000a8a8       ??_C@_03HJBDCHOM@Feb?$AA@  100c28a8     libeay32_EM_dbg.0.9.8e:t_x509.obj
 0002:0000a8ac       ??_C@_03JIHJHPIE@Jan?$AA@  100c28ac     libeay32_EM_dbg.0.9.8e:t_x509.obj
 0002:0000a8b0       ??_C@_0BH@JKAMAPCI@?4?2crypto?2asn1?2t_x509?4c?$AA@ 100c28b0     libeay32_EM_dbg.0.9.8e:t_x509.obj
 0002:0000a8c8       ??_C@_0P@FGACABCD@Bad?5time?5value?$AA@ 100c28c8     libeay32_EM_dbg.0.9.8e:t_x509.obj
 0002:0000a8d8       ??_C@_0BL@NKCHLFNC@?$CFs?5?$CF2d?5?$CF02d?3?$CF02d?3?$CF02d?5?$CFd?$CFs?$AA@ 100c28d8     libeay32_EM_dbg.0.9.8e:t_x509.obj
 0002:0000a8f4       ??_C@_04FIEKMBKB@?5GMT?$AA@ 100c28f4     libeay32_EM_dbg.0.9.8e:t_x509.obj
 0002:0000a8fc       ??_C@_09BIBABMFN@BMPSTRING?$AA@ 100c28fc     libeay32_EM_dbg.0.9.8e:asn1_par.obj
 0002:0000a908       ??_C@_09FGHEBGDO@?$DMASN1?529?$DO?$AA@ 100c2908     libeay32_EM_dbg.0.9.8e:asn1_par.obj
 0002:0000a914       ??_C@_0BA@EJHHDALK@UNIVERSALSTRING?$AA@ 100c2914     libeay32_EM_dbg.0.9.8e:asn1_par.obj
 0002:0000a924       ??_C@_0O@DKDEPFLO@GENERALSTRING?$AA@ 100c2924     libeay32_EM_dbg.0.9.8e:asn1_par.obj
 0002:0000a934       ??_C@_0O@KDAJCBO@VISIBLESTRING?$AA@ 100c2934     libeay32_EM_dbg.0.9.8e:asn1_par.obj
 0002:0000a944       ??_C@_0O@MABADFB@GRAPHICSTRING?$AA@ 100c2944     libeay32_EM_dbg.0.9.8e:asn1_par.obj
 0002:0000a954       ??_C@_0BA@LKNBIJBB@GENERALIZEDTIME?$AA@ 100c2954     libeay32_EM_dbg.0.9.8e:asn1_par.obj
 0002:0000a964       ??_C@_07HIOLDDN@UTCTIME?$AA@ 100c2964     libeay32_EM_dbg.0.9.8e:asn1_par.obj
 0002:0000a96c       ??_C@_09JOMPLKGB@IA5STRING?$AA@ 100c296c     libeay32_EM_dbg.0.9.8e:asn1_par.obj
 0002:0000a978       ??_C@_0P@LNAMNBEL@VIDEOTEXSTRING?$AA@ 100c2978     libeay32_EM_dbg.0.9.8e:asn1_par.obj
 0002:0000a988       ??_C@_09FMBHBANP@T61STRING?$AA@ 100c2988     libeay32_EM_dbg.0.9.8e:asn1_par.obj
 0002:0000a994       ??_C@_0BA@FKHILLED@PRINTABLESTRING?$AA@ 100c2994     libeay32_EM_dbg.0.9.8e:asn1_par.obj
 0002:0000a9a4       ??_C@_0O@DFADMOGA@NUMERICSTRING?$AA@ 100c29a4     libeay32_EM_dbg.0.9.8e:asn1_par.obj
 0002:0000a9b4       ??_C@_03KPIFFHNE@SET?$AA@  100c29b4     libeay32_EM_dbg.0.9.8e:asn1_par.obj
 0002:0000a9b8       ??_C@_08POLPFBMC@SEQUENCE?$AA@ 100c29b8     libeay32_EM_dbg.0.9.8e:asn1_par.obj
 0002:0000a9c4       ??_C@_09ENNLEALE@?$DMASN1?515?$DO?$AA@ 100c29c4     libeay32_EM_dbg.0.9.8e:asn1_par.obj
 0002:0000a9d0       ??_C@_09EMBJCKID@?$DMASN1?514?$DO?$AA@ 100c29d0     libeay32_EM_dbg.0.9.8e:asn1_par.obj
 0002:0000a9dc       ??_C@_09EJFGDMAG@?$DMASN1?513?$DO?$AA@ 100c29dc     libeay32_EM_dbg.0.9.8e:asn1_par.obj
 0002:0000a9e8       ??_C@_0L@DCBPGANN@UTF8STRING?$AA@ 100c29e8     libeay32_EM_dbg.0.9.8e:asn1_par.obj
 0002:0000a9f4       ??_C@_09EKNCOIGI@?$DMASN1?511?$DO?$AA@ 100c29f4     libeay32_EM_dbg.0.9.8e:asn1_par.obj
 0002:0000aa00       ??_C@_0L@KNIEMAKM@ENUMERATED?$AA@ 100c2a00     libeay32_EM_dbg.0.9.8e:asn1_par.obj
 0002:0000aa0c       ??_C@_04PKFANLLI@REAL?$AA@ 100c2a0c     libeay32_EM_dbg.0.9.8e:asn1_par.obj
 0002:0000aa14       ??_C@_08JHLDEHEK@EXTERNAL?$AA@ 100c2a14     libeay32_EM_dbg.0.9.8e:asn1_par.obj
 0002:0000aa20       ??_C@_0BC@HDOCNDIH@OBJECT?5DESCRIPTOR?$AA@ 100c2a20     libeay32_EM_dbg.0.9.8e:asn1_par.obj
 0002:0000aa34       ??_C@_06IAMCMNFI@OBJECT?$AA@ 100c2a34     libeay32_EM_dbg.0.9.8e:asn1_par.obj
 0002:0000aa3c       ??_C@_0N@KPGGMDFC@OCTET?5STRING?$AA@ 100c2a3c     libeay32_EM_dbg.0.9.8e:asn1_par.obj
 0002:0000aa4c       ??_C@_0L@EKOKPLKE@BIT?5STRING?$AA@ 100c2a4c     libeay32_EM_dbg.0.9.8e:asn1_par.obj
 0002:0000aa58       ??_C@_07EHCIHKNF@INTEGER?$AA@ 100c2a58     libeay32_EM_dbg.0.9.8e:asn1_par.obj
 0002:0000aa60       ??_C@_07JDEDMABE@BOOLEAN?$AA@ 100c2a60     libeay32_EM_dbg.0.9.8e:asn1_par.obj
 0002:0000aa68       ??_C@_03NCODFONH@EOC?$AA@  100c2a68     libeay32_EM_dbg.0.9.8e:asn1_par.obj
 0002:0000aa80       ??_C@_02PLJDPFIO@00?$AA@   100c2a80     libeay32_EM_dbg.0.9.8e:asn1_par.obj
 0002:0000aa84       ??_C@_09GPGAJHPD@?$CIunknown?$CJ?$AA@ 100c2a84     libeay32_EM_dbg.0.9.8e:asn1_par.obj
 0002:0000aa90       ??_C@_0BL@LGPLHJJB@?4?2crypto?2objects?2obj_lib?4c?$AA@ 100c2a90     libeay32_EM_dbg.0.9.8e:obj_lib.obj
 0002:0000aaac       ??_C@_08JGFBPDAP@X509_CRL?$AA@ 100c2aac     libeay32_EM_dbg.0.9.8e:x_crl.obj
 0002:0000aab8       ??_C@_0O@IMOAEKCP@X509_CRL_INFO?$AA@ 100c2ab8     libeay32_EM_dbg.0.9.8e:x_crl.obj
 0002:0000aac8       ??_C@_07MIJFAMBD@revoked?$AA@ 100c2ac8     libeay32_EM_dbg.0.9.8e:x_crl.obj
 0002:0000aad0       ??_C@_0L@BMOABHOK@nextUpdate?$AA@ 100c2ad0     libeay32_EM_dbg.0.9.8e:x_crl.obj
 0002:0000aadc       ??_C@_0L@MPDCJAIM@lastUpdate?$AA@ 100c2adc     libeay32_EM_dbg.0.9.8e:x_crl.obj
 0002:0000aae8       ??_C@_0N@JBPKOADN@X509_REVOKED?$AA@ 100c2ae8     libeay32_EM_dbg.0.9.8e:x_crl.obj
 0002:0000aaf8       ??_C@_0P@HBDMPDNI@revocationDate?$AA@ 100c2af8     libeay32_EM_dbg.0.9.8e:x_crl.obj
 0002:0000ac90       _lh_version                100c2c90     libeay32_EM_dbg.0.9.8e:lhash.obj
 0002:0000acbc       ??_C@_0BH@ENNIJDED@?4?2crypto?2lhash?2lhash?4c?$AA@ 100c2cbc     libeay32_EM_dbg.0.9.8e:lhash.obj
 0002:0000acd4       ??_C@_0BJ@HLJJPCLA@?4?2crypto?2asn1?2a_verify?4c?$AA@ 100c2cd4     libeay32_EM_dbg.0.9.8e:a_verify.obj
 0002:0000acf0       ??_C@_0O@DBIGEIKO@NETSCAPE_SPKI?$AA@ 100c2cf0     libeay32_EM_dbg.0.9.8e:x_spki.obj
 0002:0000ad00       ??_C@_09JJGBLAHB@sig_algor?$AA@ 100c2d00     libeay32_EM_dbg.0.9.8e:x_spki.obj
 0002:0000ad0c       ??_C@_05NBLLCIIN@spkac?$AA@ 100c2d0c     libeay32_EM_dbg.0.9.8e:x_spki.obj
 0002:0000ad14       ??_C@_0P@OEBIEFNJ@NETSCAPE_SPKAC?$AA@ 100c2d14     libeay32_EM_dbg.0.9.8e:x_spki.obj
 0002:0000ad24       ??_C@_09DBEGHIJJ@challenge?$AA@ 100c2d24     libeay32_EM_dbg.0.9.8e:x_spki.obj
 0002:0000adcc       ??_C@_0BJ@GMLOABJG@?4?2crypto?2asn1?2a_d2i_fp?4c?$AA@ 100c2dcc     libeay32_EM_dbg.0.9.8e:a_d2i_fp.obj
 0002:0000ade8       ??_C@_0BJ@PMCGIHAB@?4?2crypto?2asn1?2a_i2d_fp?4c?$AA@ 100c2de8     libeay32_EM_dbg.0.9.8e:a_i2d_fp.obj
 0002:0000ae04       _DSA_version               100c2e04     libeay32_EM_dbg.0.9.8e:dsa_lib.obj
 0002:0000ae2c       ??_C@_0BH@HAONLAHF@?4?2crypto?2dsa?2dsa_lib?4c?$AA@ 100c2e2c     libeay32_EM_dbg.0.9.8e:dsa_lib.obj
 0002:0000ae44       ??_C@_08CCPALKOP@priv_key?$AA@ 100c2e44     libeay32_EM_dbg.0.9.8e:dsa_asn1.obj
 0002:0000ae50       ??_C@_07CLGEADLH@pub_key?$AA@ 100c2e50     libeay32_EM_dbg.0.9.8e:dsa_asn1.obj
 0002:0000ae58       ??_C@_01JEJKBAGA@g?$AA@    100c2e58     libeay32_EM_dbg.0.9.8e:dsa_asn1.obj
 0002:0000ae5c       ??_C@_07ECLLFBLJ@DSA_SIG?$AA@ 100c2e5c     libeay32_EM_dbg.0.9.8e:dsa_asn1.obj
 0002:0000ae64       ??_C@_01LKDEMHDF@s?$AA@    100c2e64     libeay32_EM_dbg.0.9.8e:dsa_asn1.obj
 0002:0000b0a8       ??_C@_0BI@BIJNKEAB@?4?2crypto?2dsa?2dsa_asn1?4c?$AA@ 100c30a8     libeay32_EM_dbg.0.9.8e:dsa_asn1.obj
 0002:0000b0c0       ??_C@_0BF@PJJIPJIB@?4?2crypto?2ec?2ec_key?4c?$AA@ 100c30c0     libeay32_EM_dbg.0.9.8e:ec_key.obj
 0002:0000b0d8       ??_C@_0O@DFJMHGOP@EC_PRIVATEKEY?$AA@ 100c30d8     libeay32_EM_dbg.0.9.8e:ec_asn1.obj
 0002:0000b0e8       ??_C@_09IDENFCJL@publicKey?$AA@ 100c30e8     libeay32_EM_dbg.0.9.8e:ec_asn1.obj
 0002:0000b0f4       ??_C@_0L@HHPOFMCB@parameters?$AA@ 100c30f4     libeay32_EM_dbg.0.9.8e:ec_asn1.obj
 0002:0000b100       ??_C@_0L@BCENACFO@privateKey?$AA@ 100c3100     libeay32_EM_dbg.0.9.8e:ec_asn1.obj
 0002:0000b10c       ??_C@_0P@PBBIGPFJ@ECPKPARAMETERS?$AA@ 100c310c     libeay32_EM_dbg.0.9.8e:ec_asn1.obj
 0002:0000b11c       ??_C@_0BD@HOIIAPI@value?4implicitlyCA?$AA@ 100c311c     libeay32_EM_dbg.0.9.8e:ec_asn1.obj
 0002:0000b130       ??_C@_0BB@KOECJJJ@value?4parameters?$AA@ 100c3130     libeay32_EM_dbg.0.9.8e:ec_asn1.obj
 0002:0000b144       ??_C@_0BC@JEJHGDNN@value?4named_curve?$AA@ 100c3144     libeay32_EM_dbg.0.9.8e:ec_asn1.obj
 0002:0000b158       ??_C@_0N@ECDPFONH@ECPARAMETERS?$AA@ 100c3158     libeay32_EM_dbg.0.9.8e:ec_asn1.obj
 0002:0000b168       ??_C@_08DKFAOMDI@cofactor?$AA@ 100c3168     libeay32_EM_dbg.0.9.8e:ec_asn1.obj
 0002:0000b174       ??_C@_05NDNMCCJH@order?$AA@ 100c3174     libeay32_EM_dbg.0.9.8e:ec_asn1.obj
 0002:0000b17c       ??_C@_04BHIIPFEC@base?$AA@ 100c317c     libeay32_EM_dbg.0.9.8e:ec_asn1.obj
 0002:0000b184       ??_C@_05HIKPKPAA@curve?$AA@ 100c3184     libeay32_EM_dbg.0.9.8e:ec_asn1.obj
 0002:0000b18c       ??_C@_07MJJGNICD@fieldID?$AA@ 100c318c     libeay32_EM_dbg.0.9.8e:ec_asn1.obj
 0002:0000b194       ??_C@_0M@BHDPNPCK@X9_62_CURVE?$AA@ 100c3194     libeay32_EM_dbg.0.9.8e:ec_asn1.obj
 0002:0000b1a0       ??_C@_04MENKDCKE@seed?$AA@ 100c31a0     libeay32_EM_dbg.0.9.8e:ec_asn1.obj
 0002:0000b1a8       ??_C@_0O@PGPIAKKH@X9_62_FIELDID?$AA@ 100c31a8     libeay32_EM_dbg.0.9.8e:ec_asn1.obj
 0002:0000b1b8       ??_C@_09OAOLGAOM@fieldType?$AA@ 100c31b8     libeay32_EM_dbg.0.9.8e:ec_asn1.obj
 0002:0000b1c4       ??_C@_0L@NLMAKEBL@p?4char_two?$AA@ 100c31c4     libeay32_EM_dbg.0.9.8e:ec_asn1.obj
 0002:0000b1d0       ??_C@_07DPJEDCLB@p?4prime?$AA@ 100c31d0     libeay32_EM_dbg.0.9.8e:ec_asn1.obj
 0002:0000b1d8       ??_C@_0BJ@CCODLOLO@X9_62_CHARACTERISTIC_TWO?$AA@ 100c31d8     libeay32_EM_dbg.0.9.8e:ec_asn1.obj
 0002:0000b1f4       ??_C@_01GOHFPIOK@m?$AA@    100c31f4     libeay32_EM_dbg.0.9.8e:ec_asn1.obj
 0002:0000b1f8       ??_C@_09DMGLCKOJ@p?4ppBasis?$AA@ 100c31f8     libeay32_EM_dbg.0.9.8e:ec_asn1.obj
 0002:0000b204       ??_C@_09LICBCEBD@p?4tpBasis?$AA@ 100c3204     libeay32_EM_dbg.0.9.8e:ec_asn1.obj
 0002:0000b210       ??_C@_09KOBBOOPN@p?4onBasis?$AA@ 100c3210     libeay32_EM_dbg.0.9.8e:ec_asn1.obj
 0002:0000b21c       ??_C@_07PBHIMFBE@p?4other?$AA@ 100c321c     libeay32_EM_dbg.0.9.8e:ec_asn1.obj
 0002:0000b224       ??_C@_0BC@NPDMPFCL@X9_62_PENTANOMIAL?$AA@ 100c3224     libeay32_EM_dbg.0.9.8e:ec_asn1.obj
 0002:0000b238       ??_C@_02LAFHGHBM@k3?$AA@   100c3238     libeay32_EM_dbg.0.9.8e:ec_asn1.obj
 0002:0000b23c       ??_C@_02KJEMFGFN@k2?$AA@   100c323c     libeay32_EM_dbg.0.9.8e:ec_asn1.obj
 0002:0000b240       ??_C@_02ICGBAFJO@k1?$AA@   100c3240     libeay32_EM_dbg.0.9.8e:ec_asn1.obj
 0002:0000b5c4       ??_C@_0BG@HJBLPCL@?4?2crypto?2ec?2ec_asn1?4c?$AA@ 100c35c4     libeay32_EM_dbg.0.9.8e:ec_asn1.obj
 0002:0000b5dc       ??_C@_0BH@BACMEAA@?4?2crypto?2asn1?2d2i_pr?4c?$AA@ 100c35dc     libeay32_EM_dbg.0.9.8e:d2i_pr.obj
 0002:0000d720       ??_C@_0CF@LKDMNFLO@Load?5certs?5from?5files?5in?5a?5direc@ 100c5720     libeay32_EM_dbg.0.9.8e:by_dir.obj
 0002:0000d748       ??_C@_0BH@HEBEBEMJ@?4?2crypto?2x509?2by_dir?4c?$AA@ 100c5748     libeay32_EM_dbg.0.9.8e:by_dir.obj
 0002:0000d760       ??_C@_0P@NEPFKFLK@?$CFs?$CFc?$CF08lx?4?$CFs?$CFd?$AA@ 100c5760     libeay32_EM_dbg.0.9.8e:by_dir.obj
 0002:0000d770       ??_C@_0N@CNAGBLKI@?$CFs?$CF08lx?4?$CFs?$CFd?$AA@ 100c5770     libeay32_EM_dbg.0.9.8e:by_dir.obj
 0002:0000d780       ??_C@_0BF@HBBMCMFA@Load?5file?5into?5cache?$AA@ 100c5780     libeay32_EM_dbg.0.9.8e:by_file.obj
 0002:0000d798       ??_C@_0BI@NAAEKPAB@?4?2crypto?2x509?2by_file?4c?$AA@ 100c5798     libeay32_EM_dbg.0.9.8e:by_file.obj
 0002:0000d7b0       ??_C@_06CHOIGJDB@BIGNUM?$AA@ 100c57b0     libeay32_EM_dbg.0.9.8e:x_bignum.obj
 0002:0000d7f0       ??_C@_05HIGAPBOG@ZLONG?$AA@ 100c57f0     libeay32_EM_dbg.0.9.8e:x_long.obj
 0002:0000d7f8       ??_C@_04KCJFIMMJ@LONG?$AA@ 100c57f8     libeay32_EM_dbg.0.9.8e:x_long.obj
 0002:0000d838       ??_C@_0BH@OOENGGEL@?4?2crypto?2asn1?2x_long?4c?$AA@ 100c5838     libeay32_EM_dbg.0.9.8e:x_long.obj
 0002:0000d850       ??_C@_0BJ@GENBDNBC@?4?2crypto?2asn1?2asn_pack?4c?$AA@ 100c5850     libeay32_EM_dbg.0.9.8e:asn_pack.obj
 0002:0000d86c       ??_C@_0BF@HBIANFIN@?4?2crypto?2evp?2p_enc?4c?$AA@ 100c586c     libeay32_EM_dbg.0.9.8e:p_enc.obj
 0002:0000d884       ??_C@_0BG@NCHFDOAO@?4?2crypto?2evp?2p_sign?4c?$AA@ 100c5884     libeay32_EM_dbg.0.9.8e:p_sign.obj
 0002:0000d930       ??_C@_0BI@EBBNMGHM@?4?2crypto?2evp?2p_verify?4c?$AA@ 100c5930     libeay32_EM_dbg.0.9.8e:p_verify.obj
 0002:0000d948       _CONF_version              100c5948     libeay32_EM_dbg.0.9.8e:conf_lib.obj
 0002:0000d970       ??_C@_0BJ@NLLAICIC@?4?2crypto?2conf?2conf_lib?4c?$AA@ 100c5970     libeay32_EM_dbg.0.9.8e:conf_lib.obj
 0002:0000d98c       ??_C@_06BDPCGOPM@group?$DN?$AA@ 100c598c     libeay32_EM_dbg.0.9.8e:conf_lib.obj
 0002:0000d994       ??_C@_06NGDKEHGB@?5name?$DN?$AA@ 100c5994     libeay32_EM_dbg.0.9.8e:conf_lib.obj
 0002:0000d99c       ??_C@_06DPGELLJH@FORMAT?$AA@ 100c599c     libeay32_EM_dbg.0.9.8e:asn1_gen.obj
 0002:0000d9a4       ??_C@_04HPGCGPG@FORM?$AA@  100c59a4     libeay32_EM_dbg.0.9.8e:asn1_gen.obj
 0002:0000d9ac       ??_C@_07JHDNPBBM@BITWRAP?$AA@ 100c59ac     libeay32_EM_dbg.0.9.8e:asn1_gen.obj
 0002:0000d9b4       ??_C@_07OAIMKKNN@SETWRAP?$AA@ 100c59b4     libeay32_EM_dbg.0.9.8e:asn1_gen.obj
 0002:0000d9bc       ??_C@_07LAEBDLGO@SEQWRAP?$AA@ 100c59bc     libeay32_EM_dbg.0.9.8e:asn1_gen.obj
 0002:0000d9c4       ??_C@_07KIEILLID@OCTWRAP?$AA@ 100c59c4     libeay32_EM_dbg.0.9.8e:asn1_gen.obj
 0002:0000d9cc       ??_C@_08PPMOEJGF@IMPLICIT?$AA@ 100c59cc     libeay32_EM_dbg.0.9.8e:asn1_gen.obj
 0002:0000d9d8       ??_C@_03PKFOHEJD@IMP?$AA@  100c59d8     libeay32_EM_dbg.0.9.8e:asn1_gen.obj
 0002:0000d9dc       ??_C@_08CNKBIFDO@EXPLICIT?$AA@ 100c59dc     libeay32_EM_dbg.0.9.8e:asn1_gen.obj
 0002:0000d9e8       ??_C@_03KKGFKKLA@EXP?$AA@  100c59e8     libeay32_EM_dbg.0.9.8e:asn1_gen.obj
 0002:0000d9ec       ??_C@_03NCPCKDJB@SEQ?$AA@  100c59ec     libeay32_EM_dbg.0.9.8e:asn1_gen.obj
 0002:0000d9f0       ??_C@_06GBOJAPHH@GENSTR?$AA@ 100c59f0     libeay32_EM_dbg.0.9.8e:asn1_gen.obj
 0002:0000d9f8       ??_C@_0O@OIKLOOAP@GeneralString?$AA@ 100c59f8     libeay32_EM_dbg.0.9.8e:asn1_gen.obj
 0002:0000da08       ??_C@_0O@GENPGMAM@TELETEXSTRING?$AA@ 100c5a08     libeay32_EM_dbg.0.9.8e:asn1_gen.obj
 0002:0000da18       ??_C@_03HMGPCGIG@T61?$AA@  100c5a18     libeay32_EM_dbg.0.9.8e:asn1_gen.obj
 0002:0000da1c       ??_C@_09OMDMMLJJ@PRINTABLE?$AA@ 100c5a1c     libeay32_EM_dbg.0.9.8e:asn1_gen.obj
 0002:0000da28       ??_C@_07MCGNPFEO@VISIBLE?$AA@ 100c5a28     libeay32_EM_dbg.0.9.8e:asn1_gen.obj
 0002:0000da30       ??_C@_03CNFPPDJC@BMP?$AA@  100c5a30     libeay32_EM_dbg.0.9.8e:asn1_gen.obj
 0002:0000da34       ??_C@_0L@PJIJIHJD@UTF8String?$AA@ 100c5a34     libeay32_EM_dbg.0.9.8e:asn1_gen.obj
 0002:0000da40       ??_C@_04OOMJJNCF@UTF8?$AA@ 100c5a40     libeay32_EM_dbg.0.9.8e:asn1_gen.obj
 0002:0000da48       ??_C@_03OLMOBCBF@IA5?$AA@  100c5a48     libeay32_EM_dbg.0.9.8e:asn1_gen.obj
 0002:0000da4c       ??_C@_04CBEPCLMK@UNIV?$AA@ 100c5a4c     libeay32_EM_dbg.0.9.8e:asn1_gen.obj
 0002:0000da54       ??_C@_09MBLGEDKL@BITSTRING?$AA@ 100c5a54     libeay32_EM_dbg.0.9.8e:asn1_gen.obj
 0002:0000da60       ??_C@_06GOEDGPII@BITSTR?$AA@ 100c5a60     libeay32_EM_dbg.0.9.8e:asn1_gen.obj
 0002:0000da68       ??_C@_0M@JIDALIGG@OCTETSTRING?$AA@ 100c5a68     libeay32_EM_dbg.0.9.8e:asn1_gen.obj
 0002:0000da74       ??_C@_03LBMHMDEB@OCT?$AA@  100c5a74     libeay32_EM_dbg.0.9.8e:asn1_gen.obj
 0002:0000da78       ??_C@_07EECHABMP@GENTIME?$AA@ 100c5a78     libeay32_EM_dbg.0.9.8e:asn1_gen.obj
 0002:0000da80       ??_C@_03JCIJEFNJ@UTC?$AA@  100c5a80     libeay32_EM_dbg.0.9.8e:asn1_gen.obj
 0002:0000da84       ??_C@_03PGJCFEMG@OID?$AA@  100c5a84     libeay32_EM_dbg.0.9.8e:asn1_gen.obj
 0002:0000da88       ??_C@_04PNKFCNMG@ENUM?$AA@ 100c5a88     libeay32_EM_dbg.0.9.8e:asn1_gen.obj
 0002:0000da90       ??_C@_03JMHEAPMO@INT?$AA@  100c5a90     libeay32_EM_dbg.0.9.8e:asn1_gen.obj
 0002:0000da94       ??_C@_04PPJDIBFE@BOOL?$AA@ 100c5a94     libeay32_EM_dbg.0.9.8e:asn1_gen.obj
 0002:0000da9c       ??_C@_0BJ@PGICCAGB@?4?2crypto?2asn1?2asn1_gen?4c?$AA@ 100c5a9c     libeay32_EM_dbg.0.9.8e:asn1_gen.obj
 0002:0000dab8       ??_C@_07HMNLDFAL@BITLIST?$AA@ 100c5ab8     libeay32_EM_dbg.0.9.8e:asn1_gen.obj
 0002:0000dac0       ??_C@_03IECIMIEG@HEX?$AA@  100c5ac0     libeay32_EM_dbg.0.9.8e:asn1_gen.obj
 0002:0000dac4       ??_C@_05CCNLIHFO@ASCII?$AA@ 100c5ac4     libeay32_EM_dbg.0.9.8e:asn1_gen.obj
 0002:0000dacc       ??_C@_04JBGFELJA@tag?$DN?$AA@ 100c5acc     libeay32_EM_dbg.0.9.8e:asn1_gen.obj
 0002:0000dad4       ??_C@_05NALEHOPE@Char?$DN?$AA@ 100c5ad4     libeay32_EM_dbg.0.9.8e:asn1_gen.obj
 0002:0000dadc       ??_C@_07IOGEOOAA@string?$DN?$AA@ 100c5adc     libeay32_EM_dbg.0.9.8e:asn1_gen.obj
 0002:0000dae4       _CAST_version              100c5ae4     libeay32_EM_dbg.0.9.8e:c_ecb.obj
 0002:0000db10       _CAST_S_table0             100c5b10     libeay32_EM_dbg.0.9.8e:c_skey.obj
 0002:0000df10       _CAST_S_table1             100c5f10     libeay32_EM_dbg.0.9.8e:c_skey.obj
 0002:0000e310       _CAST_S_table2             100c6310     libeay32_EM_dbg.0.9.8e:c_skey.obj
 0002:0000e710       _CAST_S_table3             100c6710     libeay32_EM_dbg.0.9.8e:c_skey.obj
 0002:0000eb10       _CAST_S_table4             100c6b10     libeay32_EM_dbg.0.9.8e:c_skey.obj
 0002:0000ef10       _CAST_S_table5             100c6f10     libeay32_EM_dbg.0.9.8e:c_skey.obj
 0002:0000f310       _CAST_S_table6             100c7310     libeay32_EM_dbg.0.9.8e:c_skey.obj
 0002:0000f710       _CAST_S_table7             100c7710     libeay32_EM_dbg.0.9.8e:c_skey.obj
 0002:0000fb10       ??_C@_0O@NFAAPMIG@GENERAL_NAMES?$AA@ 100c7b10     libeay32_EM_dbg.0.9.8e:v3_genn.obj
 0002:0000fb20       ??_C@_0N@CJKIBDLK@GeneralNames?$AA@ 100c7b20     libeay32_EM_dbg.0.9.8e:v3_genn.obj
 0002:0000fb30       ??_C@_0N@JCNPGCGM@GENERAL_NAME?$AA@ 100c7b30     libeay32_EM_dbg.0.9.8e:v3_genn.obj
 0002:0000fb40       ??_C@_0P@KIENIEMD@d?4registeredID?$AA@ 100c7b40     libeay32_EM_dbg.0.9.8e:v3_genn.obj
 0002:0000fb50       ??_C@_0M@PANAALJB@d?4iPAddress?$AA@ 100c7b50     libeay32_EM_dbg.0.9.8e:v3_genn.obj
 0002:0000fb5c       ??_C@_0BM@CMCMADCA@d?4uniformResourceIdentifier?$AA@ 100c7b5c     libeay32_EM_dbg.0.9.8e:v3_genn.obj
 0002:0000fb78       ??_C@_0P@OBCPPLOL@d?4ediPartyName?$AA@ 100c7b78     libeay32_EM_dbg.0.9.8e:v3_genn.obj
 0002:0000fb88       ??_C@_0BA@JLDFBFLN@d?4directoryName?$AA@ 100c7b88     libeay32_EM_dbg.0.9.8e:v3_genn.obj
 0002:0000fb98       ??_C@_0O@NKHOODFK@d?4x400Address?$AA@ 100c7b98     libeay32_EM_dbg.0.9.8e:v3_genn.obj
 0002:0000fba8       ??_C@_09HIBJABFB@d?4dNSName?$AA@ 100c7ba8     libeay32_EM_dbg.0.9.8e:v3_genn.obj
 0002:0000fbb4       ??_C@_0N@MMCCMIPN@d?4rfc822Name?$AA@ 100c7bb4     libeay32_EM_dbg.0.9.8e:v3_genn.obj
 0002:0000fbc4       ??_C@_0M@FGIBMCEL@d?4otherName?$AA@ 100c7bc4     libeay32_EM_dbg.0.9.8e:v3_genn.obj
 0002:0000fbd0       ??_C@_0N@GEILLNKP@EDIPARTYNAME?$AA@ 100c7bd0     libeay32_EM_dbg.0.9.8e:v3_genn.obj
 0002:0000fbe0       ??_C@_09EHIHAIPF@partyName?$AA@ 100c7be0     libeay32_EM_dbg.0.9.8e:v3_genn.obj
 0002:0000fbec       ??_C@_0N@KBFEHHDO@nameAssigner?$AA@ 100c7bec     libeay32_EM_dbg.0.9.8e:v3_genn.obj
 0002:0000fbfc       ??_C@_09MAFAINAH@OTHERNAME?$AA@ 100c7bfc     libeay32_EM_dbg.0.9.8e:v3_genn.obj
 0002:0000fc08       ??_C@_07EEDOJOAA@type_id?$AA@ 100c7c08     libeay32_EM_dbg.0.9.8e:v3_genn.obj
 0002:0000fd98       _v3_crl_num                100c7d98     libeay32_EM_dbg.0.9.8e:v3_int.obj
 0002:0000fdd0       _v3_delta_crl              100c7dd0     libeay32_EM_dbg.0.9.8e:v3_int.obj
 0002:0000fe08       _v3_inhibit_anyp           100c7e08     libeay32_EM_dbg.0.9.8e:v3_int.obj
 0002:0000fe40       ??_C@_0BA@DHPBCFFC@POLICY_MAPPINGS?$AA@ 100c7e40     libeay32_EM_dbg.0.9.8e:v3_pmaps.obj
 0002:0000fe50       ??_C@_0P@NLHMKCKF@POLICY_MAPPING?$AA@ 100c7e50     libeay32_EM_dbg.0.9.8e:v3_pmaps.obj
 0002:0000fe60       ??_C@_0BE@FFIKMOKF@subjectDomainPolicy?$AA@ 100c7e60     libeay32_EM_dbg.0.9.8e:v3_pmaps.obj
 0002:0000fe74       ??_C@_0BD@JILOPHFL@issuerDomainPolicy?$AA@ 100c7e74     libeay32_EM_dbg.0.9.8e:v3_pmaps.obj
 0002:0000fe88       _v3_policy_mappings        100c7e88     libeay32_EM_dbg.0.9.8e:v3_pmaps.obj
 0002:0000ff34       ??_C@_0BL@FPBGMIJF@?4?2crypto?2x509v3?2v3_pmaps?4c?$AA@ 100c7f34     libeay32_EM_dbg.0.9.8e:v3_pmaps.obj
 0002:0000ff50       ??_C@_0BB@MLLJAFMN@NAME_CONSTRAINTS?$AA@ 100c7f50     libeay32_EM_dbg.0.9.8e:v3_ncons.obj
 0002:0000ff64       ??_C@_0BB@HLFEMJKE@excludedSubtrees?$AA@ 100c7f64     libeay32_EM_dbg.0.9.8e:v3_ncons.obj
 0002:0000ff78       ??_C@_0BC@FACFJLFB@permittedSubtrees?$AA@ 100c7f78     libeay32_EM_dbg.0.9.8e:v3_ncons.obj
 0002:0000ff8c       ??_C@_0BA@ECMIFHDE@GENERAL_SUBTREE?$AA@ 100c7f8c     libeay32_EM_dbg.0.9.8e:v3_ncons.obj
 0002:0000ff9c       ??_C@_07MEIENILC@maximum?$AA@ 100c7f9c     libeay32_EM_dbg.0.9.8e:v3_ncons.obj
 0002:0000ffa4       ??_C@_07CCOEHHFD@minimum?$AA@ 100c7fa4     libeay32_EM_dbg.0.9.8e:v3_ncons.obj
 0002:0000ffac       _v3_name_constraints       100c7fac     libeay32_EM_dbg.0.9.8e:v3_ncons.obj
 0002:00010080       ??_C@_0BL@IDMCNIEC@?4?2crypto?2x509v3?2v3_ncons?4c?$AA@ 100c8080     libeay32_EM_dbg.0.9.8e:v3_ncons.obj
 0002:0001009c       ??_C@_08HPCEJEEF@excluded?$AA@ 100c809c     libeay32_EM_dbg.0.9.8e:v3_ncons.obj
 0002:000100a8       ??_C@_09HAKFOFAM@permitted?$AA@ 100c80a8     libeay32_EM_dbg.0.9.8e:v3_ncons.obj
 0002:000100b4       ??_C@_08PNNFBGOG@Excluded?$AA@ 100c80b4     libeay32_EM_dbg.0.9.8e:v3_ncons.obj
 0002:000100c0       ??_C@_09DPPIOGNM@Permitted?$AA@ 100c80c0     libeay32_EM_dbg.0.9.8e:v3_ncons.obj
 0002:000100cc       ??_C@_0BF@JMMIKJMP@IP?5Address?3?$DMinvalid?$DO?$AA@ 100c80cc     libeay32_EM_dbg.0.9.8e:v3_ncons.obj
 0002:000100e4       ??_C@_01KMDKNFGN@?1?$AA@   100c80e4     libeay32_EM_dbg.0.9.8e:v3_ncons.obj
 0002:000100e8       ??_C@_02EMFKHFLK@?$CFX?$AA@ 100c80e8     libeay32_EM_dbg.0.9.8e:v3_ncons.obj
 0002:000100ec       ??_C@_0BI@IFNIGPEJ@?$CFd?4?$CFd?4?$CFd?4?$CFd?1?$CFd?4?$CFd?4?$CFd?4?$CFd?$AA@ 100c80ec     libeay32_EM_dbg.0.9.8e:v3_ncons.obj
 0002:00010104       ??_C@_03HBLCMHJN@IP?3?$AA@ 100c8104     libeay32_EM_dbg.0.9.8e:v3_ncons.obj
 0002:00010108       _v3_pci                    100c8108     libeay32_EM_dbg.0.9.8e:v3_pci.obj
 0002:00010140       ??_C@_0BE@HDJEDONA@?$CF?$CKsPolicy?5Text?3?5?$CFs?6?$AA@ 100c8140     libeay32_EM_dbg.0.9.8e:v3_pci.obj
 0002:00010154       ??_C@_0BF@CGHJNACM@?$CF?$CKsPolicy?5Language?3?5?$AA@ 100c8154     libeay32_EM_dbg.0.9.8e:v3_pci.obj
 0002:0001016c       ??_C@_08MAJEGHKB@infinite?$AA@ 100c816c     libeay32_EM_dbg.0.9.8e:v3_pci.obj
 0002:00010178       ??_C@_0BM@BMCPHDD@?$CF?$CKsPath?5Length?5Constraint?3?5?$AA@ 100c8178     libeay32_EM_dbg.0.9.8e:v3_pci.obj
 0002:00010194       ??_C@_0BJ@KGLHOFNB@?4?2crypto?2x509v3?2v3_pci?4c?$AA@ 100c8194     libeay32_EM_dbg.0.9.8e:v3_pci.obj
 0002:000101b0       ??_C@_05FHIGHPDA@text?3?$AA@ 100c81b0     libeay32_EM_dbg.0.9.8e:v3_pci.obj
 0002:000101b8       ??_C@_05BOPHDICO@file?3?$AA@ 100c81b8     libeay32_EM_dbg.0.9.8e:v3_pci.obj
 0002:000101c0       ??_C@_04ODCMNEMO@hex?3?$AA@ 100c81c0     libeay32_EM_dbg.0.9.8e:v3_pci.obj
 0002:000101c8       ??_C@_06NJNJNICG@policy?$AA@ 100c81c8     libeay32_EM_dbg.0.9.8e:v3_pci.obj
 0002:000101d0       ??_C@_07OGCPICFF@pathlen?$AA@ 100c81d0     libeay32_EM_dbg.0.9.8e:v3_pci.obj
 0002:000101d8       ??_C@_08JGCCIMAA@language?$AA@ 100c81d8     libeay32_EM_dbg.0.9.8e:v3_pci.obj
 0002:000101e4       _v3_ocsp_crlid             100c81e4     libeay32_EM_dbg.0.9.8e:v3_ocsp.obj
 0002:0001021c       _v3_ocsp_acutoff           100c821c     libeay32_EM_dbg.0.9.8e:v3_ocsp.obj
 0002:00010254       _v3_crl_invdate            100c8254     libeay32_EM_dbg.0.9.8e:v3_ocsp.obj
 0002:0001028c       _v3_crl_hold               100c828c     libeay32_EM_dbg.0.9.8e:v3_ocsp.obj
 0002:000102c4       _v3_ocsp_nonce             100c82c4     libeay32_EM_dbg.0.9.8e:v3_ocsp.obj
 0002:000102fc       _v3_ocsp_nocheck           100c82fc     libeay32_EM_dbg.0.9.8e:v3_ocsp.obj
 0002:00010334       _v3_ocsp_serviceloc        100c8334     libeay32_EM_dbg.0.9.8e:v3_ocsp.obj
 0002:0001036c       ??_C@_0N@IBJOMEDL@?$CF?$CKscrlTime?3?5?$AA@ 100c836c     libeay32_EM_dbg.0.9.8e:v3_ocsp.obj
 0002:0001037c       ??_C@_0M@MLCMBODE@?$CF?$CKscrlNum?3?5?$AA@ 100c837c     libeay32_EM_dbg.0.9.8e:v3_ocsp.obj
 0002:00010388       ??_C@_0M@KIKBFHBJ@?$CF?$CKscrlUrl?3?5?$AA@ 100c8388     libeay32_EM_dbg.0.9.8e:v3_ocsp.obj
 0002:00010394       ??_C@_0BK@FHPEGIMF@?4?2crypto?2x509v3?2v3_ocsp?4c?$AA@ 100c8394     libeay32_EM_dbg.0.9.8e:v3_ocsp.obj
 0002:000103b0       ??_C@_03NLJIHOMM@?5?9?5?$AA@ 100c83b0     libeay32_EM_dbg.0.9.8e:v3_ocsp.obj
 0002:000103b4       ??_C@_04NFEJKGEM@?6?$CF?$CKs?$AA@ 100c83b4     libeay32_EM_dbg.0.9.8e:v3_ocsp.obj
 0002:000103bc       ??_C@_0M@IHOINNJF@?$CF?$CKsIssuer?3?5?$AA@ 100c83bc     libeay32_EM_dbg.0.9.8e:v3_ocsp.obj
 0002:000103c8       ??_C@_0BD@MMPNIEIJ@POLICY_CONSTRAINTS?$AA@ 100c83c8     libeay32_EM_dbg.0.9.8e:v3_pcons.obj
 0002:000103dc       ??_C@_0BF@MOMLJGAL@inhibitPolicyMapping?$AA@ 100c83dc     libeay32_EM_dbg.0.9.8e:v3_pcons.obj
 0002:000103f4       ??_C@_0BG@HGJBEKFE@requireExplicitPolicy?$AA@ 100c83f4     libeay32_EM_dbg.0.9.8e:v3_pcons.obj
 0002:0001040c       _v3_policy_constraints     100c840c     libeay32_EM_dbg.0.9.8e:v3_pcons.obj
 0002:00010488       ??_C@_0BH@HMKHOMED@Inhibit?5Policy?5Mapping?$AA@ 100c8488     libeay32_EM_dbg.0.9.8e:v3_pcons.obj
 0002:000104a0       ??_C@_0BI@HNCHDEDI@Require?5Explicit?5Policy?$AA@ 100c84a0     libeay32_EM_dbg.0.9.8e:v3_pcons.obj
 0002:000104b8       ??_C@_0BL@OKPDPLFL@?4?2crypto?2x509v3?2v3_pcons?4c?$AA@ 100c84b8     libeay32_EM_dbg.0.9.8e:v3_pcons.obj
 0002:000104d4       ??_C@_0BG@PFEKCAHJ@AUTHORITY_INFO_ACCESS?$AA@ 100c84d4     libeay32_EM_dbg.0.9.8e:v3_info.obj
 0002:000104ec       ??_C@_0BD@IKHCEBLA@ACCESS_DESCRIPTION?$AA@ 100c84ec     libeay32_EM_dbg.0.9.8e:v3_info.obj
 0002:00010500       ??_C@_08CBBFJFMD@location?$AA@ 100c8500     libeay32_EM_dbg.0.9.8e:v3_info.obj
 0002:0001050c       ??_C@_06GABBCIBA@method?$AA@ 100c850c     libeay32_EM_dbg.0.9.8e:v3_info.obj
 0002:00010514       _v3_info                   100c8514     libeay32_EM_dbg.0.9.8e:v3_info.obj
 0002:0001054c       _v3_sinfo                  100c854c     libeay32_EM_dbg.0.9.8e:v3_info.obj
 0002:000105f8       ??_C@_0BK@CIMABBBK@?4?2crypto?2x509v3?2v3_info?4c?$AA@ 100c85f8     libeay32_EM_dbg.0.9.8e:v3_info.obj
 0002:00010614       ??_C@_0BD@CKAGEBEF@EXTENDED_KEY_USAGE?$AA@ 100c8614     libeay32_EM_dbg.0.9.8e:v3_extku.obj
 0002:00010628       _v3_ext_ku                 100c8628     libeay32_EM_dbg.0.9.8e:v3_extku.obj
 0002:00010660       _v3_ocsp_accresp           100c8660     libeay32_EM_dbg.0.9.8e:v3_extku.obj
 0002:000106c8       ??_C@_0BL@DPOLCONE@?4?2crypto?2x509v3?2v3_extku?4c?$AA@ 100c86c8     libeay32_EM_dbg.0.9.8e:v3_extku.obj
 0002:000106e4       ??_C@_05BPAJFIHK@SXNET?$AA@ 100c86e4     libeay32_EM_dbg.0.9.8e:v3_sxnet.obj
 0002:000106ec       ??_C@_03NDFJNBKD@ids?$AA@  100c86ec     libeay32_EM_dbg.0.9.8e:v3_sxnet.obj
 0002:000106f0       ??_C@_07FLDOGLPN@SXNETID?$AA@ 100c86f0     libeay32_EM_dbg.0.9.8e:v3_sxnet.obj
 0002:000106f8       ??_C@_04CCHAHKJA@user?$AA@ 100c86f8     libeay32_EM_dbg.0.9.8e:v3_sxnet.obj
 0002:00010700       ??_C@_04LDDJGOBB@zone?$AA@ 100c8700     libeay32_EM_dbg.0.9.8e:v3_sxnet.obj
 0002:00010708       _v3_sxnet                  100c8708     libeay32_EM_dbg.0.9.8e:v3_sxnet.obj
 0002:000107c8       ??_C@_0BF@NMLBNADB@?6?$CF?$CKsZone?3?5?$CFs?0?5User?3?5?$AA@ 100c87c8     libeay32_EM_dbg.0.9.8e:v3_sxnet.obj
 0002:000107e0       ??_C@_0BI@GOEPAKBG@?$CF?$CKsVersion?3?5?$CFld?5?$CI0x?$CFlX?$CJ?$AA@ 100c87e0     libeay32_EM_dbg.0.9.8e:v3_sxnet.obj
 0002:000107f8       ??_C@_0BL@CAPOOOIB@?4?2crypto?2x509v3?2v3_sxnet?4c?$AA@ 100c87f8     libeay32_EM_dbg.0.9.8e:v3_sxnet.obj
 0002:00010814       ??_C@_0O@BILLKPKO@removeFromCRL?$AA@ 100c8814     libeay32_EM_dbg.0.9.8e:v3_enum.obj
 0002:00010824       ??_C@_0BA@GLPEKBIK@Remove?5From?5CRL?$AA@ 100c8824     libeay32_EM_dbg.0.9.8e:v3_enum.obj
 0002:00010834       ??_C@_0BA@FBHLCNLK@certificateHold?$AA@ 100c8834     libeay32_EM_dbg.0.9.8e:v3_enum.obj
 0002:00010844       ??_C@_0BB@IPDHDNJD@Certificate?5Hold?$AA@ 100c8844     libeay32_EM_dbg.0.9.8e:v3_enum.obj
 0002:00010858       ??_C@_0BF@IGJCOPF@cessationOfOperation?$AA@ 100c8858     libeay32_EM_dbg.0.9.8e:v3_enum.obj
 0002:00010870       ??_C@_0BH@OLCOAMGF@Cessation?5Of?5Operation?$AA@ 100c8870     libeay32_EM_dbg.0.9.8e:v3_enum.obj
 0002:00010888       ??_C@_0L@NHCKNIFL@superseded?$AA@ 100c8888     libeay32_EM_dbg.0.9.8e:v3_enum.obj
 0002:00010894       ??_C@_0L@FBLGFHIM@Superseded?$AA@ 100c8894     libeay32_EM_dbg.0.9.8e:v3_enum.obj
 0002:000108a0       ??_C@_0BD@BNOFAJLL@affiliationChanged?$AA@ 100c88a0     libeay32_EM_dbg.0.9.8e:v3_enum.obj
 0002:000108b4       ??_C@_0BE@EECEIFAP@Affiliation?5Changed?$AA@ 100c88b4     libeay32_EM_dbg.0.9.8e:v3_enum.obj
 0002:000108c8       ??_C@_0N@NONEFGOE@CACompromise?$AA@ 100c88c8     libeay32_EM_dbg.0.9.8e:v3_enum.obj
 0002:000108d8       ??_C@_0O@OOGICOKH@CA?5Compromise?$AA@ 100c88d8     libeay32_EM_dbg.0.9.8e:v3_enum.obj
 0002:000108e8       ??_C@_0O@MCEAAJLH@keyCompromise?$AA@ 100c88e8     libeay32_EM_dbg.0.9.8e:v3_enum.obj
 0002:000108f8       ??_C@_0P@JENDIECI@Key?5Compromise?$AA@ 100c88f8     libeay32_EM_dbg.0.9.8e:v3_enum.obj
 0002:00010908       ??_C@_0M@MFMDLEDN@unspecified?$AA@ 100c8908     libeay32_EM_dbg.0.9.8e:v3_enum.obj
 0002:00010914       ??_C@_0M@NNPCGPMF@Unspecified?$AA@ 100c8914     libeay32_EM_dbg.0.9.8e:v3_enum.obj
 0002:00010920       _v3_crl_reason             100c8920     libeay32_EM_dbg.0.9.8e:v3_enum.obj
 0002:00010958       ??_C@_0BA@BBHAIMOE@CRL_DIST_POINTS?$AA@ 100c8958     libeay32_EM_dbg.0.9.8e:v3_crld.obj
 0002:00010968       ??_C@_0BG@CHNNADAE@CRLDistributionPoints?$AA@ 100c8968     libeay32_EM_dbg.0.9.8e:v3_crld.obj
 0002:00010980       ??_C@_0L@ELIKPJIH@DIST_POINT?$AA@ 100c8980     libeay32_EM_dbg.0.9.8e:v3_crld.obj
 0002:0001098c       ??_C@_09GJHADLCP@CRLissuer?$AA@ 100c898c     libeay32_EM_dbg.0.9.8e:v3_crld.obj
 0002:00010998       ??_C@_07PFOCLIJD@reasons?$AA@ 100c8998     libeay32_EM_dbg.0.9.8e:v3_crld.obj
 0002:000109a0       ??_C@_09FBDFGJDL@distpoint?$AA@ 100c89a0     libeay32_EM_dbg.0.9.8e:v3_crld.obj
 0002:000109ac       ??_C@_0BA@MLHIPLLG@DIST_POINT_NAME?$AA@ 100c89ac     libeay32_EM_dbg.0.9.8e:v3_crld.obj
 0002:000109bc       ??_C@_0BC@JDMJBKME@name?4relativename?$AA@ 100c89bc     libeay32_EM_dbg.0.9.8e:v3_crld.obj
 0002:000109d0       ??_C@_0O@HJHJCLAE@name?4fullname?$AA@ 100c89d0     libeay32_EM_dbg.0.9.8e:v3_crld.obj
 0002:000109e0       _v3_crld                   100c89e0     libeay32_EM_dbg.0.9.8e:v3_crld.obj
 0002:00010ae4       ??_C@_0N@MEPBKIIA@RelativeName?$AA@ 100c8ae4     libeay32_EM_dbg.0.9.8e:v3_crld.obj
 0002:00010af4       ??_C@_0O@FPIPKELN@?$DMUNSUPPORTED?$DO?$AA@ 100c8af4     libeay32_EM_dbg.0.9.8e:v3_crld.obj
 0002:00010b04       ??_C@_0BK@GFBFBDBE@?4?2crypto?2x509v3?2v3_crld?4c?$AA@ 100c8b04     libeay32_EM_dbg.0.9.8e:v3_crld.obj
 0002:00010b20       _v3_akey_id                100c8b20     libeay32_EM_dbg.0.9.8e:v3_akey.obj
 0002:00010b58       ??_C@_0BK@HJDALMFN@?4?2crypto?2x509v3?2v3_akey?4c?$AA@ 100c8b58     libeay32_EM_dbg.0.9.8e:v3_akey.obj
 0002:00010b74       ??_C@_06KHDOHNKC@always?$AA@ 100c8b74     libeay32_EM_dbg.0.9.8e:v3_akey.obj
 0002:00010b7c       ??_C@_09DFHLGOKA@NOTICEREF?$AA@ 100c8b7c     libeay32_EM_dbg.0.9.8e:v3_cpols.obj
 0002:00010b88       ??_C@_09CFGHNILC@noticenos?$AA@ 100c8b88     libeay32_EM_dbg.0.9.8e:v3_cpols.obj
 0002:00010b94       ??_C@_0N@HEIPMDAG@organization?$AA@ 100c8b94     libeay32_EM_dbg.0.9.8e:v3_cpols.obj
 0002:00010ba4       ??_C@_0L@HCNDPADF@USERNOTICE?$AA@ 100c8ba4     libeay32_EM_dbg.0.9.8e:v3_cpols.obj
 0002:00010bb0       ??_C@_07MHGINJOA@exptext?$AA@ 100c8bb0     libeay32_EM_dbg.0.9.8e:v3_cpols.obj
 0002:00010bb8       ??_C@_09FIKFDFH@noticeref?$AA@ 100c8bb8     libeay32_EM_dbg.0.9.8e:v3_cpols.obj
 0002:00010bc4       ??_C@_0P@POBJIHLD@POLICYQUALINFO?$AA@ 100c8bc4     libeay32_EM_dbg.0.9.8e:v3_cpols.obj
 0002:00010bd4       ??_C@_07LEEILOKB@pqualid?$AA@ 100c8bd4     libeay32_EM_dbg.0.9.8e:v3_cpols.obj
 0002:00010bdc       ??_C@_0N@JPAHANFF@d?4usernotice?$AA@ 100c8bdc     libeay32_EM_dbg.0.9.8e:v3_cpols.obj
 0002:00010bec       ??_C@_08EECALGEF@d?4cpsuri?$AA@ 100c8bec     libeay32_EM_dbg.0.9.8e:v3_cpols.obj
 0002:00010bf8       ??_C@_0L@POLPGHJK@POLICYINFO?$AA@ 100c8bf8     libeay32_EM_dbg.0.9.8e:v3_cpols.obj
 0002:00010c04       ??_C@_0L@HMNGMMJI@qualifiers?$AA@ 100c8c04     libeay32_EM_dbg.0.9.8e:v3_cpols.obj
 0002:00010c10       ??_C@_08NEBFOBH@policyid?$AA@ 100c8c10     libeay32_EM_dbg.0.9.8e:v3_cpols.obj
 0002:00010c1c       ??_C@_0BE@GJBJOOCP@CERTIFICATEPOLICIES?$AA@ 100c8c1c     libeay32_EM_dbg.0.9.8e:v3_cpols.obj
 0002:00010c30       _v3_cpols                  100c8c30     libeay32_EM_dbg.0.9.8e:v3_cpols.obj
 0002:00010e08       ??_C@_06MIFIGELF@ia5org?$AA@ 100c8e08     libeay32_EM_dbg.0.9.8e:v3_cpols.obj
 0002:00010e10       ??_C@_0BL@DEDBBIKA@?4?2crypto?2x509v3?2v3_cpols?4c?$AA@ 100c8e10     libeay32_EM_dbg.0.9.8e:v3_cpols.obj
 0002:00010e2c       ??_C@_0L@LADHLIJ@userNotice?$AA@ 100c8e2c     libeay32_EM_dbg.0.9.8e:v3_cpols.obj
 0002:00010e38       ??_C@_03KKDAPHBH@CPS?$AA@  100c8e38     libeay32_EM_dbg.0.9.8e:v3_cpols.obj
 0002:00010e3c       ??_C@_0BB@FIJMMMGE@policyIdentifier?$AA@ 100c8e3c     libeay32_EM_dbg.0.9.8e:v3_cpols.obj
 0002:00010e50       ??_C@_0O@OKDALMJE@noticeNumbers?$AA@ 100c8e50     libeay32_EM_dbg.0.9.8e:v3_cpols.obj
 0002:00010e60       ??_C@_0N@EALKMFB@explicitText?$AA@ 100c8e60     libeay32_EM_dbg.0.9.8e:v3_cpols.obj
 0002:00010e70       ??_C@_0M@BBFMFBLN@?$CF?$CKsPolicy?3?5?$AA@ 100c8e70     libeay32_EM_dbg.0.9.8e:v3_cpols.obj
 0002:00010e7c       ??_C@_0BH@CHOAEJEJ@?$CF?$CKsUnknown?5Qualifier?3?5?$AA@ 100c8e7c     libeay32_EM_dbg.0.9.8e:v3_cpols.obj
 0002:00010e94       ??_C@_0BB@MMPKKFLI@?$CF?$CKsUser?5Notice?3?6?$AA@ 100c8e94     libeay32_EM_dbg.0.9.8e:v3_cpols.obj
 0002:00010ea8       ??_C@_0M@ICGFCJNO@?$CF?$CKsCPS?3?5?$CFs?6?$AA@ 100c8ea8     libeay32_EM_dbg.0.9.8e:v3_cpols.obj
 0002:00010eb4       ??_C@_0BG@IHHCDAMH@?$CF?$CKsExplicit?5Text?3?5?$CFs?6?$AA@ 100c8eb4     libeay32_EM_dbg.0.9.8e:v3_cpols.obj
 0002:00010ecc       ??_C@_0O@EFHNHHDA@?$CF?$CKsNumber?$CFs?3?5?$AA@ 100c8ecc     libeay32_EM_dbg.0.9.8e:v3_cpols.obj
 0002:00010edc       ??_C@_0BF@OCNFPJOG@?$CF?$CKsOrganization?3?5?$CFs?6?$AA@ 100c8edc     libeay32_EM_dbg.0.9.8e:v3_cpols.obj
 0002:00010ef4       ??_C@_0BC@PKPCGCD@BASIC_CONSTRAINTS?$AA@ 100c8ef4     libeay32_EM_dbg.0.9.8e:v3_bcons.obj
 0002:00010f08       ??_C@_02DGMJAJHC@ca?$AA@   100c8f08     libeay32_EM_dbg.0.9.8e:v3_bcons.obj
 0002:00010f0c       _v3_bcons                  100c8f0c     libeay32_EM_dbg.0.9.8e:v3_bcons.obj
 0002:00010f88       ??_C@_02JLAAGLDA@CA?$AA@   100c8f88     libeay32_EM_dbg.0.9.8e:v3_bcons.obj
 0002:00010f8c       ??_C@_0BL@NEGNMNAN@?4?2crypto?2x509v3?2v3_bcons?4c?$AA@ 100c8f8c     libeay32_EM_dbg.0.9.8e:v3_bcons.obj
 0002:00010fa8       _v3_alt                    100c8fa8     libeay32_EM_dbg.0.9.8e:v3_alt.obj
 0002:00011018       ??_C@_0O@KAIENCPE@Registered?5ID?$AA@ 100c9018     libeay32_EM_dbg.0.9.8e:v3_alt.obj
 0002:00011028       ??_C@_0L@NGHMMCPJ@IP?5Address?$AA@ 100c9028     libeay32_EM_dbg.0.9.8e:v3_alt.obj
 0002:00011034       ??_C@_09DPMBDOD@?$DMinvalid?$DO?$AA@ 100c9034     libeay32_EM_dbg.0.9.8e:v3_alt.obj
 0002:00011040       ??_C@_07FDBCPIKC@DirName?$AA@ 100c9040     libeay32_EM_dbg.0.9.8e:v3_alt.obj
 0002:00011048       ??_C@_03GMOLNBOB@URI?$AA@  100c9048     libeay32_EM_dbg.0.9.8e:v3_alt.obj
 0002:0001104c       ??_C@_03CBFPEBNE@DNS?$AA@  100c904c     libeay32_EM_dbg.0.9.8e:v3_alt.obj
 0002:00011050       ??_C@_05HKHCDHCL@email?$AA@ 100c9050     libeay32_EM_dbg.0.9.8e:v3_alt.obj
 0002:00011058       ??_C@_0N@EEELPIKD@EdiPartyName?$AA@ 100c9058     libeay32_EM_dbg.0.9.8e:v3_alt.obj
 0002:00011068       ??_C@_08EBDOEGJI@X400Name?$AA@ 100c9068     libeay32_EM_dbg.0.9.8e:v3_alt.obj
 0002:00011074       ??_C@_09PAKBLAPA@othername?$AA@ 100c9074     libeay32_EM_dbg.0.9.8e:v3_alt.obj
 0002:00011080       ??_C@_0O@NHCJKCDC@?$DMunsupported?$DO?$AA@ 100c9080     libeay32_EM_dbg.0.9.8e:v3_alt.obj
 0002:00011090       ??_C@_03NMJGLHB@?3?$CFX?$AA@ 100c9090     libeay32_EM_dbg.0.9.8e:v3_alt.obj
 0002:00011094       ??_C@_0BH@OAMIHBGI@IP?5Address?3?$CFd?4?$CFd?4?$CFd?4?$CFd?$AA@ 100c9094     libeay32_EM_dbg.0.9.8e:v3_alt.obj
 0002:000110ac       ??_C@_09JDCPLDLD@DirName?3?5?$AA@ 100c90ac     libeay32_EM_dbg.0.9.8e:v3_alt.obj
 0002:000110b8       ??_C@_06KCNJMDKO@URI?3?$CFs?$AA@ 100c90b8     libeay32_EM_dbg.0.9.8e:v3_alt.obj
 0002:000110c0       ??_C@_06DNDEBJBH@DNS?3?$CFs?$AA@ 100c90c0     libeay32_EM_dbg.0.9.8e:v3_alt.obj
 0002:000110c8       ??_C@_08LPBGKPKE@email?3?$CFs?$AA@ 100c90c8     libeay32_EM_dbg.0.9.8e:v3_alt.obj
 0002:000110d4       ??_C@_0BL@HEOLJEB@EdiPartyName?3?$DMunsupported?$DO?$AA@ 100c90d4     libeay32_EM_dbg.0.9.8e:v3_alt.obj
 0002:000110f0       ??_C@_0BH@HDOLFIDG@X400Name?3?$DMunsupported?$DO?$AA@ 100c90f0     libeay32_EM_dbg.0.9.8e:v3_alt.obj
 0002:00011108       ??_C@_0BI@PGFKPDEJ@othername?3?$DMunsupported?$DO?$AA@ 100c9108     libeay32_EM_dbg.0.9.8e:v3_alt.obj
 0002:00011120       ??_C@_04COAGEIMF@copy?$AA@ 100c9120     libeay32_EM_dbg.0.9.8e:v3_alt.obj
 0002:00011128       ??_C@_0BJ@EOBOCMHM@?4?2crypto?2x509v3?2v3_alt?4c?$AA@ 100c9128     libeay32_EM_dbg.0.9.8e:v3_alt.obj
 0002:00011144       ??_C@_04HDMMNHEL@move?$AA@ 100c9144     libeay32_EM_dbg.0.9.8e:v3_alt.obj
 0002:0001114c       ??_C@_09DBGAJPPE@otherName?$AA@ 100c914c     libeay32_EM_dbg.0.9.8e:v3_alt.obj
 0002:00011158       ??_C@_07KKGEJKPE@dirName?$AA@ 100c9158     libeay32_EM_dbg.0.9.8e:v3_alt.obj
 0002:00011160       ??_C@_02MFEOMNPG@IP?$AA@   100c9160     libeay32_EM_dbg.0.9.8e:v3_alt.obj
 0002:00011164       ??_C@_03FEOBNLIE@RID?$AA@  100c9164     libeay32_EM_dbg.0.9.8e:v3_alt.obj
 0002:00011168       ??_C@_08LNPIPPMM@section?$DN?$AA@ 100c9168     libeay32_EM_dbg.0.9.8e:v3_alt.obj
 0002:00011174       ??_C@_0BC@CCOKACDM@PKEY_USAGE_PERIOD?$AA@ 100c9174     libeay32_EM_dbg.0.9.8e:v3_pku.obj
 0002:00011188       ??_C@_08PJIFIJBI@notAfter?$AA@ 100c9188     libeay32_EM_dbg.0.9.8e:v3_pku.obj
 0002:00011194       ??_C@_09MJPOMOII@notBefore?$AA@ 100c9194     libeay32_EM_dbg.0.9.8e:v3_pku.obj
 0002:000111a0       _v3_pkey_usage_period      100c91a0     libeay32_EM_dbg.0.9.8e:v3_pku.obj
 0002:0001121c       ??_C@_0M@FCHJLIHE@Not?5After?3?5?$AA@ 100c921c     libeay32_EM_dbg.0.9.8e:v3_pku.obj
 0002:00011228       ??_C@_0N@KGLJEEMK@Not?5Before?3?5?$AA@ 100c9228     libeay32_EM_dbg.0.9.8e:v3_pku.obj
 0002:00011238       ??_C@_0N@LIFHMFCO@decipherOnly?$AA@ 100c9238     libeay32_EM_dbg.0.9.8e:v3_bitst.obj
 0002:00011248       ??_C@_0O@FKBAPCEG@Decipher?5Only?$AA@ 100c9248     libeay32_EM_dbg.0.9.8e:v3_bitst.obj
 0002:00011258       ??_C@_0N@BEFDLIKF@encipherOnly?$AA@ 100c9258     libeay32_EM_dbg.0.9.8e:v3_bitst.obj
 0002:00011268       ??_C@_0O@CANGKMJD@Encipher?5Only?$AA@ 100c9268     libeay32_EM_dbg.0.9.8e:v3_bitst.obj
 0002:00011278       ??_C@_07IHBCCDFJ@cRLSign?$AA@ 100c9278     libeay32_EM_dbg.0.9.8e:v3_bitst.obj
 0002:00011280       ??_C@_08OCJGKMAN@CRL?5Sign?$AA@ 100c9280     libeay32_EM_dbg.0.9.8e:v3_bitst.obj
 0002:0001128c       ??_C@_0M@ONBOOMGI@keyCertSign?$AA@ 100c928c     libeay32_EM_dbg.0.9.8e:v3_bitst.obj
 0002:00011298       ??_C@_0BB@ELNGMDLH@Certificate?5Sign?$AA@ 100c9298     libeay32_EM_dbg.0.9.8e:v3_bitst.obj
 0002:000112ac       ??_C@_0N@GONHKOEO@keyAgreement?$AA@ 100c92ac     libeay32_EM_dbg.0.9.8e:v3_bitst.obj
 0002:000112bc       ??_C@_0O@EOJOBCHL@Key?5Agreement?$AA@ 100c92bc     libeay32_EM_dbg.0.9.8e:v3_bitst.obj
 0002:000112cc       ??_C@_0BB@LBKKKIGO@dataEncipherment?$AA@ 100c92cc     libeay32_EM_dbg.0.9.8e:v3_bitst.obj
 0002:000112e0       ??_C@_0BC@GNPIAJLP@Data?5Encipherment?$AA@ 100c92e0     libeay32_EM_dbg.0.9.8e:v3_bitst.obj
 0002:000112f4       ??_C@_0BA@MINCLOJG@keyEncipherment?$AA@ 100c92f4     libeay32_EM_dbg.0.9.8e:v3_bitst.obj
 0002:00011304       ??_C@_0BB@KNACIBEN@Key?5Encipherment?$AA@ 100c9304     libeay32_EM_dbg.0.9.8e:v3_bitst.obj
 0002:00011318       ??_C@_0P@GPCNPOGO@nonRepudiation?$AA@ 100c9318     libeay32_EM_dbg.0.9.8e:v3_bitst.obj
 0002:00011328       ??_C@_0BA@DJCGBBAI@Non?5Repudiation?$AA@ 100c9328     libeay32_EM_dbg.0.9.8e:v3_bitst.obj
 0002:00011338       ??_C@_0BB@MFKHIIOM@digitalSignature?$AA@ 100c9338     libeay32_EM_dbg.0.9.8e:v3_bitst.obj
 0002:0001134c       ??_C@_0BC@DPKEIPIO@Digital?5Signature?$AA@ 100c934c     libeay32_EM_dbg.0.9.8e:v3_bitst.obj
 0002:00011360       ??_C@_05JLEIJNEE@objCA?$AA@ 100c9360     libeay32_EM_dbg.0.9.8e:v3_bitst.obj
 0002:00011368       ??_C@_0BC@FAMHGMHB@Object?5Signing?5CA?$AA@ 100c9368     libeay32_EM_dbg.0.9.8e:v3_bitst.obj
 0002:0001137c       ??_C@_07FFHDGPMJ@emailCA?$AA@ 100c937c     libeay32_EM_dbg.0.9.8e:v3_bitst.obj
 0002:00011384       ??_C@_09GIEMCMEO@S?1MIME?5CA?$AA@ 100c9384     libeay32_EM_dbg.0.9.8e:v3_bitst.obj
 0002:00011390       ??_C@_05JHLHLOEK@sslCA?$AA@ 100c9390     libeay32_EM_dbg.0.9.8e:v3_bitst.obj
 0002:00011398       ??_C@_06FMDLPOFJ@SSL?5CA?$AA@ 100c9398     libeay32_EM_dbg.0.9.8e:v3_bitst.obj
 0002:000113a0       ??_C@_08FINKBBAF@reserved?$AA@ 100c93a0     libeay32_EM_dbg.0.9.8e:v3_bitst.obj
 0002:000113ac       ??_C@_06CGLFEPBO@Unused?$AA@ 100c93ac     libeay32_EM_dbg.0.9.8e:v3_bitst.obj
 0002:000113b4       ??_C@_07GIOKFKGL@objsign?$AA@ 100c93b4     libeay32_EM_dbg.0.9.8e:v3_bitst.obj
 0002:000113bc       ??_C@_0P@DDHLFHHK@Object?5Signing?$AA@ 100c93bc     libeay32_EM_dbg.0.9.8e:v3_bitst.obj
 0002:000113cc       ??_C@_06HJHJCKIO@server?$AA@ 100c93cc     libeay32_EM_dbg.0.9.8e:v3_bitst.obj
 0002:000113d4       ??_C@_0L@DCIAGJKL@SSL?5Server?$AA@ 100c93d4     libeay32_EM_dbg.0.9.8e:v3_bitst.obj
 0002:000113e0       ??_C@_06DGDLPBAN@client?$AA@ 100c93e0     libeay32_EM_dbg.0.9.8e:v3_bitst.obj
 0002:000113e8       ??_C@_0L@HNMCLCCI@SSL?5Client?$AA@ 100c93e8     libeay32_EM_dbg.0.9.8e:v3_bitst.obj
 0002:000113f4       _v3_nscert                 100c93f4     libeay32_EM_dbg.0.9.8e:v3_bitst.obj
 0002:0001142c       _v3_key_usage              100c942c     libeay32_EM_dbg.0.9.8e:v3_bitst.obj
 0002:00011464       ??_C@_0BL@BMKLALJB@?4?2crypto?2x509v3?2v3_bitst?4c?$AA@ 100c9464     libeay32_EM_dbg.0.9.8e:v3_bitst.obj
 0002:00011480       _v3_skey_id                100c9480     libeay32_EM_dbg.0.9.8e:v3_skey.obj
 0002:000114b8       ??_C@_0BK@IJHBDBLK@?4?2crypto?2x509v3?2v3_skey?4c?$AA@ 100c94b8     libeay32_EM_dbg.0.9.8e:v3_skey.obj
 0002:000114d4       ??_C@_04OIJGJDKO@hash?$AA@ 100c94d4     libeay32_EM_dbg.0.9.8e:v3_skey.obj
 0002:000114e0       _v3_ns_ia5_list            100c94e0     libeay32_EM_dbg.0.9.8e:v3_ia5.obj
 0002:000116a0       ??_C@_0BJ@HJHFFFPI@?4?2crypto?2x509v3?2v3_ia5?4c?$AA@ 100c96a0     libeay32_EM_dbg.0.9.8e:v3_ia5.obj
 0002:000116bc       ??_C@_0BG@EJEAOFPD@?4?2crypto?2asn1?2a_set?4c?$AA@ 100c96bc     libeay32_EM_dbg.0.9.8e:a_set.obj
 0002:000116d4       ??_C@_0BJ@GNDHDHAM@?4?2crypto?2x509?2x509_obj?4c?$AA@ 100c96d4     libeay32_EM_dbg.0.9.8e:x509_obj.obj
 0002:000116f0       ??_C@_0N@MJCHLFGM@NO?5X509_NAME?$AA@ 100c96f0     libeay32_EM_dbg.0.9.8e:x509_obj.obj
 0002:00011700       ??_C@_0L@IMHCEJBK@ocsphelper?$AA@ 100c9700     libeay32_EM_dbg.0.9.8e:v3_purp.obj
 0002:0001170c       ??_C@_0M@NEPIMEJA@OCSP?5helper?$AA@ 100c970c     libeay32_EM_dbg.0.9.8e:v3_purp.obj
 0002:00011718       ??_C@_03OBJFJEBA@any?$AA@  100c9718     libeay32_EM_dbg.0.9.8e:v3_purp.obj
 0002:0001171c       ??_C@_0M@NMNFLNDB@Any?5Purpose?$AA@ 100c971c     libeay32_EM_dbg.0.9.8e:v3_purp.obj
 0002:00011728       ??_C@_07IOMCDAPH@crlsign?$AA@ 100c9728     libeay32_EM_dbg.0.9.8e:v3_purp.obj
 0002:00011730       ??_C@_0M@MEKLJHLA@CRL?5signing?$AA@ 100c9730     libeay32_EM_dbg.0.9.8e:v3_purp.obj
 0002:0001173c       ??_C@_0N@BPFJELMP@smimeencrypt?$AA@ 100c973c     libeay32_EM_dbg.0.9.8e:v3_purp.obj
 0002:0001174c       ??_C@_0BC@DOGNOPGC@S?1MIME?5encryption?$AA@ 100c974c     libeay32_EM_dbg.0.9.8e:v3_purp.obj
 0002:00011760       ??_C@_09JPGBHOKH@smimesign?$AA@ 100c9760     libeay32_EM_dbg.0.9.8e:v3_purp.obj
 0002:0001176c       ??_C@_0P@LNDEBCCO@S?1MIME?5signing?$AA@ 100c976c     libeay32_EM_dbg.0.9.8e:v3_purp.obj
 0002:0001177c       ??_C@_0M@GKHHMMAE@nssslserver?$AA@ 100c977c     libeay32_EM_dbg.0.9.8e:v3_purp.obj
 0002:00011788       ??_C@_0BE@BPEJPGJG@Netscape?5SSL?5server?$AA@ 100c9788     libeay32_EM_dbg.0.9.8e:v3_purp.obj
 0002:0001179c       ??_C@_09FEILOJPJ@sslserver?$AA@ 100c979c     libeay32_EM_dbg.0.9.8e:v3_purp.obj
 0002:000117a8       ??_C@_0L@PNDNFADH@SSL?5server?$AA@ 100c97a8     libeay32_EM_dbg.0.9.8e:v3_purp.obj
 0002:000117b4       ??_C@_09BLMJDCHK@sslclient?$AA@ 100c97b4     libeay32_EM_dbg.0.9.8e:v3_purp.obj
 0002:000117c0       ??_C@_0L@LCHPILLE@SSL?5client?$AA@ 100c97c0     libeay32_EM_dbg.0.9.8e:v3_purp.obj
 0002:000117cc       ??_C@_0BK@COINEMNE@?4?2crypto?2x509v3?2v3_purp?4c?$AA@ 100c97cc     libeay32_EM_dbg.0.9.8e:v3_purp.obj
 0002:000137e8       ??_C@_08OPPGEJIL@X509_VAL?$AA@ 100cb7e8     libeay32_EM_dbg.0.9.8e:x_val.obj
 0002:00013838       ??_C@_0BM@PFMNAKHN@?4?2crypto?2x509v3?2pcy_cache?4c?$AA@ 100cb838     libeay32_EM_dbg.0.9.8e:pcy_cache.obj
 0002:00013854       ??_C@_0L@MDHNNNKP@ssl_server?$AA@ 100cb854     libeay32_EM_dbg.0.9.8e:x509_vpm.obj
 0002:00013860       ??_C@_0L@IMDPAGCM@ssl_client?$AA@ 100cb860     libeay32_EM_dbg.0.9.8e:x509_vpm.obj
 0002:00013910       ??_C@_0BJ@MOBJJIAE@?4?2crypto?2x509?2x509_vpm?4c?$AA@ 100cb910     libeay32_EM_dbg.0.9.8e:x509_vpm.obj
 0002:0001392c       ??_C@_0BI@HFFBAJKF@unknown?5control?5command?$AA@ 100cb92c     libeay32_EM_dbg.0.9.8e:ui_err.obj
 0002:00013944       ??_C@_0BB@NEPBJBGF@result?5too?5small?$AA@ 100cb944     libeay32_EM_dbg.0.9.8e:ui_err.obj
 0002:00013958       ??_C@_0BB@HMLKGAPD@result?5too?5large?$AA@ 100cb958     libeay32_EM_dbg.0.9.8e:ui_err.obj
 0002:0001396c       ??_C@_0BB@HMMNCLKL@no?5result?5buffer?$AA@ 100cb96c     libeay32_EM_dbg.0.9.8e:ui_err.obj
 0002:00013980       ??_C@_0BA@CHEBNBMB@index?5too?5small?$AA@ 100cb980     libeay32_EM_dbg.0.9.8e:ui_err.obj
 0002:00013990       ??_C@_0BA@IPAKCAFH@index?5too?5large?$AA@ 100cb990     libeay32_EM_dbg.0.9.8e:ui_err.obj
 0002:000139a0       ??_C@_0CA@MODCIDDB@common?5ok?5and?5cancel?5characters?$AA@ 100cb9a0     libeay32_EM_dbg.0.9.8e:ui_err.obj
 0002:000139c0       ??_C@_0O@EDJPOOGP@UI_set_result?$AA@ 100cb9c0     libeay32_EM_dbg.0.9.8e:ui_err.obj
 0002:000139d0       ??_C@_0O@NGDBEIBL@UI_new_method?$AA@ 100cb9d0     libeay32_EM_dbg.0.9.8e:ui_err.obj
 0002:000139e0       ??_C@_0P@LPDIOMBP@UI_get0_result?$AA@ 100cb9e0     libeay32_EM_dbg.0.9.8e:ui_err.obj
 0002:000139f0       ??_C@_0BF@CLNOBEOL@UI_dup_verify_string?$AA@ 100cb9f0     libeay32_EM_dbg.0.9.8e:ui_err.obj
 0002:00013a08       ??_C@_0BE@EKGBGIID@UI_dup_input_string?$AA@ 100cba08     libeay32_EM_dbg.0.9.8e:ui_err.obj
 0002:00013a1c       ??_C@_0BF@POGJGJNM@UI_dup_input_boolean?$AA@ 100cba1c     libeay32_EM_dbg.0.9.8e:ui_err.obj
 0002:00013a34       ??_C@_0BD@BDJEJKHN@UI_dup_info_string?$AA@ 100cba34     libeay32_EM_dbg.0.9.8e:ui_err.obj
 0002:00013a48       ??_C@_0BE@MCDDKAGP@UI_dup_error_string?$AA@ 100cba48     libeay32_EM_dbg.0.9.8e:ui_err.obj
 0002:00013a5c       ??_C@_07PKCPFHP@UI_ctrl?$AA@ 100cba5c     libeay32_EM_dbg.0.9.8e:ui_err.obj
 0002:00013a64       ??_C@_0BI@OAGFBGFA@GENERAL_ALLOCATE_STRING?$AA@ 100cba64     libeay32_EM_dbg.0.9.8e:ui_err.obj
 0002:00013a7c       ??_C@_0BI@GHJBOEFM@GENERAL_ALLOCATE_PROMPT?$AA@ 100cba7c     libeay32_EM_dbg.0.9.8e:ui_err.obj
 0002:00013a94       ??_C@_0BJ@HEJNMKGO@GENERAL_ALLOCATE_BOOLEAN?$AA@ 100cba94     libeay32_EM_dbg.0.9.8e:ui_err.obj
 0002:00013ab0       ??_C@_0BP@PEMBCGCF@unsupported?5requestorname?5type?$AA@ 100cbab0     libeay32_EM_dbg.0.9.8e:ocsp_err.obj
 0002:00013ad0       ??_C@_0M@MJJCBEFL@unknown?5nid?$AA@ 100cbad0     libeay32_EM_dbg.0.9.8e:ocsp_err.obj
 0002:00013adc       ??_C@_0BH@HCJHEFDL@unknown?5message?5digest?$AA@ 100cbadc     libeay32_EM_dbg.0.9.8e:ocsp_err.obj
 0002:00013af4       ??_C@_0P@GGIDMBBF@status?5too?5old?$AA@ 100cbaf4     libeay32_EM_dbg.0.9.8e:ocsp_err.obj
 0002:00013b04       ??_C@_0BF@IGIMLKNE@status?5not?5yet?5valid?$AA@ 100cbb04     libeay32_EM_dbg.0.9.8e:ocsp_err.obj
 0002:00013b1c       ??_C@_0P@HOCKGMFL@status?5expired?$AA@ 100cbb1c     libeay32_EM_dbg.0.9.8e:ocsp_err.obj
 0002:00013b2c       ??_C@_0BN@LFDDONEE@signer?5certificate?5not?5found?$AA@ 100cbb2c     libeay32_EM_dbg.0.9.8e:ocsp_err.obj
 0002:00013b4c       ??_C@_0BC@FNMJPDOC@signature?5failure?$AA@ 100cbb4c     libeay32_EM_dbg.0.9.8e:ocsp_err.obj
 0002:00013b60       ??_C@_0BD@GNOPIANF@server?5write?5error?$AA@ 100cbb60     libeay32_EM_dbg.0.9.8e:ocsp_err.obj
 0002:00013b74       ??_C@_0BM@PELFIJJH@server?5response?5parse?5error?$AA@ 100cbb74     libeay32_EM_dbg.0.9.8e:ocsp_err.obj
 0002:00013b90       ??_C@_0BG@HMMPALGI@server?5response?5error?$AA@ 100cbb90     libeay32_EM_dbg.0.9.8e:ocsp_err.obj
 0002:00013ba8       ??_C@_0BC@IPNNFNEJ@server?5read?5error?$AA@ 100cbba8     libeay32_EM_dbg.0.9.8e:ocsp_err.obj
 0002:00013bbc       ??_C@_0BE@FPFBADPC@root?5ca?5not?5trusted?$AA@ 100cbbbc     libeay32_EM_dbg.0.9.8e:ocsp_err.obj
 0002:00013bd0       ??_C@_0CF@EOACFMGE@response?5contains?5no?5revocation?5@ 100cbbd0     libeay32_EM_dbg.0.9.8e:ocsp_err.obj
 0002:00013bf8       ??_C@_0BD@NCDAPJKO@request?5not?5signed?$AA@ 100cbbf8     libeay32_EM_dbg.0.9.8e:ocsp_err.obj
 0002:00013c0c       ??_C@_0CH@PMPAELAG@private?5key?5does?5not?5match?5certi@ 100cbc0c     libeay32_EM_dbg.0.9.8e:ocsp_err.obj
 0002:00013c34       ??_C@_0BA@KBOGMBML@no?5revoked?5time?$AA@ 100cbc34     libeay32_EM_dbg.0.9.8e:ocsp_err.obj
 0002:00013c44       ??_C@_0BB@GBCEEOG@no?5response?5data?$AA@ 100cbc44     libeay32_EM_dbg.0.9.8e:ocsp_err.obj
 0002:00013c58       ??_C@_0O@EOGKGIEL@no?5public?5key?$AA@ 100cbc58     libeay32_EM_dbg.0.9.8e:ocsp_err.obj
 0002:00013c68       ??_C@_0L@CMBDMAOL@no?5content?$AA@ 100cbc68     libeay32_EM_dbg.0.9.8e:ocsp_err.obj
 0002:00013c74       ??_C@_0BJ@PFPLJIP@no?5certificates?5in?5chain?$AA@ 100cbc74     libeay32_EM_dbg.0.9.8e:ocsp_err.obj
 0002:00013c90       ??_C@_0BD@BKKPMAGI@not?5basic?5response?$AA@ 100cbc90     libeay32_EM_dbg.0.9.8e:ocsp_err.obj
 0002:00013ca4       ??_C@_0BN@MIEFPHNI@nextupdate?5before?5thisupdate?$AA@ 100cbca4     libeay32_EM_dbg.0.9.8e:ocsp_err.obj
 0002:00013cc4       ??_C@_0BK@CFIMGAGI@missing?5ocspsigning?5usage?$AA@ 100cbcc4     libeay32_EM_dbg.0.9.8e:ocsp_err.obj
 0002:00013ce0       ??_C@_0BC@FBBBNNOE@error?5parsing?5url?$AA@ 100cbce0     libeay32_EM_dbg.0.9.8e:ocsp_err.obj
 0002:00013cf4       ??_C@_0BK@GDOEKJHF@error?5in?5thisupdate?5field?$AA@ 100cbcf4     libeay32_EM_dbg.0.9.8e:ocsp_err.obj
 0002:00013d10       ??_C@_0BK@NHIHEDGP@error?5in?5nextupdate?5field?$AA@ 100cbd10     libeay32_EM_dbg.0.9.8e:ocsp_err.obj
 0002:00013d2c       ??_C@_0L@DDPIMMLP@digest?5err?$AA@ 100cbd2c     libeay32_EM_dbg.0.9.8e:ocsp_err.obj
 0002:00013d38       ??_C@_0BJ@PLMONNLI@certificate?5verify?5error?$AA@ 100cbd38     libeay32_EM_dbg.0.9.8e:ocsp_err.obj
 0002:00013d54       ??_C@_08MPEBFEBH@bad?5data?$AA@ 100cbd54     libeay32_EM_dbg.0.9.8e:ocsp_err.obj
 0002:00013d60       ??_C@_0P@EJFIFBBI@REQUEST_VERIFY?$AA@ 100cbd60     libeay32_EM_dbg.0.9.8e:ocsp_err.obj
 0002:00013d70       ??_C@_0BB@PJALPLHC@OCSP_sendreq_bio?$AA@ 100cbd70     libeay32_EM_dbg.0.9.8e:ocsp_err.obj
 0002:00013d84       ??_C@_0BJ@PJFNFKOP@OCSP_response_get1_basic?$AA@ 100cbd84     libeay32_EM_dbg.0.9.8e:ocsp_err.obj
 0002:00013da0       ??_C@_0BE@OFJONHDE@OCSP_request_verify?$AA@ 100cbda0     libeay32_EM_dbg.0.9.8e:ocsp_err.obj
 0002:00013db4       ??_C@_0BC@BOKGIJKF@OCSP_request_sign?$AA@ 100cbdb4     libeay32_EM_dbg.0.9.8e:ocsp_err.obj
 0002:00013dc8       ??_C@_0P@EGPIPMGP@OCSP_parse_url?$AA@ 100cbdc8     libeay32_EM_dbg.0.9.8e:ocsp_err.obj
 0002:00013dd8       ??_C@_0BE@JIKJHJDO@OCSP_MATCH_ISSUERID?$AA@ 100cbdd8     libeay32_EM_dbg.0.9.8e:ocsp_err.obj
 0002:00013dec       ??_C@_0BE@MFKONAMO@OCSP_check_validity?$AA@ 100cbdec     libeay32_EM_dbg.0.9.8e:ocsp_err.obj
 0002:00013e00       ??_C@_0BC@NGBDAEFF@OCSP_CHECK_ISSUER?$AA@ 100cbe00     libeay32_EM_dbg.0.9.8e:ocsp_err.obj
 0002:00013e14       ??_C@_0P@DDGGJONL@OCSP_CHECK_IDS?$AA@ 100cbe14     libeay32_EM_dbg.0.9.8e:ocsp_err.obj
 0002:00013e24       ??_C@_0BF@KOGHHGND@OCSP_CHECK_DELEGATED?$AA@ 100cbe24     libeay32_EM_dbg.0.9.8e:ocsp_err.obj
 0002:00013e3c       ??_C@_0BB@FDFOGFMH@OCSP_cert_id_new?$AA@ 100cbe3c     libeay32_EM_dbg.0.9.8e:ocsp_err.obj
 0002:00013e50       ??_C@_0BC@BKMFDAMH@OCSP_basic_verify?$AA@ 100cbe50     libeay32_EM_dbg.0.9.8e:ocsp_err.obj
 0002:00013e64       ??_C@_0BA@ENHCHJFD@OCSP_basic_sign?$AA@ 100cbe64     libeay32_EM_dbg.0.9.8e:ocsp_err.obj
 0002:00013e74       ??_C@_0BH@GOAFBKBP@OCSP_basic_add1_status?$AA@ 100cbe74     libeay32_EM_dbg.0.9.8e:ocsp_err.obj
 0002:00013e8c       ??_C@_0P@MGFFHJND@D2I_OCSP_NONCE?$AA@ 100cbe8c     libeay32_EM_dbg.0.9.8e:ocsp_err.obj
 0002:00013e9c       ??_C@_0BD@NPDGBE@ASN1_STRING_encode?$AA@ 100cbe9c     libeay32_EM_dbg.0.9.8e:ocsp_err.obj
 0002:00013eb0       ??_C@_0BI@GMELFAKF@version?5incompatibility?$AA@ 100cbeb0     libeay32_EM_dbg.0.9.8e:eng_err.obj
 0002:00013ec8       ??_C@_0BF@FHAJCIB@unimplemented?5digest?$AA@ 100cbec8     libeay32_EM_dbg.0.9.8e:eng_err.obj
 0002:00013ee0       ??_C@_0BF@KOIMEHAE@unimplemented?5cipher?$AA@ 100cbee0     libeay32_EM_dbg.0.9.8e:eng_err.obj
 0002:00013ef8       ??_C@_0BE@ICGIJGPJ@rsa?5not?5implemented?$AA@ 100cbef8     libeay32_EM_dbg.0.9.8e:eng_err.obj
 0002:00013f0c       ??_C@_0BD@OBEDCEHC@provide?5parameters?$AA@ 100cbf0c     libeay32_EM_dbg.0.9.8e:eng_err.obj
 0002:00013f20       ??_C@_0BD@BAMGBJCH@no?5unload?5function?$AA@ 100cbf20     libeay32_EM_dbg.0.9.8e:eng_err.obj
 0002:00013f34       ??_C@_0P@MKGFOFPM@no?5such?5engine?$AA@ 100cbf34     libeay32_EM_dbg.0.9.8e:eng_err.obj
 0002:00013f44       ??_C@_0N@GNFMHGFB@no?5reference?$AA@ 100cbf44     libeay32_EM_dbg.0.9.8e:eng_err.obj
 0002:00013f54       ??_C@_0BB@MEBKLLLP@no?5load?5function?$AA@ 100cbf54     libeay32_EM_dbg.0.9.8e:eng_err.obj
 0002:00013f68       ??_C@_08FPGGDHDD@no?5index?$AA@ 100cbf68     libeay32_EM_dbg.0.9.8e:eng_err.obj
 0002:00013f74       ??_C@_0BE@IBINMIII@no?5control?5function?$AA@ 100cbf74     libeay32_EM_dbg.0.9.8e:eng_err.obj
 0002:00013f88       ??_C@_0L@ICAFOIA@not?5loaded?$AA@ 100cbf88     libeay32_EM_dbg.0.9.8e:eng_err.obj
 0002:00013f94       ??_C@_0BA@FEBOOGFB@not?5initialised?$AA@ 100cbf94     libeay32_EM_dbg.0.9.8e:eng_err.obj
 0002:00013fa4       ??_C@_0P@JNPPPLLF@invalid?5string?$AA@ 100cbfa4     libeay32_EM_dbg.0.9.8e:eng_err.obj
 0002:00013fb4       ??_C@_0BD@HIPFLJCP@invalid?5init?5value?$AA@ 100cbfb4     libeay32_EM_dbg.0.9.8e:eng_err.obj
 0002:00013fc8       ??_C@_0BD@PPGEIBJN@invalid?5cmd?5number?$AA@ 100cbfc8     libeay32_EM_dbg.0.9.8e:eng_err.obj
 0002:00013fdc       ??_C@_0BB@CNFOOOPK@invalid?5cmd?5name?$AA@ 100cbfdc     libeay32_EM_dbg.0.9.8e:eng_err.obj
 0002:00013ff0       ??_C@_0BB@FCMFBGOM@invalid?5argument?$AA@ 100cbff0     libeay32_EM_dbg.0.9.8e:eng_err.obj
 0002:00014004       ??_C@_0BE@OKODLAII@internal?5list?5error?$AA@ 100cc004     libeay32_EM_dbg.0.9.8e:eng_err.obj
 0002:00014018       ??_C@_0M@MLCJFCMN@init?5failed?$AA@ 100cc018     libeay32_EM_dbg.0.9.8e:eng_err.obj
 0002:00014024       ??_C@_0BH@HIGAMGCJ@?8id?8?5or?5?8name?8?5missing?$AA@ 100cc024     libeay32_EM_dbg.0.9.8e:eng_err.obj
 0002:0001403c       ??_C@_0CB@LBPHDELA@could?5not?5obtain?5hardware?5handle@ 100cc03c     libeay32_EM_dbg.0.9.8e:eng_err.obj
 0002:00014060       ??_C@_0O@LLOFKFAE@finish?5failed?$AA@ 100cc060     libeay32_EM_dbg.0.9.8e:eng_err.obj
 0002:00014070       ??_C@_0BK@OJHFAKGP@failed?5loading?5public?5key?$AA@ 100cc070     libeay32_EM_dbg.0.9.8e:eng_err.obj
 0002:0001408c       ??_C@_0BL@DPOFILLC@failed?5loading?5private?5key?$AA@ 100cc08c     libeay32_EM_dbg.0.9.8e:eng_err.obj
 0002:000140a8       ??_C@_0BF@NFOFDGOH@engine?5section?5error?$AA@ 100cc0a8     libeay32_EM_dbg.0.9.8e:eng_err.obj
 0002:000140c0       ??_C@_0BK@OKABGIGB@engine?5is?5not?5in?5the?5list?$AA@ 100cc0c0     libeay32_EM_dbg.0.9.8e:eng_err.obj
 0002:000140dc       ??_C@_0BG@OGKPDNLL@engines?5section?5error?$AA@ 100cc0dc     libeay32_EM_dbg.0.9.8e:eng_err.obj
 0002:000140f4       ??_C@_0O@BBPECCFC@dso?5not?5found?$AA@ 100cc0f4     libeay32_EM_dbg.0.9.8e:eng_err.obj
 0002:00014104       ??_C@_0M@OADBIJHF@DSO?5failure?$AA@ 100cc104     libeay32_EM_dbg.0.9.8e:eng_err.obj
 0002:00014110       ??_C@_0BE@OGINKAAJ@dsa?5not?5implemented?$AA@ 100cc110     libeay32_EM_dbg.0.9.8e:eng_err.obj
 0002:00014124       ??_C@_0BD@PDMGEBAD@dh?5not?5implemented?$AA@ 100cc124     libeay32_EM_dbg.0.9.8e:eng_err.obj
 0002:00014138       ??_C@_0BN@NJGGMLOG@ctrl?5command?5not?5implemented?$AA@ 100cc138     libeay32_EM_dbg.0.9.8e:eng_err.obj
 0002:00014158       ??_C@_0BG@FIAJIFFO@conflicting?5engine?5id?$AA@ 100cc158     libeay32_EM_dbg.0.9.8e:eng_err.obj
 0002:00014170       ??_C@_0BH@KAPFONCA@command?5takes?5no?5input?$AA@ 100cc170     libeay32_EM_dbg.0.9.8e:eng_err.obj
 0002:00014188       ??_C@_0BE@CMOMGKCM@command?5takes?5input?$AA@ 100cc188     libeay32_EM_dbg.0.9.8e:eng_err.obj
 0002:0001419c       ??_C@_0BD@DHLDGNIM@cmd?5not?5executable?$AA@ 100cc19c     libeay32_EM_dbg.0.9.8e:eng_err.obj
 0002:000141b0       ??_C@_0BJ@MLKFDHJB@argument?5is?5not?5a?5number?$AA@ 100cc1b0     libeay32_EM_dbg.0.9.8e:eng_err.obj
 0002:000141cc       ??_C@_0P@BJJHFGDF@already?5loaded?$AA@ 100cc1cc     libeay32_EM_dbg.0.9.8e:eng_err.obj
 0002:000141dc       ??_C@_0M@KPAPOBEL@LOG_MESSAGE?$AA@ 100cc1dc     libeay32_EM_dbg.0.9.8e:eng_err.obj
 0002:000141e8       ??_C@_0BH@NKOABKBJ@INT_ENGINE_MODULE_INIT?$AA@ 100cc1e8     libeay32_EM_dbg.0.9.8e:eng_err.obj
 0002:00014200       ??_C@_0BF@KHKGEEDA@INT_ENGINE_CONFIGURE?$AA@ 100cc200     libeay32_EM_dbg.0.9.8e:eng_err.obj
 0002:00014218       ??_C@_0BA@NBOMGPDI@INT_CTRL_HELPER?$AA@ 100cc218     libeay32_EM_dbg.0.9.8e:eng_err.obj
 0002:00014228       ??_C@_0O@GOAHGMDB@ENGINE_up_ref?$AA@ 100cc228     libeay32_EM_dbg.0.9.8e:eng_err.obj
 0002:00014238       ??_C@_0BH@LANMBLCP@ENGINE_UNLOCKED_FINISH?$AA@ 100cc238     libeay32_EM_dbg.0.9.8e:eng_err.obj
 0002:00014250       ??_C@_0BC@NNKOFPO@ENGINE_UNLOAD_KEY?$AA@ 100cc250     libeay32_EM_dbg.0.9.8e:eng_err.obj
 0002:00014264       ??_C@_0BG@HEPKCBPA@ENGINE_TABLE_REGISTER?$AA@ 100cc264     libeay32_EM_dbg.0.9.8e:eng_err.obj
 0002:0001427c       ??_C@_0BA@BBCLHLE@ENGINE_set_name?$AA@ 100cc27c     libeay32_EM_dbg.0.9.8e:eng_err.obj
 0002:0001428c       ??_C@_0O@IBKJDIDD@ENGINE_set_id?$AA@ 100cc28c     libeay32_EM_dbg.0.9.8e:eng_err.obj
 0002:0001429c       ??_C@_0BI@PCMFCKOJ@ENGINE_SET_DEFAULT_TYPE?$AA@ 100cc29c     libeay32_EM_dbg.0.9.8e:eng_err.obj
 0002:000142b4       ??_C@_0BK@CMIADBNF@ENGINE_set_default_string?$AA@ 100cc2b4     libeay32_EM_dbg.0.9.8e:eng_err.obj
 0002:000142d0       ??_C@_0O@LEGEOLNJ@ENGINE_remove?$AA@ 100cc2d0     libeay32_EM_dbg.0.9.8e:eng_err.obj
 0002:000142e0       ??_C@_0L@DLEMNAIO@ENGINE_new?$AA@ 100cc2e0     libeay32_EM_dbg.0.9.8e:eng_err.obj
 0002:000142ec       ??_C@_0BH@DNGJCACJ@ENGINE_load_public_key?$AA@ 100cc2ec     libeay32_EM_dbg.0.9.8e:eng_err.obj
 0002:00014304       ??_C@_0BI@CBHILLDH@ENGINE_load_private_key?$AA@ 100cc304     libeay32_EM_dbg.0.9.8e:eng_err.obj
 0002:0001431c       ??_C@_0BD@LDGPIDHA@ENGINE_LIST_REMOVE?$AA@ 100cc31c     libeay32_EM_dbg.0.9.8e:eng_err.obj
 0002:00014330       ??_C@_0BA@LJOOGOPL@ENGINE_LIST_ADD?$AA@ 100cc330     libeay32_EM_dbg.0.9.8e:eng_err.obj
 0002:00014340       ??_C@_0M@DCPBILGO@ENGINE_init?$AA@ 100cc340     libeay32_EM_dbg.0.9.8e:eng_err.obj
 0002:0001434c       ??_C@_0BA@CLOGFHB@ENGINE_get_prev?$AA@ 100cc34c     libeay32_EM_dbg.0.9.8e:eng_err.obj
 0002:0001435c       ??_C@_0BA@DGGIHBBF@ENGINE_get_next?$AA@ 100cc35c     libeay32_EM_dbg.0.9.8e:eng_err.obj
 0002:0001436c       ??_C@_0BC@NEPEFELB@ENGINE_get_digest?$AA@ 100cc36c     libeay32_EM_dbg.0.9.8e:eng_err.obj
 0002:00014380       ??_C@_0BI@JGJMJEFL@ENGINE_GET_DEFAULT_TYPE?$AA@ 100cc380     libeay32_EM_dbg.0.9.8e:eng_err.obj
 0002:00014398       ??_C@_0BC@HPAIIBDE@ENGINE_get_cipher?$AA@ 100cc398     libeay32_EM_dbg.0.9.8e:eng_err.obj
 0002:000143ac       ??_C@_0BB@PJHBNDMO@ENGINE_FREE_UTIL?$AA@ 100cc3ac     libeay32_EM_dbg.0.9.8e:eng_err.obj
 0002:000143c0       ??_C@_0O@IBJJAKNF@ENGINE_finish?$AA@ 100cc3c0     libeay32_EM_dbg.0.9.8e:eng_err.obj
 0002:000143d0       ??_C@_0BH@IEMBPIBJ@ENGINE_ctrl_cmd_string?$AA@ 100cc3d0     libeay32_EM_dbg.0.9.8e:eng_err.obj
 0002:000143e8       ??_C@_0BA@NDKOOMLF@ENGINE_ctrl_cmd?$AA@ 100cc3e8     libeay32_EM_dbg.0.9.8e:eng_err.obj
 0002:000143f8       ??_C@_0M@NFINPAPM@ENGINE_ctrl?$AA@ 100cc3f8     libeay32_EM_dbg.0.9.8e:eng_err.obj
 0002:00014404       ??_C@_0BJ@HKGBPGOI@ENGINE_cmd_is_executable?$AA@ 100cc404     libeay32_EM_dbg.0.9.8e:eng_err.obj
 0002:00014420       ??_C@_0N@NCBADPHI@ENGINE_by_id?$AA@ 100cc420     libeay32_EM_dbg.0.9.8e:eng_err.obj
 0002:00014430       ??_C@_0L@DACOLHN@ENGINE_add?$AA@ 100cc430     libeay32_EM_dbg.0.9.8e:eng_err.obj
 0002:0001443c       ??_C@_0BF@CMDFGLLL@DYNAMIC_SET_DATA_CTX?$AA@ 100cc43c     libeay32_EM_dbg.0.9.8e:eng_err.obj
 0002:00014454       ??_C@_0N@PDCGAECP@DYNAMIC_LOAD?$AA@ 100cc454     libeay32_EM_dbg.0.9.8e:eng_err.obj
 0002:00014464       ??_C@_0BF@FIILKHPH@DYNAMIC_GET_DATA_CTX?$AA@ 100cc464     libeay32_EM_dbg.0.9.8e:eng_err.obj
 0002:0001447c       ??_C@_0N@CANHNEEB@DYNAMIC_CTRL?$AA@ 100cc47c     libeay32_EM_dbg.0.9.8e:eng_err.obj
 0002:0001448c       ??_C@_0BM@LHLEOIGK@functionality?5not?5supported?$AA@ 100cc48c     libeay32_EM_dbg.0.9.8e:dso_err.obj
 0002:000144a8       ??_C@_0CE@FOMJAKIK@could?5not?5unload?5the?5shared?5libr@ 100cc4a8     libeay32_EM_dbg.0.9.8e:dso_err.obj
 0002:000144cc       ??_C@_0CM@JGGNADOB@could?5not?5bind?5to?5the?5requested?5@ 100cc4cc     libeay32_EM_dbg.0.9.8e:dso_err.obj
 0002:000144f8       ??_C@_0BP@PIEGKEEJ@the?5meth_data?5stack?5is?5corrupt?$AA@ 100cc4f8     libeay32_EM_dbg.0.9.8e:dso_err.obj
 0002:00014518       ??_C@_0BE@NIHPFFEI@set?5filename?5failed?$AA@ 100cc518     libeay32_EM_dbg.0.9.8e:dso_err.obj
 0002:0001452c       ??_C@_0CG@BNDBJOHD@a?5null?5shared?5library?5handle?5was@ 100cc52c     libeay32_EM_dbg.0.9.8e:dso_err.obj
 0002:00014554       ??_C@_0BG@DMKAPHFP@no?5file?5specification?$AA@ 100cc554     libeay32_EM_dbg.0.9.8e:dso_err.obj
 0002:0001456c       ??_C@_0M@MANHICLF@no?5filename?$AA@ 100cc56c     libeay32_EM_dbg.0.9.8e:dso_err.obj
 0002:00014578       ??_C@_0BI@CMDMEMFB@name?5translation?5failed?$AA@ 100cc578     libeay32_EM_dbg.0.9.8e:dso_err.obj
 0002:00014590       ??_C@_0CC@FFDOFDDH@could?5not?5load?5the?5shared?5librar@ 100cc590     libeay32_EM_dbg.0.9.8e:dso_err.obj
 0002:000145b4       ??_C@_0BG@NKEINIBP@incorrect?5file?5syntax?$AA@ 100cc5b4     libeay32_EM_dbg.0.9.8e:dso_err.obj
 0002:000145cc       ??_C@_0BP@OLOPAJM@cleanup?5method?5function?5failed?$AA@ 100cc5cc     libeay32_EM_dbg.0.9.8e:dso_err.obj
 0002:000145ec       ??_C@_0BB@PBMBADNF@filename?5too?5big?$AA@ 100cc5ec     libeay32_EM_dbg.0.9.8e:dso_err.obj
 0002:00014600       ??_C@_07MBLPHJFH@failure?$AA@ 100cc600     libeay32_EM_dbg.0.9.8e:dso_err.obj
 0002:00014608       ??_C@_0BF@PAMEGLNL@empty?5file?5structure?$AA@ 100cc608     libeay32_EM_dbg.0.9.8e:dso_err.obj
 0002:00014620       ??_C@_0BD@BHBOFNOP@dso?5already?5loaded?$AA@ 100cc620     libeay32_EM_dbg.0.9.8e:dso_err.obj
 0002:00014634       ??_C@_0BH@OOCPFGMG@control?5command?5failed?$AA@ 100cc634     libeay32_EM_dbg.0.9.8e:dso_err.obj
 0002:0001464c       ??_C@_0N@FNAFDKAA@WIN32_UNLOAD?$AA@ 100cc64c     libeay32_EM_dbg.0.9.8e:dso_err.obj
 0002:0001465c       ??_C@_0P@MLLACKJ@WIN32_SPLITTER?$AA@ 100cc65c     libeay32_EM_dbg.0.9.8e:dso_err.obj
 0002:0001466c       ??_C@_0BF@KDGOAHDK@WIN32_NAME_CONVERTER?$AA@ 100cc66c     libeay32_EM_dbg.0.9.8e:dso_err.obj
 0002:00014684       ??_C@_0N@GCAGAEGN@WIN32_MERGER?$AA@ 100cc684     libeay32_EM_dbg.0.9.8e:dso_err.obj
 0002:00014694       ??_C@_0L@MDFNLIFJ@WIN32_LOAD?$AA@ 100cc694     libeay32_EM_dbg.0.9.8e:dso_err.obj
 0002:000146a0       ??_C@_0N@GMACPAJM@WIN32_JOINER?$AA@ 100cc6a0     libeay32_EM_dbg.0.9.8e:dso_err.obj
 0002:000146b0       ??_C@_0P@CFCFCNCK@WIN32_BIND_VAR?$AA@ 100cc6b0     libeay32_EM_dbg.0.9.8e:dso_err.obj
 0002:000146c0       ??_C@_0BA@KKGNPNGD@WIN32_BIND_FUNC?$AA@ 100cc6c0     libeay32_EM_dbg.0.9.8e:dso_err.obj
 0002:000146d0       ??_C@_0L@FHGIHEGE@VMS_UNLOAD?$AA@ 100cc6d0     libeay32_EM_dbg.0.9.8e:dso_err.obj
 0002:000146dc       ??_C@_0L@GIGLEKAJ@VMS_MERGER?$AA@ 100cc6dc     libeay32_EM_dbg.0.9.8e:dso_err.obj
 0002:000146e8       ??_C@_08POPKNNEM@VMS_LOAD?$AA@ 100cc6e8     libeay32_EM_dbg.0.9.8e:dso_err.obj
 0002:000146f4       ??_C@_0N@FNGBOJBH@VMS_BIND_SYM?$AA@ 100cc6f4     libeay32_EM_dbg.0.9.8e:dso_err.obj
 0002:00014704       ??_C@_0L@JOFLDDCD@DSO_up_ref?$AA@ 100cc704     libeay32_EM_dbg.0.9.8e:dso_err.obj
 0002:00014710       ??_C@_0BH@HJLMMDGG@DSO_set_name_converter?$AA@ 100cc710     libeay32_EM_dbg.0.9.8e:dso_err.obj
 0002:00014728       ??_C@_0BB@KOOHGFJP@DSO_set_filename?$AA@ 100cc728     libeay32_EM_dbg.0.9.8e:dso_err.obj
 0002:0001473c       ??_C@_0P@MIPJLIEO@DSO_new_method?$AA@ 100cc73c     libeay32_EM_dbg.0.9.8e:dso_err.obj
 0002:0001474c       ??_C@_09JEEHMKBG@DSO_merge?$AA@ 100cc74c     libeay32_EM_dbg.0.9.8e:dso_err.obj
 0002:00014758       ??_C@_08HJLJIAGA@DSO_load?$AA@ 100cc758     libeay32_EM_dbg.0.9.8e:dso_err.obj
 0002:00014764       ??_C@_0BI@BHCPJBAG@DSO_get_loaded_filename?$AA@ 100cc764     libeay32_EM_dbg.0.9.8e:dso_err.obj
 0002:0001477c       ??_C@_0BB@NKFJKJND@DSO_get_filename?$AA@ 100cc77c     libeay32_EM_dbg.0.9.8e:dso_err.obj
 0002:00014790       ??_C@_08IPGIIOBO@DSO_free?$AA@ 100cc790     libeay32_EM_dbg.0.9.8e:dso_err.obj
 0002:0001479c       ??_C@_08KKEIFAAO@DSO_ctrl?$AA@ 100cc79c     libeay32_EM_dbg.0.9.8e:dso_err.obj
 0002:000147a8       ??_C@_0BF@LACAGLOM@DSO_convert_filename?$AA@ 100cc7a8     libeay32_EM_dbg.0.9.8e:dso_err.obj
 0002:000147c0       ??_C@_0N@JOCDIPCP@DSO_bind_var?$AA@ 100cc7c0     libeay32_EM_dbg.0.9.8e:dso_err.obj
 0002:000147d0       ??_C@_0O@EPDICLOM@DSO_bind_func?$AA@ 100cc7d0     libeay32_EM_dbg.0.9.8e:dso_err.obj
 0002:000147e0       ??_C@_09MAACBMPD@DL_UNLOAD?$AA@ 100cc7e0     libeay32_EM_dbg.0.9.8e:dso_err.obj
 0002:000147ec       ??_C@_0BC@EKHEMLCM@DL_NAME_CONVERTER?$AA@ 100cc7ec     libeay32_EM_dbg.0.9.8e:dso_err.obj
 0002:00014800       ??_C@_09PPABCCJO@DL_MERGER?$AA@ 100cc800     libeay32_EM_dbg.0.9.8e:dso_err.obj
 0002:0001480c       ??_C@_07PCEANJHL@DL_LOAD?$AA@ 100cc80c     libeay32_EM_dbg.0.9.8e:dso_err.obj
 0002:00014814       ??_C@_0M@MILJIHKO@DL_BIND_VAR?$AA@ 100cc814     libeay32_EM_dbg.0.9.8e:dso_err.obj
 0002:00014820       ??_C@_0N@EAFFCGPA@DL_BIND_FUNC?$AA@ 100cc820     libeay32_EM_dbg.0.9.8e:dso_err.obj
 0002:00014830       ??_C@_0N@JGHGNDBI@DLFCN_UNLOAD?$AA@ 100cc830     libeay32_EM_dbg.0.9.8e:dso_err.obj
 0002:00014840       ??_C@_0BF@IJHLGIMF@DLFCN_NAME_CONVERTER?$AA@ 100cc840     libeay32_EM_dbg.0.9.8e:dso_err.obj
 0002:00014858       ??_C@_0N@KJHFONHF@DLFCN_MERGER?$AA@ 100cc858     libeay32_EM_dbg.0.9.8e:dso_err.obj
 0002:00014868       ??_C@_0L@COCAFIAA@DLFCN_LOAD?$AA@ 100cc868     libeay32_EM_dbg.0.9.8e:dso_err.obj
 0002:00014874       ??_C@_0P@HOOICENM@DLFCN_BIND_VAR?$AA@ 100cc874     libeay32_EM_dbg.0.9.8e:dso_err.obj
 0002:00014884       ??_C@_0BA@POOIGHED@DLFCN_BIND_FUNC?$AA@ 100cc884     libeay32_EM_dbg.0.9.8e:dso_err.obj
 0002:00014894       ??_C@_0BA@PGDKLOAF@PRNG?5not?5seeded?$AA@ 100cc894     libeay32_EM_dbg.0.9.8e:rand_err.obj
 0002:000148a4       ??_C@_0BC@HICMDCDB@SSLEAY_RAND_BYTES?$AA@ 100cc8a4     libeay32_EM_dbg.0.9.8e:rand_err.obj
 0002:000148b8       ??_C@_0BF@CAFGGGED@RAND_get_rand_method?$AA@ 100cc8b8     libeay32_EM_dbg.0.9.8e:rand_err.obj
 0002:000148d0       ??_C@_0BI@EEIECHAF@unsupported?5pkcs12?5mode?$AA@ 100cc8d0     libeay32_EM_dbg.0.9.8e:pk12err.obj
 0002:000148e8       ??_C@_0BJ@OKONMLMC@unknown?5digest?5algorithm?$AA@ 100cc8e8     libeay32_EM_dbg.0.9.8e:pk12err.obj
 0002:00014904       ??_C@_0BH@KFJJFPGN@pkcs12?5pbe?5crypt?5error?$AA@ 100cc904     libeay32_EM_dbg.0.9.8e:pk12err.obj
 0002:0001491c       ??_C@_0BJ@BKJAONNI@pkcs12?5cipherfinal?5error?$AA@ 100cc91c     libeay32_EM_dbg.0.9.8e:pk12err.obj
 0002:00014938       ??_C@_0BO@BBFFHMLJ@pkcs12?5algor?5cipherinit?5error?$AA@ 100cc938     libeay32_EM_dbg.0.9.8e:pk12err.obj
 0002:00014958       ??_C@_0M@BJIBBOFC@parse?5error?$AA@ 100cc958     libeay32_EM_dbg.0.9.8e:pk12err.obj
 0002:00014964       ??_C@_0BD@GOKMGMNC@mac?5verify?5failure?$AA@ 100cc964     libeay32_EM_dbg.0.9.8e:pk12err.obj
 0002:00014978       ??_C@_0BB@GIFNFEPC@mac?5verify?5error?$AA@ 100cc978     libeay32_EM_dbg.0.9.8e:pk12err.obj
 0002:0001498c       ??_C@_0BF@JMCFJAMN@mac?5string?5set?5error?$AA@ 100cc98c     libeay32_EM_dbg.0.9.8e:pk12err.obj
 0002:000149a4       ??_C@_0BA@ILPLLEEK@mac?5setup?5error?$AA@ 100cc9a4     libeay32_EM_dbg.0.9.8e:pk12err.obj
 0002:000149b4       ??_C@_0BF@NKGPIEMN@mac?5generation?5error?$AA@ 100cc9b4     libeay32_EM_dbg.0.9.8e:pk12err.obj
 0002:000149cc       ??_C@_0L@HOOIALKD@mac?5absent?$AA@ 100cc9cc     libeay32_EM_dbg.0.9.8e:pk12err.obj
 0002:000149d8       ??_C@_0O@KKIOONMM@key?5gen?5error?$AA@ 100cc9d8     libeay32_EM_dbg.0.9.8e:pk12err.obj
 0002:000149e8       ??_C@_0N@FPIKEAMH@iv?5gen?5error?$AA@ 100cc9e8     libeay32_EM_dbg.0.9.8e:pk12err.obj
 0002:000149f8       ??_C@_0BM@HJIDLEHH@invalid?5null?5pkcs12?5pointer?$AA@ 100cc9f8     libeay32_EM_dbg.0.9.8e:pk12err.obj
 0002:00014a14       ??_C@_0BG@HMFEKIEC@invalid?5null?5argument?$AA@ 100cca14     libeay32_EM_dbg.0.9.8e:pk12err.obj
 0002:00014a2c       ??_C@_0CC@OLHMBGOD@error?5setting?5encrypted?5data?5typ@ 100cca2c     libeay32_EM_dbg.0.9.8e:pk12err.obj
 0002:00014a50       ??_C@_0O@HCGKPNBB@encrypt?5error?$AA@ 100cca50     libeay32_EM_dbg.0.9.8e:pk12err.obj
 0002:00014a60       ??_C@_0N@NJEIFFDB@encode?5error?$AA@ 100cca60     libeay32_EM_dbg.0.9.8e:pk12err.obj
 0002:00014a70       ??_C@_0N@HFEMCILK@decode?5error?$AA@ 100cca70     libeay32_EM_dbg.0.9.8e:pk12err.obj
 0002:00014a80       ??_C@_0BG@NAJKFFBP@content?5type?5not?5data?$AA@ 100cca80     libeay32_EM_dbg.0.9.8e:pk12err.obj
 0002:00014a98       ??_C@_0BE@DIFPEDMB@cant?5pack?5structure?$AA@ 100cca98     libeay32_EM_dbg.0.9.8e:pk12err.obj
 0002:00014aac       ??_C@_0O@GEAAJNGL@PKCS8_encrypt?$AA@ 100ccaac     libeay32_EM_dbg.0.9.8e:pk12err.obj
 0002:00014abc       ??_C@_0BD@PNOACOKG@PKCS8_add_keyusage?$AA@ 100ccabc     libeay32_EM_dbg.0.9.8e:pk12err.obj
 0002:00014ad0       ??_C@_0BC@ODGOFFJK@PKCS12_verify_mac?$AA@ 100ccad0     libeay32_EM_dbg.0.9.8e:pk12err.obj
 0002:00014ae4       ??_C@_0BF@PGHHFMGC@PKCS12_unpack_p7data?$AA@ 100ccae4     libeay32_EM_dbg.0.9.8e:pk12err.obj
 0002:00014afc       ??_C@_0BI@LFBOHEJ@PKCS12_unpack_authsafes?$AA@ 100ccafc     libeay32_EM_dbg.0.9.8e:pk12err.obj
 0002:00014b14       ??_C@_0P@NELHLNIA@PKCS12_set_mac?$AA@ 100ccb14     libeay32_EM_dbg.0.9.8e:pk12err.obj
 0002:00014b24       ??_C@_0BB@KDNNBMPN@PKCS12_setup_mac?$AA@ 100ccb24     libeay32_EM_dbg.0.9.8e:pk12err.obj
 0002:00014b38       ??_C@_0BE@IOEGDAJO@PKCS12_PBE_keyivgen?$AA@ 100ccb38     libeay32_EM_dbg.0.9.8e:pk12err.obj
 0002:00014b4c       ??_C@_0BB@IMFIILMJ@PKCS12_pbe_crypt?$AA@ 100ccb4c     libeay32_EM_dbg.0.9.8e:pk12err.obj
 0002:00014b60       ??_C@_0N@KODNLEFI@PKCS12_parse?$AA@ 100ccb60     libeay32_EM_dbg.0.9.8e:pk12err.obj
 0002:00014b70       ??_C@_0BG@GJBJGPGL@PKCS12_pack_p7encdata?$AA@ 100ccb70     libeay32_EM_dbg.0.9.8e:pk12err.obj
 0002:00014b88       ??_C@_0BD@CKGFANON@PKCS12_pack_p7data?$AA@ 100ccb88     libeay32_EM_dbg.0.9.8e:pk12err.obj
 0002:00014b9c       ??_C@_0P@OJLKIJPG@PKCS12_newpass?$AA@ 100ccb9c     libeay32_EM_dbg.0.9.8e:pk12err.obj
 0002:00014bac       ??_C@_0BF@NOJGELOL@PKCS12_MAKE_SHKEYBAG?$AA@ 100ccbac     libeay32_EM_dbg.0.9.8e:pk12err.obj
 0002:00014bc4       ??_C@_0BD@NGAACKBP@PKCS12_MAKE_KEYBAG?$AA@ 100ccbc4     libeay32_EM_dbg.0.9.8e:pk12err.obj
 0002:00014bd8       ??_C@_0BD@DMMKPAAN@PKCS12_key_gen_uni?$AA@ 100ccbd8     libeay32_EM_dbg.0.9.8e:pk12err.obj
 0002:00014bec       ??_C@_0BD@NKAOIGM@PKCS12_key_gen_asc?$AA@ 100ccbec     libeay32_EM_dbg.0.9.8e:pk12err.obj
 0002:00014c00       ??_C@_0BJ@KMABOEKC@PKCS12_item_pack_safebag?$AA@ 100ccc00     libeay32_EM_dbg.0.9.8e:pk12err.obj
 0002:00014c1c       ??_C@_0BI@HHFDKLOA@PKCS12_item_i2d_encrypt?$AA@ 100ccc1c     libeay32_EM_dbg.0.9.8e:pk12err.obj
 0002:00014c34       ??_C@_0BI@DMGNLMLF@PKCS12_item_decrypt_d2i?$AA@ 100ccc34     libeay32_EM_dbg.0.9.8e:pk12err.obj
 0002:00014c4c       ??_C@_0M@LLKHLIMM@PKCS12_init?$AA@ 100ccc4c     libeay32_EM_dbg.0.9.8e:pk12err.obj
 0002:00014c58       ??_C@_0P@IOALKDKM@PKCS12_gen_mac?$AA@ 100ccc58     libeay32_EM_dbg.0.9.8e:pk12err.obj
 0002:00014c68       ??_C@_0O@JLNEJADH@PKCS12_create?$AA@ 100ccc68     libeay32_EM_dbg.0.9.8e:pk12err.obj
 0002:00014c78       ??_C@_0BG@MCOKGJI@PKCS12_add_localkeyid?$AA@ 100ccc78     libeay32_EM_dbg.0.9.8e:pk12err.obj
 0002:00014c90       ??_C@_0BM@DMPHEEM@PKCS12_add_friendlyname_uni?$AA@ 100ccc90     libeay32_EM_dbg.0.9.8e:pk12err.obj
 0002:00014cac       ??_C@_0BM@DCKFGMCN@PKCS12_add_friendlyname_asc?$AA@ 100cccac     libeay32_EM_dbg.0.9.8e:pk12err.obj
 0002:00014cc8       ??_C@_0BI@NGMPLJFF@PKCS12_ADD_FRIENDLYNAME?$AA@ 100cccc8     libeay32_EM_dbg.0.9.8e:pk12err.obj
 0002:00014ce0       ??_C@_0L@BEIACDCD@PARSE_BAGS?$AA@ 100ccce0     libeay32_EM_dbg.0.9.8e:pk12err.obj
 0002:00014cec       ??_C@_09HDBNGMFC@PARSE_BAG?$AA@ 100cccec     libeay32_EM_dbg.0.9.8e:pk12err.obj
 0002:00014cf8       ??_C@_0O@JHPAMHAH@user?5too?5long?$AA@ 100cccf8     libeay32_EM_dbg.0.9.8e:v3err.obj
 0002:00014d08       ??_C@_0BD@HBMBLBA@unsupported?5option?$AA@ 100ccd08     libeay32_EM_dbg.0.9.8e:v3err.obj
 0002:00014d1c       ??_C@_0P@EMNDFJHN@unknown?5option?$AA@ 100ccd1c     libeay32_EM_dbg.0.9.8e:v3err.obj
 0002:00014d2c       ??_C@_0BH@BCAACBGI@unknown?5extension?5name?$AA@ 100ccd2c     libeay32_EM_dbg.0.9.8e:v3err.obj
 0002:00014d44       ??_C@_0BC@OOCHDELC@unknown?5extension?$AA@ 100ccd44     libeay32_EM_dbg.0.9.8e:v3err.obj
 0002:00014d58       ??_C@_0BM@MKJMMAIK@unknown?5bit?5string?5argument?$AA@ 100ccd58     libeay32_EM_dbg.0.9.8e:v3err.obj
 0002:00014d74       ??_C@_0BL@OBFDCJAP@unable?5to?5get?5issuer?5keyid?$AA@ 100ccd74     libeay32_EM_dbg.0.9.8e:v3err.obj
 0002:00014d90       ??_C@_0BN@CHFBOPOP@unable?5to?5get?5issuer?5details?$AA@ 100ccd90     libeay32_EM_dbg.0.9.8e:v3err.obj
 0002:00014db0       ??_C@_0BC@JNLKMDNP@section?5not?5found?$AA@ 100ccdb0     libeay32_EM_dbg.0.9.8e:v3err.obj
 0002:00014dc4       ??_C@_0CO@JHHDKONF@policy?5when?5proxy?5language?5requi@ 100ccdc4     libeay32_EM_dbg.0.9.8e:v3err.obj
 0002:00014df4       ??_C@_0CG@MJOKMEM@policy?5syntax?5not?5currently?5supp@ 100ccdf4     libeay32_EM_dbg.0.9.8e:v3err.obj
 0002:00014e1c       ??_C@_0CE@NHPKMPCL@policy?5path?5length?5alreadty?5defi@ 100cce1c     libeay32_EM_dbg.0.9.8e:v3err.obj
 0002:00014e40       ??_C@_0BD@NEDBFMDL@policy?5path?5length?$AA@ 100cce40     libeay32_EM_dbg.0.9.8e:v3err.obj
 0002:00014e54       ??_C@_0CB@NHMENKCN@policy?5language?5alreadty?5defined@ 100cce54     libeay32_EM_dbg.0.9.8e:v3err.obj
 0002:00014e78       ??_C@_0BA@MOGEPHBJ@othername?5error?$AA@ 100cce78     libeay32_EM_dbg.0.9.8e:v3err.obj
 0002:00014e88       ??_C@_0BG@NMPNHAKE@operation?5not?5defined?$AA@ 100cce88     libeay32_EM_dbg.0.9.8e:v3err.obj
 0002:00014ea0       ??_C@_0BF@KKPHKHFI@odd?5number?5of?5digits?$AA@ 100ccea0     libeay32_EM_dbg.0.9.8e:v3err.obj
 0002:00014eb8       ??_C@_0BD@MBNAEAHJ@no?5subject?5details?$AA@ 100cceb8     libeay32_EM_dbg.0.9.8e:v3err.obj
 0002:00014ecc       ??_C@_0CG@OJBEOHLI@no?5proxy?5cert?5policy?5language?5de@ 100ccecc     libeay32_EM_dbg.0.9.8e:v3err.obj
 0002:00014ef4       ??_C@_0BF@GMFLKLFH@no?5policy?5identifier?$AA@ 100ccef4     libeay32_EM_dbg.0.9.8e:v3err.obj
 0002:00014f0c       ??_C@_0BC@DGDOEGNM@no?5issuer?5details?$AA@ 100ccf0c     libeay32_EM_dbg.0.9.8e:v3err.obj
 0002:00014f20       ??_C@_0BG@BJHMFLGH@no?5issuer?5certificate?$AA@ 100ccf20     libeay32_EM_dbg.0.9.8e:v3err.obj
 0002:00014f38       ??_C@_0BD@GBCDPHMB@no?5config?5database?$AA@ 100ccf38     libeay32_EM_dbg.0.9.8e:v3err.obj
 0002:00014f4c       ??_C@_0BO@NPHFIDLK@need?5organization?5and?5numbers?$AA@ 100ccf4c     libeay32_EM_dbg.0.9.8e:v3err.obj
 0002:00014f6c       ??_C@_0O@EGLIOGHL@missing?5value?$AA@ 100ccf6c     libeay32_EM_dbg.0.9.8e:v3err.obj
 0002:00014f7c       ??_C@_0BE@OKJPOHGC@issuer?5decode?5error?$AA@ 100ccf7c     libeay32_EM_dbg.0.9.8e:v3err.obj
 0002:00014f90       ??_C@_0P@OAAEFEAJ@invalid?5syntax?$AA@ 100ccf90     libeay32_EM_dbg.0.9.8e:v3err.obj
 0002:00014fa0       ??_C@_0BA@ECHPICKH@invalid?5section?$AA@ 100ccfa0     libeay32_EM_dbg.0.9.8e:v3err.obj
 0002:00014fb0       ??_C@_0N@FIBHOIMG@invalid?5safi?$AA@ 100ccfb0     libeay32_EM_dbg.0.9.8e:v3err.obj
 0002:00014fc0       ??_C@_0BA@EFIHLCHH@invalid?5purpose?$AA@ 100ccfc0     libeay32_EM_dbg.0.9.8e:v3err.obj
 0002:00014fd0       ??_C@_0BN@HOHNAMND@invalid?5proxy?5policy?5setting?$AA@ 100ccfd0     libeay32_EM_dbg.0.9.8e:v3err.obj
 0002:00014ff0       ??_C@_0BK@EAPNGJJJ@invalid?5policy?5identifier?$AA@ 100ccff0     libeay32_EM_dbg.0.9.8e:v3err.obj
 0002:0001500c       ??_C@_0P@PJFAGLMH@invalid?5option?$AA@ 100cd00c     libeay32_EM_dbg.0.9.8e:v3err.obj
 0002:0001501c       ??_C@_0BK@NLNHJCIF@invalid?5object?5identifier?$AA@ 100cd01c     libeay32_EM_dbg.0.9.8e:v3err.obj
 0002:00015038       ??_C@_0BA@LGPBNKEG@invalid?5numbers?$AA@ 100cd038     libeay32_EM_dbg.0.9.8e:v3err.obj
 0002:00015048       ??_C@_0P@FOPLFLLJ@invalid?5number?$AA@ 100cd048     libeay32_EM_dbg.0.9.8e:v3err.obj
 0002:00015058       ??_C@_0BD@GLEJLJGC@invalid?5null?5value?$AA@ 100cd058     libeay32_EM_dbg.0.9.8e:v3err.obj
 0002:0001506c       ??_C@_0BC@EKAKHKC@invalid?5null?5name?$AA@ 100cd06c     libeay32_EM_dbg.0.9.8e:v3err.obj
 0002:00015080       ??_C@_0N@GAIHBLBI@invalid?5name?$AA@ 100cd080     libeay32_EM_dbg.0.9.8e:v3err.obj
 0002:00015090       ??_C@_0BC@LAJKDMCB@invalid?5ipaddress?$AA@ 100cd090     libeay32_EM_dbg.0.9.8e:v3err.obj
 0002:000150a4       ??_C@_0BE@EJNBIJCH@invalid?5inheritance?$AA@ 100cd0a4     libeay32_EM_dbg.0.9.8e:v3err.obj
 0002:000150b8       ??_C@_0BJ@ECCGDIOM@invalid?5extension?5string?$AA@ 100cd0b8     libeay32_EM_dbg.0.9.8e:v3err.obj
 0002:000150d4       ??_C@_0BH@CJLEFGHB@invalid?5boolean?5string?$AA@ 100cd0d4     libeay32_EM_dbg.0.9.8e:v3err.obj
 0002:000150ec       ??_C@_0BA@GIFFGEAD@invalid?5asrange?$AA@ 100cd0ec     libeay32_EM_dbg.0.9.8e:v3err.obj
 0002:000150fc       ??_C@_0BB@MMCPCDHP@invalid?5asnumber?$AA@ 100cd0fc     libeay32_EM_dbg.0.9.8e:v3err.obj
 0002:00015110       ??_C@_0BM@GFPPDKKF@incorrect?5policy?5syntax?5tag?$AA@ 100cd110     libeay32_EM_dbg.0.9.8e:v3err.obj
 0002:0001512c       ??_C@_0BC@NGJFBKFK@illegal?5hex?5digit?$AA@ 100cd12c     libeay32_EM_dbg.0.9.8e:v3err.obj
 0002:00015140       ??_C@_0BI@JDFDJJBE@illegal?5empty?5extension?$AA@ 100cd140     libeay32_EM_dbg.0.9.8e:v3err.obj
 0002:00015158       ??_C@_0BG@HAAPENCJ@extension?5value?5error?$AA@ 100cd158     libeay32_EM_dbg.0.9.8e:v3err.obj
 0002:00015170       ??_C@_0CA@OIICHEJO@extension?5setting?5not?5supported?$AA@ 100cd170     libeay32_EM_dbg.0.9.8e:v3err.obj
 0002:00015190       ??_C@_0BE@PDPAEMIJ@extension?5not?5found?$AA@ 100cd190     libeay32_EM_dbg.0.9.8e:v3err.obj
 0002:000151a4       ??_C@_0BF@NELDGAFP@extension?5name?5error?$AA@ 100cd1a4     libeay32_EM_dbg.0.9.8e:v3err.obj
 0002:000151bc       ??_C@_0BB@NMKOJBMO@extension?5exists?$AA@ 100cd1bc     libeay32_EM_dbg.0.9.8e:v3err.obj
 0002:000151d0       ??_C@_0BI@FPOKMAM@expected?5a?5section?5name?$AA@ 100cd1d0     libeay32_EM_dbg.0.9.8e:v3err.obj
 0002:000151e8       ??_C@_0BD@OJDPENBP@error?5in?5extension?$AA@ 100cd1e8     libeay32_EM_dbg.0.9.8e:v3err.obj
 0002:000151fc       ??_C@_0BJ@PFLAAICM@error?5creating?5extension?$AA@ 100cd1fc     libeay32_EM_dbg.0.9.8e:v3err.obj
 0002:00015218       ??_C@_0BG@BJAKBIPP@error?5converting?5zone?$AA@ 100cd218     libeay32_EM_dbg.0.9.8e:v3err.obj
 0002:00015230       ??_C@_0BC@CAFGAOAM@duplicate?5zone?5id?$AA@ 100cd230     libeay32_EM_dbg.0.9.8e:v3err.obj
 0002:00015244       ??_C@_0O@HIKALICP@dirname?5error?$AA@ 100cd244     libeay32_EM_dbg.0.9.8e:v3err.obj
 0002:00015254       ??_C@_0BJ@FNPACNBP@bn?5to?5asn1?5integer?5error?$AA@ 100cd254     libeay32_EM_dbg.0.9.8e:v3err.obj
 0002:00015270       ??_C@_0BA@CINBMAOD@bn?5dec2bn?5error?$AA@ 100cd270     libeay32_EM_dbg.0.9.8e:v3err.obj
 0002:00015280       ??_C@_0L@LMGGIPFB@bad?5object?$AA@ 100cd280     libeay32_EM_dbg.0.9.8e:v3err.obj
 0002:0001528c       ??_C@_0P@HHIOGPLO@bad?5ip?5address?$AA@ 100cd28c     libeay32_EM_dbg.0.9.8e:v3err.obj
 0002:0001529c       ??_C@_0BB@HHDJLLEN@X509_PURPOSE_set?$AA@ 100cd29c     libeay32_EM_dbg.0.9.8e:v3err.obj
 0002:000152b0       ??_C@_0BB@MGCJFMDP@X509_PURPOSE_add?$AA@ 100cd2b0     libeay32_EM_dbg.0.9.8e:v3err.obj
 0002:000152c4       ??_C@_0BC@KJEMBDOE@X509V3_parse_list?$AA@ 100cd2c4     libeay32_EM_dbg.0.9.8e:v3err.obj
 0002:000152d8       ??_C@_0BG@MGIBIFAD@X509V3_get_value_bool?$AA@ 100cd2d8     libeay32_EM_dbg.0.9.8e:v3err.obj
 0002:000152f0       ??_C@_0BC@DJANGIBG@X509V3_get_string?$AA@ 100cd2f0     libeay32_EM_dbg.0.9.8e:v3err.obj
 0002:00015304       ??_C@_0BD@NAEICGG@X509V3_get_section?$AA@ 100cd304     libeay32_EM_dbg.0.9.8e:v3err.obj
 0002:00015318       ??_C@_0BB@LCMAPPDO@X509V3_EXT_nconf?$AA@ 100cd318     libeay32_EM_dbg.0.9.8e:v3err.obj
 0002:0001532c       ??_C@_0P@EKNPOBED@X509V3_EXT_i2d?$AA@ 100cd32c     libeay32_EM_dbg.0.9.8e:v3err.obj
 0002:0001533c       ??_C@_0BA@KCHIEJOC@X509V3_EXT_conf?$AA@ 100cd33c     libeay32_EM_dbg.0.9.8e:v3err.obj
 0002:0001534c       ??_C@_0BF@MMADKDDK@X509V3_EXT_add_alias?$AA@ 100cd34c     libeay32_EM_dbg.0.9.8e:v3err.obj
 0002:00015364       ??_C@_0P@OHFKJLKO@X509V3_EXT_add?$AA@ 100cd364     libeay32_EM_dbg.0.9.8e:v3err.obj
 0002:00015374       ??_C@_0BB@FBAFPAF@X509V3_add_value?$AA@ 100cd374     libeay32_EM_dbg.0.9.8e:v3err.obj
 0002:00015388       ??_C@_0BA@CDLAKIAK@X509V3_add1_i2d?$AA@ 100cd388     libeay32_EM_dbg.0.9.8e:v3err.obj
 0002:00015398       ??_C@_0BF@CFAPJAED@V3_GENERIC_EXTENSION?$AA@ 100cd398     libeay32_EM_dbg.0.9.8e:v3err.obj
 0002:000153b0       ??_C@_0BP@FCHOOCEO@V3_ADDR_VALIDATE_PATH_INTERNAL?$AA@ 100cd3b0     libeay32_EM_dbg.0.9.8e:v3err.obj
 0002:000153d0       ??_C@_0BA@DHKCKDL@V2I_SUBJECT_ALT?$AA@ 100cd3d0     libeay32_EM_dbg.0.9.8e:v3err.obj
 0002:000153e0       ??_C@_0BE@KOLIPFC@V2I_POLICY_MAPPINGS?$AA@ 100cd3e0     libeay32_EM_dbg.0.9.8e:v3err.obj
 0002:000153f4       ??_C@_0BH@GFHHCJKN@V2I_POLICY_CONSTRAINTS?$AA@ 100cd3f4     libeay32_EM_dbg.0.9.8e:v3err.obj
 0002:0001540c       ??_C@_0BF@MLIEBPGH@V2I_NAME_CONSTRAINTS?$AA@ 100cd40c     libeay32_EM_dbg.0.9.8e:v3err.obj
 0002:00015424       ??_C@_0P@HKPGPAFL@V2I_ISSUER_ALT?$AA@ 100cd424     libeay32_EM_dbg.0.9.8e:v3err.obj
 0002:00015434       ??_C@_0BB@GHEBMKIK@V2I_IPADDRBLOCKS?$AA@ 100cd434     libeay32_EM_dbg.0.9.8e:v3err.obj
 0002:00015448       ??_C@_0BE@EAFOFDEM@v2i_GENERAL_NAME_ex?$AA@ 100cd448     libeay32_EM_dbg.0.9.8e:v3err.obj
 0002:0001545c       ??_C@_0BC@HHFBPNHH@v2i_GENERAL_NAMES?$AA@ 100cd45c     libeay32_EM_dbg.0.9.8e:v3err.obj
 0002:00015470       ??_C@_0BH@IDIMOMGB@V2I_EXTENDED_KEY_USAGE?$AA@ 100cd470     libeay32_EM_dbg.0.9.8e:v3err.obj
 0002:00015488       ??_C@_08GANPBGDA@V2I_CRLD?$AA@ 100cd488     libeay32_EM_dbg.0.9.8e:v3err.obj
 0002:00015494       ??_C@_0BG@DJKMFBMP@V2I_BASIC_CONSTRAINTS?$AA@ 100cd494     libeay32_EM_dbg.0.9.8e:v3err.obj
 0002:000154ac       ??_C@_0BE@NCGIHFAP@V2I_AUTHORITY_KEYID?$AA@ 100cd4ac     libeay32_EM_dbg.0.9.8e:v3err.obj
 0002:000154c0       ??_C@_0BK@NMMKGGHG@V2I_AUTHORITY_INFO_ACCESS?$AA@ 100cd4c0     libeay32_EM_dbg.0.9.8e:v3err.obj
 0002:000154dc       ??_C@_0BE@MDNGHKJM@v2i_ASN1_BIT_STRING?$AA@ 100cd4dc     libeay32_EM_dbg.0.9.8e:v3err.obj
 0002:000154f0       ??_C@_0BC@NFHLLIFI@V2I_ASIDENTIFIERS?$AA@ 100cd4f0     libeay32_EM_dbg.0.9.8e:v3err.obj
 0002:00015504       ??_C@_0BD@NOFPGMLA@SXNET_get_id_ulong?$AA@ 100cd504     libeay32_EM_dbg.0.9.8e:v3err.obj
 0002:00015518       ??_C@_0BB@DCAEMBDN@SXNET_get_id_asc?$AA@ 100cd518     libeay32_EM_dbg.0.9.8e:v3err.obj
 0002:0001552c       ??_C@_0BD@ELOJDLMJ@SXNET_add_id_ulong?$AA@ 100cd52c     libeay32_EM_dbg.0.9.8e:v3err.obj
 0002:00015540       ??_C@_0BF@KHDBJGPF@SXNET_add_id_INTEGER?$AA@ 100cd540     libeay32_EM_dbg.0.9.8e:v3err.obj
 0002:00015558       ??_C@_0BB@JJLDCCDB@SXNET_add_id_asc?$AA@ 100cd558     libeay32_EM_dbg.0.9.8e:v3err.obj
 0002:0001556c       ??_C@_0O@FGGLLMNC@string_to_hex?$AA@ 100cd56c     libeay32_EM_dbg.0.9.8e:v3err.obj
 0002:0001557c       ??_C@_0M@PPIOCBAF@S2I_SKEY_ID?$AA@ 100cd57c     libeay32_EM_dbg.0.9.8e:v3err.obj
 0002:00015588       ??_C@_0BB@JOCKIPFF@S2I_ASN1_SKEY_ID?$AA@ 100cd588     libeay32_EM_dbg.0.9.8e:v3err.obj
 0002:0001559c       ??_C@_0BG@BLPNOPMK@s2i_ASN1_OCTET_STRING?$AA@ 100cd59c     libeay32_EM_dbg.0.9.8e:v3err.obj
 0002:000155b4       ??_C@_0BB@GKLKBJAL@s2i_ASN1_INTEGER?$AA@ 100cd5b4     libeay32_EM_dbg.0.9.8e:v3err.obj
 0002:000155c8       ??_C@_0BD@FNOIALGO@S2I_ASN1_IA5STRING?$AA@ 100cd5c8     libeay32_EM_dbg.0.9.8e:v3err.obj
 0002:000155dc       ??_C@_07LIFMKLJP@R2I_PCI?$AA@ 100cd5dc     libeay32_EM_dbg.0.9.8e:v3err.obj
 0002:000155e4       ??_C@_0M@DKNLDHGC@R2I_CERTPOL?$AA@ 100cd5e4     libeay32_EM_dbg.0.9.8e:v3err.obj
 0002:000155f0       ??_C@_0BC@MLBEAOC@PROCESS_PCI_VALUE?$AA@ 100cd5f0     libeay32_EM_dbg.0.9.8e:v3err.obj
 0002:00015604       ??_C@_0P@OGMAKCCE@POLICY_SECTION?$AA@ 100cd604     libeay32_EM_dbg.0.9.8e:v3err.obj
 0002:00015614       ??_C@_08PMEPMHKO@NREF_NOS?$AA@ 100cd614     libeay32_EM_dbg.0.9.8e:v3err.obj
 0002:00015620       ??_C@_0P@JMEHDBMP@NOTICE_SECTION?$AA@ 100cd620     libeay32_EM_dbg.0.9.8e:v3err.obj
 0002:00015630       ??_C@_0BK@GHAMBPGA@I2V_AUTHORITY_INFO_ACCESS?$AA@ 100cd630     libeay32_EM_dbg.0.9.8e:v3err.obj
 0002:0001564c       ??_C@_0BB@GMKKLNHG@i2s_ASN1_INTEGER?$AA@ 100cd64c     libeay32_EM_dbg.0.9.8e:v3err.obj
 0002:00015660       ??_C@_0BD@BGMCGNDE@I2S_ASN1_IA5STRING?$AA@ 100cd660     libeay32_EM_dbg.0.9.8e:v3err.obj
 0002:00015674       ??_C@_0BE@PBLHIADL@i2s_ASN1_ENUMERATED?$AA@ 100cd674     libeay32_EM_dbg.0.9.8e:v3err.obj
 0002:00015688       ??_C@_0O@FLJILPHC@hex_to_string?$AA@ 100cd688     libeay32_EM_dbg.0.9.8e:v3err.obj
 0002:00015698       ??_C@_0BI@PNFOPHFO@DO_I2V_NAME_CONSTRAINTS?$AA@ 100cd698     libeay32_EM_dbg.0.9.8e:v3err.obj
 0002:000156b0       ??_C@_0N@KELHEBGM@DO_EXT_NCONF?$AA@ 100cd6b0     libeay32_EM_dbg.0.9.8e:v3err.obj
 0002:000156c0       ??_C@_0L@DJEOCDBO@DO_EXT_I2D?$AA@ 100cd6c0     libeay32_EM_dbg.0.9.8e:v3err.obj
 0002:000156cc       ??_C@_0M@ICGHHOPF@DO_EXT_CONF?$AA@ 100cd6cc     libeay32_EM_dbg.0.9.8e:v3err.obj
 0002:000156d8       ??_C@_0L@DMJGNPBG@DO_DIRNAME?$AA@ 100cd6d8     libeay32_EM_dbg.0.9.8e:v3err.obj
 0002:000156e4       ??_C@_0M@ELLBFBDD@COPY_ISSUER?$AA@ 100cd6e4     libeay32_EM_dbg.0.9.8e:v3err.obj
 0002:000156f0       ??_C@_0L@KGBMNDCM@COPY_EMAIL?$AA@ 100cd6f0     libeay32_EM_dbg.0.9.8e:v3err.obj
 0002:000156fc       ??_C@_0CA@PCJPNFHG@ASIDENTIFIERCHOICE_IS_CANONICAL?$AA@ 100cd6fc     libeay32_EM_dbg.0.9.8e:v3err.obj
 0002:0001571c       ??_C@_0BM@FNMHINEI@ASIDENTIFIERCHOICE_CANONIZE?$AA@ 100cd71c     libeay32_EM_dbg.0.9.8e:v3err.obj
 0002:00015738       ??_C@_0BB@LMNDDHAO@wrong?5pkcs7?5type?$AA@ 100cd738     libeay32_EM_dbg.0.9.8e:pkcs7err.obj
 0002:0001574c       ??_C@_0BD@ONLLMKAC@wrong?5content?5type?$AA@ 100cd74c     libeay32_EM_dbg.0.9.8e:pkcs7err.obj
 0002:00015760       ??_C@_0BJ@KNOCCCPA@unsupported?5content?5type?$AA@ 100cd760     libeay32_EM_dbg.0.9.8e:pkcs7err.obj
 0002:0001577c       ??_C@_0BI@BDKIDJNG@unsupported?5cipher?5type?$AA@ 100cd77c     libeay32_EM_dbg.0.9.8e:pkcs7err.obj
 0002:00015794       ??_C@_0BC@BDMDPLFD@unknown?5operation?$AA@ 100cd794     libeay32_EM_dbg.0.9.8e:pkcs7err.obj
 0002:000157a8       ??_C@_0BE@FDMIMEPA@unknown?5digest?5type?$AA@ 100cd7a8     libeay32_EM_dbg.0.9.8e:pkcs7err.obj
 0002:000157bc       ??_C@_0BO@BPGCPEON@unable?5to?5find?5message?5digest?$AA@ 100cd7bc     libeay32_EM_dbg.0.9.8e:pkcs7err.obj
 0002:000157dc       ??_C@_0BH@GGBACGPO@unable?5to?5find?5mem?5bio?$AA@ 100cd7dc     libeay32_EM_dbg.0.9.8e:pkcs7err.obj
 0002:000157f4       ??_C@_0BL@MPEBNJMM@unable?5to?5find?5certificate?$AA@ 100cd7f4     libeay32_EM_dbg.0.9.8e:pkcs7err.obj
 0002:00015810       ??_C@_0BB@KEMFLAGG@smime?5text?5error?$AA@ 100cd810     libeay32_EM_dbg.0.9.8e:pkcs7err.obj
 0002:00015824       ??_C@_0BG@HLPLMCAK@sig?5invalid?5mime?5type?$AA@ 100cd824     libeay32_EM_dbg.0.9.8e:pkcs7err.obj
 0002:0001583c       ??_C@_0BG@GDEPAMKB@pkcs7?5sig?5parse?5error?$AA@ 100cd83c     libeay32_EM_dbg.0.9.8e:pkcs7err.obj
 0002:00015854       ??_C@_0BC@HAIFOMAN@pkcs7?5parse?5error?$AA@ 100cd854     libeay32_EM_dbg.0.9.8e:pkcs7err.obj
 0002:00015868       ??_C@_0P@MLIPMLPL@pkcs7?5datasign?$AA@ 100cd868     libeay32_EM_dbg.0.9.8e:pkcs7err.obj
 0002:00015878       ??_C@_0BG@DENNOOLH@pkcs7?5datafinal?5error?$AA@ 100cd878     libeay32_EM_dbg.0.9.8e:pkcs7err.obj
 0002:00015890       ??_C@_0BA@MGKDBLGL@pkcs7?5datafinal?$AA@ 100cd890     libeay32_EM_dbg.0.9.8e:pkcs7err.obj
 0002:000158a0       ??_C@_0BK@HFMOMPGJ@pkcs7?5add?5signature?5error?$AA@ 100cd8a0     libeay32_EM_dbg.0.9.8e:pkcs7err.obj
 0002:000158bc       ??_C@_0CF@KFDJAIAE@operation?5not?5supported?5on?5this?5@ 100cd8bc     libeay32_EM_dbg.0.9.8e:pkcs7err.obj
 0002:000158e4       ??_C@_0BE@PKDDELLH@no?5sig?5content?5type?$AA@ 100cd8e4     libeay32_EM_dbg.0.9.8e:pkcs7err.obj
 0002:000158f8       ??_C@_0L@GEFKNGMC@no?5signers?$AA@ 100cd8f8     libeay32_EM_dbg.0.9.8e:pkcs7err.obj
 0002:00015904       ??_C@_0BG@KJOJDMCP@no?5signatures?5on?5data?$AA@ 100cd904     libeay32_EM_dbg.0.9.8e:pkcs7err.obj
 0002:0001591c       ??_C@_0BJ@HNAOANNO@no?5recipient?5matches?5key?$AA@ 100cd91c     libeay32_EM_dbg.0.9.8e:pkcs7err.obj
 0002:00015938       ??_C@_0CB@EOIABHI@no?5recipient?5matches?5certificate@ 100cd938     libeay32_EM_dbg.0.9.8e:pkcs7err.obj
 0002:0001595c       ??_C@_0BG@CCLGBNL@no?5multipart?5boundary?$AA@ 100cd95c     libeay32_EM_dbg.0.9.8e:pkcs7err.obj
 0002:00015974       ??_C@_0BK@BJLDLELE@no?5multipart?5body?5failure?$AA@ 100cd974     libeay32_EM_dbg.0.9.8e:pkcs7err.obj
 0002:00015990       ??_C@_0BA@FPKKDFNC@no?5content?5type?$AA@ 100cd990     libeay32_EM_dbg.0.9.8e:pkcs7err.obj
 0002:000159a0       ??_C@_0BG@FIKOHGJL@missing?5ceripend?5info?$AA@ 100cd9a0     libeay32_EM_dbg.0.9.8e:pkcs7err.obj
 0002:000159b8       ??_C@_0BF@NGKJEMBA@mime?5sig?5parse?5error?$AA@ 100cd9b8     libeay32_EM_dbg.0.9.8e:pkcs7err.obj
 0002:000159d0       ??_C@_0BB@CLOKMDJL@mime?5parse?5error?$AA@ 100cd9d0     libeay32_EM_dbg.0.9.8e:pkcs7err.obj
 0002:000159e4       ??_C@_0BF@JPGANBNB@mime?5no?5content?5type?$AA@ 100cd9e4     libeay32_EM_dbg.0.9.8e:pkcs7err.obj
 0002:000159fc       ??_C@_0BF@IPGLAOPL@invalid?5null?5pointer?$AA@ 100cd9fc     libeay32_EM_dbg.0.9.8e:pkcs7err.obj
 0002:00015a14       ??_C@_0BC@FHFCCIPJ@invalid?5mime?5type?$AA@ 100cda14     libeay32_EM_dbg.0.9.8e:pkcs7err.obj
 0002:00015a28       ??_C@_0BF@EJOJNMMB@error?5setting?5cipher?$AA@ 100cda28     libeay32_EM_dbg.0.9.8e:pkcs7err.obj
 0002:00015a40       ??_C@_0BH@PJNOPIMM@error?5adding?5recipient?$AA@ 100cda40     libeay32_EM_dbg.0.9.8e:pkcs7err.obj
 0002:00015a58       ??_C@_0P@EAGFKBJN@digest?5failure?$AA@ 100cda58     libeay32_EM_dbg.0.9.8e:pkcs7err.obj
 0002:00015a68       ??_C@_0O@IKMKDME@decrypt?5error?$AA@ 100cda68     libeay32_EM_dbg.0.9.8e:pkcs7err.obj
 0002:00015a78       ??_C@_0BO@LNIEDLGB@decrypted?5key?5is?5wrong?5length?$AA@ 100cda78     libeay32_EM_dbg.0.9.8e:pkcs7err.obj
 0002:00015a98       ??_C@_0BJ@JDGHLKE@content?5and?5data?5present?$AA@ 100cda98     libeay32_EM_dbg.0.9.8e:pkcs7err.obj
 0002:00015ab4       ??_C@_0BH@HHGJPEG@cipher?5not?5initialized?$AA@ 100cdab4     libeay32_EM_dbg.0.9.8e:pkcs7err.obj
 0002:00015acc       ??_C@_0CA@BHNCFDBP@cipher?5has?5no?5object?5identifier?$AA@ 100cdacc     libeay32_EM_dbg.0.9.8e:pkcs7err.obj
 0002:00015aec       ??_C@_0L@CEDJDPJO@SMIME_text?$AA@ 100cdaec     libeay32_EM_dbg.0.9.8e:pkcs7err.obj
 0002:00015af8       ??_C@_0BB@KDHLDBMO@SMIME_read_PKCS7?$AA@ 100cdaf8     libeay32_EM_dbg.0.9.8e:pkcs7err.obj
 0002:00015b0c       ??_C@_0N@MDDFJGNF@PKCS7_verify?$AA@ 100cdb0c     libeay32_EM_dbg.0.9.8e:pkcs7err.obj
 0002:00015b1c       ??_C@_0BG@NGGLELOE@PKCS7_simple_smimecap?$AA@ 100cdb1c     libeay32_EM_dbg.0.9.8e:pkcs7err.obj
 0002:00015b34       ??_C@_0BG@PMADOMPD@PKCS7_signatureVerify?$AA@ 100cdb34     libeay32_EM_dbg.0.9.8e:pkcs7err.obj
 0002:00015b4c       ??_C@_0L@GIIMDMGD@PKCS7_sign?$AA@ 100cdb4c     libeay32_EM_dbg.0.9.8e:pkcs7err.obj
 0002:00015b58       ??_C@_0P@EIBMGDIL@PKCS7_set_type?$AA@ 100cdb58     libeay32_EM_dbg.0.9.8e:pkcs7err.obj
 0002:00015b68       ??_C@_0BB@KHOAIGEC@PKCS7_set_digest?$AA@ 100cdb68     libeay32_EM_dbg.0.9.8e:pkcs7err.obj
 0002:00015b7c       ??_C@_0BC@KEHPIBPE@PKCS7_set_content?$AA@ 100cdb7c     libeay32_EM_dbg.0.9.8e:pkcs7err.obj
 0002:00015b90       ??_C@_0BB@MBMFDMH@PKCS7_set_cipher?$AA@ 100cdb90     libeay32_EM_dbg.0.9.8e:pkcs7err.obj
 0002:00015ba4       ??_C@_0BD@ONJMGDLL@PKCS7_get0_signers?$AA@ 100cdba4     libeay32_EM_dbg.0.9.8e:pkcs7err.obj
 0002:00015bb8       ??_C@_0BC@PMCDCHO@PKCS7_FIND_DIGEST?$AA@ 100cdbb8     libeay32_EM_dbg.0.9.8e:pkcs7err.obj
 0002:00015bcc       ??_C@_0O@JFALMGOG@PKCS7_encrypt?$AA@ 100cdbcc     libeay32_EM_dbg.0.9.8e:pkcs7err.obj
 0002:00015bdc       ??_C@_0O@FLKGJCIC@PKCS7_decrypt?$AA@ 100cdbdc     libeay32_EM_dbg.0.9.8e:pkcs7err.obj
 0002:00015bec       ??_C@_0BB@LMCKHKKD@PKCS7_dataVerify?$AA@ 100cdbec     libeay32_EM_dbg.0.9.8e:pkcs7err.obj
 0002:00015c00       ??_C@_0P@FNIPPNIC@PKCS7_DATASIGN?$AA@ 100cdc00     libeay32_EM_dbg.0.9.8e:pkcs7err.obj
 0002:00015c10       ??_C@_0P@OONGIMOK@PKCS7_dataInit?$AA@ 100cdc10     libeay32_EM_dbg.0.9.8e:pkcs7err.obj
 0002:00015c20       ??_C@_0BA@ENDFMOKG@PKCS7_dataFinal?$AA@ 100cdc20     libeay32_EM_dbg.0.9.8e:pkcs7err.obj
 0002:00015c30       ??_C@_0BB@NBHDJPJJ@PKCS7_dataDecode?$AA@ 100cdc30     libeay32_EM_dbg.0.9.8e:pkcs7err.obj
 0002:00015c44       ??_C@_0L@ICMECHLK@PKCS7_ctrl?$AA@ 100cdc44     libeay32_EM_dbg.0.9.8e:pkcs7err.obj
 0002:00015c50       ??_C@_0BF@HBBJACAF@PKCS7_BIO_ADD_DIGEST?$AA@ 100cdc50     libeay32_EM_dbg.0.9.8e:pkcs7err.obj
 0002:00015c68       ??_C@_0BB@CJPBIPAC@PKCS7_add_signer?$AA@ 100cdc68     libeay32_EM_dbg.0.9.8e:pkcs7err.obj
 0002:00015c7c       ??_C@_0BJ@NOCKKMGL@PKCS7_add_recipient_info?$AA@ 100cdc7c     libeay32_EM_dbg.0.9.8e:pkcs7err.obj
 0002:00015c98       ??_C@_0O@CPFOLHJD@PKCS7_add_crl?$AA@ 100cdc98     libeay32_EM_dbg.0.9.8e:pkcs7err.obj
 0002:00015ca8       ??_C@_0BG@DMGOLPOM@PKCS7_add_certificate?$AA@ 100cdca8     libeay32_EM_dbg.0.9.8e:pkcs7err.obj
 0002:00015cc0       ??_C@_0BK@HOMOFJDN@PKCS7_add_attrib_smimecap?$AA@ 100cdcc0     libeay32_EM_dbg.0.9.8e:pkcs7err.obj
 0002:00015cdc       ??_C@_0BA@NHGCDPL@B64_WRITE_PKCS7?$AA@ 100cdcdc     libeay32_EM_dbg.0.9.8e:pkcs7err.obj
 0002:00015cec       ??_C@_0P@CNHJDHJP@B64_READ_PKCS7?$AA@ 100cdcec     libeay32_EM_dbg.0.9.8e:pkcs7err.obj
 0002:00015cfc       ??_C@_0L@EEFLCHHA@WSAStartup?$AA@ 100cdcfc     libeay32_EM_dbg.0.9.8e:bio_err.obj
 0002:00015d08       ??_C@_0BH@JKPNCGEG@write?5to?5read?5only?5BIO?$AA@ 100cdd08     libeay32_EM_dbg.0.9.8e:bio_err.obj
 0002:00015d20       ??_C@_0BD@IBMLBGPO@unsupported?5method?$AA@ 100cdd20     libeay32_EM_dbg.0.9.8e:bio_err.obj
 0002:00015d34       ??_C@_0O@MBAHBKHG@uninitialized?$AA@ 100cdd34     libeay32_EM_dbg.0.9.8e:bio_err.obj
 0002:00015d44       ??_C@_0BI@IMDEIGOC@unable?5to?5listen?5socket?$AA@ 100cdd44     libeay32_EM_dbg.0.9.8e:bio_err.obj
 0002:00015d5c       ??_C@_0BI@PPNDHPPD@unable?5to?5create?5socket?$AA@ 100cdd5c     libeay32_EM_dbg.0.9.8e:bio_err.obj
 0002:00015d74       ??_C@_0BG@FHGKKMFN@unable?5to?5bind?5socket?$AA@ 100cdd74     libeay32_EM_dbg.0.9.8e:bio_err.obj
 0002:00015d8c       ??_C@_0N@KDFLPJNC@tag?5mismatch?$AA@ 100cdd8c     libeay32_EM_dbg.0.9.8e:bio_err.obj
 0002:00015d9c       ??_C@_0P@PKDFLBFD@null?5parameter?$AA@ 100cdd9c     libeay32_EM_dbg.0.9.8e:bio_err.obj
 0002:00015dac       ??_C@_0N@JHAEJMBC@no?5such?5file?$AA@ 100cddac     libeay32_EM_dbg.0.9.8e:bio_err.obj
 0002:00015dbc       ??_C@_0BC@JMJFCOFK@no?5port?5specified?$AA@ 100cddbc     libeay32_EM_dbg.0.9.8e:bio_err.obj
 0002:00015dd0       ??_C@_0BA@LJKOOBIO@no?5port?5defined?$AA@ 100cddd0     libeay32_EM_dbg.0.9.8e:bio_err.obj
 0002:00015de0       ??_C@_0BG@JKBKGOCO@no?5hostname?5specified?$AA@ 100cdde0     libeay32_EM_dbg.0.9.8e:bio_err.obj
 0002:00015df8       ??_C@_0BJ@GKFIJAJL@no?5accept?5port?5specified?$AA@ 100cddf8     libeay32_EM_dbg.0.9.8e:bio_err.obj
 0002:00015e14       ??_C@_0BD@POMCLPDD@nbio?5connect?5error?$AA@ 100cde14     libeay32_EM_dbg.0.9.8e:bio_err.obj
 0002:00015e28       ??_C@_09MGFHKHCL@keepalive?$AA@ 100cde28     libeay32_EM_dbg.0.9.8e:bio_err.obj
 0002:00015e34       ??_C@_06JNFOHBNM@in?5use?$AA@ 100cde34     libeay32_EM_dbg.0.9.8e:bio_err.obj
 0002:00015e3c       ??_C@_0BD@LLPPBLCA@invalid?5ip?5address?$AA@ 100cde3c     libeay32_EM_dbg.0.9.8e:bio_err.obj
 0002:00015e50       ??_C@_0CC@PGBNHLMO@gethostbyname?5addr?5is?5not?5af?5ine@ 100cde50     libeay32_EM_dbg.0.9.8e:bio_err.obj
 0002:00015e74       ??_C@_0CE@GODMPCOM@error?5setting?5nbio?5on?5accept?5soc@ 100cde74     libeay32_EM_dbg.0.9.8e:bio_err.obj
 0002:00015e98       ??_C@_0CG@JPMNKLHJ@error?5setting?5nbio?5on?5accepted?5s@ 100cde98     libeay32_EM_dbg.0.9.8e:bio_err.obj
 0002:00015ec0       ??_C@_0BD@LABEPFLI@error?5setting?5nbio?$AA@ 100cdec0     libeay32_EM_dbg.0.9.8e:bio_err.obj
 0002:00015ed4       ??_C@_0BC@DJNFOHIO@EOF?5on?5memory?5BIO?$AA@ 100cded4     libeay32_EM_dbg.0.9.8e:bio_err.obj
 0002:00015ee8       ??_C@_0O@MFKCCHBC@connect?5error?$AA@ 100cdee8     libeay32_EM_dbg.0.9.8e:bio_err.obj
 0002:00015ef8       ??_C@_0M@KPHOFDBE@broken?5pipe?$AA@ 100cdef8     libeay32_EM_dbg.0.9.8e:bio_err.obj
 0002:00015f04       ??_C@_0BE@HPLPMGEP@bad?5hostname?5lookup?$AA@ 100cdf04     libeay32_EM_dbg.0.9.8e:bio_err.obj
 0002:00015f18       ??_C@_0P@HMIOPJLA@bad?5fopen?5mode?$AA@ 100cdf18     libeay32_EM_dbg.0.9.8e:bio_err.obj
 0002:00015f28       ??_C@_0N@NBEBIMEI@accept?5error?$AA@ 100cdf28     libeay32_EM_dbg.0.9.8e:bio_err.obj
 0002:00015f38       ??_C@_0L@EAHAPJKC@WSASTARTUP?$AA@ 100cdf38     libeay32_EM_dbg.0.9.8e:bio_err.obj
 0002:00015f44       ??_C@_07GEALNDFO@SSL_new?$AA@ 100cdf44     libeay32_EM_dbg.0.9.8e:bio_err.obj
 0002:00015f4c       ??_C@_09NHMOJNMM@MEM_WRITE?$AA@ 100cdf4c     libeay32_EM_dbg.0.9.8e:bio_err.obj
 0002:00015f58       ??_C@_08IEAGDEEB@MEM_READ?$AA@ 100cdf58     libeay32_EM_dbg.0.9.8e:bio_err.obj
 0002:00015f64       ??_C@_0BA@KHKLOGKO@LINEBUFFER_CTRL?$AA@ 100cdf64     libeay32_EM_dbg.0.9.8e:bio_err.obj
 0002:00015f74       ??_C@_09GDGNDLDO@FILE_READ?$AA@ 100cdf74     libeay32_EM_dbg.0.9.8e:bio_err.obj
 0002:00015f80       ??_C@_09PBCCNH@FILE_CTRL?$AA@ 100cdf80     libeay32_EM_dbg.0.9.8e:bio_err.obj
 0002:00015f8c       ??_C@_0L@MJCDONOC@CONN_STATE?$AA@ 100cdf8c     libeay32_EM_dbg.0.9.8e:bio_err.obj
 0002:00015f98       ??_C@_09NFOAMDJO@CONN_CTRL?$AA@ 100cdf98     libeay32_EM_dbg.0.9.8e:bio_err.obj
 0002:00015fa4       ??_C@_0M@CPJAKCHN@BUFFER_CTRL?$AA@ 100cdfa4     libeay32_EM_dbg.0.9.8e:bio_err.obj
 0002:00015fb0       ??_C@_09EJECNFGG@BIO_write?$AA@ 100cdfb0     libeay32_EM_dbg.0.9.8e:bio_err.obj
 0002:00015fbc       ??_C@_0O@OKBNIDJO@BIO_sock_init?$AA@ 100cdfbc     libeay32_EM_dbg.0.9.8e:bio_err.obj
 0002:00015fcc       ??_C@_08FHLFBNIO@BIO_read?$AA@ 100cdfcc     libeay32_EM_dbg.0.9.8e:bio_err.obj
 0002:00015fd8       ??_C@_08GCACPMHM@BIO_puts?$AA@ 100cdfd8     libeay32_EM_dbg.0.9.8e:bio_err.obj
 0002:00015fe4       ??_C@_0M@HMEMAIDG@BIO_nwrite0?$AA@ 100cdfe4     libeay32_EM_dbg.0.9.8e:bio_err.obj
 0002:00015ff0       ??_C@_0L@LGDOLBGC@BIO_nwrite?$AA@ 100cdff0     libeay32_EM_dbg.0.9.8e:bio_err.obj
 0002:00015ffc       ??_C@_0L@CKGNEJMN@BIO_nread0?$AA@ 100cdffc     libeay32_EM_dbg.0.9.8e:bio_err.obj
 0002:00016008       ??_C@_09CELLGJFH@BIO_nread?$AA@ 100ce008     libeay32_EM_dbg.0.9.8e:bio_err.obj
 0002:00016014       ??_C@_0BA@KKBPEOM@BIO_new_mem_buf?$AA@ 100ce014     libeay32_EM_dbg.0.9.8e:bio_err.obj
 0002:00016024       ??_C@_0N@FMJJBHLM@BIO_new_file?$AA@ 100ce024     libeay32_EM_dbg.0.9.8e:bio_err.obj
 0002:00016034       ??_C@_07JBCAFDMF@BIO_new?$AA@ 100ce034     libeay32_EM_dbg.0.9.8e:bio_err.obj
 0002:0001603c       ??_C@_0O@MMPGPDFN@BIO_MAKE_PAIR?$AA@ 100ce03c     libeay32_EM_dbg.0.9.8e:bio_err.obj
 0002:0001604c       ??_C@_0N@EOHICLOO@BIO_get_port?$AA@ 100ce04c     libeay32_EM_dbg.0.9.8e:bio_err.obj
 0002:0001605c       ??_C@_0BA@BEIHJGBF@BIO_get_host_ip?$AA@ 100ce05c     libeay32_EM_dbg.0.9.8e:bio_err.obj
 0002:0001606c       ??_C@_0BG@OBCHEGOE@BIO_get_accept_socket?$AA@ 100ce06c     libeay32_EM_dbg.0.9.8e:bio_err.obj
 0002:00016084       ??_C@_08OANLOAHB@BIO_gets?$AA@ 100ce084     libeay32_EM_dbg.0.9.8e:bio_err.obj
 0002:00016090       ??_C@_0BC@FKJOFNNM@BIO_gethostbyname?$AA@ 100ce090     libeay32_EM_dbg.0.9.8e:bio_err.obj
 0002:000160a4       ??_C@_08DECJAEGH@BIO_ctrl?$AA@ 100ce0a4     libeay32_EM_dbg.0.9.8e:bio_err.obj
 0002:000160b0       ??_C@_0BC@CFHCBGEE@BIO_callback_ctrl?$AA@ 100ce0b0     libeay32_EM_dbg.0.9.8e:bio_err.obj
 0002:000160c4       ??_C@_0BD@IAPMAGLL@BIO_BER_GET_HEADER?$AA@ 100ce0c4     libeay32_EM_dbg.0.9.8e:bio_err.obj
 0002:000160d8       ??_C@_0L@JLLHALEA@BIO_accept?$AA@ 100ce0d8     libeay32_EM_dbg.0.9.8e:bio_err.obj
 0002:000160e4       ??_C@_0L@CAKAAKN@ACPT_STATE?$AA@ 100ce0e4     libeay32_EM_dbg.0.9.8e:bio_err.obj
 0002:000160f0       ??_C@_0BJ@GIHJPDAI@point?5arithmetic?5failure?$AA@ 100ce0f0     libeay32_EM_dbg.0.9.8e:ech_err.obj
 0002:0001610c       ??_C@_0BB@COKBGGEN@no?5private?5value?$AA@ 100ce10c     libeay32_EM_dbg.0.9.8e:ech_err.obj
 0002:00016120       ??_C@_0L@CDCPDAHG@KDF?5failed?$AA@ 100ce120     libeay32_EM_dbg.0.9.8e:ech_err.obj
 0002:0001612c       ??_C@_0BF@CBGMNLCA@ECDH_DATA_NEW_METHOD?$AA@ 100ce12c     libeay32_EM_dbg.0.9.8e:ech_err.obj
 0002:00016144       ??_C@_0BB@IOKCFGPF@ECDH_compute_key?$AA@ 100ce144     libeay32_EM_dbg.0.9.8e:ech_err.obj
 0002:00016158       ??_C@_0BI@IHHJBEMD@signature?5malloc?5failed?$AA@ 100ce158     libeay32_EM_dbg.0.9.8e:ecs_err.obj
 0002:00016170       ??_C@_0CA@PEINDBLK@random?5number?5generation?5failed?$AA@ 100ce170     libeay32_EM_dbg.0.9.8e:ecs_err.obj
 0002:00016190       ??_C@_0BG@CMMPCEJC@need?5new?5setup?5values?$AA@ 100ce190     libeay32_EM_dbg.0.9.8e:ecs_err.obj
 0002:000161a8       ??_C@_0BD@FMCFODNL@missing?5parameters?$AA@ 100ce1a8     libeay32_EM_dbg.0.9.8e:ecs_err.obj
 0002:000161bc       ??_C@_0L@JHHGCIEK@err?5ec?5lib?$AA@ 100ce1bc     libeay32_EM_dbg.0.9.8e:ecs_err.obj
 0002:000161c8       ??_C@_0BM@LDGAMALI@data?5too?5large?5for?5key?5size?$AA@ 100ce1c8     libeay32_EM_dbg.0.9.8e:ecs_err.obj
 0002:000161e4       ??_C@_0O@NKHGIDL@bad?5signature?$AA@ 100ce1e4     libeay32_EM_dbg.0.9.8e:ecs_err.obj
 0002:000161f4       ??_C@_0BB@IKKHAHBP@ECDSA_sign_setup?$AA@ 100ce1f4     libeay32_EM_dbg.0.9.8e:ecs_err.obj
 0002:00016208       ??_C@_0BA@EHPKHBIM@ECDSA_do_verify?$AA@ 100ce208     libeay32_EM_dbg.0.9.8e:ecs_err.obj
 0002:00016218       ??_C@_0O@HPIOKGCH@ECDSA_do_sign?$AA@ 100ce218     libeay32_EM_dbg.0.9.8e:ecs_err.obj
 0002:00016228       ??_C@_0BG@PPIAHALF@ECDSA_DATA_NEW_METHOD?$AA@ 100ce228     libeay32_EM_dbg.0.9.8e:ecs_err.obj
 0002:00016240       ??_C@_0M@EOIJFDOH@wrong?5order?$AA@ 100ce240     libeay32_EM_dbg.0.9.8e:ec_err.obj
 0002:0001624c       ??_C@_0BC@JMLAMKLK@unsupported?5field?$AA@ 100ce24c     libeay32_EM_dbg.0.9.8e:ec_err.obj
 0002:00016260       ??_C@_0O@MMOMPOPJ@unknown?5order?$AA@ 100ce260     libeay32_EM_dbg.0.9.8e:ec_err.obj
 0002:00016270       ??_C@_0O@NJKODKGH@unknown?5group?$AA@ 100ce270     libeay32_EM_dbg.0.9.8e:ec_err.obj
 0002:00016280       ??_C@_0BA@KMEKJECH@undefined?5order?$AA@ 100ce280     libeay32_EM_dbg.0.9.8e:ec_err.obj
 0002:00016290       ??_C@_0BE@EGDCECDM@undefined?5generator?$AA@ 100ce290     libeay32_EM_dbg.0.9.8e:ec_err.obj
 0002:000162a4       ??_C@_09GPAKFMBH@slot?5full?$AA@ 100ce2a4     libeay32_EM_dbg.0.9.8e:ec_err.obj
 0002:000162b0       ??_C@_0BG@HJHIMKPE@point?5is?5not?5on?5curve?$AA@ 100ce2b0     libeay32_EM_dbg.0.9.8e:ec_err.obj
 0002:000162c8       ??_C@_0BC@GCGFLKCO@point?5at?5infinity?$AA@ 100ce2c8     libeay32_EM_dbg.0.9.8e:ec_err.obj
 0002:000162dc       ??_C@_0BL@ELPENPAK@pkparameters2group?5failure?$AA@ 100ce2dc     libeay32_EM_dbg.0.9.8e:ec_err.obj
 0002:000162f8       ??_C@_0BG@DNAKIAMA@passed?5null?5parameter?$AA@ 100ce2f8     libeay32_EM_dbg.0.9.8e:ec_err.obj
 0002:00016310       ??_C@_0N@PJBCLHJD@no?5field?5mod?$AA@ 100ce310     libeay32_EM_dbg.0.9.8e:ec_err.obj
 0002:00016320       ??_C@_0BA@JJKIAAEB@not?5implemented?$AA@ 100ce320     libeay32_EM_dbg.0.9.8e:ec_err.obj
 0002:00016330       ??_C@_0BL@JNPAJGEA@not?5a?5supported?5NIST?5prime?$AA@ 100ce330     libeay32_EM_dbg.0.9.8e:ec_err.obj
 0002:0001634c       ??_C@_0BB@BMGODCLF@not?5a?5NIST?5prime?$AA@ 100ce34c     libeay32_EM_dbg.0.9.8e:ec_err.obj
 0002:00016360       ??_C@_0BE@DEHOFIII@missing?5private?5key?$AA@ 100ce360     libeay32_EM_dbg.0.9.8e:ec_err.obj
 0002:00016374       ??_C@_0BI@JECPOIKH@invalid?5trinomial?5basis?$AA@ 100ce374     libeay32_EM_dbg.0.9.8e:ec_err.obj
 0002:0001638c       ??_C@_0BE@IKADKHBA@invalid?5private?5key?$AA@ 100ce38c     libeay32_EM_dbg.0.9.8e:ec_err.obj
 0002:000163a0       ??_C@_0BK@FNMGACKE@invalid?5pentanomial?5basis?$AA@ 100ce3a0     libeay32_EM_dbg.0.9.8e:ec_err.obj
 0002:000163bc       ??_C@_0BE@PJEEGFKA@invalid?5group?5order?$AA@ 100ce3bc     libeay32_EM_dbg.0.9.8e:ec_err.obj
 0002:000163d0       ??_C@_0N@GPILEJKP@invalid?5form?$AA@ 100ce3d0     libeay32_EM_dbg.0.9.8e:ec_err.obj
 0002:000163e0       ??_C@_0O@ENLGLCC@invalid?5field?$AA@ 100ce3e0     libeay32_EM_dbg.0.9.8e:ec_err.obj
 0002:000163f0       ??_C@_0BB@FEBGPKDB@invalid?5encoding?$AA@ 100ce3f0     libeay32_EM_dbg.0.9.8e:ec_err.obj
 0002:00016404       ??_C@_0BI@LFAIIMLE@invalid?5compression?5bit?$AA@ 100ce404     libeay32_EM_dbg.0.9.8e:ec_err.obj
 0002:0001641c       ??_C@_0BJ@MNCPMIGN@invalid?5compressed?5point?$AA@ 100ce41c     libeay32_EM_dbg.0.9.8e:ec_err.obj
 0002:00016438       ??_C@_0BF@PILBEPF@incompatible?5objects?$AA@ 100ce438     libeay32_EM_dbg.0.9.8e:ec_err.obj
 0002:00016450       ??_C@_0BL@PCNBEHHO@i2d?5ecpkparameters?5failure?$AA@ 100ce450     libeay32_EM_dbg.0.9.8e:ec_err.obj
 0002:0001646c       ??_C@_0BL@OGODAEJ@group2pkparameters?5failure?$AA@ 100ce46c     libeay32_EM_dbg.0.9.8e:ec_err.obj
 0002:00016488       ??_C@_0BA@IJGJADJE@field?5too?5large?$AA@ 100ce488     libeay32_EM_dbg.0.9.8e:ec_err.obj
 0002:00016498       ??_C@_0BN@FLBCEDHC@ec?5group?5new?5by?5name?5failure?$AA@ 100ce498     libeay32_EM_dbg.0.9.8e:ec_err.obj
 0002:000164b8       ??_C@_0BF@CBFOEPCG@discriminant?5is?5zero?$AA@ 100ce4b8     libeay32_EM_dbg.0.9.8e:ec_err.obj
 0002:000164d0       ??_C@_0BL@ENKDKILC@d2i?5ecpkparameters?5failure?$AA@ 100ce4d0     libeay32_EM_dbg.0.9.8e:ec_err.obj
 0002:000164ec       ??_C@_0BB@CABJKBPN@buffer?5too?5small?$AA@ 100ce4ec     libeay32_EM_dbg.0.9.8e:ec_err.obj
 0002:00016500       ??_C@_0BD@CGGBEGAN@asn1?5unknown?5field?$AA@ 100ce500     libeay32_EM_dbg.0.9.8e:ec_err.obj
 0002:00016514       ??_C@_0L@EOLINLAB@asn1?5error?$AA@ 100ce514     libeay32_EM_dbg.0.9.8e:ec_err.obj
 0002:00016520       ??_C@_0BA@PLLAKFLG@o2i_ECPublicKey?$AA@ 100ce520     libeay32_EM_dbg.0.9.8e:ec_err.obj
 0002:00016530       ??_C@_0BA@FAODIHOE@i2o_ECPublicKey?$AA@ 100ce530     libeay32_EM_dbg.0.9.8e:ec_err.obj
 0002:00016540       ??_C@_0BB@MNAGGNI@i2d_ECPrivateKey?$AA@ 100ce540     libeay32_EM_dbg.0.9.8e:ec_err.obj
 0002:00016554       ??_C@_0BD@EJJCMPPD@i2d_ECPKParameters?$AA@ 100ce554     libeay32_EM_dbg.0.9.8e:ec_err.obj
 0002:00016568       ??_C@_0BB@GJGDDIKH@i2d_ECParameters?$AA@ 100ce568     libeay32_EM_dbg.0.9.8e:ec_err.obj
 0002:0001657c       ??_C@_0BI@BBMLGAEE@ec_wNAF_precompute_mult?$AA@ 100ce57c     libeay32_EM_dbg.0.9.8e:ec_err.obj
 0002:00016594       ??_C@_0M@MOCHBPNP@ec_wNAF_mul?$AA@ 100ce594     libeay32_EM_dbg.0.9.8e:ec_err.obj
 0002:000165a0       ??_C@_0BA@JLLJLPBB@EC_PRE_COMP_DUP?$AA@ 100ce5a0     libeay32_EM_dbg.0.9.8e:ec_err.obj
 0002:000165b0       ??_C@_0BJ@OKHKHJLG@EC_POINT_set_to_infinity?$AA@ 100ce5b0     libeay32_EM_dbg.0.9.8e:ec_err.obj
 0002:000165cc       ??_C@_0CJ@OEEMAMPO@EC_POINT_set_Jprojective_coordin@ 100ce5cc     libeay32_EM_dbg.0.9.8e:ec_err.obj
 0002:000165f8       ??_C@_0CI@KEKPCLNN@EC_POINT_set_compressed_coordina@ 100ce5f8     libeay32_EM_dbg.0.9.8e:ec_err.obj
 0002:00016620       ??_C@_0CJ@FLILENAG@EC_POINT_set_compressed_coordina@ 100ce620     libeay32_EM_dbg.0.9.8e:ec_err.obj
 0002:0001664c       ??_C@_0CE@BGAPNKLA@EC_POINT_set_affine_coordinates_@ 100ce64c     libeay32_EM_dbg.0.9.8e:ec_err.obj
 0002:00016670       ??_C@_0CF@GIDKPABC@EC_POINT_set_affine_coordinates_@ 100ce670     libeay32_EM_dbg.0.9.8e:ec_err.obj
 0002:00016698       ??_C@_0BD@OIBFFFMJ@EC_POINT_point2oct?$AA@ 100ce698     libeay32_EM_dbg.0.9.8e:ec_err.obj
 0002:000166ac       ??_C@_0BD@KNOOFOGC@EC_POINT_oct2point?$AA@ 100ce6ac     libeay32_EM_dbg.0.9.8e:ec_err.obj
 0002:000166c0       ??_C@_0N@LOIMDOGK@EC_POINT_new?$AA@ 100ce6c0     libeay32_EM_dbg.0.9.8e:ec_err.obj
 0002:000166d0       ??_C@_0N@BJCJPJGO@EC_POINT_mul?$AA@ 100ce6d0     libeay32_EM_dbg.0.9.8e:ec_err.obj
 0002:000166e0       ??_C@_0BF@OGCGANIF@EC_POINT_make_affine?$AA@ 100ce6e0     libeay32_EM_dbg.0.9.8e:ec_err.obj
 0002:000166f8       ??_C@_0BF@LEBHDAHH@EC_POINT_is_on_curve?$AA@ 100ce6f8     libeay32_EM_dbg.0.9.8e:ec_err.obj
 0002:00016710       ??_C@_0BI@OBFGKGNP@EC_POINT_is_at_infinity?$AA@ 100ce710     libeay32_EM_dbg.0.9.8e:ec_err.obj
 0002:00016728       ??_C@_0BA@GCFFHKDO@EC_POINT_invert?$AA@ 100ce728     libeay32_EM_dbg.0.9.8e:ec_err.obj
 0002:00016738       ??_C@_0CJ@IIJPHIDN@EC_POINT_get_Jprojective_coordin@ 100ce738     libeay32_EM_dbg.0.9.8e:ec_err.obj
 0002:00016764       ??_C@_0CE@CJDKBKKA@EC_POINT_get_affine_coordinates_@ 100ce764     libeay32_EM_dbg.0.9.8e:ec_err.obj
 0002:00016788       ??_C@_0CF@HFLCNFLG@EC_POINT_get_affine_coordinates_@ 100ce788     libeay32_EM_dbg.0.9.8e:ec_err.obj
 0002:000167b0       ??_C@_0N@HNEIADBB@EC_POINT_dbl?$AA@ 100ce7b0     libeay32_EM_dbg.0.9.8e:ec_err.obj
 0002:000167c0       ??_C@_0O@MBEGPEJH@EC_POINT_copy?$AA@ 100ce7c0     libeay32_EM_dbg.0.9.8e:ec_err.obj
 0002:000167d0       ??_C@_0N@NLECBMI@EC_POINT_cmp?$AA@ 100ce7d0     libeay32_EM_dbg.0.9.8e:ec_err.obj
 0002:000167e0       ??_C@_0N@IGMCAFJJ@EC_POINT_add?$AA@ 100ce7e0     libeay32_EM_dbg.0.9.8e:ec_err.obj
 0002:000167f0       ??_C@_0O@EOIOIICJ@EC_POINTs_mul?$AA@ 100ce7f0     libeay32_EM_dbg.0.9.8e:ec_err.obj
 0002:00016800       ??_C@_0BG@BELCPGD@EC_POINTs_make_affine?$AA@ 100ce800     libeay32_EM_dbg.0.9.8e:ec_err.obj
 0002:00016818       ??_C@_0BA@JKENIEBO@EC_KEY_print_fp?$AA@ 100ce818     libeay32_EM_dbg.0.9.8e:ec_err.obj
 0002:00016828       ??_C@_0N@FGDNEALE@EC_KEY_print?$AA@ 100ce828     libeay32_EM_dbg.0.9.8e:ec_err.obj
 0002:00016838       ??_C@_0L@ONJMCKDA@EC_KEY_new?$AA@ 100ce838     libeay32_EM_dbg.0.9.8e:ec_err.obj
 0002:00016844       ??_C@_0BE@MFFKFHAB@EC_KEY_generate_key?$AA@ 100ce844     libeay32_EM_dbg.0.9.8e:ec_err.obj
 0002:00016858       ??_C@_0M@EKKLFMGJ@EC_KEY_copy?$AA@ 100ce858     libeay32_EM_dbg.0.9.8e:ec_err.obj
 0002:00016864       ??_C@_0BB@NNGADNNL@EC_KEY_check_key?$AA@ 100ce864     libeay32_EM_dbg.0.9.8e:ec_err.obj
 0002:00016878       ??_C@_0BH@CFECBPOO@EC_GROUP_set_generator?$AA@ 100ce878     libeay32_EM_dbg.0.9.8e:ec_err.obj
 0002:00016890       ??_C@_0BI@FFDHFCOK@EC_GROUP_SET_EXTRA_DATA?$AA@ 100ce890     libeay32_EM_dbg.0.9.8e:ec_err.obj
 0002:000168a8       ??_C@_0BH@BKLNCDLE@EC_GROUP_set_curve_GFp?$AA@ 100ce8a8     libeay32_EM_dbg.0.9.8e:ec_err.obj
 0002:000168c0       ??_C@_0BI@GPFLIGPC@EC_GROUP_set_curve_GF2m?$AA@ 100ce8c0     libeay32_EM_dbg.0.9.8e:ec_err.obj
 0002:000168d8       ??_C@_0BJ@EGIKACCD@EC_GROUP_precompute_mult?$AA@ 100ce8d8     libeay32_EM_dbg.0.9.8e:ec_err.obj
 0002:000168f4       ??_C@_0BH@GPENGIHE@EC_GROUP_NEW_FROM_DATA?$AA@ 100ce8f4     libeay32_EM_dbg.0.9.8e:ec_err.obj
 0002:0001690c       ??_C@_0BL@EGJNHICO@EC_GROUP_new_by_curve_name?$AA@ 100ce90c     libeay32_EM_dbg.0.9.8e:ec_err.obj
 0002:00016928       ??_C@_0N@BOFGICHI@EC_GROUP_new?$AA@ 100ce928     libeay32_EM_dbg.0.9.8e:ec_err.obj
 0002:00016938       ??_C@_0BN@BIKFBBCG@EC_GROUP_get_trinomial_basis?$AA@ 100ce938     libeay32_EM_dbg.0.9.8e:ec_err.obj
 0002:00016958       ??_C@_0BP@IOAFMBFK@EC_GROUP_get_pentanomial_basis?$AA@ 100ce958     libeay32_EM_dbg.0.9.8e:ec_err.obj
 0002:00016978       ??_C@_0BD@OOGPHLOG@EC_GROUP_get_order?$AA@ 100ce978     libeay32_EM_dbg.0.9.8e:ec_err.obj
 0002:0001698c       ??_C@_0BE@NONOHBAO@EC_GROUP_get_degree?$AA@ 100ce98c     libeay32_EM_dbg.0.9.8e:ec_err.obj
 0002:000169a0       ??_C@_0BH@GFKDJAMD@EC_GROUP_get_curve_GFp?$AA@ 100ce9a0     libeay32_EM_dbg.0.9.8e:ec_err.obj
 0002:000169b8       ??_C@_0BI@KBEFHMNO@EC_GROUP_get_curve_GF2m?$AA@ 100ce9b8     libeay32_EM_dbg.0.9.8e:ec_err.obj
 0002:000169d0       ??_C@_0BG@FGHCOKEJ@EC_GROUP_get_cofactor?$AA@ 100ce9d0     libeay32_EM_dbg.0.9.8e:ec_err.obj
 0002:000169e8       ??_C@_0BI@JLPIENJE@EC_GROUP_get0_generator?$AA@ 100ce9e8     libeay32_EM_dbg.0.9.8e:ec_err.obj
 0002:00016a00       ??_C@_0O@DCFPFPGD@EC_GROUP_copy?$AA@ 100cea00     libeay32_EM_dbg.0.9.8e:ec_err.obj
 0002:00016a10       ??_C@_0BM@EDPHFFHB@EC_GROUP_check_discriminant?$AA@ 100cea10     libeay32_EM_dbg.0.9.8e:ec_err.obj
 0002:00016a2c       ??_C@_0P@JGNGIAMK@EC_GROUP_check?$AA@ 100cea2c     libeay32_EM_dbg.0.9.8e:ec_err.obj
 0002:00016a3c       ??_C@_0CN@HEIOPOMJ@EC_GFP_SIMPLE_SET_COMPRESSED_COO@ 100cea3c     libeay32_EM_dbg.0.9.8e:ec_err.obj
 0002:00016a6c       ??_C@_0CJ@NNCOMCAA@ec_GFp_simple_set_compressed_coo@ 100cea6c     libeay32_EM_dbg.0.9.8e:ec_err.obj
 0002:00016a98       ??_C@_0CP@IIHPGJL@EC_GFP_SIMPLE_POINT_SET_AFFINE_C@ 100cea98     libeay32_EM_dbg.0.9.8e:ec_err.obj
 0002:00016ac8       ??_C@_0CL@CECOKBPF@ec_GFp_simple_point_set_affine_c@ 100ceac8     libeay32_EM_dbg.0.9.8e:ec_err.obj
 0002:00016af4       ??_C@_0CP@DHLCDGIL@EC_GFP_SIMPLE_POINT_GET_AFFINE_C@ 100ceaf4     libeay32_EM_dbg.0.9.8e:ec_err.obj
 0002:00016b24       ??_C@_0CL@CFAAIGCK@ec_GFp_simple_point_get_affine_c@ 100ceb24     libeay32_EM_dbg.0.9.8e:ec_err.obj
 0002:00016b50       ??_C@_0CB@KBGPMJPK@ec_GFp_simple_points_make_affine@ 100ceb50     libeay32_EM_dbg.0.9.8e:ec_err.obj
 0002:00016b74       ??_C@_0BI@JEGCEGAG@ec_GFp_simple_point2oct?$AA@ 100ceb74     libeay32_EM_dbg.0.9.8e:ec_err.obj
 0002:00016b8c       ??_C@_0BI@NBJJENKN@ec_GFp_simple_oct2point?$AA@ 100ceb8c     libeay32_EM_dbg.0.9.8e:ec_err.obj
 0002:00016ba4       ??_C@_0BK@COPKPLKN@ec_GFp_simple_make_affine?$AA@ 100ceba4     libeay32_EM_dbg.0.9.8e:ec_err.obj
 0002:00016bc0       ??_C@_0CC@KAJMPEKM@EC_GFP_SIMPLE_GROUP_SET_GENERATO@ 100cebc0     libeay32_EM_dbg.0.9.8e:ec_err.obj
 0002:00016be4       ??_C@_0CC@MGNNAOCM@EC_GFP_SIMPLE_GROUP_SET_CURVE_GF@ 100cebe4     libeay32_EM_dbg.0.9.8e:ec_err.obj
 0002:00016c08       ??_C@_0BO@FHKAIIJJ@ec_GFp_simple_group_set_curve?$AA@ 100cec08     libeay32_EM_dbg.0.9.8e:ec_err.obj
 0002:00016c28       ??_C@_0CH@CICCEFIM@ec_GFp_simple_group_check_discri@ 100cec28     libeay32_EM_dbg.0.9.8e:ec_err.obj
 0002:00016c50       ??_C@_0BM@NNIDGPMA@ec_GFp_nist_group_set_curve?$AA@ 100cec50     libeay32_EM_dbg.0.9.8e:ec_err.obj
 0002:00016c6c       ??_C@_0BG@NIJIDFMF@ec_GFp_nist_field_sqr?$AA@ 100cec6c     libeay32_EM_dbg.0.9.8e:ec_err.obj
 0002:00016c84       ??_C@_0BG@LLBGICGK@ec_GFp_nist_field_mul?$AA@ 100cec84     libeay32_EM_dbg.0.9.8e:ec_err.obj
 0002:00016c9c       ??_C@_0CA@DHAFKAHK@EC_GFP_MONT_GROUP_SET_CURVE_GFP?$AA@ 100cec9c     libeay32_EM_dbg.0.9.8e:ec_err.obj
 0002:00016cbc       ??_C@_0BM@GNHNLMD@ec_GFp_mont_group_set_curve?$AA@ 100cecbc     libeay32_EM_dbg.0.9.8e:ec_err.obj
 0002:00016cd8       ??_C@_0BG@MCAMNCKO@ec_GFp_mont_field_sqr?$AA@ 100cecd8     libeay32_EM_dbg.0.9.8e:ec_err.obj
 0002:00016cf0       ??_C@_0BN@OCMPOINJ@ec_GFp_mont_field_set_to_one?$AA@ 100cecf0     libeay32_EM_dbg.0.9.8e:ec_err.obj
 0002:00016d10       ??_C@_0BG@KBICGFAB@ec_GFp_mont_field_mul?$AA@ 100ced10     libeay32_EM_dbg.0.9.8e:ec_err.obj
 0002:00016d28       ??_C@_0BJ@PGEBCHNN@ec_GFp_mont_field_encode?$AA@ 100ced28     libeay32_EM_dbg.0.9.8e:ec_err.obj
 0002:00016d44       ??_C@_0BJ@DKPBNMKK@ec_GFp_mont_field_decode?$AA@ 100ced44     libeay32_EM_dbg.0.9.8e:ec_err.obj
 0002:00016d60       ??_C@_0CK@EMOLEAE@ec_GF2m_simple_set_compressed_co@ 100ced60     libeay32_EM_dbg.0.9.8e:ec_err.obj
 0002:00016d8c       ??_C@_0CM@PJCEGJBI@ec_GF2m_simple_point_set_affine_@ 100ced8c     libeay32_EM_dbg.0.9.8e:ec_err.obj
 0002:00016db8       ??_C@_0CM@PIAKEOMH@ec_GF2m_simple_point_get_affine_@ 100cedb8     libeay32_EM_dbg.0.9.8e:ec_err.obj
 0002:00016de4       ??_C@_0BJ@BCDOEDMD@ec_GF2m_simple_point2oct?$AA@ 100cede4     libeay32_EM_dbg.0.9.8e:ec_err.obj
 0002:00016e00       ??_C@_0BJ@FHMFEIGI@ec_GF2m_simple_oct2point?$AA@ 100cee00     libeay32_EM_dbg.0.9.8e:ec_err.obj
 0002:00016e1c       ??_C@_0BP@LKAGFPMG@ec_GF2m_simple_group_set_curve?$AA@ 100cee1c     libeay32_EM_dbg.0.9.8e:ec_err.obj
 0002:00016e3c       ??_C@_0CI@HLAFKCG@ec_GF2m_simple_group_check_discr@ 100cee3c     libeay32_EM_dbg.0.9.8e:ec_err.obj
 0002:00016e64       ??_C@_0CC@ICBKMHKB@EC_GF2M_MONTGOMERY_POINT_MULTIPL@ 100cee64     libeay32_EM_dbg.0.9.8e:ec_err.obj
 0002:00016e88       ??_C@_0BE@IGKCIBBP@EC_EX_DATA_set_data?$AA@ 100cee88     libeay32_EM_dbg.0.9.8e:ec_err.obj
 0002:00016e9c       ??_C@_0BL@HBOBKPAK@EC_ASN1_PKPARAMETERS2GROUP?$AA@ 100cee9c     libeay32_EM_dbg.0.9.8e:ec_err.obj
 0002:00016eb8       ??_C@_0BJ@GDKAGOMP@EC_ASN1_PARAMETERS2GROUP?$AA@ 100ceeb8     libeay32_EM_dbg.0.9.8e:ec_err.obj
 0002:00016ed4       ??_C@_0BL@CHLBAFFP@EC_ASN1_GROUP2PKPARAMETERS?$AA@ 100ceed4     libeay32_EM_dbg.0.9.8e:ec_err.obj
 0002:00016ef0       ??_C@_0BJ@OBNMEFJL@EC_ASN1_GROUP2PARAMETERS?$AA@ 100ceef0     libeay32_EM_dbg.0.9.8e:ec_err.obj
 0002:00016f0c       ??_C@_0BG@DBLOBDEO@EC_ASN1_GROUP2FIELDID?$AA@ 100cef0c     libeay32_EM_dbg.0.9.8e:ec_err.obj
 0002:00016f24       ??_C@_0BE@MCAODDGE@EC_ASN1_GROUP2CURVE?$AA@ 100cef24     libeay32_EM_dbg.0.9.8e:ec_err.obj
 0002:00016f38       ??_C@_0BB@HJLHKBLC@ECP_NIST_MOD_521?$AA@ 100cef38     libeay32_EM_dbg.0.9.8e:ec_err.obj
 0002:00016f4c       ??_C@_0BB@KOGOBJEJ@ECP_NIST_MOD_256?$AA@ 100cef4c     libeay32_EM_dbg.0.9.8e:ec_err.obj
 0002:00016f60       ??_C@_0BB@JJBHGNEO@ECP_NIST_MOD_224?$AA@ 100cef60     libeay32_EM_dbg.0.9.8e:ec_err.obj
 0002:00016f74       ??_C@_0BB@NBKNIKMH@ECP_NIST_MOD_192?$AA@ 100cef74     libeay32_EM_dbg.0.9.8e:ec_err.obj
 0002:00016f88       ??_C@_0BI@PBKJPLGO@ECPKParameters_print_fp?$AA@ 100cef88     libeay32_EM_dbg.0.9.8e:ec_err.obj
 0002:00016fa0       ??_C@_0BF@EIEGNLJB@ECPKParameters_print?$AA@ 100cefa0     libeay32_EM_dbg.0.9.8e:ec_err.obj
 0002:00016fb8       ??_C@_0BG@IABNBFJJ@ECParameters_print_fp?$AA@ 100cefb8     libeay32_EM_dbg.0.9.8e:ec_err.obj
 0002:00016fd0       ??_C@_0BD@KEAOIMB@ECParameters_print?$AA@ 100cefd0     libeay32_EM_dbg.0.9.8e:ec_err.obj
 0002:00016fe4       ??_C@_0BB@OCGALHMG@d2i_ECPrivateKey?$AA@ 100cefe4     libeay32_EM_dbg.0.9.8e:ec_err.obj
 0002:00016ff8       ??_C@_0BD@GMAHPMNO@d2i_ECPKParameters?$AA@ 100ceff8     libeay32_EM_dbg.0.9.8e:ec_err.obj
 0002:0001700c       ??_C@_0BB@IHNDOJLJ@d2i_ECParameters?$AA@ 100cf00c     libeay32_EM_dbg.0.9.8e:ec_err.obj
 0002:00017020       ??_C@_0N@DCDCJEGB@COMPUTE_WNAF?$AA@ 100cf020     libeay32_EM_dbg.0.9.8e:ec_err.obj
 0002:00017030       ??_C@_0BL@GHFOLNLN@no?5dynlock?5create?5callback?$AA@ 100cf030     libeay32_EM_dbg.0.9.8e:cpt_err.obj
 0002:0001704c       ??_C@_0BA@NPGJKDBD@INT_NEW_EX_DATA?$AA@ 100cf04c     libeay32_EM_dbg.0.9.8e:cpt_err.obj
 0002:0001705c       ??_C@_0BB@EOLKIEIJ@INT_FREE_EX_DATA?$AA@ 100cf05c     libeay32_EM_dbg.0.9.8e:cpt_err.obj
 0002:00017070       ??_C@_0BA@HJHEJEMA@INT_DUP_EX_DATA?$AA@ 100cf070     libeay32_EM_dbg.0.9.8e:cpt_err.obj
 0002:00017080       ??_C@_0O@MGHCLFMH@DEF_GET_CLASS?$AA@ 100cf080     libeay32_EM_dbg.0.9.8e:cpt_err.obj
 0002:00017090       ??_C@_0O@LHHGGGNF@DEF_ADD_INDEX?$AA@ 100cf090     libeay32_EM_dbg.0.9.8e:cpt_err.obj
 0002:000170a0       ??_C@_0BD@NOOFBIMD@CRYPTO_set_ex_data?$AA@ 100cf0a0     libeay32_EM_dbg.0.9.8e:cpt_err.obj
 0002:000170b4       ??_C@_0BG@MHMFFADP@CRYPTO_get_new_lockid?$AA@ 100cf0b4     libeay32_EM_dbg.0.9.8e:cpt_err.obj
 0002:000170cc       ??_C@_0BJ@CCOEIIFC@CRYPTO_get_new_dynlockid?$AA@ 100cf0cc     libeay32_EM_dbg.0.9.8e:cpt_err.obj
 0002:000170e8       ??_C@_0BI@MHIJLMOF@CRYPTO_get_ex_new_index?$AA@ 100cf0e8     libeay32_EM_dbg.0.9.8e:cpt_err.obj
 0002:00017100       ??_C@_0BG@NAOLEILH@variable?5has?5no?5value?$AA@ 100cf100     libeay32_EM_dbg.0.9.8e:conf_err.obj
 0002:00017118       ??_C@_0BE@KOBCLJNN@unknown?5module?5name?$AA@ 100cf118     libeay32_EM_dbg.0.9.8e:conf_err.obj
 0002:0001712c       ??_C@_0BN@CFCNACBC@unable?5to?5create?5new?5section?$AA@ 100cf12c     libeay32_EM_dbg.0.9.8e:conf_err.obj
 0002:0001714c       ??_C@_08JEIPHCP@no?5value?$AA@ 100cf14c     libeay32_EM_dbg.0.9.8e:conf_err.obj
 0002:00017158       ??_C@_0L@LDHPJCAE@no?5section?$AA@ 100cf158     libeay32_EM_dbg.0.9.8e:conf_err.obj
 0002:00017164       ??_C@_0CA@NLBFLDPJ@no?5conf?5or?5environment?5variable?$AA@ 100cf164     libeay32_EM_dbg.0.9.8e:conf_err.obj
 0002:00017184       ??_C@_07OJNHGLOG@no?5conf?$AA@ 100cf184     libeay32_EM_dbg.0.9.8e:conf_err.obj
 0002:0001718c       ??_C@_0P@ECIPDLAO@no?5close?5brace?$AA@ 100cf18c     libeay32_EM_dbg.0.9.8e:conf_err.obj
 0002:0001719c       ??_C@_0BM@JOLMIONN@module?5initialization?5error?$AA@ 100cf19c     libeay32_EM_dbg.0.9.8e:conf_err.obj
 0002:000171b8       ??_C@_0BG@OKCBACKF@missing?5init?5function?$AA@ 100cf1b8     libeay32_EM_dbg.0.9.8e:conf_err.obj
 0002:000171d0       ??_C@_0BI@KJPGAHFP@missing?5finish?5function?$AA@ 100cf1d0     libeay32_EM_dbg.0.9.8e:conf_err.obj
 0002:000171e8       ??_C@_0BD@CENOJJDH@missing?5equal?5sign?$AA@ 100cf1e8     libeay32_EM_dbg.0.9.8e:conf_err.obj
 0002:000171fc       ??_C@_0BN@LNHOFFHB@missing?5close?5square?5bracket?$AA@ 100cf1fc     libeay32_EM_dbg.0.9.8e:conf_err.obj
 0002:0001721c       ??_C@_0BC@MMAHEKMC@error?5loading?5dso?$AA@ 100cf21c     libeay32_EM_dbg.0.9.8e:conf_err.obj
 0002:00017230       ??_C@_08BBDGILDN@STR_COPY?$AA@ 100cf230     libeay32_EM_dbg.0.9.8e:conf_err.obj
 0002:0001723c       ??_C@_09JEJJGJM@NCONF_new?$AA@ 100cf23c     libeay32_EM_dbg.0.9.8e:conf_err.obj
 0002:00017248       ??_C@_0O@PJAMGPBO@NCONF_load_fp?$AA@ 100cf248     libeay32_EM_dbg.0.9.8e:conf_err.obj
 0002:00017258       ??_C@_0P@IEAGEJMM@NCONF_load_bio?$AA@ 100cf258     libeay32_EM_dbg.0.9.8e:conf_err.obj
 0002:00017268       ??_C@_0L@PFPHFEJM@NCONF_load?$AA@ 100cf268     libeay32_EM_dbg.0.9.8e:conf_err.obj
 0002:00017274       ??_C@_0BB@OFIAOKID@NCONF_get_string?$AA@ 100cf274     libeay32_EM_dbg.0.9.8e:conf_err.obj
 0002:00017288       ??_C@_0BC@INLNGICP@NCONF_get_section?$AA@ 100cf288     libeay32_EM_dbg.0.9.8e:conf_err.obj
 0002:0001729c       ??_C@_0BD@FFHIPMOB@NCONF_get_number_e?$AA@ 100cf29c     libeay32_EM_dbg.0.9.8e:conf_err.obj
 0002:000172b0       ??_C@_0BB@CGIEEKIP@NCONF_get_number?$AA@ 100cf2b0     libeay32_EM_dbg.0.9.8e:conf_err.obj
 0002:000172c4       ??_C@_0O@LOFEGBC@NCONF_dump_fp?$AA@ 100cf2c4     libeay32_EM_dbg.0.9.8e:conf_err.obj
 0002:000172d4       ??_C@_0P@INECOMMO@NCONF_dump_bio?$AA@ 100cf2d4     libeay32_EM_dbg.0.9.8e:conf_err.obj
 0002:000172e4       ??_C@_0L@HLFJHMEO@MODULE_RUN?$AA@ 100cf2e4     libeay32_EM_dbg.0.9.8e:conf_err.obj
 0002:000172f0       ??_C@_0BA@DFFKJEMO@MODULE_LOAD_DSO?$AA@ 100cf2f0     libeay32_EM_dbg.0.9.8e:conf_err.obj
 0002:00017300       ??_C@_0M@NKKPMNDD@MODULE_INIT?$AA@ 100cf300     libeay32_EM_dbg.0.9.8e:conf_err.obj
 0002:0001730c       ??_C@_0N@GOMHLHAF@DEF_LOAD_BIO?$AA@ 100cf30c     libeay32_EM_dbg.0.9.8e:conf_err.obj
 0002:0001731c       ??_C@_08JKMPBPGH@DEF_LOAD?$AA@ 100cf31c     libeay32_EM_dbg.0.9.8e:conf_err.obj
 0002:00017328       ??_C@_0BC@FCDKCHEN@CONF_modules_load?$AA@ 100cf328     libeay32_EM_dbg.0.9.8e:conf_err.obj
 0002:0001733c       ??_C@_0N@KNOBPCCK@CONF_load_fp?$AA@ 100cf33c     libeay32_EM_dbg.0.9.8e:conf_err.obj
 0002:0001734c       ??_C@_0O@KFOGFAOE@CONF_load_bio?$AA@ 100cf34c     libeay32_EM_dbg.0.9.8e:conf_err.obj
 0002:0001735c       ??_C@_09PJMELPOP@CONF_load?$AA@ 100cf35c     libeay32_EM_dbg.0.9.8e:conf_err.obj
 0002:00017368       ??_C@_0N@FPAINLCG@CONF_dump_fp?$AA@ 100cf368     libeay32_EM_dbg.0.9.8e:conf_err.obj
 0002:00017378       ??_C@_0L@OIMFIJMM@wrong?5type?$AA@ 100cf378     libeay32_EM_dbg.0.9.8e:asn1_err.obj
 0002:00017384       ??_C@_09FHDDBMMO@wrong?5tag?$AA@ 100cf384     libeay32_EM_dbg.0.9.8e:asn1_err.obj
 0002:00017390       ??_C@_0BB@HCAFPPCK@unsupported?5type?$AA@ 100cf390     libeay32_EM_dbg.0.9.8e:asn1_err.obj
 0002:000173a4       ??_C@_0BM@ONPEBOBM@unsupported?5public?5key?5type?$AA@ 100cf3a4     libeay32_EM_dbg.0.9.8e:asn1_err.obj
 0002:000173c0       ??_C@_0CB@JCOCHIMG@unsupported?5encryption?5algorithm@ 100cf3c0     libeay32_EM_dbg.0.9.8e:asn1_err.obj
 0002:000173e4       ??_C@_0BD@ECLJDLBJ@unsupported?5cipher?$AA@ 100cf3e4     libeay32_EM_dbg.0.9.8e:asn1_err.obj
 0002:000173f8       ??_C@_0CA@KHOGLJGI@unsupported?5any?5defined?5by?5type?$AA@ 100cf3f8     libeay32_EM_dbg.0.9.8e:asn1_err.obj
 0002:00017418       ??_C@_0O@OOPMEED@unkown?5format?$AA@ 100cf418     libeay32_EM_dbg.0.9.8e:asn1_err.obj
 0002:00017428       ??_C@_0M@NDAIKBNL@unknown?5tag?$AA@ 100cf428     libeay32_EM_dbg.0.9.8e:asn1_err.obj
 0002:00017434       ??_C@_0BI@HEKKKILC@unknown?5public?5key?5type?$AA@ 100cf434     libeay32_EM_dbg.0.9.8e:asn1_err.obj
 0002:0001744c       ??_C@_0BE@IIDOFNCB@unknown?5object?5type?$AA@ 100cf44c     libeay32_EM_dbg.0.9.8e:asn1_err.obj
 0002:00017460       ??_C@_0CB@FPJIEFKF@unknown?5message?5digest?5algorithm@ 100cf460     libeay32_EM_dbg.0.9.8e:asn1_err.obj
 0002:00017484       ??_C@_0P@JBFKBJMG@unknown?5format?$AA@ 100cf484     libeay32_EM_dbg.0.9.8e:asn1_err.obj
 0002:00017494       ??_C@_0P@GFLKNBFP@unexpected?5eoc?$AA@ 100cf494     libeay32_EM_dbg.0.9.8e:asn1_err.obj
 0002:000174a4       ??_C@_0CB@OFDMIBCA@unable?5to?5decode?5rsa?5private?5key@ 100cf4a4     libeay32_EM_dbg.0.9.8e:asn1_err.obj
 0002:000174c8       ??_C@_0BJ@FGOOGDNL@unable?5to?5decode?5rsa?5key?$AA@ 100cf4c8     libeay32_EM_dbg.0.9.8e:asn1_err.obj
 0002:000174e4       ??_C@_0BF@EOIFAKLF@type?5not?5constructed?$AA@ 100cf4e4     libeay32_EM_dbg.0.9.8e:asn1_err.obj
 0002:000174fc       ??_C@_08JAFCJEPG@too?5long?$AA@ 100cf4fc     libeay32_EM_dbg.0.9.8e:asn1_err.obj
 0002:00017508       ??_C@_0BG@FIHEIAJO@time?5not?5ascii?5format?$AA@ 100cf508     libeay32_EM_dbg.0.9.8e:asn1_err.obj
 0002:00017520       ??_C@_0DE@FHLPPGDD@the?5asn1?5object?5identifier?5is?5no@ 100cf520     libeay32_EM_dbg.0.9.8e:asn1_err.obj
 0002:00017554       ??_C@_0BD@FKIMNJNM@tag?5value?5too?5high?$AA@ 100cf554     libeay32_EM_dbg.0.9.8e:asn1_err.obj
 0002:00017568       ??_C@_0BB@EJOCOHKH@string?5too?5short?$AA@ 100cf568     libeay32_EM_dbg.0.9.8e:asn1_err.obj
 0002:0001757c       ??_C@_0BA@JFNIOLAK@string?5too?5long?$AA@ 100cf57c     libeay32_EM_dbg.0.9.8e:asn1_err.obj
 0002:0001758c       ??_C@_0L@DIDEMPO@short?5line?$AA@ 100cf58c     libeay32_EM_dbg.0.9.8e:asn1_err.obj
 0002:00017598       ??_C@_0BN@IFEEBMGE@sequence?5or?5set?5needs?5config?$AA@ 100cf598     libeay32_EM_dbg.0.9.8e:asn1_err.obj
 0002:000175b8       ??_C@_0BJ@OILHCOMM@sequence?5not?5constructed?$AA@ 100cf5b8     libeay32_EM_dbg.0.9.8e:asn1_err.obj
 0002:000175d4       ??_C@_0BJ@LFBNHHNL@sequence?5length?5mismatch?$AA@ 100cf5d4     libeay32_EM_dbg.0.9.8e:asn1_err.obj
 0002:000175f0       ??_C@_0BI@GOIIMJKA@second?5number?5too?5large?$AA@ 100cf5f0     libeay32_EM_dbg.0.9.8e:asn1_err.obj
 0002:00017608       ??_C@_0BL@KPMAFJEI@private?5key?5header?5missing?$AA@ 100cf608     libeay32_EM_dbg.0.9.8e:asn1_err.obj
 0002:00017624       ??_C@_0BE@GONLLLGK@odd?5number?5of?5chars?$AA@ 100cf624     libeay32_EM_dbg.0.9.8e:asn1_err.obj
 0002:00017638       ??_C@_0BI@KCMPJCA@object?5not?5ascii?5format?$AA@ 100cf638     libeay32_EM_dbg.0.9.8e:asn1_err.obj
 0002:00017650       ??_C@_0BF@CCHOLFBJ@null?5is?5wrong?5length?$AA@ 100cf650     libeay32_EM_dbg.0.9.8e:asn1_err.obj
 0002:00017668       ??_C@_0BI@DFIHABJJ@no?5matching?5choice?5type?$AA@ 100cf668     libeay32_EM_dbg.0.9.8e:asn1_err.obj
 0002:00017680       ??_C@_0BA@NBOKDEIF@not?5enough?5data?$AA@ 100cf680     libeay32_EM_dbg.0.9.8e:asn1_err.obj
 0002:00017690       ??_C@_0BB@MGCBBDEB@not?5ascii?5format?$AA@ 100cf690     libeay32_EM_dbg.0.9.8e:asn1_err.obj
 0002:000176a4       ??_C@_0BD@MNEEEEPB@non?5hex?5characters?$AA@ 100cf6a4     libeay32_EM_dbg.0.9.8e:asn1_err.obj
 0002:000176b8       ??_C@_0BD@IJCHMKNH@nested?5asn1?5string?$AA@ 100cf6b8     libeay32_EM_dbg.0.9.8e:asn1_err.obj
 0002:000176cc       ??_C@_0BC@FJKJBBMN@mstring?5wrong?5tag?$AA@ 100cf6cc     libeay32_EM_dbg.0.9.8e:asn1_err.obj
 0002:000176e0       ??_C@_0BG@HBALPIGP@mstring?5not?5universal?$AA@ 100cf6e0     libeay32_EM_dbg.0.9.8e:asn1_err.obj
 0002:000176f8       ??_C@_0BG@OJFAFJNH@missing?5second?5number?$AA@ 100cf6f8     libeay32_EM_dbg.0.9.8e:asn1_err.obj
 0002:00017710       ??_C@_0M@MKABCMG@missing?5eoc?$AA@ 100cf710     libeay32_EM_dbg.0.9.8e:asn1_err.obj
 0002:0001771c       ??_C@_0L@IJFCOOII@list?5error?$AA@ 100cf71c     libeay32_EM_dbg.0.9.8e:asn1_err.obj
 0002:00017728       ??_C@_0N@MAMJKBIE@length?5error?$AA@ 100cf728     libeay32_EM_dbg.0.9.8e:asn1_err.obj
 0002:00017738       ??_C@_0N@MBEIJJJI@iv?5too?5large?$AA@ 100cf738     libeay32_EM_dbg.0.9.8e:asn1_err.obj
 0002:00017748       ??_C@_0BD@CADAIHCD@invalid?5utf8string?$AA@ 100cf748     libeay32_EM_dbg.0.9.8e:asn1_err.obj
 0002:0001775c       ??_C@_0BP@NLLGLGJG@invalid?5universalstring?5length?$AA@ 100cf75c     libeay32_EM_dbg.0.9.8e:asn1_err.obj
 0002:0001777c       ??_C@_0BE@PJIGHIDK@invalid?5time?5format?$AA@ 100cf77c     libeay32_EM_dbg.0.9.8e:asn1_err.obj
 0002:00017790       ??_C@_0BC@JCCFGDFH@invalid?5separator?$AA@ 100cf790     libeay32_EM_dbg.0.9.8e:asn1_err.obj
 0002:000177a4       ??_C@_0BB@HBLKNPLB@invalid?5modifier?$AA@ 100cf7a4     libeay32_EM_dbg.0.9.8e:asn1_err.obj
 0002:000177b8       ??_C@_0O@KPBDNCBI@invalid?5digit?$AA@ 100cf7b8     libeay32_EM_dbg.0.9.8e:asn1_err.obj
 0002:000177c8       ??_C@_0BJ@DGKAOOKA@invalid?5bmpstring?5length?$AA@ 100cf7c8     libeay32_EM_dbg.0.9.8e:asn1_err.obj
 0002:000177e4       ??_C@_0BL@JBPGNNHP@integer?5too?5large?5for?5long?$AA@ 100cf7e4     libeay32_EM_dbg.0.9.8e:asn1_err.obj
 0002:00017800       ??_C@_0BJ@IOJNPFPJ@integer?5not?5ascii?5format?$AA@ 100cf800     libeay32_EM_dbg.0.9.8e:asn1_err.obj
 0002:0001781c       ??_C@_0BD@FBIAEBKG@illegal?5time?5value?$AA@ 100cf81c     libeay32_EM_dbg.0.9.8e:asn1_err.obj
 0002:00017830       ??_C@_0BD@KMIMMNBH@illegal?5tagged?5any?$AA@ 100cf830     libeay32_EM_dbg.0.9.8e:asn1_err.obj
 0002:00017844       ??_C@_0CB@JCNOHDMC@illegal?5options?5on?5item?5template@ 100cf844     libeay32_EM_dbg.0.9.8e:asn1_err.obj
 0002:00017868       ??_C@_0BF@JJCOPKAM@illegal?5optional?5any?$AA@ 100cf868     libeay32_EM_dbg.0.9.8e:asn1_err.obj
 0002:00017880       ??_C@_0P@HMGBAHDF@illegal?5object?$AA@ 100cf880     libeay32_EM_dbg.0.9.8e:asn1_err.obj
 0002:00017890       ??_C@_0BD@CIHPLDOH@illegal?5null?5value?$AA@ 100cf890     libeay32_EM_dbg.0.9.8e:asn1_err.obj
 0002:000178a4       ??_C@_0N@KECKGDAL@illegal?5null?$AA@ 100cf8a4     libeay32_EM_dbg.0.9.8e:asn1_err.obj
 0002:000178b4       ??_C@_0BH@NHBAOIGA@illegal?5nested?5tagging?$AA@ 100cf8b4     libeay32_EM_dbg.0.9.8e:asn1_err.obj
 0002:000178cc       ??_C@_0BA@OBFDOAFI@illegal?5integer?$AA@ 100cf8cc     libeay32_EM_dbg.0.9.8e:asn1_err.obj
 0002:000178dc       ??_C@_0BF@HBCDAMIA@illegal?5implicit?5tag?$AA@ 100cf8dc     libeay32_EM_dbg.0.9.8e:asn1_err.obj
 0002:000178f4       ??_C@_0M@KIEAGAOM@illegal?5hex?$AA@ 100cf8f4     libeay32_EM_dbg.0.9.8e:asn1_err.obj
 0002:00017900       ??_C@_0P@MDMHHBPK@illegal?5format?$AA@ 100cf900     libeay32_EM_dbg.0.9.8e:asn1_err.obj
 0002:00017910       ??_C@_0BD@NEHNCJDJ@illegal?5characters?$AA@ 100cf910     libeay32_EM_dbg.0.9.8e:asn1_err.obj
 0002:00017924       ??_C@_0BA@DFDIFKJJ@illegal?5boolean?$AA@ 100cf924     libeay32_EM_dbg.0.9.8e:asn1_err.obj
 0002:00017934       ??_C@_0BJ@PIGABEGD@illegal?5bitstring?5format?$AA@ 100cf934     libeay32_EM_dbg.0.9.8e:asn1_err.obj
 0002:00017950       ??_C@_0BA@CHHBAPMA@header?5too?5long?$AA@ 100cf950     libeay32_EM_dbg.0.9.8e:asn1_err.obj
 0002:00017960       ??_C@_0BE@LDHAAJPI@first?5num?5too?5large?$AA@ 100cf960     libeay32_EM_dbg.0.9.8e:asn1_err.obj
 0002:00017974       ??_C@_0O@CLCAFBLA@field?5missing?$AA@ 100cf974     libeay32_EM_dbg.0.9.8e:asn1_err.obj
 0002:00017984       ??_C@_0BN@FKHNFGAN@explicit?5tag?5not?5constructed?$AA@ 100cf984     libeay32_EM_dbg.0.9.8e:asn1_err.obj
 0002:000179a4       ??_C@_0BJ@GCMFJMFA@explicit?5length?5mismatch?$AA@ 100cf9a4     libeay32_EM_dbg.0.9.8e:asn1_err.obj
 0002:000179c0       ??_C@_0BB@JKCOMHFA@expecting?5a?5time?$AA@ 100cf9c0     libeay32_EM_dbg.0.9.8e:asn1_err.obj
 0002:000179d4       ??_C@_0BE@BDJOEMIP@expecting?5a?5boolean?$AA@ 100cf9d4     libeay32_EM_dbg.0.9.8e:asn1_err.obj
 0002:000179e8       ??_C@_0BE@OOABJJEB@expecting?5an?5object?$AA@ 100cf9e8     libeay32_EM_dbg.0.9.8e:asn1_err.obj
 0002:000179fc       ??_C@_0BF@LGKJDFOD@expecting?5an?5integer?$AA@ 100cf9fc     libeay32_EM_dbg.0.9.8e:asn1_err.obj
 0002:00017a14       ??_C@_0BM@FOGNMFHP@error?5setting?5cipher?5params?$AA@ 100cfa14     libeay32_EM_dbg.0.9.8e:asn1_err.obj
 0002:00017a30       ??_C@_0BK@DGGLLBPO@error?5parsing?5set?5element?$AA@ 100cfa30     libeay32_EM_dbg.0.9.8e:asn1_err.obj
 0002:00017a4c       ??_C@_0BG@ILOBFDMI@error?5loading?5section?$AA@ 100cfa4c     libeay32_EM_dbg.0.9.8e:asn1_err.obj
 0002:00017a64       ??_C@_0BD@MEBNHBIA@error?5getting?5time?$AA@ 100cfa64     libeay32_EM_dbg.0.9.8e:asn1_err.obj
 0002:00017a78       ??_C@_0P@PBNPDGCA@depth?5exceeded?$AA@ 100cfa78     libeay32_EM_dbg.0.9.8e:asn1_err.obj
 0002:00017a88       ??_C@_0P@JLNKKAF@decoding?5error?$AA@ 100cfa88     libeay32_EM_dbg.0.9.8e:asn1_err.obj
 0002:00017a98       ??_C@_0O@BCDMJPKL@data?5is?5wrong?$AA@ 100cfa98     libeay32_EM_dbg.0.9.8e:asn1_err.obj
 0002:00017aa8       ??_C@_0BI@BIBDEEPC@boolean?5is?5wrong?5length?$AA@ 100cfaa8     libeay32_EM_dbg.0.9.8e:asn1_err.obj
 0002:00017ac0       ??_C@_06OMLIINFC@bn?5lib?$AA@ 100cfac0     libeay32_EM_dbg.0.9.8e:asn1_err.obj
 0002:00017ac8       ??_C@_07PAICMJPF@bad?5tag?$AA@ 100cfac8     libeay32_EM_dbg.0.9.8e:asn1_err.obj
 0002:00017ad0       ??_C@_0BC@CABCLHEJ@bad?5password?5read?$AA@ 100cfad0     libeay32_EM_dbg.0.9.8e:asn1_err.obj
 0002:00017ae4       ??_C@_0BC@HBIHOFOK@bad?5object?5header?$AA@ 100cfae4     libeay32_EM_dbg.0.9.8e:asn1_err.obj
 0002:00017af8       ??_C@_09BKPOMKBM@bad?5class?$AA@ 100cfaf8     libeay32_EM_dbg.0.9.8e:asn1_err.obj
 0002:00017b04       ??_C@_09GMPDBPNM@aux?5error?$AA@ 100cfb04     libeay32_EM_dbg.0.9.8e:asn1_err.obj
 0002:00017b10       ??_C@_0O@BJDBCOJG@adding?5object?$AA@ 100cfb10     libeay32_EM_dbg.0.9.8e:asn1_err.obj
 0002:00017b20       ??_C@_0O@FLJODBAL@X509_PKEY_new?$AA@ 100cfb20     libeay32_EM_dbg.0.9.8e:asn1_err.obj
 0002:00017b30       ??_C@_08NEGEFFLN@X509_NEW?$AA@ 100cfb30     libeay32_EM_dbg.0.9.8e:asn1_err.obj
 0002:00017b3c       ??_C@_0BB@PPJFHHNK@X509_NAME_EX_NEW?$AA@ 100cfb3c     libeay32_EM_dbg.0.9.8e:asn1_err.obj
 0002:00017b50       ??_C@_0BB@BFNHNGLE@X509_NAME_EX_D2I?$AA@ 100cfb50     libeay32_EM_dbg.0.9.8e:asn1_err.obj
 0002:00017b64       ??_C@_0BB@EOIAJBFO@X509_NAME_ENCODE?$AA@ 100cfb64     libeay32_EM_dbg.0.9.8e:asn1_err.obj
 0002:00017b78       ??_C@_0O@PHHKDAFO@X509_INFO_new?$AA@ 100cfb78     libeay32_EM_dbg.0.9.8e:asn1_err.obj
 0002:00017b88       ??_C@_0BG@JPBFPNPM@X509_CRL_add0_revoked?$AA@ 100cfb88     libeay32_EM_dbg.0.9.8e:asn1_err.obj
 0002:00017ba0       ??_C@_0O@HBIKGBAK@X509_CINF_NEW?$AA@ 100cfba0     libeay32_EM_dbg.0.9.8e:asn1_err.obj
 0002:00017bb0       ??_C@_0O@PIFNMKLH@PKCS5_pbe_set?$AA@ 100cfbb0     libeay32_EM_dbg.0.9.8e:asn1_err.obj
 0002:00017bc0       ??_C@_0P@MGGDNIJC@PKCS5_pbe2_set?$AA@ 100cfbc0     libeay32_EM_dbg.0.9.8e:asn1_err.obj
 0002:00017bd0       ??_C@_0O@GFIOGLLN@PARSE_TAGGING?$AA@ 100cfbd0     libeay32_EM_dbg.0.9.8e:asn1_err.obj
 0002:00017be0       ??_C@_0BA@CHDDCHHF@OID_MODULE_INIT?$AA@ 100cfbe0     libeay32_EM_dbg.0.9.8e:asn1_err.obj
 0002:00017bf0       ??_C@_08OCDCJFII@LONG_C2I?$AA@ 100cfbf0     libeay32_EM_dbg.0.9.8e:asn1_err.obj
 0002:00017bfc       ??_C@_0P@ONPLPJGI@i2d_RSA_PUBKEY?$AA@ 100cfbfc     libeay32_EM_dbg.0.9.8e:asn1_err.obj
 0002:00017c0c       ??_C@_0M@JMAEMJEO@i2d_RSA_NET?$AA@ 100cfc0c     libeay32_EM_dbg.0.9.8e:asn1_err.obj
 0002:00017c18       ??_C@_0O@HLJNBGGC@i2d_PublicKey?$AA@ 100cfc18     libeay32_EM_dbg.0.9.8e:asn1_err.obj
 0002:00017c28       ??_C@_0P@NGNEJIKC@i2d_PrivateKey?$AA@ 100cfc28     libeay32_EM_dbg.0.9.8e:asn1_err.obj
 0002:00017c38       ??_C@_0O@LEOKMPDM@i2d_EC_PUBKEY?$AA@ 100cfc38     libeay32_EM_dbg.0.9.8e:asn1_err.obj
 0002:00017c48       ??_C@_0P@KLLIPHOA@i2d_DSA_PUBKEY?$AA@ 100cfc48     libeay32_EM_dbg.0.9.8e:asn1_err.obj
 0002:00017c58       ??_C@_0O@FFBCHNNJ@I2D_ASN1_TIME?$AA@ 100cfc58     libeay32_EM_dbg.0.9.8e:asn1_err.obj
 0002:00017c68       ??_C@_0N@CLMCOPEP@i2d_ASN1_SET?$AA@ 100cfc68     libeay32_EM_dbg.0.9.8e:asn1_err.obj
 0002:00017c78       ??_C@_0O@GAAIFCCL@d2i_X509_PKEY?$AA@ 100cfc78     libeay32_EM_dbg.0.9.8e:asn1_err.obj
 0002:00017c88       ??_C@_0O@PJBLDFKN@D2I_X509_CINF?$AA@ 100cfc88     libeay32_EM_dbg.0.9.8e:asn1_err.obj
 0002:00017c98       ??_C@_08JEFCIDGB@D2I_X509?$AA@ 100cfc98     libeay32_EM_dbg.0.9.8e:asn1_err.obj
 0002:00017ca4       ??_C@_0O@PKNCGLPC@D2I_RSA_NET_2?$AA@ 100cfca4     libeay32_EM_dbg.0.9.8e:asn1_err.obj
 0002:00017cb4       ??_C@_0M@PHFFEDBA@d2i_RSA_NET?$AA@ 100cfcb4     libeay32_EM_dbg.0.9.8e:asn1_err.obj
 0002:00017cc0       ??_C@_0O@FCMIGHNH@d2i_PublicKey?$AA@ 100cfcc0     libeay32_EM_dbg.0.9.8e:asn1_err.obj
 0002:00017cd0       ??_C@_0P@GNPGIKNA@d2i_PrivateKey?$AA@ 100cfcd0     libeay32_EM_dbg.0.9.8e:asn1_err.obj
 0002:00017ce0       ??_C@_0BD@ICAMCAJL@D2I_NETSCAPE_RSA_2?$AA@ 100cfce0     libeay32_EM_dbg.0.9.8e:asn1_err.obj
 0002:00017cf4       ??_C@_0BB@DAKIIIBF@d2i_Netscape_RSA?$AA@ 100cfcf4     libeay32_EM_dbg.0.9.8e:asn1_err.obj
 0002:00017d08       ??_C@_0BB@LLLJDJLB@D2I_ASN1_UTCTIME?$AA@ 100cfd08     libeay32_EM_dbg.0.9.8e:asn1_err.obj
 0002:00017d1c       ??_C@_0BC@FCANIOOH@d2i_ASN1_UINTEGER?$AA@ 100cfd1c     libeay32_EM_dbg.0.9.8e:asn1_err.obj
 0002:00017d30       ??_C@_0BE@KEADNCBD@d2i_ASN1_type_bytes?$AA@ 100cfd30     libeay32_EM_dbg.0.9.8e:asn1_err.obj
 0002:00017d44       ??_C@_0N@KHHKMCDG@d2i_ASN1_SET?$AA@ 100cfd44     libeay32_EM_dbg.0.9.8e:asn1_err.obj
 0002:00017d54       ??_C@_0BA@LJAFIEM@d2i_ASN1_OBJECT?$AA@ 100cfd54     libeay32_EM_dbg.0.9.8e:asn1_err.obj
 0002:00017d64       ??_C@_0BB@PLBPPAFJ@D2I_ASN1_INTEGER?$AA@ 100cfd64     libeay32_EM_dbg.0.9.8e:asn1_err.obj
 0002:00017d78       ??_C@_0BA@EOIJNLDK@d2i_ASN1_HEADER?$AA@ 100cfd78     libeay32_EM_dbg.0.9.8e:asn1_err.obj
 0002:00017d88       ??_C@_0BJ@FOGLHODI@D2I_ASN1_GENERALIZEDTIME?$AA@ 100cfd88     libeay32_EM_dbg.0.9.8e:asn1_err.obj
 0002:00017da4       ??_C@_0P@LNLNJINM@d2i_ASN1_bytes?$AA@ 100cfda4     libeay32_EM_dbg.0.9.8e:asn1_err.obj
 0002:00017db4       ??_C@_0BB@IJBCEGPM@d2i_ASN1_BOOLEAN?$AA@ 100cfdb4     libeay32_EM_dbg.0.9.8e:asn1_err.obj
 0002:00017dc8       ??_C@_0BE@KOGEEPAO@D2I_ASN1_BIT_STRING?$AA@ 100cfdc8     libeay32_EM_dbg.0.9.8e:asn1_err.obj
 0002:00017ddc       ??_C@_0N@PPLGMNKG@COLLECT_DATA?$AA@ 100cfddc     libeay32_EM_dbg.0.9.8e:asn1_err.obj
 0002:00017dec       ??_C@_0BA@PGGJKADJ@c2i_ASN1_OBJECT?$AA@ 100cfdec     libeay32_EM_dbg.0.9.8e:asn1_err.obj
 0002:00017dfc       ??_C@_0BB@HNOLIAHG@c2i_ASN1_INTEGER?$AA@ 100cfdfc     libeay32_EM_dbg.0.9.8e:asn1_err.obj
 0002:00017e10       ??_C@_0BE@IJKABKG@c2i_ASN1_BIT_STRING?$AA@ 100cfe10     libeay32_EM_dbg.0.9.8e:asn1_err.obj
 0002:00017e24       ??_C@_0BD@HOPLIKO@BN_to_ASN1_INTEGER?$AA@ 100cfe24     libeay32_EM_dbg.0.9.8e:asn1_err.obj
 0002:00017e38       ??_C@_0BG@JOMKFIC@BN_to_ASN1_ENUMERATED?$AA@ 100cfe38     libeay32_EM_dbg.0.9.8e:asn1_err.obj
 0002:00017e50       ??_C@_09MBGLCMPO@BITSTR_CB?$AA@ 100cfe50     libeay32_EM_dbg.0.9.8e:asn1_err.obj
 0002:00017e5c       ??_C@_0M@FLJFHODB@ASN1_verify?$AA@ 100cfe5c     libeay32_EM_dbg.0.9.8e:asn1_err.obj
 0002:00017e68       ??_C@_0BB@IOFLGDHP@ASN1_UTCTIME_set?$AA@ 100cfe68     libeay32_EM_dbg.0.9.8e:asn1_err.obj
 0002:00017e7c       ??_C@_0BD@PPGFNCOC@ASN1_unpack_string?$AA@ 100cfe7c     libeay32_EM_dbg.0.9.8e:asn1_err.obj
 0002:00017e90       ??_C@_0BK@BAIAADBG@ASN1_TYPE_get_octetstring?$AA@ 100cfe90     libeay32_EM_dbg.0.9.8e:asn1_err.obj
 0002:00017eac       ??_C@_0BO@BBFILFPI@ASN1_TYPE_get_int_octetstring?$AA@ 100cfeac     libeay32_EM_dbg.0.9.8e:asn1_err.obj
 0002:00017ecc       ??_C@_0O@JLLIECHM@ASN1_TIME_set?$AA@ 100cfecc     libeay32_EM_dbg.0.9.8e:asn1_err.obj
 0002:00017edc       ??_C@_0BI@IBDIODGE@ASN1_TEMPLATE_NOEXP_D2I?$AA@ 100cfedc     libeay32_EM_dbg.0.9.8e:asn1_err.obj
 0002:00017ef4       ??_C@_0BC@MAPIMCN@ASN1_TEMPLATE_NEW?$AA@ 100cfef4     libeay32_EM_dbg.0.9.8e:asn1_err.obj
 0002:00017f08       ??_C@_0BF@KIABBLMP@ASN1_TEMPLATE_EX_D2I?$AA@ 100cff08     libeay32_EM_dbg.0.9.8e:asn1_err.obj
 0002:00017f20       ??_C@_0BF@PEOOGBEK@ASN1_STRING_type_new?$AA@ 100cff20     libeay32_EM_dbg.0.9.8e:asn1_err.obj
 0002:00017f38       ??_C@_0BG@HPBLJLKM@ASN1_STRING_TABLE_add?$AA@ 100cff38     libeay32_EM_dbg.0.9.8e:asn1_err.obj
 0002:00017f50       ??_C@_0BA@OJKOPFKM@ASN1_STRING_set?$AA@ 100cff50     libeay32_EM_dbg.0.9.8e:asn1_err.obj
 0002:00017f60       ??_C@_0O@MDHEIEJD@ASN1_STR2TYPE?$AA@ 100cff60     libeay32_EM_dbg.0.9.8e:asn1_err.obj
 0002:00017f70       ??_C@_09KHLDPLKF@ASN1_sign?$AA@ 100cff70     libeay32_EM_dbg.0.9.8e:asn1_err.obj
 0002:00017f7c       ??_C@_0BA@BDDKOFAM@ASN1_seq_unpack?$AA@ 100cff7c     libeay32_EM_dbg.0.9.8e:asn1_err.obj
 0002:00017f8c       ??_C@_0O@GOCJGBDJ@ASN1_seq_pack?$AA@ 100cff8c     libeay32_EM_dbg.0.9.8e:asn1_err.obj
 0002:00017f9c       ??_C@_0BD@LCDDBKEK@ASN1_PKCS5_PBE_SET?$AA@ 100cff9c     libeay32_EM_dbg.0.9.8e:asn1_err.obj
 0002:00017fb0       ??_C@_0O@JODPNGBN@ASN1_PCTX_NEW?$AA@ 100cffb0     libeay32_EM_dbg.0.9.8e:asn1_err.obj
 0002:00017fc0       ??_C@_0BB@PMAOEIM@ASN1_pack_string?$AA@ 100cffc0     libeay32_EM_dbg.0.9.8e:asn1_err.obj
 0002:00017fd4       ??_C@_0BA@EKIOGKFN@ASN1_OBJECT_new?$AA@ 100cffd4     libeay32_EM_dbg.0.9.8e:asn1_err.obj
 0002:00017fe4       ??_C@_0BE@MAJEFFDP@ASN1_mbstring_ncopy?$AA@ 100cffe4     libeay32_EM_dbg.0.9.8e:asn1_err.obj
 0002:00017ff8       ??_C@_0BB@HPDEMCFL@ASN1_item_verify?$AA@ 100cfff8     libeay32_EM_dbg.0.9.8e:asn1_err.obj
 0002:0001800c       ??_C@_0BB@OFFAOBLC@ASN1_item_unpack?$AA@ 100d000c     libeay32_EM_dbg.0.9.8e:asn1_err.obj
 0002:00018020       ??_C@_0P@GCFCEBPI@ASN1_item_sign?$AA@ 100d0020     libeay32_EM_dbg.0.9.8e:asn1_err.obj
 0002:00018030       ??_C@_0P@JKDIEPFO@ASN1_item_pack?$AA@ 100d0030     libeay32_EM_dbg.0.9.8e:asn1_err.obj
 0002:00018040       ??_C@_0BB@BEALGICF@ASN1_item_i2d_fp?$AA@ 100d0040     libeay32_EM_dbg.0.9.8e:asn1_err.obj
 0002:00018054       ??_C@_0BC@DFOAKHOP@ASN1_item_i2d_bio?$AA@ 100d0054     libeay32_EM_dbg.0.9.8e:asn1_err.obj
 0002:00018068       ??_C@_0BB@NCKAJAHC@ASN1_ITEM_EX_D2I?$AA@ 100d0068     libeay32_EM_dbg.0.9.8e:asn1_err.obj
 0002:0001807c       ??_C@_0BJ@GMGFBPBH@ASN1_ITEM_EX_COMBINE_NEW?$AA@ 100d007c     libeay32_EM_dbg.0.9.8e:asn1_err.obj
 0002:00018098       ??_C@_0O@PICHNKKH@ASN1_item_dup?$AA@ 100d0098     libeay32_EM_dbg.0.9.8e:asn1_err.obj
 0002:000180a8       ??_C@_0BB@INEMMNFE@ASN1_item_d2i_fp?$AA@ 100d00a8     libeay32_EM_dbg.0.9.8e:asn1_err.obj
 0002:000180bc       ??_C@_0BD@EHPGDINP@ASN1_INTEGER_to_BN?$AA@ 100d00bc     libeay32_EM_dbg.0.9.8e:asn1_err.obj
 0002:000180d0       ??_C@_0BB@INGPPNJI@ASN1_INTEGER_set?$AA@ 100d00d0     libeay32_EM_dbg.0.9.8e:asn1_err.obj
 0002:000180e4       ??_C@_0M@DAKKNEEP@ASN1_i2d_fp?$AA@ 100d00e4     libeay32_EM_dbg.0.9.8e:asn1_err.obj
 0002:000180f0       ??_C@_0N@JIKDIOBF@ASN1_i2d_bio?$AA@ 100d00f0     libeay32_EM_dbg.0.9.8e:asn1_err.obj
 0002:00018100       ??_C@_0BA@HKBPCMMD@ASN1_HEADER_new?$AA@ 100d0100     libeay32_EM_dbg.0.9.8e:asn1_err.obj
 0002:00018110       ??_C@_0BA@JLIGACBL@ASN1_get_object?$AA@ 100d0110     libeay32_EM_dbg.0.9.8e:asn1_err.obj
 0002:00018120       ??_C@_0BB@KDPFLPEI@ASN1_generate_v3?$AA@ 100d0120     libeay32_EM_dbg.0.9.8e:asn1_err.obj
 0002:00018134       ??_C@_0BJ@KHKMKKCA@ASN1_GENERALIZEDTIME_set?$AA@ 100d0134     libeay32_EM_dbg.0.9.8e:asn1_err.obj
 0002:00018150       ??_C@_0O@NNCENJDM@ASN1_FIND_END?$AA@ 100d0150     libeay32_EM_dbg.0.9.8e:asn1_err.obj
 0002:00018160       ??_C@_0M@DINHMBPN@ASN1_EX_C2I?$AA@ 100d0160     libeay32_EM_dbg.0.9.8e:asn1_err.obj
 0002:0001816c       ??_C@_0BG@DAFILAFG@ASN1_ENUMERATED_to_BN?$AA@ 100d016c     libeay32_EM_dbg.0.9.8e:asn1_err.obj
 0002:00018184       ??_C@_0BE@IJNOKPHE@ASN1_ENUMERATED_set?$AA@ 100d0184     libeay32_EM_dbg.0.9.8e:asn1_err.obj
 0002:00018198       ??_C@_08KDKGDJBP@ASN1_dup?$AA@ 100d0198     libeay32_EM_dbg.0.9.8e:asn1_err.obj
 0002:000181a4       ??_C@_0M@JJPCPNMI@ASN1_DO_ADB?$AA@ 100d01a4     libeay32_EM_dbg.0.9.8e:asn1_err.obj
 0002:000181b0       ??_C@_0M@JBIDILDB@ASN1_digest?$AA@ 100d01b0     libeay32_EM_dbg.0.9.8e:asn1_err.obj
 0002:000181bc       ??_C@_0BC@HGCNEDND@ASN1_D2I_READ_BIO?$AA@ 100d01bc     libeay32_EM_dbg.0.9.8e:asn1_err.obj
 0002:000181d0       ??_C@_0M@KJONHBDO@ASN1_d2i_fp?$AA@ 100d01d0     libeay32_EM_dbg.0.9.8e:asn1_err.obj
 0002:000181dc       ??_C@_0BG@BGPEICDG@ASN1_D2I_EX_PRIMITIVE?$AA@ 100d01dc     libeay32_EM_dbg.0.9.8e:asn1_err.obj
 0002:000181f4       ??_C@_0N@IFJIJAOA@ASN1_COLLECT?$AA@ 100d01f4     libeay32_EM_dbg.0.9.8e:asn1_err.obj
 0002:00018204       ??_C@_0BH@GHEGGMCL@ASN1_COLLATE_PRIMITIVE?$AA@ 100d0204     libeay32_EM_dbg.0.9.8e:asn1_err.obj
 0002:0001821c       ??_C@_0BA@FMGKINFP@ASN1_CHECK_TLEN?$AA@ 100d021c     libeay32_EM_dbg.0.9.8e:asn1_err.obj
 0002:0001822c       ??_C@_07OHDJOKAP@ASN1_CB?$AA@ 100d022c     libeay32_EM_dbg.0.9.8e:asn1_err.obj
 0002:00018234       ??_C@_0BI@BKJIJOJH@ASN1_BIT_STRING_set_bit?$AA@ 100d0234     libeay32_EM_dbg.0.9.8e:asn1_err.obj
 0002:0001824c       ??_C@_0L@GHOFBHJM@APPEND_EXP?$AA@ 100d024c     libeay32_EM_dbg.0.9.8e:asn1_err.obj
 0002:00018258       ??_C@_0BA@HHEJCDFM@a2i_ASN1_STRING?$AA@ 100d0258     libeay32_EM_dbg.0.9.8e:asn1_err.obj
 0002:00018268       ??_C@_0BB@KJNHBALB@a2i_ASN1_INTEGER?$AA@ 100d0268     libeay32_EM_dbg.0.9.8e:asn1_err.obj
 0002:0001827c       ??_C@_0BE@FAEKMPBO@a2i_ASN1_ENUMERATED?$AA@ 100d027c     libeay32_EM_dbg.0.9.8e:asn1_err.obj
 0002:00018290       ??_C@_0BA@MGDDPFAB@a2d_ASN1_OBJECT?$AA@ 100d0290     libeay32_EM_dbg.0.9.8e:asn1_err.obj
 0002:000182a0       ??_C@_0BC@LGGDOKM@wrong?5lookup?5type?$AA@ 100d02a0     libeay32_EM_dbg.0.9.8e:x509_err.obj
 0002:000182b4       ??_C@_0BG@BLGKMDGK@unsupported?5algorithm?$AA@ 100d02b4     libeay32_EM_dbg.0.9.8e:x509_err.obj
 0002:000182cc       ??_C@_0BB@MKMAIEDB@unknown?5trust?5id?$AA@ 100d02cc     libeay32_EM_dbg.0.9.8e:x509_err.obj
 0002:000182e0       ??_C@_0BD@OMLBEGJA@unknown?5purpose?5id?$AA@ 100d02e0     libeay32_EM_dbg.0.9.8e:x509_err.obj
 0002:000182f4       ??_C@_0BB@DOJEMIBI@unknown?5key?5type?$AA@ 100d02f4     libeay32_EM_dbg.0.9.8e:x509_err.obj
 0002:00018308       ??_C@_0BP@NPEJCEFK@unable?5to?5get?5certs?5public?5key?$AA@ 100d0308     libeay32_EM_dbg.0.9.8e:x509_err.obj
 0002:00018328       ??_C@_0CD@IFPIKENM@unable?5to?5find?5parameters?5in?5cha@ 100d0328     libeay32_EM_dbg.0.9.8e:x509_err.obj
 0002:0001834c       ??_C@_0N@HBABGHDD@should?5retry?$AA@ 100d034c     libeay32_EM_dbg.0.9.8e:x509_err.obj
 0002:0001835c       ??_C@_0BN@FFJPEMJE@no?5cert?5set?5for?5us?5to?5verify?$AA@ 100d035c     libeay32_EM_dbg.0.9.8e:x509_err.obj
 0002:0001837c       ??_C@_0BB@NCCHLMLI@loading?5defaults?$AA@ 100d037c     libeay32_EM_dbg.0.9.8e:x509_err.obj
 0002:00018390       ??_C@_0BB@EOGOJDLC@loading?5cert?5dir?$AA@ 100d0390     libeay32_EM_dbg.0.9.8e:x509_err.obj
 0002:000183a4       ??_C@_0BE@OFOHOJCA@key?5values?5mismatch?$AA@ 100d03a4     libeay32_EM_dbg.0.9.8e:x509_err.obj
 0002:000183b8       ??_C@_0BC@KHIFLHIK@key?5type?5mismatch?$AA@ 100d03b8     libeay32_EM_dbg.0.9.8e:x509_err.obj
 0002:000183cc       ??_C@_0O@FAFEMPKC@invalid?5trust?$AA@ 100d03cc     libeay32_EM_dbg.0.9.8e:x509_err.obj
 0002:000183dc       ??_C@_0BD@EICHIIFO@invalid?5field?5name?$AA@ 100d03dc     libeay32_EM_dbg.0.9.8e:x509_err.obj
 0002:000183f0       ??_C@_0BC@BHJBNJAG@invalid?5directory?$AA@ 100d03f0     libeay32_EM_dbg.0.9.8e:x509_err.obj
 0002:00018404       ??_C@_0N@BPKBFJKI@err?5asn1?5lib?$AA@ 100d0404     libeay32_EM_dbg.0.9.8e:x509_err.obj
 0002:00018414       ??_C@_0BL@PBNJDLDJ@cert?5already?5in?5hash?5table?$AA@ 100d0414     libeay32_EM_dbg.0.9.8e:x509_err.obj
 0002:00018430       ??_C@_0BC@JOEACAAF@cant?5check?5dh?5key?$AA@ 100d0430     libeay32_EM_dbg.0.9.8e:x509_err.obj
 0002:00018444       ??_C@_0BE@KBNKALIF@base64?5decode?5error?$AA@ 100d0444     libeay32_EM_dbg.0.9.8e:x509_err.obj
 0002:00018458       ??_C@_0BC@ICNCOGNN@bad?5x509?5filetype?$AA@ 100d0458     libeay32_EM_dbg.0.9.8e:x509_err.obj
 0002:0001846c       ??_C@_0BB@ECODCNHD@X509_verify_cert?$AA@ 100d046c     libeay32_EM_dbg.0.9.8e:x509_err.obj
 0002:00018480       ??_C@_0P@JBMPNPNG@X509_TRUST_set?$AA@ 100d0480     libeay32_EM_dbg.0.9.8e:x509_err.obj
 0002:00018490       ??_C@_0P@CANPDIKE@X509_TRUST_add?$AA@ 100d0490     libeay32_EM_dbg.0.9.8e:x509_err.obj
 0002:000184a0       ??_C@_0BB@NLPDCJDM@X509_to_X509_REQ?$AA@ 100d04a0     libeay32_EM_dbg.0.9.8e:x509_err.obj
 0002:000184b4       ??_C@_0BP@KJILIOLI@X509_STORE_CTX_purpose_inherit?$AA@ 100d04b4     libeay32_EM_dbg.0.9.8e:x509_err.obj
 0002:000184d4       ??_C@_0BD@NAAKLPIL@X509_STORE_CTX_new?$AA@ 100d04d4     libeay32_EM_dbg.0.9.8e:x509_err.obj
 0002:000184e8       ??_C@_0BE@ECHADJIO@X509_STORE_CTX_init?$AA@ 100d04e8     libeay32_EM_dbg.0.9.8e:x509_err.obj
 0002:000184fc       ??_C@_0BL@BBMOOAME@X509_STORE_CTX_get1_issuer?$AA@ 100d04fc     libeay32_EM_dbg.0.9.8e:x509_err.obj
 0002:00018518       ??_C@_0BD@PCLHBOJG@X509_STORE_add_crl?$AA@ 100d0518     libeay32_EM_dbg.0.9.8e:x509_err.obj
 0002:0001852c       ??_C@_0BE@IJLLNMMB@X509_STORE_add_cert?$AA@ 100d052c     libeay32_EM_dbg.0.9.8e:x509_err.obj
 0002:00018540       ??_C@_0BB@DHKMDCNJ@X509_REQ_to_X509?$AA@ 100d0540     libeay32_EM_dbg.0.9.8e:x509_err.obj
 0002:00018554       ??_C@_0BC@BCPDEBLL@X509_REQ_print_fp?$AA@ 100d0554     libeay32_EM_dbg.0.9.8e:x509_err.obj
 0002:00018568       ??_C@_0BC@NIGMHFOK@X509_REQ_print_ex?$AA@ 100d0568     libeay32_EM_dbg.0.9.8e:x509_err.obj
 0002:0001857c       ??_C@_0BL@BBAELMEH@X509_REQ_check_private_key?$AA@ 100d057c     libeay32_EM_dbg.0.9.8e:x509_err.obj
 0002:00018598       ??_C@_0BA@GKNPBOHH@X509_PUBKEY_set?$AA@ 100d0598     libeay32_EM_dbg.0.9.8e:x509_err.obj
 0002:000185a8       ??_C@_0BA@LFKENOLP@X509_PUBKEY_get?$AA@ 100d05a8     libeay32_EM_dbg.0.9.8e:x509_err.obj
 0002:000185b8       ??_C@_0BB@FBMLCAMI@X509_print_ex_fp?$AA@ 100d05b8     libeay32_EM_dbg.0.9.8e:x509_err.obj
 0002:000185cc       ??_C@_0BA@JLIECJBK@X509_NAME_print?$AA@ 100d05cc     libeay32_EM_dbg.0.9.8e:x509_err.obj
 0002:000185dc       ??_C@_0BC@CMIEJJP@X509_NAME_oneline?$AA@ 100d05dc     libeay32_EM_dbg.0.9.8e:x509_err.obj
 0002:000185f0       ??_C@_0BL@LBCOMPFN@X509_NAME_ENTRY_set_object?$AA@ 100d05f0     libeay32_EM_dbg.0.9.8e:x509_err.obj
 0002:0001860c       ??_C@_0BO@OEKCNPAD@X509_NAME_ENTRY_create_by_txt?$AA@ 100d060c     libeay32_EM_dbg.0.9.8e:x509_err.obj
 0002:0001862c       ??_C@_0BO@IBNLHOJC@X509_NAME_ENTRY_create_by_NID?$AA@ 100d062c     libeay32_EM_dbg.0.9.8e:x509_err.obj
 0002:0001864c       ??_C@_0BE@BBPAOGFF@X509_NAME_add_entry?$AA@ 100d064c     libeay32_EM_dbg.0.9.8e:x509_err.obj
 0002:00018660       ??_C@_0BD@INIDJHGH@X509_load_crl_file?$AA@ 100d0660     libeay32_EM_dbg.0.9.8e:x509_err.obj
 0002:00018674       ??_C@_0BE@DONBIDEA@X509_load_cert_file?$AA@ 100d0674     libeay32_EM_dbg.0.9.8e:x509_err.obj
 0002:00018688       ??_C@_0BI@OGJJMPCK@X509_load_cert_crl_file?$AA@ 100d0688     libeay32_EM_dbg.0.9.8e:x509_err.obj
 0002:000186a0       ??_C@_0BL@MNBNHJHC@X509_get_pubkey_parameters?$AA@ 100d06a0     libeay32_EM_dbg.0.9.8e:x509_err.obj
 0002:000186bc       ??_C@_0BN@PKALOJGD@X509_EXTENSION_create_by_OBJ?$AA@ 100d06bc     libeay32_EM_dbg.0.9.8e:x509_err.obj
 0002:000186dc       ??_C@_0BN@NAGBEMGJ@X509_EXTENSION_create_by_NID?$AA@ 100d06dc     libeay32_EM_dbg.0.9.8e:x509_err.obj
 0002:000186fc       ??_C@_0BC@GGIALDFL@X509_CRL_print_fp?$AA@ 100d06fc     libeay32_EM_dbg.0.9.8e:x509_err.obj
 0002:00018710       ??_C@_0BH@NDKJLKDD@X509_check_private_key?$AA@ 100d0710     libeay32_EM_dbg.0.9.8e:x509_err.obj
 0002:00018728       ??_C@_0BJ@IBAEDLOI@X509_ATTRIBUTE_set1_data?$AA@ 100d0728     libeay32_EM_dbg.0.9.8e:x509_err.obj
 0002:00018744       ??_C@_0BJ@JDGBBMO@X509_ATTRIBUTE_get0_data?$AA@ 100d0744     libeay32_EM_dbg.0.9.8e:x509_err.obj
 0002:00018760       ??_C@_0BN@BBEGJLKP@X509_ATTRIBUTE_create_by_txt?$AA@ 100d0760     libeay32_EM_dbg.0.9.8e:x509_err.obj
 0002:00018780       ??_C@_0BN@FOFFJPDE@X509_ATTRIBUTE_create_by_OBJ?$AA@ 100d0780     libeay32_EM_dbg.0.9.8e:x509_err.obj
 0002:000187a0       ??_C@_0BN@HEDPDKDO@X509_ATTRIBUTE_create_by_NID?$AA@ 100d07a0     libeay32_EM_dbg.0.9.8e:x509_err.obj
 0002:000187c0       ??_C@_0P@KHNPGPEM@X509v3_add_ext?$AA@ 100d07c0     libeay32_EM_dbg.0.9.8e:x509_err.obj
 0002:000187d0       ??_C@_0BB@FBCHBIJK@X509at_add1_attr?$AA@ 100d07d0     libeay32_EM_dbg.0.9.8e:x509_err.obj
 0002:000187e4       ??_C@_0BJ@KPNMIPMN@NETSCAPE_SPKI_b64_encode?$AA@ 100d07e4     libeay32_EM_dbg.0.9.8e:x509_err.obj
 0002:00018800       ??_C@_0BJ@GDGMHELK@NETSCAPE_SPKI_b64_decode?$AA@ 100d0800     libeay32_EM_dbg.0.9.8e:x509_err.obj
 0002:0001881c       ??_C@_0BE@GHOMHOGE@GET_CERT_BY_SUBJECT?$AA@ 100d081c     libeay32_EM_dbg.0.9.8e:x509_err.obj
 0002:00018830       ??_C@_08INAAGCJL@DIR_CTRL?$AA@ 100d0830     libeay32_EM_dbg.0.9.8e:x509_err.obj
 0002:0001883c       ??_C@_0N@HLJBNGNN@CHECK_POLICY?$AA@ 100d083c     libeay32_EM_dbg.0.9.8e:x509_err.obj
 0002:0001884c       ??_C@_0N@HLEKGBLM@BY_FILE_CTRL?$AA@ 100d084c     libeay32_EM_dbg.0.9.8e:x509_err.obj
 0002:0001885c       ??_C@_0N@HBLPJFKJ@ADD_CERT_DIR?$AA@ 100d085c     libeay32_EM_dbg.0.9.8e:x509_err.obj
 0002:0001886c       ??_C@_0BC@MALNKACF@modulus?5too?5large?$AA@ 100d086c     libeay32_EM_dbg.0.9.8e:dsa_err.obj
 0002:00018880       ??_C@_0M@GGMKMBAH@bad?5q?5value?$AA@ 100d0880     libeay32_EM_dbg.0.9.8e:dsa_err.obj
 0002:0001888c       ??_C@_06JBNHANLM@SIG_CB?$AA@ 100d088c     libeay32_EM_dbg.0.9.8e:dsa_err.obj
 0002:00018894       ??_C@_0M@OMFGMGFG@i2d_DSA_SIG?$AA@ 100d0894     libeay32_EM_dbg.0.9.8e:dsa_err.obj
 0002:000188a0       ??_C@_0L@EFDPOKOI@DSA_verify?$AA@ 100d08a0     libeay32_EM_dbg.0.9.8e:dsa_err.obj
 0002:000188ac       ??_C@_0M@NNDPCMII@DSA_SIG_new?$AA@ 100d08ac     libeay32_EM_dbg.0.9.8e:dsa_err.obj
 0002:000188b8       ??_C@_0P@DKMFDODF@DSA_sign_setup?$AA@ 100d08b8     libeay32_EM_dbg.0.9.8e:dsa_err.obj
 0002:000188c8       ??_C@_08BADPDAIK@DSA_sign?$AA@ 100d08c8     libeay32_EM_dbg.0.9.8e:dsa_err.obj
 0002:000188d4       ??_C@_0N@FHNMHEON@DSA_print_fp?$AA@ 100d08d4     libeay32_EM_dbg.0.9.8e:dsa_err.obj
 0002:000188e4       ??_C@_09DHFFEKPC@DSA_print?$AA@ 100d08e4     libeay32_EM_dbg.0.9.8e:dsa_err.obj
 0002:000188f0       ??_C@_0P@DCBPLEPO@DSA_new_method?$AA@ 100d08f0     libeay32_EM_dbg.0.9.8e:dsa_err.obj
 0002:00018900       ??_C@_0O@PFFLHJPG@DSA_do_verify?$AA@ 100d0900     libeay32_EM_dbg.0.9.8e:dsa_err.obj
 0002:00018910       ??_C@_0M@BALNHNHG@DSA_do_sign?$AA@ 100d0910     libeay32_EM_dbg.0.9.8e:dsa_err.obj
 0002:0001891c       ??_C@_0BD@IOGFPALM@DSAparams_print_fp?$AA@ 100d091c     libeay32_EM_dbg.0.9.8e:dsa_err.obj
 0002:00018930       ??_C@_0BA@KGFLHLGF@DSAparams_print?$AA@ 100d0930     libeay32_EM_dbg.0.9.8e:dsa_err.obj
 0002:00018940       ??_C@_0M@IHAHEMAI@d2i_DSA_SIG?$AA@ 100d0940     libeay32_EM_dbg.0.9.8e:dsa_err.obj
 0002:0001894c       ??_C@_0BH@MFJKMGEH@unsupported?5encryption?$AA@ 100d094c     libeay32_EM_dbg.0.9.8e:pem_err.obj
 0002:00018964       ??_C@_0N@BPCBMEGI@short?5header?$AA@ 100d0964     libeay32_EM_dbg.0.9.8e:pem_err.obj
 0002:00018974       ??_C@_08HMALDALC@read?5key?$AA@ 100d0974     libeay32_EM_dbg.0.9.8e:pem_err.obj
 0002:00018980       ??_C@_0BC@BIPPFHLM@public?5key?5no?5rsa?$AA@ 100d0980     libeay32_EM_dbg.0.9.8e:pem_err.obj
 0002:00018994       ??_C@_0BK@CGJEFKNB@problems?5getting?5password?$AA@ 100d0994     libeay32_EM_dbg.0.9.8e:pem_err.obj
 0002:000189b0       ??_C@_0O@DKBLDABL@no?5start?5line?$AA@ 100d09b0     libeay32_EM_dbg.0.9.8e:pem_err.obj
 0002:000189c0       ??_C@_0O@CLGKLHJP@not?5proc?5type?$AA@ 100d09c0     libeay32_EM_dbg.0.9.8e:pem_err.obj
 0002:000189d0       ??_C@_0O@BJICLJJL@not?5encrypted?$AA@ 100d09d0     libeay32_EM_dbg.0.9.8e:pem_err.obj
 0002:000189e0       ??_C@_0N@KJIDIIOD@not?5dek?5info?$AA@ 100d09e0     libeay32_EM_dbg.0.9.8e:pem_err.obj
 0002:000189f0       ??_C@_0BN@CDIOJAJE@error?5converting?5private?5key?$AA@ 100d09f0     libeay32_EM_dbg.0.9.8e:pem_err.obj
 0002:00018a10       ??_C@_0N@CABOMBAE@bad?5iv?5chars?$AA@ 100d0a10     libeay32_EM_dbg.0.9.8e:pem_err.obj
 0002:00018a20       ??_C@_0N@GJGMFAMK@bad?5end?5line?$AA@ 100d0a20     libeay32_EM_dbg.0.9.8e:pem_err.obj
 0002:00018a30       ??_C@_0M@CCMJMLK@bad?5decrypt?$AA@ 100d0a30     libeay32_EM_dbg.0.9.8e:pem_err.obj
 0002:00018a3c       ??_C@_0BC@FIJDAKN@bad?5base64?5decode?$AA@ 100d0a3c     libeay32_EM_dbg.0.9.8e:pem_err.obj
 0002:00018a50       ??_C@_0BI@DHEEHMMN@PEM_X509_INFO_write_bio?$AA@ 100d0a50     libeay32_EM_dbg.0.9.8e:pem_err.obj
 0002:00018a68       ??_C@_0BH@POEFLIJP@PEM_X509_INFO_read_bio?$AA@ 100d0a68     libeay32_EM_dbg.0.9.8e:pem_err.obj
 0002:00018a80       ??_C@_0BD@DEKDGILE@PEM_X509_INFO_read?$AA@ 100d0a80     libeay32_EM_dbg.0.9.8e:pem_err.obj
 0002:00018a94       ??_C@_0O@CHBCLEEH@PEM_write_bio?$AA@ 100d0a94     libeay32_EM_dbg.0.9.8e:pem_err.obj
 0002:00018aa4       ??_C@_09MOAIHANK@PEM_write?$AA@ 100d0aa4     libeay32_EM_dbg.0.9.8e:pem_err.obj
 0002:00018ab0       ??_C@_0O@FJKEJNIO@PEM_SignFinal?$AA@ 100d0ab0     libeay32_EM_dbg.0.9.8e:pem_err.obj
 0002:00018ac0       ??_C@_0N@HGOGKII@PEM_SealInit?$AA@ 100d0ac0     libeay32_EM_dbg.0.9.8e:pem_err.obj
 0002:00018ad0       ??_C@_0O@OOGAHGDE@PEM_SealFinal?$AA@ 100d0ad0     libeay32_EM_dbg.0.9.8e:pem_err.obj
 0002:00018ae0       ??_C@_0BE@FKKHCPGB@PEM_READ_PRIVATEKEY?$AA@ 100d0ae0     libeay32_EM_dbg.0.9.8e:pem_err.obj
 0002:00018af4       ??_C@_0BI@MIECOFDA@PEM_READ_BIO_PRIVATEKEY?$AA@ 100d0af4     libeay32_EM_dbg.0.9.8e:pem_err.obj
 0002:00018b0c       ??_C@_0N@HCPHGIAF@PEM_read_bio?$AA@ 100d0b0c     libeay32_EM_dbg.0.9.8e:pem_err.obj
 0002:00018b1c       ??_C@_08BFLDHDBP@PEM_read?$AA@ 100d0b1c     libeay32_EM_dbg.0.9.8e:pem_err.obj
 0002:00018b28       ??_C@_0M@ELMMDKMC@PEM_PK8PKEY?$AA@ 100d0b28     libeay32_EM_dbg.0.9.8e:pem_err.obj
 0002:00018b34       ??_C@_0BI@EHMJGDHN@PEM_get_EVP_CIPHER_INFO?$AA@ 100d0b34     libeay32_EM_dbg.0.9.8e:pem_err.obj
 0002:00018b4c       ??_C@_0CA@LGAAOEPD@PEM_F_PEM_WRITE_PKCS8PRIVATEKEY?$AA@ 100d0b4c     libeay32_EM_dbg.0.9.8e:pem_err.obj
 0002:00018b6c       ??_C@_0O@JINEELIJ@PEM_do_header?$AA@ 100d0b6c     libeay32_EM_dbg.0.9.8e:pem_err.obj
 0002:00018b7c       ??_C@_0BB@HPAACPJ@PEM_def_callback?$AA@ 100d0b7c     libeay32_EM_dbg.0.9.8e:pem_err.obj
 0002:00018b90       ??_C@_0BD@OMDPFNGK@PEM_ASN1_write_bio?$AA@ 100d0b90     libeay32_EM_dbg.0.9.8e:pem_err.obj
 0002:00018ba4       ??_C@_0P@IAMHDFGD@PEM_ASN1_write?$AA@ 100d0ba4     libeay32_EM_dbg.0.9.8e:pem_err.obj
 0002:00018bb4       ??_C@_0BC@DOKNMJLF@PEM_ASN1_read_bio?$AA@ 100d0bb4     libeay32_EM_dbg.0.9.8e:pem_err.obj
 0002:00018bc8       ??_C@_0O@NOHFJOPN@PEM_ASN1_read?$AA@ 100d0bc8     libeay32_EM_dbg.0.9.8e:pem_err.obj
 0002:00018bd8       ??_C@_07DPBPIGIN@LOAD_IV?$AA@ 100d0bd8     libeay32_EM_dbg.0.9.8e:pem_err.obj
 0002:00018be0       ??_C@_0O@NDAGLHK@DO_PK8PKEY_FP?$AA@ 100d0be0     libeay32_EM_dbg.0.9.8e:pem_err.obj
 0002:00018bf0       ??_C@_0L@KCJOBILA@DO_PK8PKEY?$AA@ 100d0bf0     libeay32_EM_dbg.0.9.8e:pem_err.obj
 0002:00018bfc       ??_C@_0BH@EPJFGPLK@d2i_PKCS8PrivateKey_fp?$AA@ 100d0bfc     libeay32_EM_dbg.0.9.8e:pem_err.obj
 0002:00018c14       ??_C@_0BI@FFALLHDN@d2i_PKCS8PrivateKey_bio?$AA@ 100d0c14     libeay32_EM_dbg.0.9.8e:pem_err.obj
 0002:00018c2c       ??_C@_0L@ODBGAEPJ@OBJ_nid2sn?$AA@ 100d0c2c     libeay32_EM_dbg.0.9.8e:obj_err.obj
 0002:00018c38       ??_C@_0M@EIEFMONC@OBJ_nid2obj?$AA@ 100d0c38     libeay32_EM_dbg.0.9.8e:obj_err.obj
 0002:00018c44       ??_C@_0L@PEGMOALE@OBJ_nid2ln?$AA@ 100d0c44     libeay32_EM_dbg.0.9.8e:obj_err.obj
 0002:00018c50       ??_C@_0BD@EBGMNDBO@OBJ_NAME_new_index?$AA@ 100d0c50     libeay32_EM_dbg.0.9.8e:obj_err.obj
 0002:00018c64       ??_C@_07GEDFFGIO@OBJ_dup?$AA@ 100d0c64     libeay32_EM_dbg.0.9.8e:obj_err.obj
 0002:00018c6c       ??_C@_0L@OJLDNBND@OBJ_create?$AA@ 100d0c6c     libeay32_EM_dbg.0.9.8e:obj_err.obj
 0002:00018c78       ??_C@_0P@PNBAKKGP@OBJ_add_object?$AA@ 100d0c78     libeay32_EM_dbg.0.9.8e:obj_err.obj
 0002:00018c88       ??_C@_0M@PMIFCMGN@BUF_strndup?$AA@ 100d0c88     libeay32_EM_dbg.0.9.8e:buf_err.obj
 0002:00018c94       ??_C@_0L@GDIPLNAB@BUF_strdup?$AA@ 100d0c94     libeay32_EM_dbg.0.9.8e:buf_err.obj
 0002:00018ca0       ??_C@_0M@DHGBDCFJ@BUF_MEM_new?$AA@ 100d0ca0     libeay32_EM_dbg.0.9.8e:buf_err.obj
 0002:00018cac       ??_C@_0BD@IAEPNGDK@BUF_MEM_grow_clean?$AA@ 100d0cac     libeay32_EM_dbg.0.9.8e:buf_err.obj
 0002:00018cc0       ??_C@_0N@KABFJIMM@BUF_MEM_grow?$AA@ 100d0cc0     libeay32_EM_dbg.0.9.8e:buf_err.obj
 0002:00018cd0       ??_C@_0L@HOFEILPP@BUF_memdup?$AA@ 100d0cd0     libeay32_EM_dbg.0.9.8e:buf_err.obj
 0002:00018cdc       ??_C@_0BG@NPKECJFG@wrong?5public?5key?5type?$AA@ 100d0cdc     libeay32_EM_dbg.0.9.8e:evp_err.obj
 0002:00018cf4       ??_C@_0BJ@GMMEOCIA@wrong?5final?5block?5length?$AA@ 100d0cf4     libeay32_EM_dbg.0.9.8e:evp_err.obj
 0002:00018d10       ??_C@_0BG@HNPLFI@unsupported?5salt?5type?$AA@ 100d0d10     libeay32_EM_dbg.0.9.8e:evp_err.obj
 0002:00018d28       ??_C@_0CC@DLEFGHNG@unsupported?5private?5key?5algorith@ 100d0d28     libeay32_EM_dbg.0.9.8e:evp_err.obj
 0002:00018d4c       ??_C@_0BA@KAOPPHHA@unsupported?5prf?$AA@ 100d0d4c     libeay32_EM_dbg.0.9.8e:evp_err.obj
 0002:00018d5c       ??_C@_0BF@JJLLLINI@unsupported?5key?5size?$AA@ 100d0d5c     libeay32_EM_dbg.0.9.8e:evp_err.obj
 0002:00018d74       ??_C@_0CE@LAMCIFFJ@unsupported?5key?5derivation?5funct@ 100d0d74     libeay32_EM_dbg.0.9.8e:evp_err.obj
 0002:00018d98       ??_C@_0BG@HOCGGEGP@unsupported?5keylength?$AA@ 100d0d98     libeay32_EM_dbg.0.9.8e:evp_err.obj
 0002:00018db0       ??_C@_0BM@HIBGCGNH@unsuported?5number?5of?5rounds?$AA@ 100d0db0     libeay32_EM_dbg.0.9.8e:evp_err.obj
 0002:00018dcc       ??_C@_0BG@FAIBJLPO@unknown?5pbe?5algorithm?$AA@ 100d0dcc     libeay32_EM_dbg.0.9.8e:evp_err.obj
 0002:00018de4       ??_C@_0BD@MMPLJMCH@public?5key?5not?5rsa?$AA@ 100d0de4     libeay32_EM_dbg.0.9.8e:evp_err.obj
 0002:00018df8       ??_C@_0BK@DPIDMHCF@pkcs8?5unknown?5broken?5type?$AA@ 100d0df8     libeay32_EM_dbg.0.9.8e:evp_err.obj
 0002:00018e14       ??_C@_0BO@JCHGAODK@no?5verify?5function?5configured?$AA@ 100d0e14     libeay32_EM_dbg.0.9.8e:evp_err.obj
 0002:00018e34       ??_C@_0BM@MKFHONFA@no?5sign?5function?5configured?$AA@ 100d0e34     libeay32_EM_dbg.0.9.8e:evp_err.obj
 0002:00018e50       ??_C@_0BC@LCMEIJMC@no?5dsa?5parameters?$AA@ 100d0e50     libeay32_EM_dbg.0.9.8e:evp_err.obj
 0002:00018e64       ??_C@_0O@MFHBBAJO@no?5digest?5set?$AA@ 100d0e64     libeay32_EM_dbg.0.9.8e:evp_err.obj
 0002:00018e74       ??_C@_0O@GNLJHFJN@no?5cipher?5set?$AA@ 100d0e74     libeay32_EM_dbg.0.9.8e:evp_err.obj
 0002:00018e84       ??_C@_0P@OKANNIHB@keygen?5failure?$AA@ 100d0e84     libeay32_EM_dbg.0.9.8e:evp_err.obj
 0002:00018e94       ??_C@_0BD@ECABCPMG@invalid?5key?5length?$AA@ 100d0e94     libeay32_EM_dbg.0.9.8e:evp_err.obj
 0002:00018ea8       ??_C@_0BG@FEDNMCDD@input?5not?5initialized?$AA@ 100d0ea8     libeay32_EM_dbg.0.9.8e:evp_err.obj
 0002:00018ec0       ??_C@_0BF@BLPPFHJN@initialization?5error?$AA@ 100d0ec0     libeay32_EM_dbg.0.9.8e:evp_err.obj
 0002:00018ed8       ??_C@_0BD@CPNEAEMK@expecting?5a?5ec?5key?$AA@ 100d0ed8     libeay32_EM_dbg.0.9.8e:evp_err.obj
 0002:00018eec       ??_C@_0BG@HCFIIKBE@expecting?5a?5ecdsa?5key?$AA@ 100d0eec     libeay32_EM_dbg.0.9.8e:evp_err.obj
 0002:00018f04       ??_C@_0BE@DANDDMPD@expecting?5a?5dsa?5key?$AA@ 100d0f04     libeay32_EM_dbg.0.9.8e:evp_err.obj
 0002:00018f18       ??_C@_0BD@ODGEPPLN@expecting?5a?5dh?5key?$AA@ 100d0f18     libeay32_EM_dbg.0.9.8e:evp_err.obj
 0002:00018f2c       ??_C@_0BF@PLFLMHPC@expecting?5an?5rsa?5key?$AA@ 100d0f2c     libeay32_EM_dbg.0.9.8e:evp_err.obj
 0002:00018f44       ??_C@_0BJ@OKDOIMO@evp?5pbe?5cipherinit?5error?$AA@ 100d0f44     libeay32_EM_dbg.0.9.8e:evp_err.obj
 0002:00018f60       ??_C@_0BE@KPACBDBO@different?5key?5types?$AA@ 100d0f60     libeay32_EM_dbg.0.9.8e:evp_err.obj
 0002:00018f74       ??_C@_0CC@CACKLKH@data?5not?5multiple?5of?5block?5lengt@ 100d0f74     libeay32_EM_dbg.0.9.8e:evp_err.obj
 0002:00018f98       ??_C@_0BP@HNCHOJGH@ctrl?5operation?5not?5implemented?$AA@ 100d0f98     libeay32_EM_dbg.0.9.8e:evp_err.obj
 0002:00018fb8       ??_C@_0BF@HEOEPAFD@ctrl?5not?5implemented?$AA@ 100d0fb8     libeay32_EM_dbg.0.9.8e:evp_err.obj
 0002:00018fd0       ??_C@_0BH@NKJMBAMK@cipher?5parameter?5error?$AA@ 100d0fd0     libeay32_EM_dbg.0.9.8e:evp_err.obj
 0002:00018fe8       ??_C@_0BK@KFELEBBK@camellia?5key?5setup?5failed?$AA@ 100d0fe8     libeay32_EM_dbg.0.9.8e:evp_err.obj
 0002:00019004       ??_C@_0BA@MGOHMGOK@bn?5pubkey?5error?$AA@ 100d1004     libeay32_EM_dbg.0.9.8e:evp_err.obj
 0002:00019014       ??_C@_0BA@EKELKIMH@bn?5decode?5error?$AA@ 100d1014     libeay32_EM_dbg.0.9.8e:evp_err.obj
 0002:00019024       ??_C@_0P@IOHAFLFI@bad?5key?5length?$AA@ 100d1024     libeay32_EM_dbg.0.9.8e:evp_err.obj
 0002:00019034       ??_C@_0BB@PEINPMDG@bad?5block?5length?$AA@ 100d1034     libeay32_EM_dbg.0.9.8e:evp_err.obj
 0002:00019048       ??_C@_08MEGCJFEA@asn1?5lib?$AA@ 100d1048     libeay32_EM_dbg.0.9.8e:evp_err.obj
 0002:00019054       ??_C@_0BF@JJHFFCED@aes?5key?5setup?5failed?$AA@ 100d1054     libeay32_EM_dbg.0.9.8e:evp_err.obj
 0002:0001906c       ??_C@_08INALDHMD@RC5_CTRL?$AA@ 100d106c     libeay32_EM_dbg.0.9.8e:evp_err.obj
 0002:00019078       ??_C@_0BC@MNOALPJL@RC2_MAGIC_TO_METH?$AA@ 100d1078     libeay32_EM_dbg.0.9.8e:evp_err.obj
 0002:0001908c       ??_C@_0BB@PCHIINPO@PKCS8_set_broken?$AA@ 100d108c     libeay32_EM_dbg.0.9.8e:evp_err.obj
 0002:000190a0       ??_C@_0BG@DEAJDLGC@PKCS5_v2_PBE_keyivgen?$AA@ 100d10a0     libeay32_EM_dbg.0.9.8e:evp_err.obj
 0002:000190b8       ??_C@_0BD@BCPAFJOG@PKCS5_PBE_keyivgen?$AA@ 100d10b8     libeay32_EM_dbg.0.9.8e:evp_err.obj
 0002:000190cc       ??_C@_0BA@GLLLOEJG@EVP_VerifyFinal?$AA@ 100d10cc     libeay32_EM_dbg.0.9.8e:evp_err.obj
 0002:000190dc       ??_C@_0O@CAMPOJIJ@EVP_SignFinal?$AA@ 100d10dc     libeay32_EM_dbg.0.9.8e:evp_err.obj
 0002:000190ec       ??_C@_0N@KINHBLCG@EVP_RIJNDAEL?$AA@ 100d10ec     libeay32_EM_dbg.0.9.8e:evp_err.obj
 0002:000190fc       ??_C@_0N@MHABMGDE@EVP_PKEY_new?$AA@ 100d10fc     libeay32_EM_dbg.0.9.8e:evp_err.obj
 0002:0001910c       ??_C@_0BC@IMEMINHC@EVP_PKEY_get1_RSA?$AA@ 100d110c     libeay32_EM_dbg.0.9.8e:evp_err.obj
 0002:00019120       ??_C@_0BF@IJHAKIDN@EVP_PKEY_get1_EC_KEY?$AA@ 100d1120     libeay32_EM_dbg.0.9.8e:evp_err.obj
 0002:00019138       ??_C@_0BE@LEFNNDP@EVP_PKEY_GET1_ECDSA?$AA@ 100d1138     libeay32_EM_dbg.0.9.8e:evp_err.obj
 0002:0001914c       ??_C@_0BC@PJDOIFDB@EVP_PKEY_get1_DSA?$AA@ 100d114c     libeay32_EM_dbg.0.9.8e:evp_err.obj
 0002:00019160       ??_C@_0BB@CPLHOEAA@EVP_PKEY_get1_DH?$AA@ 100d1160     libeay32_EM_dbg.0.9.8e:evp_err.obj
 0002:00019174       ??_C@_0BB@LLNNGDGM@EVP_PKEY_encrypt?$AA@ 100d1174     libeay32_EM_dbg.0.9.8e:evp_err.obj
 0002:00019188       ??_C@_0BB@HFHADHAI@EVP_PKEY_decrypt?$AA@ 100d1188     libeay32_EM_dbg.0.9.8e:evp_err.obj
 0002:0001919c       ??_C@_0BJ@PGNHNKFL@EVP_PKEY_copy_parameters?$AA@ 100d119c     libeay32_EM_dbg.0.9.8e:evp_err.obj
 0002:000191b8       ??_C@_0BG@JJKNEENC@EVP_PKEY2PKCS8_broken?$AA@ 100d11b8     libeay32_EM_dbg.0.9.8e:evp_err.obj
 0002:000191d0       ??_C@_0P@NALOFFAP@EVP_PKCS82PKEY?$AA@ 100d11d0     libeay32_EM_dbg.0.9.8e:evp_err.obj
 0002:000191e0       ??_C@_0BD@IMFOLFNB@EVP_PBE_CipherInit?$AA@ 100d11e0     libeay32_EM_dbg.0.9.8e:evp_err.obj
 0002:000191f4       ??_C@_0BA@LHOGICEL@EVP_PBE_alg_add?$AA@ 100d11f4     libeay32_EM_dbg.0.9.8e:evp_err.obj
 0002:00019204       ??_C@_0N@HHIKMCLD@EVP_OpenInit?$AA@ 100d1204     libeay32_EM_dbg.0.9.8e:evp_err.obj
 0002:00019214       ??_C@_0BD@OOMFHFKA@EVP_MD_CTX_copy_ex?$AA@ 100d1214     libeay32_EM_dbg.0.9.8e:evp_err.obj
 0002:00019228       ??_C@_0BE@EADDKHIK@EVP_EncryptFinal_ex?$AA@ 100d1228     libeay32_EM_dbg.0.9.8e:evp_err.obj
 0002:0001923c       ??_C@_0BC@NBJFCNLO@EVP_DigestInit_ex?$AA@ 100d123c     libeay32_EM_dbg.0.9.8e:evp_err.obj
 0002:00019250       ??_C@_0BE@DAKPJAOF@EVP_DecryptFinal_ex?$AA@ 100d1250     libeay32_EM_dbg.0.9.8e:evp_err.obj
 0002:00019264       ??_C@_0BO@LEIONLOF@EVP_CIPHER_CTX_set_key_length?$AA@ 100d1264     libeay32_EM_dbg.0.9.8e:evp_err.obj
 0002:00019284       ??_C@_0BE@PBKBIICA@EVP_CIPHER_CTX_ctrl?$AA@ 100d1284     libeay32_EM_dbg.0.9.8e:evp_err.obj
 0002:00019298       ??_C@_0BC@FOOGEGCP@EVP_CipherInit_ex?$AA@ 100d1298     libeay32_EM_dbg.0.9.8e:evp_err.obj
 0002:000192ac       ??_C@_0BB@KFLGPIAK@ECKEY_PKEY2PKCS8?$AA@ 100d12ac     libeay32_EM_dbg.0.9.8e:evp_err.obj
 0002:000192c0       ??_C@_0BB@IBEKDJPK@ECDSA_PKEY2PKCS8?$AA@ 100d12c0     libeay32_EM_dbg.0.9.8e:evp_err.obj
 0002:000192d4       ??_C@_0P@DBCIAANA@DSA_PKEY2PKCS8?$AA@ 100d12d4     libeay32_EM_dbg.0.9.8e:evp_err.obj
 0002:000192e4       ??_C@_0O@EFMKNPDB@DSAPKEY2PKCS8?$AA@ 100d12e4     libeay32_EM_dbg.0.9.8e:evp_err.obj
 0002:000192f4       ??_C@_08BIAFNOBD@D2I_PKEY?$AA@ 100d12f4     libeay32_EM_dbg.0.9.8e:evp_err.obj
 0002:00019300       ??_C@_0BC@JBPLKLIN@CAMELLIA_INIT_KEY?$AA@ 100d1300     libeay32_EM_dbg.0.9.8e:evp_err.obj
 0002:00019314       ??_C@_0N@HCMHGGIL@AES_INIT_KEY?$AA@ 100d1314     libeay32_EM_dbg.0.9.8e:evp_err.obj
 0002:00019324       ??_C@_0BD@NPJGJJNC@invalid?5public?5key?$AA@ 100d1324     libeay32_EM_dbg.0.9.8e:dh_err.obj
 0002:00019338       ??_C@_0O@FMBNEOHL@bad?5generator?$AA@ 100d1338     libeay32_EM_dbg.0.9.8e:dh_err.obj
 0002:00019348       ??_C@_0BE@OEKEKGDH@GENERATE_PARAMETERS?$AA@ 100d1348     libeay32_EM_dbg.0.9.8e:dh_err.obj
 0002:0001935c       ??_C@_0N@LOPKMDIL@GENERATE_KEY?$AA@ 100d135c     libeay32_EM_dbg.0.9.8e:dh_err.obj
 0002:0001936c       ??_C@_0O@PABKEMIE@DH_new_method?$AA@ 100d136c     libeay32_EM_dbg.0.9.8e:dh_err.obj
 0002:0001937c       ??_C@_0BF@BNFPPOCD@DH_BUILTIN_GENPARAMS?$AA@ 100d137c     libeay32_EM_dbg.0.9.8e:dh_err.obj
 0002:00019394       ??_C@_0BC@DJCNMFPF@DHparams_print_fp?$AA@ 100d1394     libeay32_EM_dbg.0.9.8e:dh_err.obj
 0002:000193a8       ??_C@_0P@BGEJOGLP@DHparams_print?$AA@ 100d13a8     libeay32_EM_dbg.0.9.8e:dh_err.obj
 0002:000193b8       ??_C@_0M@OBMGPJBG@COMPUTE_KEY?$AA@ 100d13b8     libeay32_EM_dbg.0.9.8e:dh_err.obj
 0002:000193c4       ??_C@_0BH@BMPGLKME@wrong?5signature?5length?$AA@ 100d13c4     libeay32_EM_dbg.0.9.8e:rsa_err.obj
 0002:000193dc       ??_C@_0BF@PMKFBMAN@unknown?5padding?5type?$AA@ 100d13dc     libeay32_EM_dbg.0.9.8e:rsa_err.obj
 0002:000193f4       ??_C@_0BH@FNFJOEPG@unknown?5algorithm?5type?$AA@ 100d13f4     libeay32_EM_dbg.0.9.8e:rsa_err.obj
 0002:0001940c       ??_C@_0BG@LCCLIBDD@sslv3?5rollback?5attack?$AA@ 100d140c     libeay32_EM_dbg.0.9.8e:rsa_err.obj
 0002:00019424       ??_C@_0BM@NMIBMGCO@salt?5length?5recovery?5failed?$AA@ 100d1424     libeay32_EM_dbg.0.9.8e:rsa_err.obj
 0002:00019440       ??_C@_0BJ@GBKHEAEB@salt?5length?5check?5failed?$AA@ 100d1440     libeay32_EM_dbg.0.9.8e:rsa_err.obj
 0002:0001945c       ??_C@_0BN@NCCKMPPH@rsa?5operations?5not?5supported?$AA@ 100d145c     libeay32_EM_dbg.0.9.8e:rsa_err.obj
 0002:0001947c       ??_C@_0M@IAJBGGOK@q?5not?5prime?$AA@ 100d147c     libeay32_EM_dbg.0.9.8e:rsa_err.obj
 0002:00019488       ??_C@_0M@BLDECKIF@p?5not?5prime?$AA@ 100d1488     libeay32_EM_dbg.0.9.8e:rsa_err.obj
 0002:00019494       ??_C@_0BF@INPMJCDD@padding?5check?5failed?$AA@ 100d1494     libeay32_EM_dbg.0.9.8e:rsa_err.obj
 0002:000194ac       ??_C@_0BE@EOPELEIO@oaep?5decoding?5error?$AA@ 100d14ac     libeay32_EM_dbg.0.9.8e:rsa_err.obj
 0002:000194c0       ??_C@_0BF@HDECBJIA@n?5does?5not?5equal?5p?5q?$AA@ 100d14c0     libeay32_EM_dbg.0.9.8e:rsa_err.obj
 0002:000194d8       ??_C@_0BK@GGMKFEM@null?5before?5block?5missing?$AA@ 100d14d8     libeay32_EM_dbg.0.9.8e:rsa_err.obj
 0002:000194f4       ??_C@_0BD@JKKNAJDI@no?5public?5exponent?$AA@ 100d14f4     libeay32_EM_dbg.0.9.8e:rsa_err.obj
 0002:00019508       ??_C@_0BD@FKBIBGMM@last?5octet?5invalid?$AA@ 100d1508     libeay32_EM_dbg.0.9.8e:rsa_err.obj
 0002:0001951c       ??_C@_0BD@CLOJELDD@key?5size?5too?5small?$AA@ 100d151c     libeay32_EM_dbg.0.9.8e:rsa_err.obj
 0002:00019530       ??_C@_0BG@DEDKEMGA@iqmp?5not?5inverse?5of?5q?$AA@ 100d1530     libeay32_EM_dbg.0.9.8e:rsa_err.obj
 0002:00019548       ??_C@_0BA@ODEFPDHP@invalid?5trailer?$AA@ 100d1548     libeay32_EM_dbg.0.9.8e:rsa_err.obj
 0002:00019558       ??_C@_0BA@JFFKNHBD@invalid?5padding?$AA@ 100d1558     libeay32_EM_dbg.0.9.8e:rsa_err.obj
 0002:00019568       ??_C@_0BH@EKFCLFAD@invalid?5message?5length?$AA@ 100d1568     libeay32_EM_dbg.0.9.8e:rsa_err.obj
 0002:00019580       ??_C@_0P@NOGGNOMF@invalid?5header?$AA@ 100d1580     libeay32_EM_dbg.0.9.8e:rsa_err.obj
 0002:00019590       ??_C@_0BE@NOENCFCG@first?5octet?5invalid?$AA@ 100d1590     libeay32_EM_dbg.0.9.8e:rsa_err.obj
 0002:000195a4       ??_C@_0BH@NCGBLFLB@d?5e?5not?5congruent?5to?51?$AA@ 100d15a4     libeay32_EM_dbg.0.9.8e:rsa_err.obj
 0002:000195bc       ??_C@_0BI@DHGHJHEG@dmq1?5not?5congruent?5to?5d?$AA@ 100d15bc     libeay32_EM_dbg.0.9.8e:rsa_err.obj
 0002:000195d4       ??_C@_0BI@CAEPPDIG@dmp1?5not?5congruent?5to?5d?$AA@ 100d15d4     libeay32_EM_dbg.0.9.8e:rsa_err.obj
 0002:000195ec       ??_C@_0BL@JJIEEIJC@digest?5too?5big?5for?5rsa?5key?$AA@ 100d15ec     libeay32_EM_dbg.0.9.8e:rsa_err.obj
 0002:00019608       ??_C@_0BM@JHCGOKFN@data?5too?5small?5for?5key?5size?$AA@ 100d1608     libeay32_EM_dbg.0.9.8e:rsa_err.obj
 0002:00019624       ??_C@_0P@ODJPKBGD@data?5too?5small?$AA@ 100d1624     libeay32_EM_dbg.0.9.8e:rsa_err.obj
 0002:00019634       ??_C@_0BL@NKECKCIM@data?5too?5large?5for?5modulus?$AA@ 100d1634     libeay32_EM_dbg.0.9.8e:rsa_err.obj
 0002:00019650       ??_C@_0P@ELNEFAPF@data?5too?5large?$AA@ 100d1650     libeay32_EM_dbg.0.9.8e:rsa_err.obj
 0002:00019660       ??_C@_0BK@IFDNCIJ@data?5greater?5than?5mod?5len?$AA@ 100d1660     libeay32_EM_dbg.0.9.8e:rsa_err.obj
 0002:0001967c       ??_C@_0BF@CPFAMEOF@block?5type?5is?5not?502?$AA@ 100d167c     libeay32_EM_dbg.0.9.8e:rsa_err.obj
 0002:00019694       ??_C@_0BF@EHNJHCG@block?5type?5is?5not?501?$AA@ 100d1694     libeay32_EM_dbg.0.9.8e:rsa_err.obj
 0002:000196ac       ??_C@_0BD@NMJFBDLM@bad?5pad?5byte?5count?$AA@ 100d16ac     libeay32_EM_dbg.0.9.8e:rsa_err.obj
 0002:000196c0       ??_C@_0BJ@NJEIMCLK@bad?5fixed?5header?5decrypt?$AA@ 100d16c0     libeay32_EM_dbg.0.9.8e:rsa_err.obj
 0002:000196dc       ??_C@_0M@JODLPONG@bad?5e?5value?$AA@ 100d16dc     libeay32_EM_dbg.0.9.8e:rsa_err.obj
 0002:000196e8       ??_C@_0BD@CGPAGFLI@algorithm?5mismatch?$AA@ 100d16e8     libeay32_EM_dbg.0.9.8e:rsa_err.obj
 0002:000196fc       ??_C@_0BF@IGJEFDEP@RSA_verify_PKCS1_PSS?$AA@ 100d16fc     libeay32_EM_dbg.0.9.8e:rsa_err.obj
 0002:00019714       ??_C@_0BN@EFLGKFKB@RSA_verify_ASN1_OCTET_STRING?$AA@ 100d1714     libeay32_EM_dbg.0.9.8e:rsa_err.obj
 0002:00019734       ??_C@_0L@DHMOEGA@RSA_verify?$AA@ 100d1734     libeay32_EM_dbg.0.9.8e:rsa_err.obj
 0002:00019740       ??_C@_0BL@CNIEBPPN@RSA_sign_ASN1_OCTET_STRING?$AA@ 100d1740     libeay32_EM_dbg.0.9.8e:rsa_err.obj
 0002:0001975c       ??_C@_08MPOFALHB@RSA_sign?$AA@ 100d175c     libeay32_EM_dbg.0.9.8e:rsa_err.obj
 0002:00019768       ??_C@_0BD@BJFMCAGF@RSA_setup_blinding?$AA@ 100d1768     libeay32_EM_dbg.0.9.8e:rsa_err.obj
 0002:0001977c       ??_C@_0N@EDDOANOK@RSA_print_fp?$AA@ 100d177c     libeay32_EM_dbg.0.9.8e:rsa_err.obj
 0002:0001978c       ??_C@_09BNOFLLFN@RSA_print?$AA@ 100d178c     libeay32_EM_dbg.0.9.8e:rsa_err.obj
 0002:00019798       ??_C@_0BH@HNEKADOE@RSA_padding_check_X931?$AA@ 100d1798     libeay32_EM_dbg.0.9.8e:rsa_err.obj
 0002:000197b0       ??_C@_0BJ@KGLGCBIK@RSA_padding_check_SSLv23?$AA@ 100d17b0     libeay32_EM_dbg.0.9.8e:rsa_err.obj
 0002:000197cc       ??_C@_0BP@NOENDBAC@RSA_padding_check_PKCS1_type_2?$AA@ 100d17cc     libeay32_EM_dbg.0.9.8e:rsa_err.obj
 0002:000197ec       ??_C@_0BP@PFGAGCMB@RSA_padding_check_PKCS1_type_1?$AA@ 100d17ec     libeay32_EM_dbg.0.9.8e:rsa_err.obj
 0002:0001980c       ??_C@_0BN@IOMKEGJG@RSA_padding_check_PKCS1_OAEP?$AA@ 100d180c     libeay32_EM_dbg.0.9.8e:rsa_err.obj
 0002:0001982c       ??_C@_0BH@HPODLAP@RSA_padding_check_none?$AA@ 100d182c     libeay32_EM_dbg.0.9.8e:rsa_err.obj
 0002:00019844       ??_C@_0BF@EIOFIDKM@RSA_padding_add_X931?$AA@ 100d1844     libeay32_EM_dbg.0.9.8e:rsa_err.obj
 0002:0001985c       ??_C@_0BH@HDKOFCAI@RSA_padding_add_SSLv23?$AA@ 100d185c     libeay32_EM_dbg.0.9.8e:rsa_err.obj
 0002:00019874       ??_C@_0BN@CNKIJGGF@RSA_padding_add_PKCS1_type_2?$AA@ 100d1874     libeay32_EM_dbg.0.9.8e:rsa_err.obj
 0002:00019894       ??_C@_0BN@GIFMFKG@RSA_padding_add_PKCS1_type_1?$AA@ 100d1894     libeay32_EM_dbg.0.9.8e:rsa_err.obj
 0002:000198b4       ??_C@_0BK@OBENMGDB@RSA_padding_add_PKCS1_PSS?$AA@ 100d18b4     libeay32_EM_dbg.0.9.8e:rsa_err.obj
 0002:000198d0       ??_C@_0BL@OLIPFACN@RSA_padding_add_PKCS1_OAEP?$AA@ 100d18d0     libeay32_EM_dbg.0.9.8e:rsa_err.obj
 0002:000198ec       ??_C@_0BF@DCFBLLEH@RSA_padding_add_none?$AA@ 100d18ec     libeay32_EM_dbg.0.9.8e:rsa_err.obj
 0002:00019904       ??_C@_0BI@OOBCANGE@RSA_NULL_PUBLIC_ENCRYPT?$AA@ 100d1904     libeay32_EM_dbg.0.9.8e:rsa_err.obj
 0002:0001991c       ??_C@_0BI@CALPFJAA@RSA_NULL_PUBLIC_DECRYPT?$AA@ 100d191c     libeay32_EM_dbg.0.9.8e:rsa_err.obj
 0002:00019934       ??_C@_0BJ@LPMCNPIA@RSA_NULL_PRIVATE_ENCRYPT?$AA@ 100d1934     libeay32_EM_dbg.0.9.8e:rsa_err.obj
 0002:00019950       ??_C@_0BJ@HBGPILOE@RSA_NULL_PRIVATE_DECRYPT?$AA@ 100d1950     libeay32_EM_dbg.0.9.8e:rsa_err.obj
 0002:0001996c       ??_C@_0BB@HDGNLFN@RSA_NULL_MOD_EXP?$AA@ 100d196c     libeay32_EM_dbg.0.9.8e:rsa_err.obj
 0002:00019980       ??_C@_08LPADNPHO@RSA_NULL?$AA@ 100d1980     libeay32_EM_dbg.0.9.8e:rsa_err.obj
 0002:0001998c       ??_C@_0P@FEIHPPED@RSA_new_method?$AA@ 100d198c     libeay32_EM_dbg.0.9.8e:rsa_err.obj
 0002:0001999c       ??_C@_0BA@JIOKLGDH@RSA_memory_lock?$AA@ 100d199c     libeay32_EM_dbg.0.9.8e:rsa_err.obj
 0002:000199ac       ??_C@_0BB@NJKHLGLL@RSA_generate_key?$AA@ 100d19ac     libeay32_EM_dbg.0.9.8e:rsa_err.obj
 0002:000199c0       ??_C@_0BH@LNLHMMLN@RSA_EAY_PUBLIC_ENCRYPT?$AA@ 100d19c0     libeay32_EM_dbg.0.9.8e:rsa_err.obj
 0002:000199d8       ??_C@_0BH@HDBKJINJ@RSA_EAY_PUBLIC_DECRYPT?$AA@ 100d19d8     libeay32_EM_dbg.0.9.8e:rsa_err.obj
 0002:000199f0       ??_C@_0BI@EAJOBADB@RSA_EAY_PRIVATE_ENCRYPT?$AA@ 100d19f0     libeay32_EM_dbg.0.9.8e:rsa_err.obj
 0002:00019a08       ??_C@_0BI@IODDEEFF@RSA_EAY_PRIVATE_DECRYPT?$AA@ 100d1a08     libeay32_EM_dbg.0.9.8e:rsa_err.obj
 0002:00019a20       ??_C@_0O@GHGJHIFH@RSA_check_key?$AA@ 100d1a20     libeay32_EM_dbg.0.9.8e:rsa_err.obj
 0002:00019a30       ??_C@_0BD@CBDKPIGP@RSA_BUILTIN_KEYGEN?$AA@ 100d1a30     libeay32_EM_dbg.0.9.8e:rsa_err.obj
 0002:00019a44       ??_C@_0M@IECFMAGM@MEMORY_LOCK?$AA@ 100d1a44     libeay32_EM_dbg.0.9.8e:rsa_err.obj
 0002:00019a50       ??_C@_0BN@FMADIABH@too?5many?5temporary?5variables?$AA@ 100d1a50     libeay32_EM_dbg.0.9.8e:bn_err.obj
 0002:00019a70       ??_C@_0BE@OPCNEJGC@too?5many?5iterations?$AA@ 100d1a70     libeay32_EM_dbg.0.9.8e:bn_err.obj
 0002:00019a84       ??_C@_0P@ICPCEPDP@p?5is?5not?5prime?$AA@ 100d1a84     libeay32_EM_dbg.0.9.8e:bn_err.obj
 0002:00019a94       ??_C@_0M@OMKNCEPO@no?5solution?$AA@ 100d1a94     libeay32_EM_dbg.0.9.8e:bn_err.obj
 0002:00019aa0       ??_C@_0L@CDEIJFEG@no?5inverse?$AA@ 100d1aa0     libeay32_EM_dbg.0.9.8e:bn_err.obj
 0002:00019aac       ??_C@_0N@NDJIBCN@not?5a?5square?$AA@ 100d1aac     libeay32_EM_dbg.0.9.8e:bn_err.obj
 0002:00019abc       ??_C@_0O@GOKDDJMP@invalid?5range?$AA@ 100d1abc     libeay32_EM_dbg.0.9.8e:bn_err.obj
 0002:00019acc       ??_C@_0P@BHAFPBHF@invalid?5length?$AA@ 100d1acc     libeay32_EM_dbg.0.9.8e:bn_err.obj
 0002:00019adc       ??_C@_0BC@JDEDLNHC@input?5not?5reduced?$AA@ 100d1adc     libeay32_EM_dbg.0.9.8e:bn_err.obj
 0002:00019af0       ??_C@_0BN@BKAHLPJH@expand?5on?5static?5bignum?5data?$AA@ 100d1af0     libeay32_EM_dbg.0.9.8e:bn_err.obj
 0002:00019b10       ??_C@_0P@PPHOEKAA@encoding?5error?$AA@ 100d1b10     libeay32_EM_dbg.0.9.8e:bn_err.obj
 0002:00019b20       ??_C@_0M@BLFJLCCH@div?5by?5zero?$AA@ 100d1b20     libeay32_EM_dbg.0.9.8e:bn_err.obj
 0002:00019b2c       ??_C@_0BJ@OJGGDJF@called?5with?5even?5modulus?$AA@ 100d1b2c     libeay32_EM_dbg.0.9.8e:bn_err.obj
 0002:00019b48       ??_C@_0BA@GFLMOMGJ@bignum?5too?5long?$AA@ 100d1b48     libeay32_EM_dbg.0.9.8e:bn_err.obj
 0002:00019b58       ??_C@_0P@CGNJGONO@bad?5reciprocal?$AA@ 100d1b58     libeay32_EM_dbg.0.9.8e:bn_err.obj
 0002:00019b68       ??_C@_0N@DINPDMFF@arg2?5lt?5arg3?$AA@ 100d1b68     libeay32_EM_dbg.0.9.8e:bn_err.obj
 0002:00019b78       ??_C@_07FFMAJCFD@BN_usub?$AA@ 100d1b78     libeay32_EM_dbg.0.9.8e:bn_err.obj
 0002:00019b80       ??_C@_0O@GGLCDEBH@BN_rand_range?$AA@ 100d1b80     libeay32_EM_dbg.0.9.8e:bn_err.obj
 0002:00019b90       ??_C@_07FLNJDKEA@BN_rand?$AA@ 100d1b90     libeay32_EM_dbg.0.9.8e:bn_err.obj
 0002:00019b98       ??_C@_06MLINBBBN@BN_new?$AA@ 100d1b98     libeay32_EM_dbg.0.9.8e:bn_err.obj
 0002:00019ba0       ??_C@_09IDACCFHO@BN_mpi2bn?$AA@ 100d1ba0     libeay32_EM_dbg.0.9.8e:bn_err.obj
 0002:00019bac       ??_C@_0M@MDECKEMJ@BN_mod_sqrt?$AA@ 100d1bac     libeay32_EM_dbg.0.9.8e:bn_err.obj
 0002:00019bb8       ??_C@_0BG@BPLEAIGL@BN_mod_mul_reciprocal?$AA@ 100d1bb8     libeay32_EM_dbg.0.9.8e:bn_err.obj
 0002:00019bd0       ??_C@_0BE@HCGJNJDH@BN_mod_lshift_quick?$AA@ 100d1bd0     libeay32_EM_dbg.0.9.8e:bn_err.obj
 0002:00019be4       ??_C@_0P@PJDAOIEB@BN_mod_inverse?$AA@ 100d1be4     libeay32_EM_dbg.0.9.8e:bn_err.obj
 0002:00019bf4       ??_C@_0BC@IAKJJHKD@BN_mod_exp_simple?$AA@ 100d1bf4     libeay32_EM_dbg.0.9.8e:bn_err.obj
 0002:00019c08       ??_C@_0BA@MFDDJGKA@BN_mod_exp_recp?$AA@ 100d1c08     libeay32_EM_dbg.0.9.8e:bn_err.obj
 0002:00019c18       ??_C@_0BF@NHOGELCA@BN_mod_exp_mont_word?$AA@ 100d1c18     libeay32_EM_dbg.0.9.8e:bn_err.obj
 0002:00019c30       ??_C@_0BK@MLKANOIE@BN_mod_exp_mont_consttime?$AA@ 100d1c30     libeay32_EM_dbg.0.9.8e:bn_err.obj
 0002:00019c4c       ??_C@_0BA@CEIKCAMA@BN_mod_exp_mont?$AA@ 100d1c4c     libeay32_EM_dbg.0.9.8e:bn_err.obj
 0002:00019c5c       ??_C@_0BB@KAANGNEC@BN_mod_exp2_mont?$AA@ 100d1c5c     libeay32_EM_dbg.0.9.8e:bn_err.obj
 0002:00019c70       ??_C@_0BB@COMHDKLD@BN_GF2m_mod_sqrt?$AA@ 100d1c70     libeay32_EM_dbg.0.9.8e:bn_err.obj
 0002:00019c84       ??_C@_0BA@CEFPIHFI@BN_GF2m_mod_sqr?$AA@ 100d1c84     libeay32_EM_dbg.0.9.8e:bn_err.obj
 0002:00019c94       ??_C@_0BL@JJDJOBHG@BN_GF2m_mod_solve_quad_arr?$AA@ 100d1c94     libeay32_EM_dbg.0.9.8e:bn_err.obj
 0002:00019cb0       ??_C@_0BH@EFEHBMGJ@BN_GF2m_mod_solve_quad?$AA@ 100d1cb0     libeay32_EM_dbg.0.9.8e:bn_err.obj
 0002:00019cc8       ??_C@_0BA@EHNBDAPH@BN_GF2m_mod_mul?$AA@ 100d1cc8     libeay32_EM_dbg.0.9.8e:bn_err.obj
 0002:00019cd8       ??_C@_0BA@GMMKNGBG@BN_GF2m_mod_exp?$AA@ 100d1cd8     libeay32_EM_dbg.0.9.8e:bn_err.obj
 0002:00019ce8       ??_C@_0M@HLNBKHPC@BN_GF2m_mod?$AA@ 100d1ce8     libeay32_EM_dbg.0.9.8e:bn_err.obj
 0002:00019cf4       ??_C@_0BD@EECAEFPD@BN_EXPAND_INTERNAL?$AA@ 100d1cf4     libeay32_EM_dbg.0.9.8e:bn_err.obj
 0002:00019d08       ??_C@_0L@GPKOAPJM@bn_expand2?$AA@ 100d1d08     libeay32_EM_dbg.0.9.8e:bn_err.obj
 0002:00019d14       ??_C@_06EHDDDAPI@BN_exp?$AA@ 100d1d14     libeay32_EM_dbg.0.9.8e:bn_err.obj
 0002:00019d1c       ??_C@_0M@MCFMHDMJ@BN_div_recp?$AA@ 100d1d1c     libeay32_EM_dbg.0.9.8e:bn_err.obj
 0002:00019d28       ??_C@_06LEDBDJFM@BN_div?$AA@ 100d1d28     libeay32_EM_dbg.0.9.8e:bn_err.obj
 0002:00019d30       ??_C@_0N@IHLKEKP@BN_CTX_start?$AA@ 100d1d30     libeay32_EM_dbg.0.9.8e:bn_err.obj
 0002:00019d40       ??_C@_0L@OIEJOLGJ@BN_CTX_new?$AA@ 100d1d40     libeay32_EM_dbg.0.9.8e:bn_err.obj
 0002:00019d4c       ??_C@_0L@LOGMPHCA@BN_CTX_get?$AA@ 100d1d4c     libeay32_EM_dbg.0.9.8e:bn_err.obj
 0002:00019d58       ??_C@_09LODCIEDC@BN_bn2hex?$AA@ 100d1d58     libeay32_EM_dbg.0.9.8e:bn_err.obj
 0002:00019d64       ??_C@_09FNNCPABA@BN_bn2dec?$AA@ 100d1d64     libeay32_EM_dbg.0.9.8e:bn_err.obj
 0002:00019d70       ??_C@_0BD@IEOEBKMM@BN_BLINDING_update?$AA@ 100d1d70     libeay32_EM_dbg.0.9.8e:bn_err.obj
 0002:00019d84       ??_C@_0BA@NFFODEFF@BN_BLINDING_new?$AA@ 100d1d84     libeay32_EM_dbg.0.9.8e:bn_err.obj
 0002:00019d94       ??_C@_0BG@KNPDOBDE@BN_BLINDING_invert_ex?$AA@ 100d1d94     libeay32_EM_dbg.0.9.8e:bn_err.obj
 0002:00019dac       ??_C@_0BJ@OIJBBKAP@BN_BLINDING_create_param?$AA@ 100d1dac     libeay32_EM_dbg.0.9.8e:bn_err.obj
 0002:00019dc8       ??_C@_0BH@GHOHGGBP@BN_BLINDING_convert_ex?$AA@ 100d1dc8     libeay32_EM_dbg.0.9.8e:bn_err.obj
 0002:00019de0       ??_C@_06LDPKGPF@BNRAND?$AA@ 100d1de0     libeay32_EM_dbg.0.9.8e:bn_err.obj
 0002:00019de8       ??_C@_0BD@KJPFNPNE@?4?2crypto?2mem_dbg?4c?$AA@ 100d1de8     libeay32_EM_dbg.0.9.8e:mem_dbg.obj
 0002:00019dfc       _SHA_version               100d1dfc     libeay32_EM_dbg.0.9.8e:sha_dgst.obj
 0002:00019e28       _RC4_version               100d1e28     libeay32_EM_dbg.0.9.8e:rc4_skey.obj
 0002:00019e50       ??_C@_0BL@PDJKIALP@?4?2crypto?2objects?2o_names?4c?$AA@ 100d1e50     libeay32_EM_dbg.0.9.8e:o_names.obj
 0002:00019e6c       ??_C@_0BH@OMCHJHAP@?4?2crypto?2evp?2evp_pbe?4c?$AA@ 100d1e6c     libeay32_EM_dbg.0.9.8e:evp_pbe.obj
 0002:00019e88       _MD4_version               100d1e88     libeay32_EM_dbg.0.9.8e:md4_dgst.obj
 0002:00019eb0       ??_C@_0N@CAJJAOJD@OCSP?5request?$AA@ 100d1eb0     libeay32_EM_dbg.0.9.8e:x509_trs.obj
 0002:00019ec0       ??_C@_0P@JHCOMJOI@OCSP?5responder?$AA@ 100d1ec0     libeay32_EM_dbg.0.9.8e:x509_trs.obj
 0002:00019ed0       ??_C@_0O@EEPBMPKP@Object?5Signer?$AA@ 100d1ed0     libeay32_EM_dbg.0.9.8e:x509_trs.obj
 0002:00019ee0       ??_C@_0N@OEEPKGPL@S?1MIME?5email?$AA@ 100d1ee0     libeay32_EM_dbg.0.9.8e:x509_trs.obj
 0002:00019ef0       ??_C@_0L@JNOGJJCA@compatible?$AA@ 100d1ef0     libeay32_EM_dbg.0.9.8e:x509_trs.obj
 0002:00019efc       ??_C@_09DHMKJJNA@ASN1_TIME?$AA@ 100d1efc     libeay32_EM_dbg.0.9.8e:a_time.obj
 0002:00019f24       ??_C@_0BH@IBOPBBIO@?4?2crypto?2asn1?2a_time?4c?$AA@ 100d1f24     libeay32_EM_dbg.0.9.8e:a_time.obj
 0002:00019f3c       ??_C@_0BK@EMDNDBLP@?$CF04d?$CF02d?$CF02d?$CF02d?$CF02d?$CF02dZ?$AA@ 100d1f3c     libeay32_EM_dbg.0.9.8e:a_gentm.obj
 0002:00019f58       ??_C@_0BI@FLDCAADC@?4?2crypto?2asn1?2a_gentm?4c?$AA@ 100d1f58     libeay32_EM_dbg.0.9.8e:a_gentm.obj
 0002:00019f70       ??_C@_0BK@PMAAGDOP@?$CF02d?$CF02d?$CF02d?$CF02d?$CF02d?$CF02dZ?$AA@ 100d1f70     libeay32_EM_dbg.0.9.8e:a_utctm.obj
 0002:00019f8c       ??_C@_0BI@BIJLLCMA@?4?2crypto?2asn1?2a_utctm?4c?$AA@ 100d1f8c     libeay32_EM_dbg.0.9.8e:a_utctm.obj
 0002:00019fa4       ??_C@_0BL@HFHMLGNE@?4?2crypto?2x509v3?2pcy_tree?4c?$AA@ 100d1fa4     libeay32_EM_dbg.0.9.8e:pcy_tree.obj
 0002:00019fe8       ??_C@_0BF@KGHFPEKG@?4?2crypto?2ec?2ec_lib?4c?$AA@ 100d1fe8     libeay32_EM_dbg.0.9.8e:ec_lib.obj
 0002:0001a000       _ECDSA_version             100d2000     libeay32_EM_dbg.0.9.8e:ecs_lib.obj
 0002:0001a02c       ??_C@_0BJ@FFOJENDB@?4?2crypto?2ecdsa?2ecs_lib?4c?$AA@ 100d202c     libeay32_EM_dbg.0.9.8e:ecs_lib.obj
 0002:0001a048       _DH_version                100d2048     libeay32_EM_dbg.0.9.8e:dh_lib.obj
 0002:0001a07c       ??_C@_0BF@FEOADHJI@?4?2crypto?2dh?2dh_lib?4c?$AA@ 100d207c     libeay32_EM_dbg.0.9.8e:dh_lib.obj
 0002:0001a094       _RC5_version               100d2094     libeay32_EM_dbg.0.9.8e:rc5_ecb.obj
 0002:0001a0bc       ??_C@_0BH@GGOBJLLE@NETSCAPE_CERT_SEQUENCE?$AA@ 100d20bc     libeay32_EM_dbg.0.9.8e:nsseq.obj
 0002:0001a0d4       ??_C@_05HFDFJDL@certs?$AA@ 100d20d4     libeay32_EM_dbg.0.9.8e:nsseq.obj
 0002:0001a138       ??_C@_02EPINMGPM@DH?$AA@   100d2138     libeay32_EM_dbg.0.9.8e:dh_asn1.obj
 0002:0001a13c       ??_C@_06IJDLPEM@length?$AA@ 100d213c     libeay32_EM_dbg.0.9.8e:dh_asn1.obj
 0002:0001a1b4       ??_C@_0BJ@GCGGIIFI@?4?2crypto?2asn1?2tasn_utl?4c?$AA@ 100d21b4     libeay32_EM_dbg.0.9.8e:tasn_utl.obj
 0002:0001a1d0       ??_C@_0BJ@NBKGKDKG@?4?2crypto?2asn1?2a_bitstr?4c?$AA@ 100d21d0     libeay32_EM_dbg.0.9.8e:a_bitstr.obj
 0002:0001a1f0       _MD5_version               100d21f0     libeay32_EM_dbg.0.9.8e:md5_dgst.obj
 0002:0001a218       _BF_version                100d2218     libeay32_EM_dbg.0.9.8e:bf_ecb.obj
 0002:0001b290       _MD2_version               100d3290     libeay32_EM_dbg.0.9.8e:md2_dgst.obj
 0002:0001b2b8       ??_C@_0BA@CNEIDKOH@base64?5encoding?$AA@ 100d32b8     libeay32_EM_dbg.0.9.8e:bio_b64.obj
 0002:0001b2c8       ??_C@_0BH@CICFIAAN@?4?2crypto?2evp?2bio_b64?4c?$AA@ 100d32c8     libeay32_EM_dbg.0.9.8e:bio_b64.obj
 0002:0001b2e0       ??_C@_0CH@JADBFJCL@ctx?9?$DObuf_off?$CLi?5?$DM?5?$CIint?$CJsizeof?$CIctx@ 100d32e0     libeay32_EM_dbg.0.9.8e:bio_b64.obj
 0002:0001b308       ??_C@_0BF@IHGKFBOP@?4?2crypto?2bn?2bn_mod?4c?$AA@ 100d3308     libeay32_EM_dbg.0.9.8e:bn_mod.obj
 0002:0001b320       ??_C@_0BF@NFDFGKJD@?4?2crypto?2bn?2bn_div?4c?$AA@ 100d3320     libeay32_EM_dbg.0.9.8e:bn_div.obj
 0002:0001b33c       _RMD160_version            100d333c     libeay32_EM_dbg.0.9.8e:rmd_dgst.obj
 0002:0001b36c       ??_C@_0BI@IKGEHGEF@?4?2crypto?2rsa?2rsa_saos?4c?$AA@ 100d336c     libeay32_EM_dbg.0.9.8e:rsa_saos.obj
 0002:0001b384       ??_C@_0BG@HKLFKFMO@?4?2crypto?2bio?2b_sock?4c?$AA@ 100d3384     libeay32_EM_dbg.0.9.8e:b_sock.obj
 0002:0001b39c       ??_C@_09HNNFIOJN@service?$DN?8?$AA@ 100d339c     libeay32_EM_dbg.0.9.8e:b_sock.obj
 0002:0001b3a8       ??_C@_01GEODFPGF@?8?$AA@   100d33a8     libeay32_EM_dbg.0.9.8e:b_sock.obj
 0002:0001b3ac       ??_C@_06IBHFMCPJ@gopher?$AA@ 100d33ac     libeay32_EM_dbg.0.9.8e:b_sock.obj
 0002:0001b3b4       ??_C@_03LMDBDBEG@ftp?$AA@  100d33b4     libeay32_EM_dbg.0.9.8e:b_sock.obj
 0002:0001b3b8       ??_C@_05BCHGOAMK@https?$AA@ 100d33b8     libeay32_EM_dbg.0.9.8e:b_sock.obj
 0002:0001b3c0       ??_C@_05LBOKJHLG@socks?$AA@ 100d33c0     libeay32_EM_dbg.0.9.8e:b_sock.obj
 0002:0001b3c8       ??_C@_06KAPJOFBF@telnet?$AA@ 100d33c8     libeay32_EM_dbg.0.9.8e:b_sock.obj
 0002:0001b3d0       ??_C@_04IAFLKNP@http?$AA@  100d33d0     libeay32_EM_dbg.0.9.8e:b_sock.obj
 0002:0001b3d8       ??_C@_03FPEIBLKH@tcp?$AA@  100d33d8     libeay32_EM_dbg.0.9.8e:b_sock.obj
 0002:0001b3dc       ??_C@_06OGGAANOH@port?$DN?8?$AA@ 100d33dc     libeay32_EM_dbg.0.9.8e:b_sock.obj
 0002:0001b3e4       ??_C@_01NBENCBCI@?$CK?$AA@ 100d33e4     libeay32_EM_dbg.0.9.8e:b_sock.obj
 0002:0001b3e8       ??_C@_0P@OGJLBNEC@?$CFd?4?$CFd?4?$CFd?4?$CFd?3?$CFd?$AA@ 100d33e8     libeay32_EM_dbg.0.9.8e:b_sock.obj
 0002:0001b3f8       ??_C@_0BF@GGICFINI@?4?2crypto?2bn?2bn_exp?4c?$AA@ 100d33f8     libeay32_EM_dbg.0.9.8e:bn_exp.obj
 0002:0001b410       ??_C@_0BG@OIKAEECI@?4?2crypto?2bn?2bn_mont?4c?$AA@ 100d3410     libeay32_EM_dbg.0.9.8e:bn_mont.obj
 0002:0001b428       ??_C@_0BI@POHFMLMI@?4?2crypto?2rsa?2rsa_none?4c?$AA@ 100d3428     libeay32_EM_dbg.0.9.8e:rsa_none.obj
 0002:0001b440       ??_C@_0BH@PMCCHOFO@?4?2crypto?2rsa?2rsa_ssl?4c?$AA@ 100d3440     libeay32_EM_dbg.0.9.8e:rsa_ssl.obj
 0002:0001b458       ??_C@_0BI@HCBPDHLA@?4?2crypto?2rsa?2rsa_oaep?4c?$AA@ 100d3458     libeay32_EM_dbg.0.9.8e:rsa_oaep.obj
 0002:0001b470       ??_C@_0BH@BDEBAHMM@?4?2crypto?2rsa?2rsa_pk1?4c?$AA@ 100d3470     libeay32_EM_dbg.0.9.8e:rsa_pk1.obj
 0002:0001b488       ??_C@_0BI@KEEABKFJ@?4?2crypto?2rsa?2rsa_x931?4c?$AA@ 100d3488     libeay32_EM_dbg.0.9.8e:rsa_x931.obj
 0002:0001b4a0       ??_C@_0BK@FPJBMICP@?4?2crypto?2engine?2eng_lib?4c?$AA@ 100d34a0     libeay32_EM_dbg.0.9.8e:eng_lib.obj
 0002:0001b4bc       ??_C@_0BM@GAEJEOPM@?4?2crypto?2engine?2eng_table?4c?$AA@ 100d34bc     libeay32_EM_dbg.0.9.8e:eng_table.obj
 0002:0001b4d8       ??_C@_01FDFGLJHB@2?$AA@    100d34d8     libeay32_EM_dbg.0.9.8e:eng_list.obj
 0002:0001b4dc       ??_C@_0BG@BDCFJOOA@?4?2crypto?2bn?2bn_rand?4c?$AA@ 100d34dc     libeay32_EM_dbg.0.9.8e:bn_rand.obj
 0002:0001b4f4       ??_C@_0BJ@FELOIPJL@niv?5?$DM?$DN?5EVP_MAX_IV_LENGTH?$AA@ 100d34f4     libeay32_EM_dbg.0.9.8e:evp_key.obj
 0002:0001b510       ??_C@_0BH@CNNJFBGA@?4?2crypto?2evp?2evp_key?4c?$AA@ 100d3510     libeay32_EM_dbg.0.9.8e:evp_key.obj
 0002:0001b528       ??_C@_0BL@MDAAPAJN@nkey?5?$DM?$DN?5EVP_MAX_KEY_LENGTH?$AA@ 100d3528     libeay32_EM_dbg.0.9.8e:evp_key.obj
 0002:0001b544       ??_C@_0BG@FMGDOINB@?4?2crypto?2evp?2encode?4c?$AA@ 100d3544     libeay32_EM_dbg.0.9.8e:encode.obj
 0002:0001b55c       ??_C@_0CK@NJACHFBA@ctx?9?$DOlength?5?$DM?$DN?5?$CIint?$CJsizeof?$CIctx?9?$DO@ 100d355c     libeay32_EM_dbg.0.9.8e:encode.obj
 0002:0001b588       ??_C@_0BP@KGJPJK@n?5?$DM?5?$CIint?$CJsizeof?$CIctx?9?$DOenc_data?$CJ?$AA@ 100d3588     libeay32_EM_dbg.0.9.8e:encode.obj
 0002:0001b5a8       ??_C@_0BH@JMNFPMLJ@?4?2crypto?2asn1?2d2i_pu?4c?$AA@ 100d35a8     libeay32_EM_dbg.0.9.8e:d2i_pu.obj
 0002:0001b5c0       ??_C@_0HB@IIAMGFOE@?6?7IPSec?1IKE?1Oakley?5curve?5?$CD4?5over@ 100d35c0     libeay32_EM_dbg.0.9.8e:ec_curve.obj
 0002:0001b634       ??_C@_0CP@NHOLPDNA@FFFFFFFFFFFFFFFFFFFFFFEDF97C44DB@ 100d3634     libeay32_EM_dbg.0.9.8e:ec_curve.obj
 0002:0001b664       ??_C@_02CFEEGNNO@0d?$AA@   100d3664     libeay32_EM_dbg.0.9.8e:ec_curve.obj
 0002:0001b668       ??_C@_02DCIIBFLB@18?$AA@   100d3668     libeay32_EM_dbg.0.9.8e:ec_curve.obj
 0002:0001b66c       ??_C@_04OJPMBKJE@1ee9?$AA@ 100d366c     libeay32_EM_dbg.0.9.8e:ec_curve.obj
 0002:0001b674       ??_C@_0DB@BCOHJGIE@02000000000000000000000000000020@ 100d3674     libeay32_EM_dbg.0.9.8e:ec_curve.obj
 0002:0001b6a8       ??_C@_0HB@LGGCBEEP@?6?7IPSec?1IKE?1Oakley?5curve?5?$CD3?5over@ 100d36a8     libeay32_EM_dbg.0.9.8e:ec_curve.obj
 0002:0001b71c       ??_C@_0CI@FGEFJMAC@2AAAAAAAAAAAAAAAAAAC7F3C7881BD08@ 100d371c     libeay32_EM_dbg.0.9.8e:ec_curve.obj
 0002:0001b744       ??_C@_03MLCCHGKF@1c8?$AA@  100d3744     libeay32_EM_dbg.0.9.8e:ec_curve.obj
 0002:0001b748       ??_C@_02HGFBNMNN@7b?$AA@   100d3748     libeay32_EM_dbg.0.9.8e:ec_curve.obj
 0002:0001b74c       ??_C@_06MOEPFPNG@07338f?$AA@ 100d374c     libeay32_EM_dbg.0.9.8e:ec_curve.obj
 0002:0001b754       ??_C@_0CJ@DHALBGJP@08000000000000000000000040000000@ 100d3754     libeay32_EM_dbg.0.9.8e:ec_curve.obj
 0002:0001b780       ??_C@_0CH@PAECJHG@WTLS?5curve?5over?5a?5113?5bit?5binary@ 100d3780     libeay32_EM_dbg.0.9.8e:ec_curve.obj
 0002:0001b7a8       ??_C@_0BP@LLNCDEDF@00FFFFFFFFFFFFFFFDBF91AF6DEA73?$AA@ 100d37a8     libeay32_EM_dbg.0.9.8e:ec_curve.obj
 0002:0001b7c8       ??_C@_0BP@MHKFDAFB@00F44B4AF1ECC2630E08785CEBCC15?$AA@ 100d37c8     libeay32_EM_dbg.0.9.8e:ec_curve.obj
 0002:0001b7e8       ??_C@_0BP@JBIOPCCD@01667979A40BA497E5D5C270780617?$AA@ 100d37e8     libeay32_EM_dbg.0.9.8e:ec_curve.obj
 0002:0001b808       ??_C@_0CI@PHOKEIPD@X9?462?5curve?5over?5a?5431?5bit?5binar@ 100d3808     libeay32_EM_dbg.0.9.8e:ec_curve.obj
 0002:0001b830       ??_C@_0GL@HOIFBJKE@03403403403403403403403403403403@ 100d3830     libeay32_EM_dbg.0.9.8e:ec_curve.obj
 0002:0001b8a0       ??_C@_0GN@FKGAJPAI@20D0AF8903A96F8D5FA2C255745D3C45@ 100d38a0     libeay32_EM_dbg.0.9.8e:ec_curve.obj
 0002:0001b910       ??_C@_0GN@HDLJDPHE@120FC05D3C67A99DE161D2F4092622FE@ 100d3910     libeay32_EM_dbg.0.9.8e:ec_curve.obj
 0002:0001b980       ??_C@_0GN@GMJFKCKE@10D9B4A3D9047D8B154359ABFB1B7F54@ 100d3980     libeay32_EM_dbg.0.9.8e:ec_curve.obj
 0002:0001b9f0       ??_C@_0GN@LFOJJAJK@1A827EF00DD6FC0E234CAF046C6A5D8A@ 100d39f0     libeay32_EM_dbg.0.9.8e:ec_curve.obj
 0002:0001ba60       ??_C@_0GN@LMHEGKJI@80000000000000000000000000000000@ 100d3a60     libeay32_EM_dbg.0.9.8e:ec_curve.obj
 0002:0001bad0       ??_C@_0CI@GLMEIDGJ@X9?462?5curve?5over?5a?5368?5bit?5binar@ 100d3ad0     libeay32_EM_dbg.0.9.8e:ec_curve.obj
 0002:0001baf8       ??_C@_0FN@KHOMBJGO@00010090512DA9AF72B08349D98A5DD4@ 100d3af8     libeay32_EM_dbg.0.9.8e:ec_curve.obj
 0002:0001bb58       ??_C@_0FN@JHIPHACA@7B3EB1BDDCBA62D5D8B2059B525797FC@ 100d3b58     libeay32_EM_dbg.0.9.8e:ec_curve.obj
 0002:0001bbb8       ??_C@_0FN@BMGNOIGF@1085E2755381DCCCE3C1557AFA10C2F0@ 100d3bb8     libeay32_EM_dbg.0.9.8e:ec_curve.obj
 0002:0001bc18       ??_C@_0FN@CPHIHHFM@FC1217D4320A90452C760A58EDCD30C8@ 100d3c18     libeay32_EM_dbg.0.9.8e:ec_curve.obj
 0002:0001bc78       ??_C@_0FN@BHEECEPM@E0D2EE25095206F5E2A4F9ED229F1F25@ 100d3c78     libeay32_EM_dbg.0.9.8e:ec_curve.obj
 0002:0001bcd8       ??_C@_0FP@FBINFPND@01000000000000000000000000000000@ 100d3cd8     libeay32_EM_dbg.0.9.8e:ec_curve.obj
 0002:0001bd38       ??_C@_0CI@BDIPEOPL@X9?462?5curve?5over?5a?5359?5bit?5binar@ 100d3d38     libeay32_EM_dbg.0.9.8e:ec_curve.obj
 0002:0001bd60       ??_C@_0FL@MNDAGIGO@01AF286BCA1AF286BCA1AF286BCA1AF2@ 100d3d60     libeay32_EM_dbg.0.9.8e:ec_curve.obj
 0002:0001bdc0       ??_C@_0FL@HHFPICMF@53D7E08529547048121E9C95F3791DD8@ 100d3dc0     libeay32_EM_dbg.0.9.8e:ec_curve.obj
 0002:0001be20       ??_C@_0FL@DKBNLODN@3C258EF3047767E7EDE0F1FDAA79DAEE@ 100d3e20     libeay32_EM_dbg.0.9.8e:ec_curve.obj
 0002:0001be80       ??_C@_0FL@MCMIJOOI@2472E2D0197C49363F1FE7F5B6DB075D@ 100d3e80     libeay32_EM_dbg.0.9.8e:ec_curve.obj
 0002:0001bee0       ??_C@_0FL@CFINLAGB@5667676A654B20754F356EA92017D946@ 100d3ee0     libeay32_EM_dbg.0.9.8e:ec_curve.obj
 0002:0001bf40       ??_C@_0FL@FEDIHDAI@80000000000000000000000000000000@ 100d3f40     libeay32_EM_dbg.0.9.8e:ec_curve.obj
 0002:0001bf9c       ??_C@_0CI@PCOAONL@X9?462?5curve?5over?5a?5304?5bit?5binar@ 100d3f9c     libeay32_EM_dbg.0.9.8e:ec_curve.obj
 0002:0001bfc8       ??_C@_0EN@KBDOAOHK@000101D556572AABAC800101D556572A@ 100d3fc8     libeay32_EM_dbg.0.9.8e:ec_curve.obj
 0002:0001c018       ??_C@_0EN@JAOFAPN@E19FBEB76E0DA171517ECF401B50289B@ 100d4018     libeay32_EM_dbg.0.9.8e:ec_curve.obj
 0002:0001c068       ??_C@_0EN@KHFAELMB@197B07845E9BE2D96ADB0F5F3C7F2CFF@ 100d4068     libeay32_EM_dbg.0.9.8e:ec_curve.obj
 0002:0001c0b8       ??_C@_0EN@NCONMPAC@BDDB97E555A50A908E43B01C798EA5DA@ 100d40b8     libeay32_EM_dbg.0.9.8e:ec_curve.obj
 0002:0001c108       ??_C@_0EN@PLBEBKBJ@FD0D693149A118F651E6DCE680208537@ 100d4108     libeay32_EM_dbg.0.9.8e:ec_curve.obj
 0002:0001c158       ??_C@_0EP@OHCANPEF@01000000000000000000000000000000@ 100d4158     libeay32_EM_dbg.0.9.8e:ec_curve.obj
 0002:0001c1a8       ??_C@_0CI@OMGMCAMF@X9?462?5curve?5over?5a?5272?5bit?5binar@ 100d41a8     libeay32_EM_dbg.0.9.8e:ec_curve.obj
 0002:0001c1d0       ??_C@_0EF@MHPJFHFL@000100FAF51354E0E39E4892DF6E319C@ 100d41d0     libeay32_EM_dbg.0.9.8e:ec_curve.obj
 0002:0001c218       ??_C@_0EF@IFEDEGFA@10C7695716851EEF6BA7F6872E6142FB@ 100d4218     libeay32_EM_dbg.0.9.8e:ec_curve.obj
 0002:0001c260       ??_C@_0EF@NOFNKADI@6108BABB2CEEBCF787058A056CBE0CFE@ 100d4260     libeay32_EM_dbg.0.9.8e:ec_curve.obj
 0002:0001c2a8       ??_C@_0EF@HCANBPG@7167EFC92BB2E3CE7C8AAAFF34E12A9C@ 100d42a8     libeay32_EM_dbg.0.9.8e:ec_curve.obj
 0002:0001c2f0       ??_C@_0EF@GLJGCFDO@91A091F03B5FBA4AB2CCF49C4EDD220F@ 100d42f0     libeay32_EM_dbg.0.9.8e:ec_curve.obj
 0002:0001c338       ??_C@_0EH@JPILHPAD@01000000000000000000000000000000@ 100d4338     libeay32_EM_dbg.0.9.8e:ec_curve.obj
 0002:0001c380       ??_C@_0DN@LDDNPNLK@0CCCCCCCCCCCCCCCCCCCCCCCCCCCCCAC@ 100d4380     libeay32_EM_dbg.0.9.8e:ec_curve.obj
 0002:0001c3c0       ??_C@_0DN@OIKGBJNJ@2E5A0EAF6E5E1305B9004DCE5C0ED7FE@ 100d43c0     libeay32_EM_dbg.0.9.8e:ec_curve.obj
 0002:0001c400       ??_C@_0DN@ELAKFJKE@70F6E9D04D289C4E89913CE3530BFDE9@ 100d4400     libeay32_EM_dbg.0.9.8e:ec_curve.obj
 0002:0001c440       ??_C@_0DN@CBKIHOGD@6A941977BA9F6A435199ACFC51067ED5@ 100d4440     libeay32_EM_dbg.0.9.8e:ec_curve.obj
 0002:0001c480       ??_C@_0DN@IIJDANOM@01238774666A67766D6676F778E676B6@ 100d4480     libeay32_EM_dbg.0.9.8e:ec_curve.obj
 0002:0001c4c0       ??_C@_0DN@MLEHOGIL@1555555555555555555555555555553C@ 100d44c0     libeay32_EM_dbg.0.9.8e:ec_curve.obj
 0002:0001c500       ??_C@_0DN@EJEGOAGE@5667334C45AFF3B5A03BAD9DD75E2C71@ 100d4500     libeay32_EM_dbg.0.9.8e:ec_curve.obj
 0002:0001c540       ??_C@_0DN@CLFDOGHD@28F9D04E900069C8DC47A08534FE76D2@ 100d4540     libeay32_EM_dbg.0.9.8e:ec_curve.obj
 0002:0001c580       ??_C@_0DN@FFKCHHPE@5037EA654196CFF0CD82B2C14A2FCF2E@ 100d4580     libeay32_EM_dbg.0.9.8e:ec_curve.obj
 0002:0001c5c0       ??_C@_0DN@EMPBAOJB@4230017757A767FAE42398569B746325@ 100d45c0     libeay32_EM_dbg.0.9.8e:ec_curve.obj
 0002:0001c600       ??_C@_0CI@IHGFALA@X9?462?5curve?5over?5a?5239?5bit?5binar@ 100d4600     libeay32_EM_dbg.0.9.8e:ec_curve.obj
 0002:0001c628       ??_C@_0DN@MFFKAKCP@2000000000000000000000000000000F@ 100d4628     libeay32_EM_dbg.0.9.8e:ec_curve.obj
 0002:0001c668       ??_C@_0DN@ICMAIJNI@61D8EE5077C33FECF6F1A16B268DE469@ 100d4668     libeay32_EM_dbg.0.9.8e:ec_curve.obj
 0002:0001c6a8       ??_C@_0DN@EEEKBALN@57927098FA932E7C0A96D3FD5B706EF7@ 100d46a8     libeay32_EM_dbg.0.9.8e:ec_curve.obj
 0002:0001c6e8       ??_C@_0DN@OBOFKIAC@790408F2EEDAF392B012EDEFB3392F30@ 100d46e8     libeay32_EM_dbg.0.9.8e:ec_curve.obj
 0002:0001c728       ??_C@_0DN@FBNNLDIH@32010857077C5431123A46B808906756@ 100d4728     libeay32_EM_dbg.0.9.8e:ec_curve.obj
 0002:0001c768       ??_C@_0DN@LFGLADBM@80000000000000000000000000000000@ 100d4768     libeay32_EM_dbg.0.9.8e:ec_curve.obj
 0002:0001c7a8       ??_C@_0CI@HADNJNCC@X9?462?5curve?5over?5a?5208?5bit?5binar@ 100d47a8     libeay32_EM_dbg.0.9.8e:ec_curve.obj
 0002:0001c7d0       ??_C@_0DF@JNMENPCE@000101BAF95C9723C57B6C21DA2EFF2D@ 100d47d0     libeay32_EM_dbg.0.9.8e:ec_curve.obj
 0002:0001c808       ??_C@_0DF@OFJNGFCB@0F55B51A06E78E9AC38A035FF520D8B0@ 100d4808     libeay32_EM_dbg.0.9.8e:ec_curve.obj
 0002:0001c840       ??_C@_0DF@OHLOFJLJ@89FDFBE4ABE193DF9559ECF07AC0CE78@ 100d4840     libeay32_EM_dbg.0.9.8e:ec_curve.obj
 0002:0001c878       ??_C@_0DF@BMDPEOLM@C8619ED45A62E6212E1160349E2BFA84@ 100d4878     libeay32_EM_dbg.0.9.8e:ec_curve.obj
 0002:0001c8b0       ??_C@_0DF@CGFHJKFP@00000000000000000000000000000000@ 100d48b0     libeay32_EM_dbg.0.9.8e:ec_curve.obj
 0002:0001c8e8       ??_C@_0DH@CBHDNHIE@01000000000000000000000000000000@ 100d48e8     libeay32_EM_dbg.0.9.8e:ec_curve.obj
 0002:0001c920       ??_C@_0DB@GHFEOOGH@155555555555555555555555610C0B19@ 100d4920     libeay32_EM_dbg.0.9.8e:ec_curve.obj
 0002:0001c954       ??_C@_0DB@HMLDPOOM@545A39176196575D985999366E6AD34C@ 100d4954     libeay32_EM_dbg.0.9.8e:ec_curve.obj
 0002:0001c988       ??_C@_0DB@LPENCHHM@375D4CE24FDE434489DE8746E7178601@ 100d4988     libeay32_EM_dbg.0.9.8e:ec_curve.obj
 0002:0001c9bc       ??_C@_0DB@MGLFBKJD@71FE1AF926CF847989EFEF8DB459F663@ 100d49bc     libeay32_EM_dbg.0.9.8e:ec_curve.obj
 0002:0001c9f0       ??_C@_0DB@PEBNBANE@6C01074756099122221056911C77D77E@ 100d49f0     libeay32_EM_dbg.0.9.8e:ec_curve.obj
 0002:0001ca24       ??_C@_0DB@BPCOOPCP@20000000000000000000000050508CB8@ 100d4a24     libeay32_EM_dbg.0.9.8e:ec_curve.obj
 0002:0001ca58       ??_C@_0DB@KIOIALAB@17434386626D14F3DBF01760D9213A3E@ 100d4a58     libeay32_EM_dbg.0.9.8e:ec_curve.obj
 0002:0001ca8c       ??_C@_0DB@PGPFEPAE@3809B2B7CC1B28CC5A87926AAD83FD28@ 100d4a8c     libeay32_EM_dbg.0.9.8e:ec_curve.obj
 0002:0001cac0       ??_C@_0DB@FDLCHFID@0620048D28BCBD03B6249C99182B7C8C@ 100d4ac0     libeay32_EM_dbg.0.9.8e:ec_curve.obj
 0002:0001caf4       ??_C@_0DB@PGMMDBBH@401028774D7777C7B7666D1366EA4320@ 100d4af4     libeay32_EM_dbg.0.9.8e:ec_curve.obj
 0002:0001cb28       ??_C@_0CI@CNNMGPOI@X9?462?5curve?5over?5a?5191?5bit?5binar@ 100d4b28     libeay32_EM_dbg.0.9.8e:ec_curve.obj
 0002:0001cb50       ??_C@_0DB@LFDKFEFP@40000000000000000000000004A20E90@ 100d4b50     libeay32_EM_dbg.0.9.8e:ec_curve.obj
 0002:0001cb84       ??_C@_0DB@BEDCCOBA@765BE73433B3F95E332932E70EA245CA@ 100d4b84     libeay32_EM_dbg.0.9.8e:ec_curve.obj
 0002:0001cbb8       ??_C@_0DB@JENBDMHB@36B3DAF8A23206F9C4F299D7B21A9C36@ 100d4bb8     libeay32_EM_dbg.0.9.8e:ec_curve.obj
 0002:0001cbec       ??_C@_0DB@KMDDCGHO@2E45EF571F00786F67B0081B9495A3D9@ 100d4bec     libeay32_EM_dbg.0.9.8e:ec_curve.obj
 0002:0001cc20       ??_C@_0DB@KNLAMFAA@2866537B676752636A68F56554E12640@ 100d4c20     libeay32_EM_dbg.0.9.8e:ec_curve.obj
 0002:0001cc54       ??_C@_0DB@BGNOOMFI@80000000000000000000000000000000@ 100d4c54     libeay32_EM_dbg.0.9.8e:ec_curve.obj
 0002:0001cc88       ??_C@_0CI@HOBKKPME@X9?462?5curve?5over?5a?5176?5bit?5binar@ 100d4c88     libeay32_EM_dbg.0.9.8e:ec_curve.obj
 0002:0001ccb0       ??_C@_0CN@IBIDHDPA@00010092537397ECA4F6145799D62B0A@ 100d4cb0     libeay32_EM_dbg.0.9.8e:ec_curve.obj
 0002:0001cce0       ??_C@_0CN@JJFEFABG@6FA4539C2DADDDD6BAB5167D61B436E1@ 100d4ce0     libeay32_EM_dbg.0.9.8e:ec_curve.obj
 0002:0001cd10       ??_C@_0CN@FBMJJMML@8D16C2866798B600F9F08BB4A8E860F3@ 100d4d10     libeay32_EM_dbg.0.9.8e:ec_curve.obj
 0002:0001cd40       ??_C@_0CN@GKKDGFDN@5DDA470ABE6414DE8EC133AE28E9BBD7@ 100d4d40     libeay32_EM_dbg.0.9.8e:ec_curve.obj
 0002:0001cd70       ??_C@_0CN@BCCBAODH@E4E6DB2995065C407D9D39B8D0967B96@ 100d4d70     libeay32_EM_dbg.0.9.8e:ec_curve.obj
 0002:0001cda0       ??_C@_0CP@EBFHIJKG@01000000000000000000000000000000@ 100d4da0     libeay32_EM_dbg.0.9.8e:ec_curve.obj
 0002:0001cdd0       ??_C@_0CL@NLBELIBP@03FFFFFFFFFFFFFFFFFFFE1AEE140F11@ 100d4dd0     libeay32_EM_dbg.0.9.8e:ec_curve.obj
 0002:0001cdfc       ??_C@_0CL@EFBHGKBG@05B935590C155E17EA48EB3FF3718B89@ 100d4dfc     libeay32_EM_dbg.0.9.8e:ec_curve.obj
 0002:0001ce28       ??_C@_0CL@LAOLGOPN@02F9F87B7C574D0BDECF8A22E6524775@ 100d4e28     libeay32_EM_dbg.0.9.8e:ec_curve.obj
 0002:0001ce54       ??_C@_0CL@COEBEADG@03F7061798EB99E238FD6F1BF95B48FE@ 100d4e54     libeay32_EM_dbg.0.9.8e:ec_curve.obj
 0002:0001ce80       ??_C@_0CL@JAKOALPH@07A526C63D3E25A256A007699F5447E3@ 100d4e80     libeay32_EM_dbg.0.9.8e:ec_curve.obj
 0002:0001ceac       ??_C@_0CL@GJDOGOEM@03FFFFFFFFFFFFFFFFFFFDF64DE1151A@ 100d4eac     libeay32_EM_dbg.0.9.8e:ec_curve.obj
 0002:0001ced8       ??_C@_0CL@CDOIDAED@079F684DDF6684C5CD258B3890021B23@ 100d4ed8     libeay32_EM_dbg.0.9.8e:ec_curve.obj
 0002:0001cf04       ??_C@_0CL@MLCIOOND@0024266E4EB5106D0A964D92C4860E26@ 100d4f04     libeay32_EM_dbg.0.9.8e:ec_curve.obj
 0002:0001cf30       ??_C@_0CL@JCNMLCJL@0667ACEB38AF4E488C407433FFAE4F1C@ 100d4f30     libeay32_EM_dbg.0.9.8e:ec_curve.obj
 0002:0001cf5c       ??_C@_0CL@OJNJAHFG@0108B39E77C4B108BED981ED0E890E11@ 100d4f5c     libeay32_EM_dbg.0.9.8e:ec_curve.obj
 0002:0001cf88       ??_C@_0CI@CFPHBJDI@X9?462?5curve?5over?5a?5163?5bit?5binar@ 100d4f88     libeay32_EM_dbg.0.9.8e:ec_curve.obj
 0002:0001cfb0       ??_C@_0CL@HJCDFDPL@0400000000000000000001E60FC8821C@ 100d4fb0     libeay32_EM_dbg.0.9.8e:ec_curve.obj
 0002:0001cfdc       ??_C@_0CL@GBCKMBAM@01EC23211B5966ADEA1D3F87F7EA5848@ 100d4fdc     libeay32_EM_dbg.0.9.8e:ec_curve.obj
 0002:0001d008       ??_C@_0CL@MBBIDOKC@07AF69989546103D79329FCC3D74880F@ 100d5008     libeay32_EM_dbg.0.9.8e:ec_curve.obj
 0002:0001d034       ??_C@_0CL@EAGEDKEL@00C9517D06D5240D3CFF38C74B20B6CD@ 100d5034     libeay32_EM_dbg.0.9.8e:ec_curve.obj
 0002:0001d060       ??_C@_0CL@GEJALGC@072546B5435234A422E0789675F432C8@ 100d5060     libeay32_EM_dbg.0.9.8e:ec_curve.obj
 0002:0001d08c       ??_C@_0CL@FPAJFMMJ@08000000000000000000000000000000@ 100d508c     libeay32_EM_dbg.0.9.8e:ec_curve.obj
 0002:0001d0b8       ??_C@_0JB@DDELOMEN@03FFFFFFFFFFFFFFFFFFFFFFFFFFFFFF@ 100d50b8     libeay32_EM_dbg.0.9.8e:ec_curve.obj
 0002:0001d150       ??_C@_0JB@BGGOGNH@037BF27342DA639B6DCCFFFEB73D69D7@ 100d5150     libeay32_EM_dbg.0.9.8e:ec_curve.obj
 0002:0001d1e8       ??_C@_0JB@CJJMMHGF@0303001D34B856296C16C0D40D3CD775@ 100d51e8     libeay32_EM_dbg.0.9.8e:ec_curve.obj
 0002:0001d280       ??_C@_0JB@OOBDGNJO@02F40E7E2221F295DE297117B7F3D62F@ 100d5280     libeay32_EM_dbg.0.9.8e:ec_curve.obj
 0002:0001d318       ??_C@_0JB@IHMKNFOJ@00000000000000000000000000000000@ 100d5318     libeay32_EM_dbg.0.9.8e:ec_curve.obj
 0002:0001d3ac       ??_C@_0CM@EACJKLC@NIST?1SECG?5curve?5over?5a?5571?5bit?5b@ 100d53ac     libeay32_EM_dbg.0.9.8e:ec_curve.obj
 0002:0001d3d8       ??_C@_0JB@PPPHEALL@02000000000000000000000000000000@ 100d53d8     libeay32_EM_dbg.0.9.8e:ec_curve.obj
 0002:0001d470       ??_C@_0JB@CLBKOHGL@0349DC807F4FBF374F4AEADE3BCA9531@ 100d5470     libeay32_EM_dbg.0.9.8e:ec_curve.obj
 0002:0001d508       ??_C@_0JB@IGIOHLOD@026EB7A859923FBC82189631F8103FE4@ 100d5508     libeay32_EM_dbg.0.9.8e:ec_curve.obj
 0002:0001d5a0       ??_C@_0JA@IMPAOLHO@80000000000000000000000000000000@ 100d55a0     libeay32_EM_dbg.0.9.8e:ec_curve.obj
 0002:0001d630       ??_C@_0GJ@MAKMEDBJ@01000000000000000000000000000000@ 100d5630     libeay32_EM_dbg.0.9.8e:ec_curve.obj
 0002:0001d6a0       ??_C@_0GJ@DJJIPKHI@0061B1CFAB6BE5F32BBFA78324ED106A@ 100d56a0     libeay32_EM_dbg.0.9.8e:ec_curve.obj
 0002:0001d710       ??_C@_0GJ@CLLEPAGO@015D4860D088DDB3496B0C6064756260@ 100d5710     libeay32_EM_dbg.0.9.8e:ec_curve.obj
 0002:0001d780       ??_C@_0GJ@NBAHPFHH@0021A5C2C8EE9FEB5C4B9A753B7B476B@ 100d5780     libeay32_EM_dbg.0.9.8e:ec_curve.obj
 0002:0001d7f0       ??_C@_0GJ@LFNCJKBA@00000000000000000000000000000000@ 100d57f0     libeay32_EM_dbg.0.9.8e:ec_curve.obj
 0002:0001d85c       ??_C@_0CM@HDDNKCDK@NIST?1SECG?5curve?5over?5a?5409?5bit?5b@ 100d585c     libeay32_EM_dbg.0.9.8e:ec_curve.obj
 0002:0001d888       ??_C@_0GJ@NAANHFDL@007FFFFFFFFFFFFFFFFFFFFFFFFFFFFF@ 100d5888     libeay32_EM_dbg.0.9.8e:ec_curve.obj
 0002:0001d8f8       ??_C@_0GJ@LELALKNN@01E369050B7C4E42ACBA1DACBF04299C@ 100d58f8     libeay32_EM_dbg.0.9.8e:ec_curve.obj
 0002:0001d968       ??_C@_0GJ@JHNGHILE@0060F05F658F49C1AD3AB1890F718421@ 100d5968     libeay32_EM_dbg.0.9.8e:ec_curve.obj
 0002:0001d9d8       ??_C@_0GJ@KMBGFIOM@02000000000000000000000000000000@ 100d59d8     libeay32_EM_dbg.0.9.8e:ec_curve.obj
 0002:0001da48       ??_C@_0EJ@DNDJJNNM@03FFFFFFFFFFFFFFFFFFFFFFFFFFFFFF@ 100d5a48     libeay32_EM_dbg.0.9.8e:ec_curve.obj
 0002:0001da98       ??_C@_0EJ@JNLPOLB@03676854FE24141CB98FE6D4B20D02B4@ 100d5a98     libeay32_EM_dbg.0.9.8e:ec_curve.obj
 0002:0001dae8       ??_C@_0EJ@BHGHAALC@05F939258DB7DD90E1934F8C70B0DFEC@ 100d5ae8     libeay32_EM_dbg.0.9.8e:ec_curve.obj
 0002:0001db38       ??_C@_0EJ@BMCMHGKL@027B680AC8B8596DA5A4AF8A19A0303F@ 100d5b38     libeay32_EM_dbg.0.9.8e:ec_curve.obj
 0002:0001db88       ??_C@_0EJ@IJMOMPKF@00000000000000000000000000000000@ 100d5b88     libeay32_EM_dbg.0.9.8e:ec_curve.obj
 0002:0001dbd4       ??_C@_0CM@GFMOGKDK@NIST?1SECG?5curve?5over?5a?5283?5bit?5b@ 100d5bd4     libeay32_EM_dbg.0.9.8e:ec_curve.obj
 0002:0001dc00       ??_C@_0EJ@BABGJLPC@01FFFFFFFFFFFFFFFFFFFFFFFFFFFFFF@ 100d5c00     libeay32_EM_dbg.0.9.8e:ec_curve.obj
 0002:0001dc50       ??_C@_0EJ@NHJKIFIC@01CCDA380F1C9E318D90F95D07E5426F@ 100d5c50     libeay32_EM_dbg.0.9.8e:ec_curve.obj
 0002:0001dca0       ??_C@_0EJ@PKMPDCLH@0503213F78CA44883F1A3B8162F188E5@ 100d5ca0     libeay32_EM_dbg.0.9.8e:ec_curve.obj
 0002:0001dcf0       ??_C@_0EJ@JBJAGLBF@08000000000000000000000000000000@ 100d5cf0     libeay32_EM_dbg.0.9.8e:ec_curve.obj
 0002:0001dd3c       ??_C@_0CH@CLCLBOGN@SECG?5curve?5over?5a?5239?5bit?5binary@ 100d5d3c     libeay32_EM_dbg.0.9.8e:ec_curve.obj
 0002:0001dd64       ??_C@_0DN@GMJEOECE@2000000000000000000000000000005A@ 100d5d64     libeay32_EM_dbg.0.9.8e:ec_curve.obj
 0002:0001dda4       ??_C@_0DN@CFKJLDEH@76310804F12E549BDB011C103089E735@ 100d5da4     libeay32_EM_dbg.0.9.8e:ec_curve.obj
 0002:0001dde4       ??_C@_0DN@DICPLOOG@29A0B6A887A983E9730988A68727A8B2@ 100d5de4     libeay32_EM_dbg.0.9.8e:ec_curve.obj
 0002:0001de24       ??_C@_0DN@GCFJJCNK@80000000000000000000400000000000@ 100d5e24     libeay32_EM_dbg.0.9.8e:ec_curve.obj
 0002:0001de64       ??_C@_0DN@NCBBCNPJ@01000000000000000000000000000013@ 100d5e64     libeay32_EM_dbg.0.9.8e:ec_curve.obj
 0002:0001dea4       ??_C@_0DN@NGABPGAG@01006A08A41903350678E58528BEBF8A@ 100d5ea4     libeay32_EM_dbg.0.9.8e:ec_curve.obj
 0002:0001dee4       ??_C@_0DN@FGKPOKON@00FAC9DFCBAC8313BB2139F1BB755FEF@ 100d5ee4     libeay32_EM_dbg.0.9.8e:ec_curve.obj
 0002:0001df24       ??_C@_0DN@HFMDPMGE@0066647EDE6C332C7F8C0923BB58213B@ 100d5f24     libeay32_EM_dbg.0.9.8e:ec_curve.obj
 0002:0001df64       ??_C@_0DN@CMGNLJKG@00000000000000000000000000000000@ 100d5f64     libeay32_EM_dbg.0.9.8e:ec_curve.obj
 0002:0001dfa4       ??_C@_0DB@PNCPLOPN@NIST?1SECG?1WTLS?5curve?5over?5a?5233?5@ 100d5fa4     libeay32_EM_dbg.0.9.8e:ec_curve.obj
 0002:0001dfd8       ??_C@_0DN@ICANBKHC@00800000000000000000000000000006@ 100d5fd8     libeay32_EM_dbg.0.9.8e:ec_curve.obj
 0002:0001e018       ??_C@_0DN@JNNCCFCL@01DB537DECE819B7F70F555A67C427A8@ 100d6018     libeay32_EM_dbg.0.9.8e:ec_curve.obj
 0002:0001e058       ??_C@_0DN@PMLLGPLO@017232BA853A7E731AF129F22FF41495@ 100d6058     libeay32_EM_dbg.0.9.8e:ec_curve.obj
 0002:0001e098       ??_C@_0DN@CMFGEJKA@02000000000000000000000000000000@ 100d6098     libeay32_EM_dbg.0.9.8e:ec_curve.obj
 0002:0001e0d8       ??_C@_0DD@LCNHKLC@010000000000000000000000015AAB56@ 100d60d8     libeay32_EM_dbg.0.9.8e:ec_curve.obj
 0002:0001e10c       ??_C@_0DD@DBKONANO@01CE94335607C304AC29E7DEFBD9CA01@ 100d610c     libeay32_EM_dbg.0.9.8e:ec_curve.obj
 0002:0001e140       ??_C@_0DD@GGAJGHND@00D9B67D192E0367C803F39E1A7E82CA@ 100d6140     libeay32_EM_dbg.0.9.8e:ec_curve.obj
 0002:0001e174       ??_C@_0DD@KHLNNION@00C9BB9E8927D4D64C377E2AB2856A5B@ 100d6174     libeay32_EM_dbg.0.9.8e:ec_curve.obj
 0002:0001e1a8       ??_C@_0DD@NBPCBFCI@0163F35A5137C2CE3EA6ED8667190B0B@ 100d61a8     libeay32_EM_dbg.0.9.8e:ec_curve.obj
 0002:0001e1dc       ??_C@_0CH@HKDFCHME@SECG?5curve?5over?5a?5193?5bit?5binary@ 100d61dc     libeay32_EM_dbg.0.9.8e:ec_curve.obj
 0002:0001e204       ??_C@_0DD@JCCJKEBL@01000000000000000000000000C7F34A@ 100d6204     libeay32_EM_dbg.0.9.8e:ec_curve.obj
 0002:0001e238       ??_C@_0DD@JJHONLME@0025E399F2903712CCF3EA9E3A1AD17F@ 100d6238     libeay32_EM_dbg.0.9.8e:ec_curve.obj
 0002:0001e26c       ??_C@_0DD@JPAKFEII@01F481BC5F0FF84A74AD6CDF6FDEF4BF@ 100d626c     libeay32_EM_dbg.0.9.8e:ec_curve.obj
 0002:0001e2a0       ??_C@_0DD@IIFNMAMG@00FDFB49BFE6C3A89FACADAA7A1E5BBC@ 100d62a0     libeay32_EM_dbg.0.9.8e:ec_curve.obj
 0002:0001e2d4       ??_C@_0DD@DGCHJJBJ@0017858FEB7A98975169E171F77B4087@ 100d62d4     libeay32_EM_dbg.0.9.8e:ec_curve.obj
 0002:0001e308       ??_C@_0DD@MILNLGCC@02000000000000000000000000000000@ 100d6308     libeay32_EM_dbg.0.9.8e:ec_curve.obj
 0002:0001e33c       ??_C@_0CM@HCIKDLO@NIST?1SECG?5curve?5over?5a?5163?5bit?5b@ 100d633c     libeay32_EM_dbg.0.9.8e:ec_curve.obj
 0002:0001e368       ??_C@_0CL@BCAGACCK@040000000000000000000292FE77E70C@ 100d6368     libeay32_EM_dbg.0.9.8e:ec_curve.obj
 0002:0001e394       ??_C@_0CL@BNIJOFII@00D51FBC6C71A0094FA2CDD545B11C5C@ 100d6394     libeay32_EM_dbg.0.9.8e:ec_curve.obj
 0002:0001e3c0       ??_C@_0CL@LINOKKFB@03F0EBA16286A2D57EA0991168D49946@ 100d63c0     libeay32_EM_dbg.0.9.8e:ec_curve.obj
 0002:0001e3ec       ??_C@_0CL@HEOEMBKD@020A601907B8C953CA1481EB10512F78@ 100d63ec     libeay32_EM_dbg.0.9.8e:ec_curve.obj
 0002:0001e418       ??_C@_0CH@GKKFHOF@SECG?5curve?5over?5a?5163?5bit?5binary@ 100d6418     libeay32_EM_dbg.0.9.8e:ec_curve.obj
 0002:0001e440       ??_C@_0CL@EBHGFHPN@03FFFFFFFFFFFFFFFFFFFF48AAB689C2@ 100d6440     libeay32_EM_dbg.0.9.8e:ec_curve.obj
 0002:0001e46c       ??_C@_0CL@CKJGENIK@00435EDB42EFAFB2989D51FEFCE3C809@ 100d646c     libeay32_EM_dbg.0.9.8e:ec_curve.obj
 0002:0001e498       ??_C@_0CL@KGICMFLE@0369979697AB43897789566789567F78@ 100d6498     libeay32_EM_dbg.0.9.8e:ec_curve.obj
 0002:0001e4c4       ??_C@_0CL@LDOPLLBK@0713612DCDDCB40AAB946BDA29CA91F7@ 100d64c4     libeay32_EM_dbg.0.9.8e:ec_curve.obj
 0002:0001e4f0       ??_C@_0CL@ELGPMELM@07B6882CAAEFA84F9554FF8428BD88E2@ 100d64f0     libeay32_EM_dbg.0.9.8e:ec_curve.obj
 0002:0001e51c       ??_C@_0DB@KNLLOMAB@NIST?1SECG?1WTLS?5curve?5over?5a?5163?5@ 100d651c     libeay32_EM_dbg.0.9.8e:ec_curve.obj
 0002:0001e550       ??_C@_0CL@OGGJHJDP@04000000000000000000020108A2E0CC@ 100d6550     libeay32_EM_dbg.0.9.8e:ec_curve.obj
 0002:0001e57c       ??_C@_0CL@JCJOHIPK@0289070FB05D38FF58321F2E800536D5@ 100d657c     libeay32_EM_dbg.0.9.8e:ec_curve.obj
 0002:0001e5a8       ??_C@_0CL@NIAKCKHM@02FE13C0537BBC11ACAA07D793DE4E6D@ 100d65a8     libeay32_EM_dbg.0.9.8e:ec_curve.obj
 0002:0001e5d4       ??_C@_0CL@CPIBMACL@08000000000000000000000000000000@ 100d65d4     libeay32_EM_dbg.0.9.8e:ec_curve.obj
 0002:0001e600       ??_C@_0CH@FJJEIBAL@SECG?5curve?5over?5a?5131?5bit?5binary@ 100d6600     libeay32_EM_dbg.0.9.8e:ec_curve.obj
 0002:0001e628       ??_C@_0CD@CLJJMJIL@0400000000000000016954A233049BA9@ 100d6628     libeay32_EM_dbg.0.9.8e:ec_curve.obj
 0002:0001e64c       ??_C@_0CD@KHBODDIJ@0648F06D867940A5366D9E265DE9EB24@ 100d664c     libeay32_EM_dbg.0.9.8e:ec_curve.obj
 0002:0001e670       ??_C@_0CD@JGAEEFKC@0356DCD8F2F95031AD652D23951BB366@ 100d6670     libeay32_EM_dbg.0.9.8e:ec_curve.obj
 0002:0001e694       ??_C@_0CD@NOGAMHBC@04B8266A46C55657AC734CE38F018F21@ 100d6694     libeay32_EM_dbg.0.9.8e:ec_curve.obj
 0002:0001e6b8       ??_C@_0CD@MILHCOEH@03E5A88919D7CAFCBF415F07C2176573@ 100d66b8     libeay32_EM_dbg.0.9.8e:ec_curve.obj
 0002:0001e6dc       ??_C@_0CM@EPOILLGK@SECG?1WTLS?5curve?5over?5a?5131?5bit?5b@ 100d66dc     libeay32_EM_dbg.0.9.8e:ec_curve.obj
 0002:0001e708       ??_C@_0CD@GPHHKHND@0400000000000000023123953A9464B5@ 100d6708     libeay32_EM_dbg.0.9.8e:ec_curve.obj
 0002:0001e72c       ??_C@_0CD@OGBJFOMP@078C6E7EA38C001F73C8134B1B4EF9E1@ 100d672c     libeay32_EM_dbg.0.9.8e:ec_curve.obj
 0002:0001e750       ??_C@_0CD@HABOPCAK@0081BAF91FDF9833C40F9C1813436383@ 100d6750     libeay32_EM_dbg.0.9.8e:ec_curve.obj
 0002:0001e774       ??_C@_0CD@KFBHBKHN@0217C05610884B63B9C6C7291678F9D3@ 100d6774     libeay32_EM_dbg.0.9.8e:ec_curve.obj
 0002:0001e798       ??_C@_0CD@FHMNMMDO@07A11B09A76B562144418FF3FF8C2570@ 100d6798     libeay32_EM_dbg.0.9.8e:ec_curve.obj
 0002:0001e7bc       ??_C@_0CD@GKFCOPNA@08000000000000000000000000000001@ 100d67bc     libeay32_EM_dbg.0.9.8e:ec_curve.obj
 0002:0001e7e0       ??_C@_0BP@DKIELOEN@010000000000000108789B2496AF93?$AA@ 100d67e0     libeay32_EM_dbg.0.9.8e:ec_curve.obj
 0002:0001e800       ??_C@_0BP@EFNNGCLF@00B3ADC94ED1FE674C06E695BABA1D?$AA@ 100d6800     libeay32_EM_dbg.0.9.8e:ec_curve.obj
 0002:0001e820       ??_C@_0BP@HAKEOPIF@01A57A6A7B26CA5EF52FCDB8164797?$AA@ 100d6820     libeay32_EM_dbg.0.9.8e:ec_curve.obj
 0002:0001e840       ??_C@_0BP@OBAKANML@0095E9A9EC9B297BD4BF36E059184F?$AA@ 100d6840     libeay32_EM_dbg.0.9.8e:ec_curve.obj
 0002:0001e860       ??_C@_0BP@EJCIAAKB@00689918DBEC7E5A0DD6DFC0AA55C7?$AA@ 100d6860     libeay32_EM_dbg.0.9.8e:ec_curve.obj
 0002:0001e880       ??_C@_0CH@OHOOPBHG@SECG?5curve?5over?5a?5113?5bit?5binary@ 100d6880     libeay32_EM_dbg.0.9.8e:ec_curve.obj
 0002:0001e8a8       ??_C@_0BP@EAAKHCEK@0100000000000000D9CCEC8A39E56F?$AA@ 100d68a8     libeay32_EM_dbg.0.9.8e:ec_curve.obj
 0002:0001e8c8       ??_C@_0BP@FBCJDMN@00A52830277958EE84D1315ED31886?$AA@ 100d68c8     libeay32_EM_dbg.0.9.8e:ec_curve.obj
 0002:0001e8e8       ??_C@_0BP@EGACAFFM@009D73616F35F4AB1407D73562C10F?$AA@ 100d68e8     libeay32_EM_dbg.0.9.8e:ec_curve.obj
 0002:0001e908       ??_C@_0BP@BLIPCLGH@00E8BEE4D3E2260744188BE0E9C723?$AA@ 100d6908     libeay32_EM_dbg.0.9.8e:ec_curve.obj
 0002:0001e928       ??_C@_0BP@NFPAPFFB@003088250CA6E7C7FE649CE85820F7?$AA@ 100d6928     libeay32_EM_dbg.0.9.8e:ec_curve.obj
 0002:0001e948       ??_C@_0BP@OFOPCIHP@020000000000000000000000000201?$AA@ 100d6948     libeay32_EM_dbg.0.9.8e:ec_curve.obj
 0002:0001e968       ??_C@_0CG@MLNHEHNL@WTLS?5curvs?5over?5a?5224?5bit?5prime?5@ 100d6968     libeay32_EM_dbg.0.9.8e:ec_curve.obj
 0002:0001e990       ??_C@_0CG@JBBHINGJ@WTLS?5curve?5over?5a?5160?5bit?5prime?5@ 100d6990     libeay32_EM_dbg.0.9.8e:ec_curve.obj
 0002:0001e9b8       ??_C@_0CL@MBOJCOAH@0100000000000000000001CDC98AE0E2@ 100d69b8     libeay32_EM_dbg.0.9.8e:ec_curve.obj
 0002:0001e9e4       ??_C@_0CJ@BGGLPJAH@FFFFFFFFFFFFFFFFFFFFFFFFFFFFFFFF@ 100d69e4     libeay32_EM_dbg.0.9.8e:ec_curve.obj
 0002:0001ea10       ??_C@_0CG@NOPNGNKB@WTLS?5curve?5over?5a?5112?5bit?5prime?5@ 100d6a10     libeay32_EM_dbg.0.9.8e:ec_curve.obj
 0002:0001ea38       ??_C@_0BP@EKNBFCAM@0100000000000001ECEA551AD837E9?$AA@ 100d6a38     libeay32_EM_dbg.0.9.8e:ec_curve.obj
 0002:0001ea58       ??_C@_0BN@HPHHPBAK@FFFFFFFFFFFFFFFFFFFFFFFFFDE7?$AA@ 100d6a58     libeay32_EM_dbg.0.9.8e:ec_curve.obj
 0002:0001ea78       ??_C@_0CG@MBJIMJMI@SECG?5curve?5over?5a?5256?5bit?5prime?5@ 100d6a78     libeay32_EM_dbg.0.9.8e:ec_curve.obj
 0002:0001eaa0       ??_C@_0EB@DCCHFIKD@FFFFFFFFFFFFFFFFFFFFFFFFFFFFFFFE@ 100d6aa0     libeay32_EM_dbg.0.9.8e:ec_curve.obj
 0002:0001eae8       ??_C@_0EB@HDDLKPFM@483ada7726a3c4655da4fbfc0e1108a8@ 100d6ae8     libeay32_EM_dbg.0.9.8e:ec_curve.obj
 0002:0001eb30       ??_C@_0EB@CBGMKGCA@79BE667EF9DCBBAC55A06295CE870B07@ 100d6b30     libeay32_EM_dbg.0.9.8e:ec_curve.obj
 0002:0001eb78       ??_C@_0EB@IHGCLEDH@FFFFFFFFFFFFFFFFFFFFFFFFFFFFFFFF@ 100d6b78     libeay32_EM_dbg.0.9.8e:ec_curve.obj
 0002:0001ebbc       ??_C@_0CG@IOHCCJAA@SECG?5curve?5over?5a?5224?5bit?5prime?5@ 100d6bbc     libeay32_EM_dbg.0.9.8e:ec_curve.obj
 0002:0001ebe4       ??_C@_0DL@GKKGGOEP@010000000000000000000000000001DC@ 100d6be4     libeay32_EM_dbg.0.9.8e:ec_curve.obj
 0002:0001ec20       ??_C@_0DJ@GDNLEEBB@7e089fed7fba344282cafbd6f7e319f7@ 100d6c20     libeay32_EM_dbg.0.9.8e:ec_curve.obj
 0002:0001ec5c       ??_C@_0DJ@LDDJKHDH@A1455B334DF099DF30FC28A169A467E9@ 100d6c5c     libeay32_EM_dbg.0.9.8e:ec_curve.obj
 0002:0001ec98       ??_C@_01BMBHCPLG@5?$AA@    100d6c98     libeay32_EM_dbg.0.9.8e:ec_curve.obj
 0002:0001ec9c       ??_C@_0DJ@OIEDBGO@FFFFFFFFFFFFFFFFFFFFFFFFFFFFFFFF@ 100d6c9c     libeay32_EM_dbg.0.9.8e:ec_curve.obj
 0002:0001ecd8       ??_C@_0CG@IFFAEDGD@SECG?5curve?5over?5a?5192?5bit?5prime?5@ 100d6cd8     libeay32_EM_dbg.0.9.8e:ec_curve.obj
 0002:0001ed00       ??_C@_0DB@OCOPPFHC@FFFFFFFFFFFFFFFFFFFFFFFE26F2FC17@ 100d6d00     libeay32_EM_dbg.0.9.8e:ec_curve.obj
 0002:0001ed34       ??_C@_0DB@CMKOFGHJ@9b2f2f6d9c5628a7844163d015be8634@ 100d6d34     libeay32_EM_dbg.0.9.8e:ec_curve.obj
 0002:0001ed68       ??_C@_0DB@MNEBEDDM@DB4FF10EC057E9AE26B07D0280B7F434@ 100d6d68     libeay32_EM_dbg.0.9.8e:ec_curve.obj
 0002:0001ed9c       ??_C@_01EKENIIDA@3?$AA@    100d6d9c     libeay32_EM_dbg.0.9.8e:ec_curve.obj
 0002:0001eda0       ??_C@_0DB@IEGIPAN@FFFFFFFFFFFFFFFFFFFFFFFFFFFFFFFF@ 100d6da0     libeay32_EM_dbg.0.9.8e:ec_curve.obj
 0002:0001edd4       ??_C@_0CL@NDOOJKPB@SECG?1WTLS?5curve?5over?5a?5160?5bit?5p@ 100d6dd4     libeay32_EM_dbg.0.9.8e:ec_curve.obj
 0002:0001ee00       ??_C@_0CL@KKNCFHBD@0100000000000000000000351EE786A8@ 100d6e00     libeay32_EM_dbg.0.9.8e:ec_curve.obj
 0002:0001ee2c       ??_C@_0CJ@FLCBFAOB@feaffef2e331f296e071fa0df9982cfe@ 100d6e2c     libeay32_EM_dbg.0.9.8e:ec_curve.obj
 0002:0001ee58       ??_C@_0CJ@MNNAHMPB@52DCB034293A117E1F4FF11B30F7199D@ 100d6e58     libeay32_EM_dbg.0.9.8e:ec_curve.obj
 0002:0001ee84       ??_C@_0CJ@HICFNNJG@B4E134D3FB59EB8BAB57274904664D5A@ 100d6e84     libeay32_EM_dbg.0.9.8e:ec_curve.obj
 0002:0001eeb0       ??_C@_0CJ@FCOAMHDG@FFFFFFFFFFFFFFFFFFFFFFFFFFFFFFFE@ 100d6eb0     libeay32_EM_dbg.0.9.8e:ec_curve.obj
 0002:0001eedc       ??_C@_0CL@EDKAMPLM@0100000000000000000001F4C8F927AE@ 100d6edc     libeay32_EM_dbg.0.9.8e:ec_curve.obj
 0002:0001ef08       ??_C@_0CJ@IFNODPPM@23a628553168947d59dcc91204235137@ 100d6f08     libeay32_EM_dbg.0.9.8e:ec_curve.obj
 0002:0001ef34       ??_C@_0CJ@MIDIAOCP@4A96B5688EF573284664698968C38BB9@ 100d6f34     libeay32_EM_dbg.0.9.8e:ec_curve.obj
 0002:0001ef60       ??_C@_0CJ@CGMIEEHD@1C97BEFC54BD7A8B65ACF89F81D4D4AD@ 100d6f60     libeay32_EM_dbg.0.9.8e:ec_curve.obj
 0002:0001ef8c       ??_C@_0CJ@IKNAKPND@FFFFFFFFFFFFFFFFFFFFFFFFFFFFFFFF@ 100d6f8c     libeay32_EM_dbg.0.9.8e:ec_curve.obj
 0002:0001efb8       ??_C@_0CJ@PHKHFLJG@FFFFFFFFFFFFFFFFFFFFFFFFFFFFFFFF@ 100d6fb8     libeay32_EM_dbg.0.9.8e:ec_curve.obj
 0002:0001efe4       ??_C@_0CG@MDBLLOCO@SECG?5curve?5over?5a?5160?5bit?5prime?5@ 100d6fe4     libeay32_EM_dbg.0.9.8e:ec_curve.obj
 0002:0001f00c       ??_C@_0CL@BDAFGJP@0100000000000000000001B8FA16DFAB@ 100d700c     libeay32_EM_dbg.0.9.8e:ec_curve.obj
 0002:0001f038       ??_C@_0CJ@FNGEGBI@938cf935318fdced6bc28286531733c3@ 100d7038     libeay32_EM_dbg.0.9.8e:ec_curve.obj
 0002:0001f064       ??_C@_0CJ@KLDELOPN@3B4C382CE37AA192A4019E763036F4F5@ 100d7064     libeay32_EM_dbg.0.9.8e:ec_curve.obj
 0002:0001f090       ??_C@_01COCBENDE@7?$AA@    100d7090     libeay32_EM_dbg.0.9.8e:ec_curve.obj
 0002:0001f094       ??_C@_0CJ@HJMNJEPF@FFFFFFFFFFFFFFFFFFFFFFFFFFFFFFFE@ 100d7094     libeay32_EM_dbg.0.9.8e:ec_curve.obj
 0002:0001f0c0       ??_C@_0CB@JAEMBEGB@3FFFFFFF7FFFFFFFBE0024720613B5A3@ 100d70c0     libeay32_EM_dbg.0.9.8e:ec_curve.obj
 0002:0001f0e4       ??_C@_0CB@BCFJIPBP@27b6916a894d3aee7106fe805fc34b44@ 100d70e4     libeay32_EM_dbg.0.9.8e:ec_curve.obj
 0002:0001f108       ??_C@_0CB@IMEOLIDL@7B6AA5D85E572983E6FB32A7CDEBC140@ 100d7108     libeay32_EM_dbg.0.9.8e:ec_curve.obj
 0002:0001f12c       ??_C@_0CB@NLFHILLM@5EEEFCA380D02919DC2C6558BB6D8A5D@ 100d712c     libeay32_EM_dbg.0.9.8e:ec_curve.obj
 0002:0001f150       ??_C@_0CB@MCNCHMKC@D6031998D1B3BBFEBF59CC9BBFF9AEE1@ 100d7150     libeay32_EM_dbg.0.9.8e:ec_curve.obj
 0002:0001f174       ??_C@_0CG@DNCCBNMA@SECG?5curve?5over?5a?5128?5bit?5prime?5@ 100d7174     libeay32_EM_dbg.0.9.8e:ec_curve.obj
 0002:0001f19c       ??_C@_0CB@HIDHDGFG@FFFFFFFE0000000075A30D1B9038A115@ 100d719c     libeay32_EM_dbg.0.9.8e:ec_curve.obj
 0002:0001f1c0       ??_C@_0CB@JFJDIAHA@cf5ac8395bafeb13c02da292dded7a83@ 100d71c0     libeay32_EM_dbg.0.9.8e:ec_curve.obj
 0002:0001f1e4       ??_C@_0CB@JLJJCNEF@161FF7528B899B2D0C28607CA52C5B86@ 100d71e4     libeay32_EM_dbg.0.9.8e:ec_curve.obj
 0002:0001f208       ??_C@_0CB@IGKEJLG@E87579C11079F43DD824993C2CEE5ED3@ 100d7208     libeay32_EM_dbg.0.9.8e:ec_curve.obj
 0002:0001f22c       ??_C@_0CB@BLAJLFEI@FFFFFFFDFFFFFFFFFFFFFFFFFFFFFFFC@ 100d722c     libeay32_EM_dbg.0.9.8e:ec_curve.obj
 0002:0001f250       ??_C@_0CB@GGHOEBAN@FFFFFFFDFFFFFFFFFFFFFFFFFFFFFFFF@ 100d7250     libeay32_EM_dbg.0.9.8e:ec_curve.obj
 0002:0001f274       ??_C@_0CG@IMPBFOOG@SECG?5curve?5over?5a?5112?5bit?5prime?5@ 100d7274     libeay32_EM_dbg.0.9.8e:ec_curve.obj
 0002:0001f29c       ??_C@_0BN@LFOGMMAM@36DF0AAFD8B8D7597CA10520D04B?$AA@ 100d729c     libeay32_EM_dbg.0.9.8e:ec_curve.obj
 0002:0001f2bc       ??_C@_0BN@EGMMPFGK@adcd46f5882e3747def36e956e97?$AA@ 100d72bc     libeay32_EM_dbg.0.9.8e:ec_curve.obj
 0002:0001f2dc       ??_C@_0BN@DODNCDHM@4BA30AB5E892B4E1649DD0928643?$AA@ 100d72dc     libeay32_EM_dbg.0.9.8e:ec_curve.obj
 0002:0001f2fc       ??_C@_0BN@MGKDLOHA@51DEF1815DB5ED74FCC34C85D709?$AA@ 100d72fc     libeay32_EM_dbg.0.9.8e:ec_curve.obj
 0002:0001f31c       ??_C@_0BN@IJKPAIIP@6127C24C05F38A0AAAF65C0EF02C?$AA@ 100d731c     libeay32_EM_dbg.0.9.8e:ec_curve.obj
 0002:0001f33c       ??_C@_0CL@JMAEHKDJ@SECG?1WTLS?5curve?5over?5a?5112?5bit?5p@ 100d733c     libeay32_EM_dbg.0.9.8e:ec_curve.obj
 0002:0001f368       ??_C@_0BN@JIPMFBKH@DB7C2ABF62E35E7628DFAC6561C5?$AA@ 100d7368     libeay32_EM_dbg.0.9.8e:ec_curve.obj
 0002:0001f388       ??_C@_0BN@DILIPKGG@a89ce5af8724c0a23e0e0ff77500?$AA@ 100d7388     libeay32_EM_dbg.0.9.8e:ec_curve.obj
 0002:0001f3a8       ??_C@_0BN@NKFNPOOI@09487239995A5EE76B55F9C2F098?$AA@ 100d73a8     libeay32_EM_dbg.0.9.8e:ec_curve.obj
 0002:0001f3c8       ??_C@_0BN@FBKBJNAD@659EF8BA043916EEDE8911702B22?$AA@ 100d73c8     libeay32_EM_dbg.0.9.8e:ec_curve.obj
 0002:0001f3e8       ??_C@_0BN@DKLIBGCH@DB7C2ABF62E35E668076BEAD2088?$AA@ 100d73e8     libeay32_EM_dbg.0.9.8e:ec_curve.obj
 0002:0001f408       ??_C@_0BN@OPGIIHFL@DB7C2ABF62E35E668076BEAD208B?$AA@ 100d7408     libeay32_EM_dbg.0.9.8e:ec_curve.obj
 0002:0001f428       ??_C@_0CM@IACJENLF@X9?462?1SECG?5curve?5over?5a?5256?5bit?5@ 100d7428     libeay32_EM_dbg.0.9.8e:ec_curve.obj
 0002:0001f458       ??_C@_0EB@MIJLAMHG@FFFFFFFF00000000FFFFFFFFFFFFFFFF@ 100d7458     libeay32_EM_dbg.0.9.8e:ec_curve.obj
 0002:0001f4a0       ??_C@_0EB@HOMILGKF@4fe342e2fe1a7f9b8ee7eb4a7c0f9e16@ 100d74a0     libeay32_EM_dbg.0.9.8e:ec_curve.obj
 0002:0001f4e8       ??_C@_0EB@OLPMACDN@6B17D1F2E12C4247F8BCE6E563A440F2@ 100d74e8     libeay32_EM_dbg.0.9.8e:ec_curve.obj
 0002:0001f530       ??_C@_0EB@CGMLNBOM@5AC635D8AA3A93E7B3EBBD55769886BC@ 100d7530     libeay32_EM_dbg.0.9.8e:ec_curve.obj
 0002:0001f578       ??_C@_0EB@KHNFKCPI@FFFFFFFF000000010000000000000000@ 100d7578     libeay32_EM_dbg.0.9.8e:ec_curve.obj
 0002:0001f5c0       ??_C@_0EB@NKKCFGLN@FFFFFFFF000000010000000000000000@ 100d75c0     libeay32_EM_dbg.0.9.8e:ec_curve.obj
 0002:0001f604       ??_C@_0DN@IPJCFAPE@7FFFFFFFFFFFFFFFFFFFFFFF7FFFFF97@ 100d7604     libeay32_EM_dbg.0.9.8e:ec_curve.obj
 0002:0001f644       ??_C@_0DN@OLOGAMGN@1607e6898f390c06bc1d552bad226f3b@ 100d7644     libeay32_EM_dbg.0.9.8e:ec_curve.obj
 0002:0001f684       ??_C@_0DN@PODFINOL@6768AE8E18BB92CFCF005C949AA2C6D9@ 100d7684     libeay32_EM_dbg.0.9.8e:ec_curve.obj
 0002:0001f6c4       ??_C@_0DN@LKNPDOHD@255705FA2A306654B1F4CB03D6A750A3@ 100d76c4     libeay32_EM_dbg.0.9.8e:ec_curve.obj
 0002:0001f704       ??_C@_0DN@KMAAMHLF@7FFFFFFFFFFFFFFFFFFFFFFF800000CF@ 100d7704     libeay32_EM_dbg.0.9.8e:ec_curve.obj
 0002:0001f744       ??_C@_0DN@CBMBEOIB@5b0125e4dbea0ec7206da0fc01d9b081@ 100d7744     libeay32_EM_dbg.0.9.8e:ec_curve.obj
 0002:0001f784       ??_C@_0DN@LJAFBLJN@38AF09D98727705120C921BB5E9E2629@ 100d7784     libeay32_EM_dbg.0.9.8e:ec_curve.obj
 0002:0001f7c4       ??_C@_0DN@LEAKOGCI@617FAB6832576CBBFED50D99F0249C3F@ 100d77c4     libeay32_EM_dbg.0.9.8e:ec_curve.obj
 0002:0001f804       ??_C@_0CH@COBCAEEE@X9?462?5curve?5over?5a?5239?5bit?5prime@ 100d7804     libeay32_EM_dbg.0.9.8e:ec_curve.obj
 0002:0001f82c       ??_C@_0DN@OJHJIMAL@7FFFFFFFFFFFFFFFFFFFFFFF7FFFFF9E@ 100d782c     libeay32_EM_dbg.0.9.8e:ec_curve.obj
 0002:0001f86c       ??_C@_0DN@OJKAHBB@7debe8e4e90a5dae6e4054ca530ba046@ 100d786c     libeay32_EM_dbg.0.9.8e:ec_curve.obj
 0002:0001f8ac       ??_C@_0DN@OHEBNAGB@0FFA963CDCA8816CCC33B8642BEDF905@ 100d78ac     libeay32_EM_dbg.0.9.8e:ec_curve.obj
 0002:0001f8ec       ??_C@_0DN@FNBIJBPA@6B016C3BDCF18941D0D654921475CA71@ 100d78ec     libeay32_EM_dbg.0.9.8e:ec_curve.obj
 0002:0001f92c       ??_C@_0DN@DHKDNKLN@7FFFFFFFFFFFFFFFFFFFFFFF7FFFFFFF@ 100d792c     libeay32_EM_dbg.0.9.8e:ec_curve.obj
 0002:0001f96c       ??_C@_0DN@EKNECOPI@7FFFFFFFFFFFFFFFFFFFFFFF7FFFFFFF@ 100d796c     libeay32_EM_dbg.0.9.8e:ec_curve.obj
 0002:0001f9ac       ??_C@_0DB@EAEHFCJI@FFFFFFFFFFFFFFFFFFFFFFFF7A62D031@ 100d79ac     libeay32_EM_dbg.0.9.8e:ec_curve.obj
 0002:0001f9e0       ??_C@_0DB@IFCEMDKF@38a90f22637337334b49dcb66a6dc8f9@ 100d79e0     libeay32_EM_dbg.0.9.8e:ec_curve.obj
 0002:0001fa14       ??_C@_0DB@EMKNMOBM@7D29778100C65A1DA1783716588DCE2B@ 100d7a14     libeay32_EM_dbg.0.9.8e:ec_curve.obj
 0002:0001fa48       ??_C@_0DB@DCDDKDI@22123DC2395A05CAA7423DAECCC94760@ 100d7a48     libeay32_EM_dbg.0.9.8e:ec_curve.obj
 0002:0001fa7c       ??_C@_0CH@BHJCBJE@X9?462?5curve?5over?5a?5192?5bit?5prime@ 100d7a7c     libeay32_EM_dbg.0.9.8e:ec_curve.obj
 0002:0001faa4       ??_C@_0DB@PCBKJKFJ@FFFFFFFFFFFFFFFFFFFFFFFE5FB1A724@ 100d7aa4     libeay32_EM_dbg.0.9.8e:ec_curve.obj
 0002:0001fad8       ??_C@_0DB@OFGGDEB@6574d11d69b6ec7a672bb82a083df2f2@ 100d7ad8     libeay32_EM_dbg.0.9.8e:ec_curve.obj
 0002:0001fb0c       ??_C@_0DB@JAAMMCPO@EEA2BAE7E1497842F2DE7769CFE9C989@ 100d7b0c     libeay32_EM_dbg.0.9.8e:ec_curve.obj
 0002:0001fb40       ??_C@_0DB@JMJNBCM@CC22D6DFB95C6B25E49C0D6364A4E598@ 100d7b40     libeay32_EM_dbg.0.9.8e:ec_curve.obj
 0002:0001fb74       ??_C@_0CL@NCEJLDDF@NIST?1SECG?5curve?5over?5a?5521?5bit?5p@ 100d7b74     libeay32_EM_dbg.0.9.8e:ec_curve.obj
 0002:0001fba0       ??_C@_0IE@DDIDDIA@1FFFFFFFFFFFFFFFFFFFFFFFFFFFFFFF@ 100d7ba0     libeay32_EM_dbg.0.9.8e:ec_curve.obj
 0002:0001fc28       ??_C@_0IF@IFBOMNNL@011839296a789a3bc0045c8a5fb42c7d@ 100d7c28     libeay32_EM_dbg.0.9.8e:ec_curve.obj
 0002:0001fcb0       ??_C@_0ID@OOGMNGNF@C6858E06B70404E9CD9E3ECB662395B4@ 100d7cb0     libeay32_EM_dbg.0.9.8e:ec_curve.obj
 0002:0001fd38       ??_C@_0IE@GOJLJCKA@051953EB9618E1C9A1F929A21A0B6854@ 100d7d38     libeay32_EM_dbg.0.9.8e:ec_curve.obj
 0002:0001fdc0       ??_C@_0IE@MECPOLCO@1FFFFFFFFFFFFFFFFFFFFFFFFFFFFFFF@ 100d7dc0     libeay32_EM_dbg.0.9.8e:ec_curve.obj
 0002:0001fe48       ??_C@_0IE@LJFIBPGL@1FFFFFFFFFFFFFFFFFFFFFFFFFFFFFFF@ 100d7e48     libeay32_EM_dbg.0.9.8e:ec_curve.obj
 0002:0001fecc       ??_C@_0CL@MPIFFEHD@NIST?1SECG?5curve?5over?5a?5384?5bit?5p@ 100d7ecc     libeay32_EM_dbg.0.9.8e:ec_curve.obj
 0002:0001fef8       ??_C@_0GB@IJGNFOHD@FFFFFFFFFFFFFFFFFFFFFFFFFFFFFFFF@ 100d7ef8     libeay32_EM_dbg.0.9.8e:ec_curve.obj
 0002:0001ff60       ??_C@_0GB@JOFNDMIE@3617de4a96262c6f5d9e98bf9292dc29@ 100d7f60     libeay32_EM_dbg.0.9.8e:ec_curve.obj
 0002:0001ffc8       ??_C@_0GB@GJBBIIPB@AA87CA22BE8B05378EB1C71EF320AD74@ 100d7fc8     libeay32_EM_dbg.0.9.8e:ec_curve.obj
 0002:00020030       ??_C@_0GB@GBMGBGKN@B3312FA7E23EE7E4988E056BE3F82D19@ 100d8030     libeay32_EM_dbg.0.9.8e:ec_curve.obj
 0002:00020098       ??_C@_0GB@KNLAOKCG@FFFFFFFFFFFFFFFFFFFFFFFFFFFFFFFF@ 100d8098     libeay32_EM_dbg.0.9.8e:ec_curve.obj
 0002:00020100       ??_C@_0GB@NAMHBOGD@FFFFFFFFFFFFFFFFFFFFFFFFFFFFFFFF@ 100d8100     libeay32_EM_dbg.0.9.8e:ec_curve.obj
 0002:00020164       ??_C@_0CL@NHPHHEEB@NIST?1SECG?5curve?5over?5a?5224?5bit?5p@ 100d8164     libeay32_EM_dbg.0.9.8e:ec_curve.obj
 0002:00020190       ??_C@_0DJ@BHCANMNE@FFFFFFFFFFFFFFFFFFFFFFFFFFFF16A2@ 100d8190     libeay32_EM_dbg.0.9.8e:ec_curve.obj
 0002:000201cc       ??_C@_0DJ@KNLKNOLF@bd376388b5f723fb4c22dfe6cd4375a0@ 100d81cc     libeay32_EM_dbg.0.9.8e:ec_curve.obj
 0002:00020208       ??_C@_0DJ@NPHLCOHI@B70E0CBD6BB4BF7F321390B94A03C1D3@ 100d8208     libeay32_EM_dbg.0.9.8e:ec_curve.obj
 0002:00020244       ??_C@_0DJ@KCHEMFFJ@B4050A850C04B3ABF54132565044B0B7@ 100d8244     libeay32_EM_dbg.0.9.8e:ec_curve.obj
 0002:00020280       ??_C@_0DJ@GECEELCG@FFFFFFFFFFFFFFFFFFFFFFFFFFFFFFFE@ 100d8280     libeay32_EM_dbg.0.9.8e:ec_curve.obj
 0002:000202bc       ??_C@_0DJ@KBMBLOHP@FFFFFFFFFFFFFFFFFFFFFFFFFFFFFFFF@ 100d82bc     libeay32_EM_dbg.0.9.8e:ec_curve.obj
 0002:000202f8       ??_C@_0DB@HJIMEGJL@NIST?1X9?462?1SECG?5curve?5over?5a?5192@ 100d82f8     libeay32_EM_dbg.0.9.8e:ec_curve.obj
 0002:0002032c       ??_C@_0DB@EHFHEEFE@FFFFFFFFFFFFFFFFFFFFFFFF99DEF836@ 100d832c     libeay32_EM_dbg.0.9.8e:ec_curve.obj
 0002:00020360       ??_C@_0DB@BFJADMLB@07192b95ffc8da78631011ed6b24cdd5@ 100d8360     libeay32_EM_dbg.0.9.8e:ec_curve.obj
 0002:00020394       ??_C@_0DB@LHIGDGHO@188DA80EB03090F67CBF20EB43A18800@ 100d8394     libeay32_EM_dbg.0.9.8e:ec_curve.obj
 0002:000203c8       ??_C@_0DB@PLBGALEH@64210519E59C80E70FA7E9AB72243049@ 100d83c8     libeay32_EM_dbg.0.9.8e:ec_curve.obj
 0002:000203fc       ??_C@_0DB@EFILCKBL@FFFFFFFFFFFFFFFFFFFFFFFFFFFFFFFE@ 100d83fc     libeay32_EM_dbg.0.9.8e:ec_curve.obj
 0002:00020430       ??_C@_0DB@DIPMNOFO@FFFFFFFFFFFFFFFFFFFFFFFFFFFFFFFE@ 100d8430     libeay32_EM_dbg.0.9.8e:ec_curve.obj
 0002:000213c8       ??_C@_0BH@GJAOOFMK@?4?2crypto?2ec?2ec_curve?4c?$AA@ 100d93c8     libeay32_EM_dbg.0.9.8e:ec_curve.obj
 0002:000213e0       ??_C@_0CF@JFAAPJDH@len?$DO?$DN0?5?$CG?$CG?5len?$DM?$DN?$CIint?$CJsizeof?$CIctx?9?$DO@ 100d93e0     libeay32_EM_dbg.0.9.8e:hmac.obj
 0002:00021408       ??_C@_0BF@PGACILEA@?4?2crypto?2hmac?2hmac?4c?$AA@ 100d9408     libeay32_EM_dbg.0.9.8e:hmac.obj
 0002:00021420       ??_C@_0BL@OKHNPHMK@j?5?$DM?$DN?5?$CIint?$CJsizeof?$CIctx?9?$DOkey?$CJ?$AA@ 100d9420     libeay32_EM_dbg.0.9.8e:hmac.obj
 0002:0002143c       ??_C@_0BK@LAJAIGBF@?4?2crypto?2pkcs12?2p12_key?4c?$AA@ 100d943c     libeay32_EM_dbg.0.9.8e:p12_key.obj
 0002:00021458       ??_C@_0BL@GDMBNEK@?4?2crypto?2pkcs12?2p12_decr?4c?$AA@ 100d9458     libeay32_EM_dbg.0.9.8e:p12_decr.obj
 0002:00021474       ??_C@_08CKLJFNPB@PBEPARAM?$AA@ 100d9474     libeay32_EM_dbg.0.9.8e:p5_pbe.obj
 0002:00021510       ??_C@_0CD@HMFJNEFL@EVP_CIPHER_iv_length?$CIcipher?$CJ?5?$DM?$DN?5@ 100d9510     libeay32_EM_dbg.0.9.8e:p5_crpt.obj
 0002:00021534       ??_C@_0DF@FHOHFFEB@EVP_CIPHER_key_length?$CIcipher?$CJ?5?$DM?$DN@ 100d9534     libeay32_EM_dbg.0.9.8e:p5_crpt.obj
 0002:0002156c       ??_C@_0BH@DKGHAIKO@?4?2crypto?2evp?2p5_crpt?4c?$AA@ 100d956c     libeay32_EM_dbg.0.9.8e:p5_crpt.obj
 0002:00021584       ??_C@_0BL@NPGDKDGJ@?4?2crypto?2pkcs12?2p12_crpt?4c?$AA@ 100d9584     libeay32_EM_dbg.0.9.8e:p12_crpt.obj
 0002:00021948       ??_C@_0BK@GBILIGIN@?4?2crypto?2evp?2e_camellia?4c?$AA@ 100d9948     libeay32_EM_dbg.0.9.8e:e_camellia.obj
 0002:00021964       ??_C@_0BH@MIGHECOA@?4?2crypto?2asn1?2a_enum?4c?$AA@ 100d9964     libeay32_EM_dbg.0.9.8e:a_enum.obj
 0002:0002197c       ??_C@_0BE@FPCNHCIJ@Generator?5?$CIhybrid?$CJ?3?$AA@ 100d997c     libeay32_EM_dbg.0.9.8e:t_pkey.obj
 0002:00021990       ??_C@_0BK@DOCPEENO@Generator?5?$CIuncompressed?$CJ?3?$AA@ 100d9990     libeay32_EM_dbg.0.9.8e:t_pkey.obj
 0002:000219ac       ??_C@_0BI@DFFFIKFB@Generator?5?$CIcompressed?$CJ?3?$AA@ 100d99ac     libeay32_EM_dbg.0.9.8e:t_pkey.obj
 0002:000219c4       ??_C@_0BD@IBKHKBJA@OpenSSL?5DSA?5method?$AA@ 100d99c4     libeay32_EM_dbg.0.9.8e:dsa_ossl.obj
 0002:000219d8       ??_C@_0BI@OJLFFLBA@?4?2crypto?2dsa?2dsa_ossl?4c?$AA@ 100d99d8     libeay32_EM_dbg.0.9.8e:dsa_ossl.obj
 0002:00021a90       ??_C@_0BH@HFFIPKFF@?4?2crypto?2ec?2ec2_smpl?4c?$AA@ 100d9a90     libeay32_EM_dbg.0.9.8e:ec2_smpl.obj
 0002:00021aa8       ??_C@_0EG@KJOGONJI@h?3?2sat?2desarrollo?2libs3os?2openss@ 100d9aa8     libeay32_EM_dbg.0.9.8e:ec2_smpl.obj
 0002:00021af0       ??_C@_0BF@MONENDDD@?1usr?1local?1ssl?1certs?$AA@ 100d9af0     libeay32_EM_dbg.0.9.8e:x509_def.obj
 0002:00021b08       ??_C@_0BI@DIHFGMNB@?1usr?1local?1ssl?1cert?4pem?$AA@ 100d9b08     libeay32_EM_dbg.0.9.8e:x509_def.obj
 0002:00021b20       ??_C@_0N@GHKHGDAO@SSL_CERT_DIR?$AA@ 100d9b20     libeay32_EM_dbg.0.9.8e:x509_def.obj
 0002:00021b30       ??_C@_0O@GKJOMDO@SSL_CERT_FILE?$AA@ 100d9b30     libeay32_EM_dbg.0.9.8e:x509_def.obj
 0002:00021b40       ??_C@_0BH@ICONPJGH@?4?2crypto?2asn1?2x_info?4c?$AA@ 100d9b40     libeay32_EM_dbg.0.9.8e:x_info.obj
 0002:00021b58       ??_C@_0BI@JHOHEJIM@?4?2crypto?2pem?2pem_info?4c?$AA@ 100d9b58     libeay32_EM_dbg.0.9.8e:pem_info.obj
 0002:00021b70       ??_C@_05LKMDHMJN@WIN32?$AA@ 100d9b70     libeay32_EM_dbg.0.9.8e:conf_def.obj
 0002:00021b78       ??_C@_0BA@EEIGDPJJ@OpenSSL?5default?$AA@ 100d9b78     libeay32_EM_dbg.0.9.8e:conf_def.obj
 0002:00021b88       _CONF_def_version          100d9b88     libeay32_EM_dbg.0.9.8e:conf_def.obj
 0002:00021bb4       ??_C@_0BJ@HNHBHKLJ@?4?2crypto?2conf?2conf_def?4c?$AA@ 100d9bb4     libeay32_EM_dbg.0.9.8e:conf_def.obj
 0002:00021bd0       ??_C@_05KFEICJBI@line?5?$AA@ 100d9bd0     libeay32_EM_dbg.0.9.8e:conf_def.obj
 0002:00021bd8       ??_C@_07PNLMPOMH@?$FL?$FL?$CFs?$FN?$FN?6?$AA@ 100d9bd8     libeay32_EM_dbg.0.9.8e:conf_def.obj
 0002:00021be0       ??_C@_0M@CLCLGKAH@?$FL?$CFs?$FN?5?$CFs?$DN?$CFs?6?$AA@ 100d9be0     libeay32_EM_dbg.0.9.8e:conf_def.obj
 0002:00021bec       ??_C@_03OEJENCPE@ENV?$AA@  100d9bec     libeay32_EM_dbg.0.9.8e:conf_api.obj
 0002:00021bf0       ??_C@_0BJ@NNNPODKO@?4?2crypto?2conf?2conf_api?4c?$AA@ 100d9bf0     libeay32_EM_dbg.0.9.8e:conf_api.obj
 0002:00021c0c       ??_C@_0BK@PILNOGHK@PROXY_CERT_INFO_EXTENSION?$AA@ 100d9c0c     libeay32_EM_dbg.0.9.8e:v3_pcia.obj
 0002:00021c28       ??_C@_0M@KKFBCGOG@proxyPolicy?$AA@ 100d9c28     libeay32_EM_dbg.0.9.8e:v3_pcia.obj
 0002:00021c34       ??_C@_0BH@JBGKCLHC@pcPathLengthConstraint?$AA@ 100d9c34     libeay32_EM_dbg.0.9.8e:v3_pcia.obj
 0002:00021c4c       ??_C@_0N@CLKEFBDI@PROXY_POLICY?$AA@ 100d9c4c     libeay32_EM_dbg.0.9.8e:v3_pcia.obj
 0002:00021c5c       ??_C@_0P@BLMEJDMO@policyLanguage?$AA@ 100d9c5c     libeay32_EM_dbg.0.9.8e:v3_pcia.obj
 0002:00021cf4       ??_C@_02JPPHBJLD@?2?6?$AA@ 100d9cf4     libeay32_EM_dbg.0.9.8e:f_int.obj
 0002:00021cf8       ??_C@_0BA@JLGHGCLL@OCSP_SERVICELOC?$AA@ 100d9cf8     libeay32_EM_dbg.0.9.8e:ocsp_asn.obj
 0002:00021d08       ??_C@_07PAIKCKMF@locator?$AA@ 100d9d08     libeay32_EM_dbg.0.9.8e:ocsp_asn.obj
 0002:00021d10       ??_C@_0L@JOKCDHBA@OCSP_CRLID?$AA@ 100d9d10     libeay32_EM_dbg.0.9.8e:ocsp_asn.obj
 0002:00021d1c       ??_C@_07BDEAJPPO@crlTime?$AA@ 100d9d1c     libeay32_EM_dbg.0.9.8e:ocsp_asn.obj
 0002:00021d24       ??_C@_06DLEHNACA@crlNum?$AA@ 100d9d24     libeay32_EM_dbg.0.9.8e:ocsp_asn.obj
 0002:00021d2c       ??_C@_06KAALCHHK@crlUrl?$AA@ 100d9d2c     libeay32_EM_dbg.0.9.8e:ocsp_asn.obj
 0002:00021d34       ??_C@_0P@CPCDLAO@OCSP_BASICRESP?$AA@ 100d9d34     libeay32_EM_dbg.0.9.8e:ocsp_asn.obj
 0002:00021d44       ??_C@_0BA@OOPOFNLG@tbsResponseData?$AA@ 100d9d44     libeay32_EM_dbg.0.9.8e:ocsp_asn.obj
 0002:00021d54       ??_C@_0O@GNAMNHBK@OCSP_RESPDATA?$AA@ 100d9d54     libeay32_EM_dbg.0.9.8e:ocsp_asn.obj
 0002:00021d64       ??_C@_0BD@LEANHDON@responseExtensions?$AA@ 100d9d64     libeay32_EM_dbg.0.9.8e:ocsp_asn.obj
 0002:00021d78       ??_C@_09NKKOBILA@responses?$AA@ 100d9d78     libeay32_EM_dbg.0.9.8e:ocsp_asn.obj
 0002:00021d84       ??_C@_0L@KADAOIGF@producedAt?$AA@ 100d9d84     libeay32_EM_dbg.0.9.8e:ocsp_asn.obj
 0002:00021d90       ??_C@_0M@CPBMKBOK@responderId?$AA@ 100d9d90     libeay32_EM_dbg.0.9.8e:ocsp_asn.obj
 0002:00021d9c       ??_C@_0BA@CEMENBMB@OCSP_SINGLERESP?$AA@ 100d9d9c     libeay32_EM_dbg.0.9.8e:ocsp_asn.obj
 0002:00021dac       ??_C@_0BB@BHCHCCEI@singleExtensions?$AA@ 100d9dac     libeay32_EM_dbg.0.9.8e:ocsp_asn.obj
 0002:00021dc0       ??_C@_0L@BEDJFPDO@thisUpdate?$AA@ 100d9dc0     libeay32_EM_dbg.0.9.8e:ocsp_asn.obj
 0002:00021dcc       ??_C@_0L@IGGFAGC@certStatus?$AA@ 100d9dcc     libeay32_EM_dbg.0.9.8e:ocsp_asn.obj
 0002:00021dd8       ??_C@_06JJGBHEJI@certId?$AA@ 100d9dd8     libeay32_EM_dbg.0.9.8e:ocsp_asn.obj
 0002:00021de0       ??_C@_0BA@JBJHLNOJ@OCSP_CERTSTATUS?$AA@ 100d9de0     libeay32_EM_dbg.0.9.8e:ocsp_asn.obj
 0002:00021df0       ??_C@_0O@ICNBHFHN@value?4unknown?$AA@ 100d9df0     libeay32_EM_dbg.0.9.8e:ocsp_asn.obj
 0002:00021e00       ??_C@_0O@GCBEBIKI@value?4revoked?$AA@ 100d9e00     libeay32_EM_dbg.0.9.8e:ocsp_asn.obj
 0002:00021e10       ??_C@_0L@MEIDNBL@value?4good?$AA@ 100d9e10     libeay32_EM_dbg.0.9.8e:ocsp_asn.obj
 0002:00021e1c       ??_C@_0BB@CFNKINIP@OCSP_REVOKEDINFO?$AA@ 100d9e1c     libeay32_EM_dbg.0.9.8e:ocsp_asn.obj
 0002:00021e30       ??_C@_0BB@JHENKMOK@revocationReason?$AA@ 100d9e30     libeay32_EM_dbg.0.9.8e:ocsp_asn.obj
 0002:00021e44       ??_C@_0P@MHJPNEEK@revocationTime?$AA@ 100d9e44     libeay32_EM_dbg.0.9.8e:ocsp_asn.obj
 0002:00021e54       ??_C@_0M@JBDPBGBO@OCSP_RESPID?$AA@ 100d9e54     libeay32_EM_dbg.0.9.8e:ocsp_asn.obj
 0002:00021e60       ??_C@_0M@OFGLOCKB@value?4byKey?$AA@ 100d9e60     libeay32_EM_dbg.0.9.8e:ocsp_asn.obj
 0002:00021e6c       ??_C@_0N@OFBDHEPF@value?4byName?$AA@ 100d9e6c     libeay32_EM_dbg.0.9.8e:ocsp_asn.obj
 0002:00021e7c       ??_C@_0O@CDJMCFNM@OCSP_RESPONSE?$AA@ 100d9e7c     libeay32_EM_dbg.0.9.8e:ocsp_asn.obj
 0002:00021e8c       ??_C@_0O@MMHCFEHM@responseBytes?$AA@ 100d9e8c     libeay32_EM_dbg.0.9.8e:ocsp_asn.obj
 0002:00021e9c       ??_C@_0P@GEHCLFGI@responseStatus?$AA@ 100d9e9c     libeay32_EM_dbg.0.9.8e:ocsp_asn.obj
 0002:00021eac       ??_C@_0P@ONFJGMLI@OCSP_RESPBYTES?$AA@ 100d9eac     libeay32_EM_dbg.0.9.8e:ocsp_asn.obj
 0002:00021ebc       ??_C@_08HKMEAON@response?$AA@ 100d9ebc     libeay32_EM_dbg.0.9.8e:ocsp_asn.obj
 0002:00021ec8       ??_C@_0N@FPIGADMM@responseType?$AA@ 100d9ec8     libeay32_EM_dbg.0.9.8e:ocsp_asn.obj
 0002:00021ed8       ??_C@_0N@PCNOLOBD@OCSP_REQUEST?$AA@ 100d9ed8     libeay32_EM_dbg.0.9.8e:ocsp_asn.obj
 0002:00021ee8       ??_C@_0BC@GKDKILGO@optionalSignature?$AA@ 100d9ee8     libeay32_EM_dbg.0.9.8e:ocsp_asn.obj
 0002:00021efc       ??_C@_0L@OIGCAPNH@tbsRequest?$AA@ 100d9efc     libeay32_EM_dbg.0.9.8e:ocsp_asn.obj
 0002:00021f08       ??_C@_0N@DDBEOJJA@OCSP_REQINFO?$AA@ 100d9f08     libeay32_EM_dbg.0.9.8e:ocsp_asn.obj
 0002:00021f18       ??_C@_0BC@CPAMEDLH@requestExtensions?$AA@ 100d9f18     libeay32_EM_dbg.0.9.8e:ocsp_asn.obj
 0002:00021f2c       ??_C@_0M@NNJGDIDJ@requestList?$AA@ 100d9f2c     libeay32_EM_dbg.0.9.8e:ocsp_asn.obj
 0002:00021f38       ??_C@_0O@NHDBCFOA@requestorName?$AA@ 100d9f38     libeay32_EM_dbg.0.9.8e:ocsp_asn.obj
 0002:00021f48       ??_C@_0M@IGPHKOAK@OCSP_ONEREQ?$AA@ 100d9f48     libeay32_EM_dbg.0.9.8e:ocsp_asn.obj
 0002:00021f54       ??_C@_0BI@PPJDGJOP@singleRequestExtensions?$AA@ 100d9f54     libeay32_EM_dbg.0.9.8e:ocsp_asn.obj
 0002:00021f6c       ??_C@_07GCNFCODJ@reqCert?$AA@ 100d9f6c     libeay32_EM_dbg.0.9.8e:ocsp_asn.obj
 0002:00021f74       ??_C@_0M@OCJEDPID@OCSP_CERTID?$AA@ 100d9f74     libeay32_EM_dbg.0.9.8e:ocsp_asn.obj
 0002:00021f80       ??_C@_0O@KPBFDKHB@issuerKeyHash?$AA@ 100d9f80     libeay32_EM_dbg.0.9.8e:ocsp_asn.obj
 0002:00021f90       ??_C@_0P@EKEFMOEP@issuerNameHash?$AA@ 100d9f90     libeay32_EM_dbg.0.9.8e:ocsp_asn.obj
 0002:00021fa0       ??_C@_0O@DHJLLKEK@hashAlgorithm?$AA@ 100d9fa0     libeay32_EM_dbg.0.9.8e:ocsp_asn.obj
 0002:00021fb0       ??_C@_0P@OIPGPNII@OCSP_SIGNATURE?$AA@ 100d9fb0     libeay32_EM_dbg.0.9.8e:ocsp_asn.obj
 0002:00021fc0       ??_C@_0BD@CBMBFDMH@signatureAlgorithm?$AA@ 100d9fc0     libeay32_EM_dbg.0.9.8e:ocsp_asn.obj
 0002:00022500       ??_C@_0BL@EFACHDEK@?4?2crypto?2x509v3?2pcy_data?4c?$AA@ 100da500     libeay32_EM_dbg.0.9.8e:pcy_data.obj
 0002:0002251c       ??_C@_0BK@JPOIDCOF@?4?2crypto?2x509v3?2pcy_map?4c?$AA@ 100da51c     libeay32_EM_dbg.0.9.8e:pcy_map.obj
 0002:00022538       ??_C@_0M@DPMJHKGH@PBKDF2PARAM?$AA@ 100da538     libeay32_EM_dbg.0.9.8e:p5_pbev2.obj
 0002:00022544       ??_C@_03NBFGPAGA@prf?$AA@  100da544     libeay32_EM_dbg.0.9.8e:p5_pbev2.obj
 0002:00022548       ??_C@_09PKJJLJJD@keylength?$AA@ 100da548     libeay32_EM_dbg.0.9.8e:p5_pbev2.obj
 0002:00022554       ??_C@_09DHBCCKCK@PBE2PARAM?$AA@ 100da554     libeay32_EM_dbg.0.9.8e:p5_pbev2.obj
 0002:00022560       ??_C@_0L@HBBFMHKN@encryption?$AA@ 100da560     libeay32_EM_dbg.0.9.8e:p5_pbev2.obj
 0002:0002256c       ??_C@_07KEPFKPDN@keyfunc?$AA@ 100da56c     libeay32_EM_dbg.0.9.8e:p5_pbev2.obj
 0002:00022628       ??_C@_0BL@DEPKENKB@?4?2crypto?2x509v3?2pcy_node?4c?$AA@ 100da628     libeay32_EM_dbg.0.9.8e:pcy_node.obj
 0002:00022644       ??_C@_0BG@MAGCMNCN@?4?2crypto?2ec?2ec_mult?4c?$AA@ 100da644     libeay32_EM_dbg.0.9.8e:ec_mult.obj
 0002:0002265c       ??_C@_0BF@DJKLHCAL@OpenSSL?5ECDSA?5method?$AA@ 100da65c     libeay32_EM_dbg.0.9.8e:ecs_ossl.obj
 0002:00022674       ??_C@_0BK@JICBNKGE@?4?2crypto?2ecdsa?2ecs_ossl?4c?$AA@ 100da674     libeay32_EM_dbg.0.9.8e:ecs_ossl.obj
 0002:00022694       ??_C@_0BC@MGHKLCAP@OpenSSL?5DH?5Method?$AA@ 100da694     libeay32_EM_dbg.0.9.8e:dh_key.obj
 0002:000226a8       ??_C@_0BF@LANDKLP@?4?2crypto?2dh?2dh_key?4c?$AA@ 100da6a8     libeay32_EM_dbg.0.9.8e:dh_key.obj
 0002:000226c4       ??_C@_0BG@KPFPNIIP@?4?2crypto?2bn?2bn_recp?4c?$AA@ 100da6c4     libeay32_EM_dbg.0.9.8e:bn_recp.obj
 0002:000226dc       ??_C@_0BF@HFMCBPGH@?4?2crypto?2ui?2ui_lib?4c?$AA@ 100da6dc     libeay32_EM_dbg.0.9.8e:ui_lib.obj
 0002:000226f4       ??_C@_0BC@FIPJHCII@You?5must?5type?5in?5?$AA@ 100da6f4     libeay32_EM_dbg.0.9.8e:ui_lib.obj
 0002:00022708       ??_C@_04MKEOLIJC@?5to?5?$AA@ 100da708     libeay32_EM_dbg.0.9.8e:ui_lib.obj
 0002:00022710       ??_C@_0M@MCBMLIEP@?5characters?$AA@ 100da710     libeay32_EM_dbg.0.9.8e:ui_lib.obj
 0002:0002271c       ??_C@_0BF@JMOFLBJO@keylen?5?$DM?$DN?5sizeof?5key?$AA@ 100da71c     libeay32_EM_dbg.0.9.8e:p5_crpt2.obj
 0002:00022734       ??_C@_0BI@BNAJCHDH@?4?2crypto?2evp?2p5_crpt2?4c?$AA@ 100da734     libeay32_EM_dbg.0.9.8e:p5_crpt2.obj
 0002:0002274c       _CAMELLIA_version          100da74c     libeay32_EM_dbg.0.9.8e:cmll_misc.obj
 0002:00022778       ??_C@_0BH@IMFGHBFJ@?4?2crypto?2dso?2dso_lib?4c?$AA@ 100da778     libeay32_EM_dbg.0.9.8e:dso_lib.obj
 0002:00022790       ??_C@_0BG@KEDDBGGO@?4?2crypto?2bn?2bn_exp2?4c?$AA@ 100da790     libeay32_EM_dbg.0.9.8e:bn_exp2.obj
 0002:000227a8       ??_C@_0BH@JNIBJIMD@?4?2crypto?2ec?2ec2_mult?4c?$AA@ 100da7a8     libeay32_EM_dbg.0.9.8e:ec2_mult.obj
 0002:00022800       ??_C@_0BG@LLCNHAHB@?4?2crypto?2bn?2bn_gf2m?4c?$AA@ 100da800     libeay32_EM_dbg.0.9.8e:bn_gf2m.obj
 0002:000228b0       ??_C@_0BH@LFGIMBNP@?4?2crypto?2ec?2ecp_mont?4c?$AA@ 100da8b0     libeay32_EM_dbg.0.9.8e:ecp_mont.obj
 0002:00022960       ??_C@_0BH@MKKJGLGM@?4?2crypto?2ec?2ecp_nist?4c?$AA@ 100da960     libeay32_EM_dbg.0.9.8e:ecp_nist.obj
 0002:00022978       ??_C@_0BH@BCLEMDFK@?4?2crypto?2asn1?2x_pkey?4c?$AA@ 100da978     libeay32_EM_dbg.0.9.8e:x_pkey.obj
 0002:00022990       ??_C@_09FLJPBFIA@ECDSA_SIG?$AA@ 100da990     libeay32_EM_dbg.0.9.8e:ecs_asn1.obj
 0002:000229e0       ??_C@_0BP@JCDKFDNH@OpenSSL?5default?5user?5interface?$AA@ 100da9e0     libeay32_EM_dbg.0.9.8e:ui_openssl.obj
 0002:00022a00       ??_C@_0BA@GANIJHKH@Verify?5failure?6?$AA@ 100daa00     libeay32_EM_dbg.0.9.8e:ui_openssl.obj
 0002:00022a10       ??_C@_0P@IOLEFIHN@Verifying?5?9?5?$CFs?$AA@ 100daa10     libeay32_EM_dbg.0.9.8e:ui_openssl.obj
 0002:00022a20       ??_C@_03EPNNLCDK@con?$AA@  100daa20     libeay32_EM_dbg.0.9.8e:ui_openssl.obj
 0002:00022a24       ??_C@_0BJ@HNOFKLHA@?4?2crypto?2ui?2ui_openssl?4c?$AA@ 100daa24     libeay32_EM_dbg.0.9.8e:ui_openssl.obj
 0002:00023ad8       ??_C@_0BH@IFDMNBNE@?4?2crypto?2ec?2ecp_smpl?4c?$AA@ 100dbad8     libeay32_EM_dbg.0.9.8e:ecp_smpl.obj
 0002:00023bbc       ??_C@_0BG@JHGBOOJL@?4?2crypto?2bn?2bn_nist?4c?$AA@ 100dbbbc     libeay32_EM_dbg.0.9.8e:bn_nist.obj
 0002:00023bd4       ??_C@_0CG@ELPNGFCJ@OpenSSL?5?8win32?8?5shared?5library?5m@ 100dbbd4     libeay32_EM_dbg.0.9.8e:dso_win32.obj
 0002:00023bfc       ??_C@_09CCCHLKJP@filename?$CI?$AA@ 100dbbfc     libeay32_EM_dbg.0.9.8e:dso_win32.obj
 0002:00023c08       ??_C@_01PKGAHCOL@?$CJ?$AA@ 100dbc08     libeay32_EM_dbg.0.9.8e:dso_win32.obj
 0002:00023c0c       ??_C@_0BJ@INKKKOJN@?4?2crypto?2dso?2dso_win32?4c?$AA@ 100dbc0c     libeay32_EM_dbg.0.9.8e:dso_win32.obj
 0002:00023c28       ??_C@_08MFAHALLH@symname?$CI?$AA@ 100dbc28     libeay32_EM_dbg.0.9.8e:dso_win32.obj
 0002:00023c34       ??_C@_02HDBGODGB@?2?2?$AA@ 100dbc34     libeay32_EM_dbg.0.9.8e:dso_win32.obj
 0002:00023c38       ??_C@_06DAJAKOAL@?$CFs?4dll?$AA@ 100dbc38     libeay32_EM_dbg.0.9.8e:dso_win32.obj
 0002:00023c60       ??_C@_0BG@EDINLKND@?4?2crypto?2bn?2bn_sqrt?4c?$AA@ 100dbc60     libeay32_EM_dbg.0.9.8e:bn_sqrt.obj
 0002:00023c78       ??_C@_0BL@LJLENDCP@OpenSSL?50?49?48e?523?5Feb?52007?$AA@ 100dbc78     ssleay32_EM_dbg.0.9.8e:ssl_lib.obj
 0002:00023c94       ??_C@_0BA@KBOIMHCO@?4?2ssl?2ssl_lib?4c?$AA@ 100dbc94     ssleay32_EM_dbg.0.9.8e:ssl_lib.obj
 0002:00023ca4       ??_C@_0CF@CEHHFEH@AES?3CAMELLIA?3ALL?3?$CBADH?3?$CLRC4?3?$EASTRE@ 100dbca4     ssleay32_EM_dbg.0.9.8e:ssl_lib.obj
 0002:00023ccc       ??_C@_0CH@MEMCPFFG@s?9?$DOsid_ctx_length?5?$DM?$DN?5sizeof?5s?9?$DOs@ 100dbccc     ssleay32_EM_dbg.0.9.8e:ssl_lib.obj
 0002:00023cf4       ??_C@_05NHFKDGAI@SSLv2?$AA@ 100dbcf4     ssleay32_EM_dbg.0.9.8e:ssl_lib.obj
 0002:00023cfc       ??_C@_05MOEBAHEJ@SSLv3?$AA@ 100dbcfc     ssleay32_EM_dbg.0.9.8e:ssl_lib.obj
 0002:00023d04       ??_C@_05LLIBCOJ@TLSv1?$AA@ 100dbd04     ssleay32_EM_dbg.0.9.8e:ssl_lib.obj
 0002:00023d0c       ??_C@_0BA@KANBIEAI@?4?2ssl?2ssl_rsa?4c?$AA@ 100dbd0c     ssleay32_EM_dbg.0.9.8e:ssl_rsa.obj
 0002:00023d1c       ??_C@_0CO@JKDHGEMK@?$CF?923s?5?$CFs?5Kx?$DN?$CF?98s?5Au?$DN?$CF?94s?5Enc?$DN?$CF?99@ 100dbd1c     ssleay32_EM_dbg.0.9.8e:ssl_ciph.obj
 0002:00023d4c       ??_C@_04PKDHFCJF@HIGH?$AA@ 100dbd4c     ssleay32_EM_dbg.0.9.8e:ssl_ciph.obj
 0002:00023d54       ??_C@_06HMBFJLMK@MEDIUM?$AA@ 100dbd54     ssleay32_EM_dbg.0.9.8e:ssl_ciph.obj
 0002:00023d5c       ??_C@_03IBEFMGAI@LOW?$AA@  100dbd5c     ssleay32_EM_dbg.0.9.8e:ssl_ciph.obj
 0002:00023d60       ??_C@_08HLOLKGDE@EXPORT56?$AA@ 100dbd60     ssleay32_EM_dbg.0.9.8e:ssl_ciph.obj
 0002:00023d6c       ??_C@_08CMHDGLIF@EXPORT40?$AA@ 100dbd6c     ssleay32_EM_dbg.0.9.8e:ssl_ciph.obj
 0002:00023d78       ??_C@_06NOPGBFOL@EXPORT?$AA@ 100dbd78     ssleay32_EM_dbg.0.9.8e:ssl_ciph.obj
 0002:00023d80       ??_C@_03OIINPCCA@FZA?$AA@  100dbd80     ssleay32_EM_dbg.0.9.8e:ssl_ciph.obj
 0002:00023d84       ??_C@_03LCCAPPKK@ADH?$AA@  100dbd84     ssleay32_EM_dbg.0.9.8e:ssl_ciph.obj
 0002:00023d88       ??_C@_04KGNFDNIL@KRB5?$AA@ 100dbd88     ssleay32_EM_dbg.0.9.8e:ssl_ciph.obj
 0002:00023d90       ??_C@_08LLHPADEA@CAMELLIA?$AA@ 100dbd90     ssleay32_EM_dbg.0.9.8e:ssl_ciph.obj
 0002:00023d9c       ??_C@_03BKNEFOAH@AES?$AA@  100dbd9c     ssleay32_EM_dbg.0.9.8e:ssl_ciph.obj
 0002:00023da0       ??_C@_04FODJCCBM@eFZA?$AA@ 100dbda0     ssleay32_EM_dbg.0.9.8e:ssl_ciph.obj
 0002:00023da8       ??_C@_05CIFIKNKA@eNULL?$AA@ 100dbda8     ssleay32_EM_dbg.0.9.8e:ssl_ciph.obj
 0002:00023db0       ??_C@_04CMONEEGC@3DES?$AA@ 100dbdb0     ssleay32_EM_dbg.0.9.8e:ssl_ciph.obj
 0002:00023db8       ??_C@_03DFKBHBPH@DSS?$AA@  100dbdb8     ssleay32_EM_dbg.0.9.8e:ssl_ciph.obj
 0002:00023dbc       ??_C@_03BCBCFAJE@aDH?$AA@  100dbdbc     ssleay32_EM_dbg.0.9.8e:ssl_ciph.obj
 0002:00023dc0       ??_C@_05LDMJOPLG@aNULL?$AA@ 100dbdc0     ssleay32_EM_dbg.0.9.8e:ssl_ciph.obj
 0002:00023dc8       ??_C@_04KLLJIENM@aFZA?$AA@ 100dbdc8     ssleay32_EM_dbg.0.9.8e:ssl_ciph.obj
 0002:00023dd0       ??_C@_04HGJFAHAL@aDSS?$AA@ 100dbdd0     ssleay32_EM_dbg.0.9.8e:ssl_ciph.obj
 0002:00023dd8       ??_C@_04HLBDHPJL@aRSA?$AA@ 100dbdd8     ssleay32_EM_dbg.0.9.8e:ssl_ciph.obj
 0002:00023de0       ??_C@_05BCJNLHMK@aKRB5?$AA@ 100dbde0     ssleay32_EM_dbg.0.9.8e:ssl_ciph.obj
 0002:00023de8       ??_C@_03DNECGIPN@EDH?$AA@  100dbde8     ssleay32_EM_dbg.0.9.8e:ssl_ciph.obj
 0002:00023dec       ??_C@_08MLOGGCBG@ECCdraft?$AA@ 100dbdec     ssleay32_EM_dbg.0.9.8e:ssl_ciph.obj
 0002:00023df8       ??_C@_04OBAJJMHN@kFZA?$AA@ 100dbdf8     ssleay32_EM_dbg.0.9.8e:ssl_ciph.obj
 0002:00023e00       ??_C@_04DEMGAGKA@kEDH?$AA@ 100dbe00     ssleay32_EM_dbg.0.9.8e:ssl_ciph.obj
 0002:00023e08       ??_C@_04LMFBPDAP@kDHd?$AA@ 100dbe08     ssleay32_EM_dbg.0.9.8e:ssl_ciph.obj
 0002:00023e10       ??_C@_04KAMJEGNI@kDHr?$AA@ 100dbe10     ssleay32_EM_dbg.0.9.8e:ssl_ciph.obj
 0002:00023e18       ??_C@_04DBKDGHDK@kRSA?$AA@ 100dbe18     ssleay32_EM_dbg.0.9.8e:ssl_ciph.obj
 0002:00023e20       ??_C@_05LDAGJEKM@kKRB5?$AA@ 100dbe20     ssleay32_EM_dbg.0.9.8e:ssl_ciph.obj
 0002:00023e28       ??_C@_0BE@MOOCAEFB@COMPLEMENTOFDEFAULT?$AA@ 100dbe28     ssleay32_EM_dbg.0.9.8e:ssl_ciph.obj
 0002:00023e3c       ??_C@_0BA@NMKLDIMD@COMPLEMENTOFALL?$AA@ 100dbe3c     ssleay32_EM_dbg.0.9.8e:ssl_ciph.obj
 0002:00023e4c       ??_C@_03NIFPGLBG@ALL?$AA@  100dbe4c     ssleay32_EM_dbg.0.9.8e:ssl_ciph.obj
 0002:00024580       ??_C@_0BB@LIPCHABF@?4?2ssl?2ssl_ciph?4c?$AA@ 100dc580     ssleay32_EM_dbg.0.9.8e:ssl_ciph.obj
 0002:00024594       ??_C@_07MGCPDNLD@DEFAULT?$AA@ 100dc594     ssleay32_EM_dbg.0.9.8e:ssl_ciph.obj
 0002:0002459c       ??_C@_08NKIPMNFC@STRENGTH?$AA@ 100dc59c     ssleay32_EM_dbg.0.9.8e:ssl_ciph.obj
 0002:000245a8       ??_C@_0CB@IPKKKBFF@x509?5verification?5setup?5problems@ 100dc5a8     ssleay32_EM_dbg.0.9.8e:ssl_err.obj
 0002:000245cc       ??_C@_08LEEKLKIH@x509?5lib?$AA@ 100dc5cc     ssleay32_EM_dbg.0.9.8e:ssl_err.obj
 0002:000245d8       ??_C@_0BF@IIJIOCLO@wrong?5version?5number?$AA@ 100dc5d8     ssleay32_EM_dbg.0.9.8e:ssl_err.obj
 0002:000245f0       ??_C@_0BC@IKGOJHIL@wrong?5ssl?5version?$AA@ 100dc5f0     ssleay32_EM_dbg.0.9.8e:ssl_err.obj
 0002:00024604       ??_C@_0BF@LCACIEAJ@wrong?5signature?5size?$AA@ 100dc604     ssleay32_EM_dbg.0.9.8e:ssl_err.obj
 0002:0002461c       ??_C@_0BJ@LOOCOMJP@wrong?5number?5of?5key?5bits?$AA@ 100dc61c     ssleay32_EM_dbg.0.9.8e:ssl_err.obj
 0002:00024638       ??_C@_0BD@PJNOGBDL@wrong?5message?5type?$AA@ 100dc638     ssleay32_EM_dbg.0.9.8e:ssl_err.obj
 0002:0002464c       ??_C@_0BG@EAEEJHLO@wrong?5cipher?5returned?$AA@ 100dc64c     ssleay32_EM_dbg.0.9.8e:ssl_err.obj
 0002:00024664       ??_C@_0BC@LPFLFGE@write?5bio?5not?5set?$AA@ 100dc664     ssleay32_EM_dbg.0.9.8e:ssl_err.obj
 0002:00024678       ??_C@_0BI@MINADGB@unsupported?5ssl?5version?$AA@ 100dc678     ssleay32_EM_dbg.0.9.8e:ssl_err.obj
 0002:00024690       ??_C@_0BF@FDMDPPGG@unsupported?5protocol?$AA@ 100dc690     ssleay32_EM_dbg.0.9.8e:ssl_err.obj
 0002:000246a8       ??_C@_0BL@EABDDLEE@unsupported?5elliptic?5curve?$AA@ 100dc6a8     ssleay32_EM_dbg.0.9.8e:ssl_err.obj
 0002:000246c4       ??_C@_0CC@EGPPFAKP@unsupported?5compression?5algorith@ 100dc6c4     ssleay32_EM_dbg.0.9.8e:ssl_err.obj
 0002:000246e8       ??_C@_0O@BIABHEFK@unknown?5state?$AA@ 100dc6e8     ssleay32_EM_dbg.0.9.8e:ssl_err.obj
 0002:000246f8       ??_C@_0BE@NFEMGHJI@unknown?5ssl?5version?$AA@ 100dc6f8     ssleay32_EM_dbg.0.9.8e:ssl_err.obj
 0002:0002470c       ??_C@_0BK@PMMINFEG@unknown?5remote?5error?5type?$AA@ 100dc70c     ssleay32_EM_dbg.0.9.8e:ssl_err.obj
 0002:00024728       ??_C@_0BB@BLECIBPP@unknown?5protocol?$AA@ 100dc728     ssleay32_EM_dbg.0.9.8e:ssl_err.obj
 0002:0002473c       ??_C@_0BC@IJGHBKLA@unknown?5pkey?5type?$AA@ 100dc73c     ssleay32_EM_dbg.0.9.8e:ssl_err.obj
 0002:00024750       ??_C@_0BK@PFADFKII@unknown?5key?5exchange?5type?$AA@ 100dc750     ssleay32_EM_dbg.0.9.8e:ssl_err.obj
 0002:0002476c       ??_C@_0BE@MKGJFNCP@unknown?5cipher?5type?$AA@ 100dc76c     ssleay32_EM_dbg.0.9.8e:ssl_err.obj
 0002:00024780       ??_C@_0BI@OLEKBGFK@unknown?5cipher?5returned?$AA@ 100dc780     ssleay32_EM_dbg.0.9.8e:ssl_err.obj
 0002:00024798       ??_C@_0BJ@HADFAIFE@unknown?5certificate?5type?$AA@ 100dc798     ssleay32_EM_dbg.0.9.8e:ssl_err.obj
 0002:000247b4       ??_C@_0BD@NMFMDKLF@unknown?5alert?5type?$AA@ 100dc7b4     ssleay32_EM_dbg.0.9.8e:ssl_err.obj
 0002:000247c8       ??_C@_0BC@OCDELDMK@unexpected?5record?$AA@ 100dc7c8     ssleay32_EM_dbg.0.9.8e:ssl_err.obj
 0002:000247dc       ??_C@_0BD@CAGOJNEI@unexpected?5message?$AA@ 100dc7dc     ssleay32_EM_dbg.0.9.8e:ssl_err.obj
 0002:000247f0       ??_C@_0CC@LEBAAANA@unable?5to?5load?5ssl3?5sha1?5routine@ 100dc7f0     ssleay32_EM_dbg.0.9.8e:ssl_err.obj
 0002:00024814       ??_C@_0CB@DPNAAIHC@unable?5to?5load?5ssl3?5md5?5routines@ 100dc814     ssleay32_EM_dbg.0.9.8e:ssl_err.obj
 0002:00024838       ??_C@_0CB@IGCLNDJK@unable?5to?5load?5ssl2?5md5?5routines@ 100dc838     ssleay32_EM_dbg.0.9.8e:ssl_err.obj
 0002:0002485c       ??_C@_0BK@IKEKCMIO@unable?5to?5find?5ssl?5method?$AA@ 100dc85c     ssleay32_EM_dbg.0.9.8e:ssl_err.obj
 0002:00024878       ??_C@_0CF@PJOPKJID@unable?5to?5find?5public?5key?5parame@ 100dc878     ssleay32_EM_dbg.0.9.8e:ssl_err.obj
 0002:000248a0       ??_C@_0BP@HPLCLAIO@unable?5to?5find?5ecdh?5parameters?$AA@ 100dc8a0     ssleay32_EM_dbg.0.9.8e:ssl_err.obj
 0002:000248c0       ??_C@_0BN@HDOPKHKA@unable?5to?5find?5dh?5parameters?$AA@ 100dc8c0     ssleay32_EM_dbg.0.9.8e:ssl_err.obj
 0002:000248e0       ??_C@_0BN@EMKPDNKB@unable?5to?5extract?5public?5key?$AA@ 100dc8e0     ssleay32_EM_dbg.0.9.8e:ssl_err.obj
 0002:00024900       ??_C@_0BM@DLKLNLJI@unable?5to?5decode?5ecdh?5certs?$AA@ 100dc900     ssleay32_EM_dbg.0.9.8e:ssl_err.obj
 0002:0002491c       ??_C@_0BK@PKNIJNJH@unable?5to?5decode?5dh?5certs?$AA@ 100dc91c     ssleay32_EM_dbg.0.9.8e:ssl_err.obj
 0002:00024938       ??_C@_0CA@LGMOAOLJ@tried?5to?5use?5unsupported?5cipher?$AA@ 100dc938     ssleay32_EM_dbg.0.9.8e:ssl_err.obj
 0002:00024958       ??_C@_0CI@NFLDIHCM@tls?5rsa?5encrypted?5value?5length?5i@ 100dc958     ssleay32_EM_dbg.0.9.8e:ssl_err.obj
 0002:00024980       ??_C@_0CP@GDNKKNLH@tls?5peer?5did?5not?5respond?5with?5ce@ 100dc980     ssleay32_EM_dbg.0.9.8e:ssl_err.obj
 0002:000249b0       ??_C@_0CF@PCOEGFEO@tls?5client?5cert?5req?5with?5anon?5ci@ 100dc9b0     ssleay32_EM_dbg.0.9.8e:ssl_err.obj
 0002:000249d8       ??_C@_0BL@MCPLBBPM@tlsv1?5alert?5user?5cancelled?$AA@ 100dc9d8     ssleay32_EM_dbg.0.9.8e:ssl_err.obj
 0002:000249f4       ??_C@_0BH@HJELAKGH@tlsv1?5alert?5unknown?5ca?$AA@ 100dc9f4     ssleay32_EM_dbg.0.9.8e:ssl_err.obj
 0002:00024a0c       ??_C@_0BM@ONCNNJGO@tlsv1?5alert?5record?5overflow?$AA@ 100dca0c     ssleay32_EM_dbg.0.9.8e:ssl_err.obj
 0002:00024a28       ??_C@_0BN@MHJMOHFJ@tlsv1?5alert?5protocol?5version?$AA@ 100dca28     ssleay32_EM_dbg.0.9.8e:ssl_err.obj
 0002:00024a48       ??_C@_0BN@BFEGMAGC@tlsv1?5alert?5no?5renegotiation?$AA@ 100dca48     ssleay32_EM_dbg.0.9.8e:ssl_err.obj
 0002:00024a68       ??_C@_0BL@JPMGKOMO@tlsv1?5alert?5internal?5error?$AA@ 100dca68     ssleay32_EM_dbg.0.9.8e:ssl_err.obj
 0002:00024a84       ??_C@_0CC@ENMFDKCL@tlsv1?5alert?5insufficient?5securit@ 100dca84     ssleay32_EM_dbg.0.9.8e:ssl_err.obj
 0002:00024aa8       ??_C@_0BP@GJBIAHFO@tlsv1?5alert?5export?5restriction?$AA@ 100dcaa8     ssleay32_EM_dbg.0.9.8e:ssl_err.obj
 0002:00024ac8       ??_C@_0BK@CFOKKPLB@tlsv1?5alert?5decrypt?5error?$AA@ 100dcac8     ssleay32_EM_dbg.0.9.8e:ssl_err.obj
 0002:00024ae4       ??_C@_0BO@MFCKMBPH@tlsv1?5alert?5decryption?5failed?$AA@ 100dcae4     ssleay32_EM_dbg.0.9.8e:ssl_err.obj
 0002:00024b04       ??_C@_0BJ@DBKPNAEF@tlsv1?5alert?5decode?5error?$AA@ 100dcb04     ssleay32_EM_dbg.0.9.8e:ssl_err.obj
 0002:00024b20       ??_C@_0BK@PKOBFFAP@tlsv1?5alert?5access?5denied?$AA@ 100dcb20     ssleay32_EM_dbg.0.9.8e:ssl_err.obj
 0002:00024b3c       ??_C@_0BM@DCDBNMPH@ssl?5session?5id?5is?5different?$AA@ 100dcb3c     ssleay32_EM_dbg.0.9.8e:ssl_err.obj
 0002:00024b58       ??_C@_0BO@GIHNGJFO@ssl?5session?5id?5has?5bad?5length?$AA@ 100dcb58     ssleay32_EM_dbg.0.9.8e:ssl_err.obj
 0002:00024b78       ??_C@_0CA@NGOBKNKA@ssl?5session?5id?5context?5too?5long?$AA@ 100dcb78     ssleay32_EM_dbg.0.9.8e:ssl_err.obj
 0002:00024b98       ??_C@_0BI@KMJPKKOG@ssl?5session?5id?5conflict?$AA@ 100dcb98     ssleay32_EM_dbg.0.9.8e:ssl_err.obj
 0002:00024bb0       ??_C@_0BP@OCDCIPEF@ssl?5session?5id?5callback?5failed?$AA@ 100dcbb0     ssleay32_EM_dbg.0.9.8e:ssl_err.obj
 0002:00024bd0       ??_C@_0BL@LCFIJDNB@ssl?5library?5has?5no?5ciphers?$AA@ 100dcbd0     ssleay32_EM_dbg.0.9.8e:ssl_err.obj
 0002:00024bec       ??_C@_0BG@DFBEEAID@ssl?5handshake?5failure?$AA@ 100dcbec     ssleay32_EM_dbg.0.9.8e:ssl_err.obj
 0002:00024c04       ??_C@_0CD@DNPGODIL@ssl?5ctx?5has?5no?5default?5ssl?5versi@ 100dcc04     ssleay32_EM_dbg.0.9.8e:ssl_err.obj
 0002:00024c28       ??_C@_0CE@ILKLAJOG@sslv3?5alert?5unsupported?5certific@ 100dcc28     ssleay32_EM_dbg.0.9.8e:ssl_err.obj
 0002:00024c4c       ??_C@_0BP@NNNCIAEG@sslv3?5alert?5unexpected?5message?$AA@ 100dcc4c     ssleay32_EM_dbg.0.9.8e:ssl_err.obj
 0002:00024c6c       ??_C@_0BL@FDFMNPFB@sslv3?5alert?5no?5certificate?$AA@ 100dcc6c     ssleay32_EM_dbg.0.9.8e:ssl_err.obj
 0002:00024c88       ??_C@_0BO@ONELIGAP@sslv3?5alert?5illegal?5parameter?$AA@ 100dcc88     ssleay32_EM_dbg.0.9.8e:ssl_err.obj
 0002:00024ca8       ??_C@_0BO@HPPJFPPF@sslv3?5alert?5handshake?5failure?$AA@ 100dcca8     ssleay32_EM_dbg.0.9.8e:ssl_err.obj
 0002:00024cc8       ??_C@_0CC@JAMGHFLG@sslv3?5alert?5decompression?5failur@ 100dccc8     ssleay32_EM_dbg.0.9.8e:ssl_err.obj
 0002:00024cec       ??_C@_0CA@PGDGJACO@sslv3?5alert?5certificate?5unknown?$AA@ 100dccec     ssleay32_EM_dbg.0.9.8e:ssl_err.obj
 0002:00024d0c       ??_C@_0CA@BGPDPNPL@sslv3?5alert?5certificate?5revoked?$AA@ 100dcd0c     ssleay32_EM_dbg.0.9.8e:ssl_err.obj
 0002:00024d2c       ??_C@_0CA@BCIMDGGP@sslv3?5alert?5certificate?5expired?$AA@ 100dcd2c     ssleay32_EM_dbg.0.9.8e:ssl_err.obj
 0002:00024d4c       ??_C@_0BL@JNLHCANB@sslv3?5alert?5bad?5record?5mac?$AA@ 100dcd4c     ssleay32_EM_dbg.0.9.8e:ssl_err.obj
 0002:00024d68       ??_C@_0BM@KAMHDBAN@sslv3?5alert?5bad?5certificate?$AA@ 100dcd68     ssleay32_EM_dbg.0.9.8e:ssl_err.obj
 0002:00024d84       ??_C@_0BK@BGMBAFAC@ssl3?5session?5id?5too?5short?$AA@ 100dcd84     ssleay32_EM_dbg.0.9.8e:ssl_err.obj
 0002:00024da0       ??_C@_0BJ@LDLCEGDD@ssl3?5session?5id?5too?5long?$AA@ 100dcda0     ssleay32_EM_dbg.0.9.8e:ssl_err.obj
 0002:00024dbc       ??_C@_0BM@MPIIPGFI@ssl2?5connection?5id?5too?5long?$AA@ 100dcdbc     ssleay32_EM_dbg.0.9.8e:ssl_err.obj
 0002:00024dd8       ??_C@_0BN@JEHCHDGJ@ssl23?5doing?5session?5id?5reuse?$AA@ 100dcdd8     ssleay32_EM_dbg.0.9.8e:ssl_err.obj
 0002:00024df8       ??_C@_0CG@NDJLKBOF@signature?5for?5non?5signing?5certif@ 100dcdf8     ssleay32_EM_dbg.0.9.8e:ssl_err.obj
 0002:00024e20       ??_C@_0L@IEMCKMNJ@short?5read?$AA@ 100dce20     ssleay32_EM_dbg.0.9.8e:ssl_err.obj
 0002:00024e2c       ??_C@_0CB@LGCONELE@session?5id?5context?5uninitialized@ 100dce2c     ssleay32_EM_dbg.0.9.8e:ssl_err.obj
 0002:00024e50       ??_C@_0BL@PNCDKNKJ@reuse?5cipher?5list?5not?5zero?$AA@ 100dce50     ssleay32_EM_dbg.0.9.8e:ssl_err.obj
 0002:00024e6c       ??_C@_0BJ@KKBNBOKM@reuse?5cert?5type?5not?5zero?$AA@ 100dce6c     ssleay32_EM_dbg.0.9.8e:ssl_err.obj
 0002:00024e88       ??_C@_0BL@DFDGEAIE@reuse?5cert?5length?5not?5zero?$AA@ 100dce88     ssleay32_EM_dbg.0.9.8e:ssl_err.obj
 0002:00024ea4       ??_C@_0BI@NENGIIJP@required?5cipher?5missing?$AA@ 100dcea4     ssleay32_EM_dbg.0.9.8e:ssl_err.obj
 0002:00024ebc       ??_C@_0BB@GGOPKPEL@record?5too?5small?$AA@ 100dcebc     ssleay32_EM_dbg.0.9.8e:ssl_err.obj
 0002:00024ed0       ??_C@_0BB@MOKEFONN@record?5too?5large?$AA@ 100dced0     ssleay32_EM_dbg.0.9.8e:ssl_err.obj
 0002:00024ee4       ??_C@_0BH@BPBIKGPA@record?5length?5mismatch?$AA@ 100dcee4     ssleay32_EM_dbg.0.9.8e:ssl_err.obj
 0002:00024efc       ??_C@_0BH@IOHMCLEG@read?5wrong?5packet?5type?$AA@ 100dcefc     ssleay32_EM_dbg.0.9.8e:ssl_err.obj
 0002:00024f14       ??_C@_0BF@OBOFCALD@read?5timeout?5expired?$AA@ 100dcf14     ssleay32_EM_dbg.0.9.8e:ssl_err.obj
 0002:00024f2c       ??_C@_0BB@MAIPAGMC@read?5bio?5not?5set?$AA@ 100dcf2c     ssleay32_EM_dbg.0.9.8e:ssl_err.obj
 0002:00024f40       ??_C@_0BG@FIGBFCNM@public?5key?5is?5not?5rsa?$AA@ 100dcf40     ssleay32_EM_dbg.0.9.8e:ssl_err.obj
 0002:00024f58       ??_C@_0BJ@HDGFJADK@public?5key?5encrypt?5error?$AA@ 100dcf58     ssleay32_EM_dbg.0.9.8e:ssl_err.obj
 0002:00024f74       ??_C@_0BF@DHFDHEC@protocol?5is?5shutdown?$AA@ 100dcf74     ssleay32_EM_dbg.0.9.8e:ssl_err.obj
 0002:00024f8c       ??_C@_0CC@IFJCDPHD@problems?5mapping?5cipher?5function@ 100dcf8c     ssleay32_EM_dbg.0.9.8e:ssl_err.obj
 0002:00024fb0       ??_C@_0BI@FIGPLECJ@pre?5mac?5length?5too?5long?$AA@ 100dcfb0     ssleay32_EM_dbg.0.9.8e:ssl_err.obj
 0002:00024fc8       ??_C@_0CI@GDCHOICH@peer?5error?5unsupported?5certifica@ 100dcfc8     ssleay32_EM_dbg.0.9.8e:ssl_err.obj
 0002:00024ff0       ??_C@_0BF@NAHOFEAB@peer?5error?5no?5cipher?$AA@ 100dcff0     ssleay32_EM_dbg.0.9.8e:ssl_err.obj
 0002:00025008       ??_C@_0BK@BPPMPDAK@peer?5error?5no?5certificate?$AA@ 100dd008     ssleay32_EM_dbg.0.9.8e:ssl_err.obj
 0002:00025024       ??_C@_0BH@DFJBHMJL@peer?5error?5certificate?$AA@ 100dd024     ssleay32_EM_dbg.0.9.8e:ssl_err.obj
 0002:0002503c       ??_C@_0L@CODHGKHG@peer?5error?$AA@ 100dd03c     ssleay32_EM_dbg.0.9.8e:ssl_err.obj
 0002:00025048       ??_C@_0CC@KGOAEFEB@peer?5did?5not?5return?5a?5certificat@ 100dd048     ssleay32_EM_dbg.0.9.8e:ssl_err.obj
 0002:0002506c       ??_C@_0O@BMOMIHCH@path?5too?5long?$AA@ 100dd06c     ssleay32_EM_dbg.0.9.8e:ssl_err.obj
 0002:0002507c       ??_C@_0BH@LCGBGIAP@packet?5length?5too?5long?$AA@ 100dd07c     ssleay32_EM_dbg.0.9.8e:ssl_err.obj
 0002:00025094       ??_C@_0BO@ENMPBFDK@only?5tls?5allowed?5in?5fips?5mode?$AA@ 100dd094     ssleay32_EM_dbg.0.9.8e:ssl_err.obj
 0002:000250b4       ??_C@_0CA@FOKCBPLN@old?5session?5cipher?5not?5returned?$AA@ 100dd0b4     ssleay32_EM_dbg.0.9.8e:ssl_err.obj
 0002:000250d4       ??_C@_0BH@NBFOBJNL@null?5ssl?5method?5passed?$AA@ 100dd0d4     ssleay32_EM_dbg.0.9.8e:ssl_err.obj
 0002:000250ec       ??_C@_0N@HHLGCMKK@null?5ssl?5ctx?$AA@ 100dd0ec     ssleay32_EM_dbg.0.9.8e:ssl_err.obj
 0002:000250fc       ??_C@_0BD@HBBKEDNH@no?5verify?5callback?$AA@ 100dd0fc     ssleay32_EM_dbg.0.9.8e:ssl_err.obj
 0002:00025110       ??_C@_0BB@OCDPHJLN@no?5shared?5cipher?$AA@ 100dd110     ssleay32_EM_dbg.0.9.8e:ssl_err.obj
 0002:00025124       ??_C@_0N@OHMOHJBB@no?5publickey?$AA@ 100dd124     ssleay32_EM_dbg.0.9.8e:ssl_err.obj
 0002:00025134       ??_C@_0BH@HIGPDENG@no?5protocols?5available?$AA@ 100dd134     ssleay32_EM_dbg.0.9.8e:ssl_err.obj
 0002:0002514c       ??_C@_0BI@LEEEJBNF@no?5private?5key?5assigned?$AA@ 100dd14c     ssleay32_EM_dbg.0.9.8e:ssl_err.obj
 0002:00025164       ??_C@_0O@HOLHGLHB@no?5privatekey?$AA@ 100dd164     ssleay32_EM_dbg.0.9.8e:ssl_err.obj
 0002:00025174       ??_C@_0BE@NJINPACL@no?5method?5specified?$AA@ 100dd174     ssleay32_EM_dbg.0.9.8e:ssl_err.obj
 0002:00025188       ??_C@_0BJ@MPDKAONM@no?5compression?5specified?$AA@ 100dd188     ssleay32_EM_dbg.0.9.8e:ssl_err.obj
 0002:000251a4       ??_C@_0BI@OHGJNKJD@no?5client?5cert?5received?$AA@ 100dd1a4     ssleay32_EM_dbg.0.9.8e:ssl_err.obj
 0002:000251bc       ??_C@_0BA@MPGJENKA@no?5cipher?5match?$AA@ 100dd1bc     ssleay32_EM_dbg.0.9.8e:ssl_err.obj
 0002:000251cc       ??_C@_0P@GIKJEDBA@no?5cipher?5list?$AA@ 100dd1cc     ssleay32_EM_dbg.0.9.8e:ssl_err.obj
 0002:000251dc       ??_C@_0BF@MOPBGGHG@no?5ciphers?5specified?$AA@ 100dd1dc     ssleay32_EM_dbg.0.9.8e:ssl_err.obj
 0002:000251f4       ??_C@_0BC@GFOKAAAE@no?5ciphers?5passed?$AA@ 100dd1f4     ssleay32_EM_dbg.0.9.8e:ssl_err.obj
 0002:00025208       ??_C@_0BF@JNKMNPPB@no?5ciphers?5available?$AA@ 100dd208     ssleay32_EM_dbg.0.9.8e:ssl_err.obj
 0002:00025220       ??_C@_0BJ@LMCABMHP@no?5certificate?5specified?$AA@ 100dd220     ssleay32_EM_dbg.0.9.8e:ssl_err.obj
 0002:0002523c       ??_C@_0BD@FBLAIAJN@no?5certificate?5set?$AA@ 100dd23c     ssleay32_EM_dbg.0.9.8e:ssl_err.obj
 0002:00025250       ??_C@_0BI@PJMDNLFJ@no?5certificate?5returned?$AA@ 100dd250     ssleay32_EM_dbg.0.9.8e:ssl_err.obj
 0002:00025268       ??_C@_0BI@MPOJHJNN@no?5certificate?5assigned?$AA@ 100dd268     ssleay32_EM_dbg.0.9.8e:ssl_err.obj
 0002:00025280       ??_C@_0BJ@PPHDNLMM@no?5certificates?5returned?$AA@ 100dd280     ssleay32_EM_dbg.0.9.8e:ssl_err.obj
 0002:0002529c       ??_C@_0BJ@BFKAJPHF@non?5sslv2?5initial?5packet?$AA@ 100dd29c     ssleay32_EM_dbg.0.9.8e:ssl_err.obj
 0002:000252b8       ??_C@_0BH@MFOOLHNN@missing?5verify?5message?$AA@ 100dd2b8     ssleay32_EM_dbg.0.9.8e:ssl_err.obj
 0002:000252d0       ??_C@_0BF@ELDKHLKF@missing?5tmp?5rsa?5pkey?$AA@ 100dd2d0     ssleay32_EM_dbg.0.9.8e:ssl_err.obj
 0002:000252e8       ??_C@_0BE@HMIHILHE@missing?5tmp?5rsa?5key?$AA@ 100dd2e8     ssleay32_EM_dbg.0.9.8e:ssl_err.obj
 0002:000252fc       ??_C@_0BF@HGAAANFL@missing?5tmp?5ecdh?5key?$AA@ 100dd2fc     ssleay32_EM_dbg.0.9.8e:ssl_err.obj
 0002:00025314       ??_C@_0BD@NKMNIPGI@missing?5tmp?5dh?5key?$AA@ 100dd314     ssleay32_EM_dbg.0.9.8e:ssl_err.obj
 0002:00025328       ??_C@_0BJ@BDBAIKAN@missing?5rsa?5signing?5cert?$AA@ 100dd328     ssleay32_EM_dbg.0.9.8e:ssl_err.obj
 0002:00025344       ??_C@_0BM@MFHFHFC@missing?5rsa?5encrypting?5cert?$AA@ 100dd344     ssleay32_EM_dbg.0.9.8e:ssl_err.obj
 0002:00025360       ??_C@_0BI@HBMJJLJB@missing?5rsa?5certificate?$AA@ 100dd360     ssleay32_EM_dbg.0.9.8e:ssl_err.obj
 0002:00025378       ??_C@_0BL@EACAJEGB@missing?5export?5tmp?5rsa?5key?$AA@ 100dd378     ssleay32_EM_dbg.0.9.8e:ssl_err.obj
 0002:00025394       ??_C@_0BK@HODGELEM@missing?5export?5tmp?5dh?5key?$AA@ 100dd394     ssleay32_EM_dbg.0.9.8e:ssl_err.obj
 0002:000253b0       ??_C@_0BJ@KDHFKEHI@missing?5dsa?5signing?5cert?$AA@ 100dd3b0     ssleay32_EM_dbg.0.9.8e:ssl_err.obj
 0002:000253cc       ??_C@_0BE@EPNMOPNA@missing?5dh?5rsa?5cert?$AA@ 100dd3cc     ssleay32_EM_dbg.0.9.8e:ssl_err.obj
 0002:000253e0       ??_C@_0P@MDOHJLCG@missing?5dh?5key?$AA@ 100dd3e0     ssleay32_EM_dbg.0.9.8e:ssl_err.obj
 0002:000253f0       ??_C@_0BE@JAAGNECL@missing?5dh?5dsa?5cert?$AA@ 100dd3f0     ssleay32_EM_dbg.0.9.8e:ssl_err.obj
 0002:00025404       ??_C@_0BB@PNKJEMNF@message?5too?5long?$AA@ 100dd404     ssleay32_EM_dbg.0.9.8e:ssl_err.obj
 0002:00025418       ??_C@_0BH@BIEBANAO@library?5has?5no?5ciphers?$AA@ 100dd418     ssleay32_EM_dbg.0.9.8e:ssl_err.obj
 0002:00025430       ??_C@_0M@OKFPPFMD@library?5bug?$AA@ 100dd430     ssleay32_EM_dbg.0.9.8e:ssl_err.obj
 0002:0002543c       ??_C@_0BB@OGLONOKG@length?5too?5short?$AA@ 100dd43c     ssleay32_EM_dbg.0.9.8e:ssl_err.obj
 0002:00025450       ??_C@_0BA@OGIGCPLF@length?5mismatch?$AA@ 100dd450     ssleay32_EM_dbg.0.9.8e:ssl_err.obj
 0002:00025460       ??_C@_0BF@KMCBNHJB@krb5?5server?5tkt?5skew?$AA@ 100dd460     ssleay32_EM_dbg.0.9.8e:ssl_err.obj
 0002:00025478       ??_C@_0BO@LEKKOPIJ@krb5?5server?5tkt?5not?5yet?5valid?$AA@ 100dd478     ssleay32_EM_dbg.0.9.8e:ssl_err.obj
 0002:00025498       ??_C@_0BI@JAFDFKKG@krb5?5server?5tkt?5expired?$AA@ 100dd498     ssleay32_EM_dbg.0.9.8e:ssl_err.obj
 0002:000254b0       ??_C@_0CD@GGIEKBMG@krb5?5server?5rd_req?5?$CIkeytab?5perms@ 100dd4b0     ssleay32_EM_dbg.0.9.8e:ssl_err.obj
 0002:000254d4       ??_C@_0BB@HKIGHLEM@krb5?5server?5init?$AA@ 100dd4d4     ssleay32_EM_dbg.0.9.8e:ssl_err.obj
 0002:000254e8       ??_C@_0BH@JFODLLAG@krb5?5server?5bad?5ticket?$AA@ 100dd4e8     ssleay32_EM_dbg.0.9.8e:ssl_err.obj
 0002:00025500       ??_C@_0CC@KGMMOPBB@krb5?5client?5mk_req?5?$CIexpired?5tkt?$DP@ 100dd500     ssleay32_EM_dbg.0.9.8e:ssl_err.obj
 0002:00025524       ??_C@_0BB@HJGKIFPC@krb5?5client?5init?$AA@ 100dd524     ssleay32_EM_dbg.0.9.8e:ssl_err.obj
 0002:00025538       ??_C@_0BF@CJMNPPDL@krb5?5client?5get?5cred?$AA@ 100dd538     ssleay32_EM_dbg.0.9.8e:ssl_err.obj
 0002:00025550       ??_C@_0CD@OGLAJFEN@krb5?5client?5cc?5principal?5?$CIno?5tkt@ 100dd550     ssleay32_EM_dbg.0.9.8e:ssl_err.obj
 0002:00025574       ??_C@_04PPGLPLFB@krb5?$AA@ 100dd574     ssleay32_EM_dbg.0.9.8e:ssl_err.obj
 0002:0002557c       ??_C@_0BB@KKCPELKA@key?5arg?5too?5long?$AA@ 100dd57c     ssleay32_EM_dbg.0.9.8e:ssl_err.obj
 0002:00025590       ??_C@_0BA@PDNHNCBD@invalid?5command?$AA@ 100dd590     ssleay32_EM_dbg.0.9.8e:ssl_err.obj
 0002:000255a0       ??_C@_0BJ@GLLMFDMD@invalid?5challenge?5length?$AA@ 100dd5a0     ssleay32_EM_dbg.0.9.8e:ssl_err.obj
 0002:000255bc       ??_C@_0BA@JBGGOPFM@illegal?5padding?$AA@ 100dd5bc     ssleay32_EM_dbg.0.9.8e:ssl_err.obj
 0002:000255cc       ??_C@_0N@GONPAFDB@http?5request?$AA@ 100dd5cc     ssleay32_EM_dbg.0.9.8e:ssl_err.obj
 0002:000255dc       ??_C@_0BE@HKKKGFEL@https?5proxy?5request?$AA@ 100dd5dc     ssleay32_EM_dbg.0.9.8e:ssl_err.obj
 0002:000255f0       ??_C@_0BH@FLOJMKAI@got?5a?5fin?5before?5a?5ccs?$AA@ 100dd5f0     ssleay32_EM_dbg.0.9.8e:ssl_err.obj
 0002:00025608       ??_C@_0BG@MHJGGEFH@extra?5data?5in?5message?$AA@ 100dd608     ssleay32_EM_dbg.0.9.8e:ssl_err.obj
 0002:00025620       ??_C@_0BH@PALINHGA@excessive?5message?5size?$AA@ 100dd620     ssleay32_EM_dbg.0.9.8e:ssl_err.obj
 0002:00025638       ??_C@_0BO@IHCHDINC@error?5in?5received?5cipher?5list?$AA@ 100dd638     ssleay32_EM_dbg.0.9.8e:ssl_err.obj
 0002:00025658       ??_C@_0BN@COAONKKP@error?5generating?5tmp?5rsa?5key?$AA@ 100dd658     ssleay32_EM_dbg.0.9.8e:ssl_err.obj
 0002:00025678       ??_C@_0BK@FKEODKMK@encrypted?5length?5too?5long?$AA@ 100dd678     ssleay32_EM_dbg.0.9.8e:ssl_err.obj
 0002:00025694       ??_C@_0BN@HGIKDNAB@ecgroup?5too?5large?5for?5cipher?$AA@ 100dd694     ssleay32_EM_dbg.0.9.8e:ssl_err.obj
 0002:000256b4       ??_C@_0BJ@GBBFBFE@duplicate?5compression?5id?$AA@ 100dd6b4     ssleay32_EM_dbg.0.9.8e:ssl_err.obj
 0002:000256d0       ??_C@_0BE@DCKNMKBC@digest?5check?5failed?$AA@ 100dd6d0     ssleay32_EM_dbg.0.9.8e:ssl_err.obj
 0002:000256e4       ??_C@_0CA@PINADIPN@dh?5public?5value?5length?5is?5wrong?$AA@ 100dd6e4     ssleay32_EM_dbg.0.9.8e:ssl_err.obj
 0002:00025704       ??_C@_0CE@CCAPMDCB@decryption?5failed?5or?5bad?5record?5@ 100dd704     ssleay32_EM_dbg.0.9.8e:ssl_err.obj
 0002:00025728       ??_C@_0BC@HDCNNMML@decryption?5failed?$AA@ 100dd728     ssleay32_EM_dbg.0.9.8e:ssl_err.obj
 0002:0002573c       ??_C@_0BF@OCGKGPCL@data?5length?5too?5long?$AA@ 100dd73c     ssleay32_EM_dbg.0.9.8e:ssl_err.obj
 0002:00025754       ??_C@_0BO@KKMKMAOH@data?5between?5ccs?5and?5finished?$AA@ 100dd754     ssleay32_EM_dbg.0.9.8e:ssl_err.obj
 0002:00025774       ??_C@_0BA@FBPFMMAB@cookie?5mismatch?$AA@ 100dd774     ssleay32_EM_dbg.0.9.8e:ssl_err.obj
 0002:00025784       ??_C@_0BI@EAFOHKPC@connection?5type?5not?5set?$AA@ 100dd784     ssleay32_EM_dbg.0.9.8e:ssl_err.obj
 0002:0002579c       ??_C@_0BL@DPPBJNBN@connection?5id?5is?5different?$AA@ 100dd79c     ssleay32_EM_dbg.0.9.8e:ssl_err.obj
 0002:000257b8       ??_C@_0BK@NKGILOBF@compression?5library?5error?$AA@ 100dd7b8     ssleay32_EM_dbg.0.9.8e:ssl_err.obj
 0002:000257d4       ??_C@_0CI@FLIAIKMG@compression?5id?5not?5within?5privat@ 100dd7d4     ssleay32_EM_dbg.0.9.8e:ssl_err.obj
 0002:000257fc       ??_C@_0BE@PAGFCMJP@compression?5failure?$AA@ 100dd7fc     ssleay32_EM_dbg.0.9.8e:ssl_err.obj
 0002:00025810       ??_C@_0BL@MGLCNLJD@compressed?5length?5too?5long?$AA@ 100dd810     ssleay32_EM_dbg.0.9.8e:ssl_err.obj
 0002:0002582c       ??_C@_0BH@BEEMMGHI@cipher?5table?5src?5error?$AA@ 100dd82c     ssleay32_EM_dbg.0.9.8e:ssl_err.obj
 0002:00025844       ??_C@_0BL@CPNJGHBJ@cipher?5or?5hash?5unavailable?$AA@ 100dd844     ssleay32_EM_dbg.0.9.8e:ssl_err.obj
 0002:00025860       ??_C@_0BJ@NCLGGODJ@cipher?5code?5wrong?5length?$AA@ 100dd860     ssleay32_EM_dbg.0.9.8e:ssl_err.obj
 0002:0002587c       ??_C@_0BH@JBNPADIB@challenge?5is?5different?$AA@ 100dd87c     ssleay32_EM_dbg.0.9.8e:ssl_err.obj
 0002:00025894       ??_C@_0BF@LHJJLNNA@cert?5length?5mismatch?$AA@ 100dd894     ssleay32_EM_dbg.0.9.8e:ssl_err.obj
 0002:000258ac       ??_C@_0BK@GMJGINOA@certificate?5verify?5failed?$AA@ 100dd8ac     ssleay32_EM_dbg.0.9.8e:ssl_err.obj
 0002:000258c8       ??_C@_0BD@LKFGKAOA@ccs?5received?5early?$AA@ 100dd8c8     ssleay32_EM_dbg.0.9.8e:ssl_err.obj
 0002:000258dc       ??_C@_0P@DGMMGABG@ca?5dn?5too?5long?$AA@ 100dd8dc     ssleay32_EM_dbg.0.9.8e:ssl_err.obj
 0002:000258ec       ??_C@_0BG@GNBDANAF@ca?5dn?5length?5mismatch?$AA@ 100dd8ec     ssleay32_EM_dbg.0.9.8e:ssl_err.obj
 0002:00025904       ??_C@_0BK@KBDJMIJM@block?5cipher?5pad?5is?5wrong?$AA@ 100dd904     ssleay32_EM_dbg.0.9.8e:ssl_err.obj
 0002:00025920       ??_C@_0M@FMOPOKPJ@bio?5not?5set?$AA@ 100dd920     ssleay32_EM_dbg.0.9.8e:ssl_err.obj
 0002:0002592c       ??_C@_0BA@LBFHNFG@bad?5write?5retry?$AA@ 100dd92c     ssleay32_EM_dbg.0.9.8e:ssl_err.obj
 0002:0002593c       ??_C@_09FAGPLHJG@bad?5state?$AA@ 100dd93c     ssleay32_EM_dbg.0.9.8e:ssl_err.obj
 0002:00025948       ??_C@_0BK@PONKBDAO@bad?5ssl?5session?5id?5length?$AA@ 100dd948     ssleay32_EM_dbg.0.9.8e:ssl_err.obj
 0002:00025964       ??_C@_0BB@OAFDGMMJ@bad?5ssl?5filetype?$AA@ 100dd964     ssleay32_EM_dbg.0.9.8e:ssl_err.obj
 0002:00025978       ??_C@_0BC@OCKEEGFM@bad?5rsa?5signature?$AA@ 100dd978     ssleay32_EM_dbg.0.9.8e:ssl_err.obj
 0002:0002598c       ??_C@_0BH@JDPHPPMO@bad?5rsa?5modulus?5length?$AA@ 100dd98c     ssleay32_EM_dbg.0.9.8e:ssl_err.obj
 0002:000259a4       ??_C@_0BB@NBDPGEFG@bad?5rsa?5e?5length?$AA@ 100dd9a4     ssleay32_EM_dbg.0.9.8e:ssl_err.obj
 0002:000259b8       ??_C@_0BA@CEGPGDHO@bad?5rsa?5encrypt?$AA@ 100dd9b8     ssleay32_EM_dbg.0.9.8e:ssl_err.obj
 0002:000259c8       ??_C@_0BA@OKMCDHBK@bad?5rsa?5decrypt?$AA@ 100dd9c8     ssleay32_EM_dbg.0.9.8e:ssl_err.obj
 0002:000259d8       ??_C@_0BG@PMEJKNOL@bad?5response?5argument?$AA@ 100dd9d8     ssleay32_EM_dbg.0.9.8e:ssl_err.obj
 0002:000259f0       ??_C@_0BM@PFENKICE@bad?5protocol?5version?5number?$AA@ 100dd9f0     ssleay32_EM_dbg.0.9.8e:ssl_err.obj
 0002:00025a0c       ??_C@_0BC@PHMJEPNO@bad?5packet?5length?$AA@ 100dda0c     ssleay32_EM_dbg.0.9.8e:ssl_err.obj
 0002:00025a20       ??_C@_0BB@JJFMCCAO@bad?5message?5type?$AA@ 100dda20     ssleay32_EM_dbg.0.9.8e:ssl_err.obj
 0002:00025a34       ??_C@_0P@PBIDIGIK@bad?5mac?5decode?$AA@ 100dda34     ssleay32_EM_dbg.0.9.8e:ssl_err.obj
 0002:00025a44       ??_C@_0L@DABMCDJH@bad?5length?$AA@ 100dda44     ssleay32_EM_dbg.0.9.8e:ssl_err.obj
 0002:00025a50       ??_C@_0BC@EFHFNJHG@bad?5hello?5request?$AA@ 100dda50     ssleay32_EM_dbg.0.9.8e:ssl_err.obj
 0002:00025a64       ??_C@_0M@PGMFFDPN@bad?5ecpoint?$AA@ 100dda64     ssleay32_EM_dbg.0.9.8e:ssl_err.obj
 0002:00025a70       ??_C@_0BE@OMMMGLBE@bad?5ecdsa?5signature?$AA@ 100dda70     ssleay32_EM_dbg.0.9.8e:ssl_err.obj
 0002:00025a84       ??_C@_0N@LJKNCKPI@bad?5ecc?5cert?$AA@ 100dda84     ssleay32_EM_dbg.0.9.8e:ssl_err.obj
 0002:00025a94       ??_C@_0BC@HMNEDBIG@bad?5dsa?5signature?$AA@ 100dda94     ssleay32_EM_dbg.0.9.8e:ssl_err.obj
 0002:00025aa8       ??_C@_0BC@KJBEMOBC@bad?5digest?5length?$AA@ 100ddaa8     ssleay32_EM_dbg.0.9.8e:ssl_err.obj
 0002:00025abc       ??_C@_0BA@JNKENEBG@bad?5dh?5p?5length?$AA@ 100ddabc     ssleay32_EM_dbg.0.9.8e:ssl_err.obj
 0002:00025acc       ??_C@_0BG@HLCDCJPD@bad?5dh?5pub?5key?5length?$AA@ 100ddacc     ssleay32_EM_dbg.0.9.8e:ssl_err.obj
 0002:00025ae4       ??_C@_0BA@FFAFPLKO@bad?5dh?5g?5length?$AA@ 100ddae4     ssleay32_EM_dbg.0.9.8e:ssl_err.obj
 0002:00025af4       ??_C@_0BC@NPBOGLLM@bad?5decompression?$AA@ 100ddaf4     ssleay32_EM_dbg.0.9.8e:ssl_err.obj
 0002:00025b08       ??_C@_0BO@CLFGDFIJ@bad?5data?5returned?5by?5callback?$AA@ 100ddb08     ssleay32_EM_dbg.0.9.8e:ssl_err.obj
 0002:00025b28       ??_C@_0N@KGIMPOMD@bad?5checksum?$AA@ 100ddb28     ssleay32_EM_dbg.0.9.8e:ssl_err.obj
 0002:00025b38       ??_C@_0BH@LKLKFIOB@bad?5change?5cipher?5spec?$AA@ 100ddb38     ssleay32_EM_dbg.0.9.8e:ssl_err.obj
 0002:00025b50       ??_C@_0BI@MHANGDHG@bad?5authentication?5type?$AA@ 100ddb50     ssleay32_EM_dbg.0.9.8e:ssl_err.obj
 0002:00025b68       ??_C@_0BB@LCAAJHHJ@bad?5alert?5record?$AA@ 100ddb68     ssleay32_EM_dbg.0.9.8e:ssl_err.obj
 0002:00025b7c       ??_C@_0CO@IIGODPEP@attempt?5to?5reuse?5session?5in?5diff@ 100ddb7c     ssleay32_EM_dbg.0.9.8e:ssl_err.obj
 0002:00025bac       ??_C@_0BG@OADNNFKJ@app?5data?5in?5handshake?$AA@ 100ddbac     ssleay32_EM_dbg.0.9.8e:ssl_err.obj
 0002:00025bc4       ??_C@_0O@ENJFFGOJ@WRITE_PENDING?$AA@ 100ddbc4     ssleay32_EM_dbg.0.9.8e:ssl_err.obj
 0002:00025bd4       ??_C@_0BF@ONDLACOE@TLS1_SETUP_KEY_BLOCK?$AA@ 100ddbd4     ssleay32_EM_dbg.0.9.8e:ssl_err.obj
 0002:00025bec       ??_C@_08CCLIEHLC@TLS1_ENC?$AA@ 100ddbec     ssleay32_EM_dbg.0.9.8e:ssl_err.obj
 0002:00025bf8       ??_C@_0BJ@GEBDLGAH@TLS1_CHANGE_CIPHER_STATE?$AA@ 100ddbf8     ssleay32_EM_dbg.0.9.8e:ssl_err.obj
 0002:00025c14       ??_C@_09DGEPPALM@SSL_write?$AA@ 100ddc14     ssleay32_EM_dbg.0.9.8e:ssl_err.obj
 0002:00025c20       ??_C@_0BG@DHGMGJEL@SSL_VERIFY_CERT_CHAIN?$AA@ 100ddc20     ssleay32_EM_dbg.0.9.8e:ssl_err.obj
 0002:00025c38       ??_C@_0BL@LLDFDMAI@SSL_use_RSAPrivateKey_file?$AA@ 100ddc38     ssleay32_EM_dbg.0.9.8e:ssl_err.obj
 0002:00025c54       ??_C@_0BL@LCFMNNAH@SSL_use_RSAPrivateKey_ASN1?$AA@ 100ddc54     ssleay32_EM_dbg.0.9.8e:ssl_err.obj
 0002:00025c70       ??_C@_0BG@GIOIPANK@SSL_use_RSAPrivateKey?$AA@ 100ddc70     ssleay32_EM_dbg.0.9.8e:ssl_err.obj
 0002:00025c88       ??_C@_0BI@JOCGAGMP@SSL_use_PrivateKey_file?$AA@ 100ddc88     ssleay32_EM_dbg.0.9.8e:ssl_err.obj
 0002:00025ca0       ??_C@_0BI@JHEPOHMA@SSL_use_PrivateKey_ASN1?$AA@ 100ddca0     ssleay32_EM_dbg.0.9.8e:ssl_err.obj
 0002:00025cb8       ??_C@_0BD@NGOBKJOJ@SSL_use_PrivateKey?$AA@ 100ddcb8     ssleay32_EM_dbg.0.9.8e:ssl_err.obj
 0002:00025ccc       ??_C@_0BJ@KGOBGIBE@SSL_use_certificate_file?$AA@ 100ddccc     ssleay32_EM_dbg.0.9.8e:ssl_err.obj
 0002:00025ce8       ??_C@_0BJ@KPIIIJBL@SSL_use_certificate_ASN1?$AA@ 100ddce8     ssleay32_EM_dbg.0.9.8e:ssl_err.obj
 0002:00025d04       ??_C@_0BE@PGCFHFFK@SSL_use_certificate?$AA@ 100ddd04     ssleay32_EM_dbg.0.9.8e:ssl_err.obj
 0002:00025d18       ??_C@_0BM@JFMHPEGO@SSL_UNDEFINED_VOID_FUNCTION?$AA@ 100ddd18     ssleay32_EM_dbg.0.9.8e:ssl_err.obj
 0002:00025d34       ??_C@_0BH@KDEPLJNK@SSL_UNDEFINED_FUNCTION?$AA@ 100ddd34     ssleay32_EM_dbg.0.9.8e:ssl_err.obj
 0002:00025d4c       ??_C@_0BN@DJKIIBFL@SSL_UNDEFINED_CONST_FUNCTION?$AA@ 100ddd4c     ssleay32_EM_dbg.0.9.8e:ssl_err.obj
 0002:00025d6c       ??_C@_0N@NKJHMGLC@SSL_shutdown?$AA@ 100ddd6c     ssleay32_EM_dbg.0.9.8e:ssl_err.obj
 0002:00025d7c       ??_C@_0M@GNHMAACI@SSL_set_wfd?$AA@ 100ddd7c     ssleay32_EM_dbg.0.9.8e:ssl_err.obj
 0002:00025d88       ??_C@_0O@LLOINKDL@SSL_set_trust?$AA@ 100ddd88     ssleay32_EM_dbg.0.9.8e:ssl_err.obj
 0002:00025d98       ??_C@_0BL@BJICKBFH@SSL_set_session_id_context?$AA@ 100ddd98     ssleay32_EM_dbg.0.9.8e:ssl_err.obj
 0002:00025db4       ??_C@_0BA@DONHGCCI@SSL_set_session?$AA@ 100dddb4     ssleay32_EM_dbg.0.9.8e:ssl_err.obj
 0002:00025dc4       ??_C@_0M@FKKCPABK@SSL_set_rfd?$AA@ 100dddc4     ssleay32_EM_dbg.0.9.8e:ssl_err.obj
 0002:00025dd0       ??_C@_0BA@IINJIMHD@SSL_set_purpose?$AA@ 100dddd0     ssleay32_EM_dbg.0.9.8e:ssl_err.obj
 0002:00025de0       ??_C@_0N@PCKNEDKO@SSL_SET_PKEY?$AA@ 100ddde0     ssleay32_EM_dbg.0.9.8e:ssl_err.obj
 0002:00025df0       ??_C@_0L@MEOJMNJB@SSL_set_fd?$AA@ 100dddf0     ssleay32_EM_dbg.0.9.8e:ssl_err.obj
 0002:00025dfc       ??_C@_0BE@HLOFLKAP@SSL_set_cipher_list?$AA@ 100dddfc     ssleay32_EM_dbg.0.9.8e:ssl_err.obj
 0002:00025e10       ??_C@_0N@JJPFBCHH@SSL_SET_CERT?$AA@ 100dde10     ssleay32_EM_dbg.0.9.8e:ssl_err.obj
 0002:00025e20       ??_C@_0BC@FCPGPEEC@SSL_SESS_CERT_NEW?$AA@ 100dde20     ssleay32_EM_dbg.0.9.8e:ssl_err.obj
 0002:00025e34       ??_C@_0BF@DMFCMAJF@SSL_SESSION_print_fp?$AA@ 100dde34     ssleay32_EM_dbg.0.9.8e:ssl_err.obj
 0002:00025e4c       ??_C@_0BA@CDJKDGNM@SSL_SESSION_new?$AA@ 100dde4c     ssleay32_EM_dbg.0.9.8e:ssl_err.obj
 0002:00025e5c       ??_C@_0BH@NFPPJAD@SSL_RSA_PUBLIC_ENCRYPT?$AA@ 100dde5c     ssleay32_EM_dbg.0.9.8e:ssl_err.obj
 0002:00025e74       ??_C@_0BI@KCFKDCOL@SSL_RSA_PRIVATE_DECRYPT?$AA@ 100dde74     ssleay32_EM_dbg.0.9.8e:ssl_err.obj
 0002:00025e8c       ??_C@_08DAJNHMMC@SSL_read?$AA@ 100dde8c     ssleay32_EM_dbg.0.9.8e:ssl_err.obj
 0002:00025e98       ??_C@_08MKMMJLLB@SSL_peek?$AA@ 100dde98     ssleay32_EM_dbg.0.9.8e:ssl_err.obj
 0002:00025ea4       ??_C@_0BI@EECKODII@SSL_load_client_CA_file?$AA@ 100ddea4     ssleay32_EM_dbg.0.9.8e:ssl_err.obj
 0002:00025ebc       ??_C@_0BF@GALNMLBO@SSL_INIT_WBIO_BUFFER?$AA@ 100ddebc     ssleay32_EM_dbg.0.9.8e:ssl_err.obj
 0002:00025ed4       ??_C@_0BC@HPOJBNAE@SSL_GET_SIGN_PKEY?$AA@ 100dded4     ssleay32_EM_dbg.0.9.8e:ssl_err.obj
 0002:00025ee8       ??_C@_0BJ@LHEGIKAL@SSL_GET_SERVER_SEND_CERT?$AA@ 100ddee8     ssleay32_EM_dbg.0.9.8e:ssl_err.obj
 0002:00025f04       ??_C@_0BF@DPEJPJNK@SSL_GET_PREV_SESSION?$AA@ 100ddf04     ssleay32_EM_dbg.0.9.8e:ssl_err.obj
 0002:00025f1c       ??_C@_0BE@CEJLMECA@SSL_GET_NEW_SESSION?$AA@ 100ddf1c     ssleay32_EM_dbg.0.9.8e:ssl_err.obj
 0002:00025f30       ??_C@_0BB@IHIBHBMC@SSL_do_handshake?$AA@ 100ddf30     ssleay32_EM_dbg.0.9.8e:ssl_err.obj
 0002:00025f44       ??_C@_0BP@MDBMAIJA@SSL_CTX_use_RSAPrivateKey_file?$AA@ 100ddf44     ssleay32_EM_dbg.0.9.8e:ssl_err.obj
 0002:00025f64       ??_C@_0BP@MKHFOJJP@SSL_CTX_use_RSAPrivateKey_ASN1?$AA@ 100ddf64     ssleay32_EM_dbg.0.9.8e:ssl_err.obj
 0002:00025f84       ??_C@_0BK@KEHBLEKK@SSL_CTX_use_RSAPrivateKey?$AA@ 100ddf84     ssleay32_EM_dbg.0.9.8e:ssl_err.obj
 0002:00025fa0       ??_C@_0BM@MAKIDGCJ@SSL_CTX_use_PrivateKey_file?$AA@ 100ddfa0     ssleay32_EM_dbg.0.9.8e:ssl_err.obj
 0002:00025fbc       ??_C@_0BM@MJMBNHCG@SSL_CTX_use_PrivateKey_ASN1?$AA@ 100ddfbc     ssleay32_EM_dbg.0.9.8e:ssl_err.obj
 0002:00025fd8       ??_C@_0BH@KKKLJCLH@SSL_CTX_use_PrivateKey?$AA@ 100ddfd8     ssleay32_EM_dbg.0.9.8e:ssl_err.obj
 0002:00025ff0       ??_C@_0BN@OPNGKBGJ@SSL_CTX_use_certificate_file?$AA@ 100ddff0     ssleay32_EM_dbg.0.9.8e:ssl_err.obj
 0002:00026010       ??_C@_0CD@NEACLGFA@SSL_CTX_use_certificate_chain_fi@ 100de010     ssleay32_EM_dbg.0.9.8e:ssl_err.obj
 0002:00026034       ??_C@_0BN@OGLPEAGG@SSL_CTX_use_certificate_ASN1?$AA@ 100de034     ssleay32_EM_dbg.0.9.8e:ssl_err.obj
 0002:00026054       ??_C@_0BI@HKIKEDJC@SSL_CTX_use_certificate?$AA@ 100de054     ssleay32_EM_dbg.0.9.8e:ssl_err.obj
 0002:0002606c       ??_C@_0BC@CNPPNEIM@SSL_CTX_set_trust?$AA@ 100de06c     ssleay32_EM_dbg.0.9.8e:ssl_err.obj
 0002:00026080       ??_C@_0BI@GMBHBDPF@SSL_CTX_set_ssl_version?$AA@ 100de080     ssleay32_EM_dbg.0.9.8e:ssl_err.obj
 0002:00026098       ??_C@_0BP@GBKLJFMP@SSL_CTX_set_session_id_context?$AA@ 100de098     ssleay32_EM_dbg.0.9.8e:ssl_err.obj
 0002:000260b8       ??_C@_0BE@MEOFAPBM@SSL_CTX_set_purpose?$AA@ 100de0b8     ssleay32_EM_dbg.0.9.8e:ssl_err.obj
 0002:000260cc       ??_C@_0BI@PHEKIMMH@SSL_CTX_set_cipher_list?$AA@ 100de0cc     ssleay32_EM_dbg.0.9.8e:ssl_err.obj
 0002:000260e4       ??_C@_0M@NIHDNPCA@SSL_CTX_new?$AA@ 100de0e4     ssleay32_EM_dbg.0.9.8e:ssl_err.obj
 0002:000260f0       ??_C@_0BK@NOHDNNE@SSL_CTX_check_private_key?$AA@ 100de0f0     ssleay32_EM_dbg.0.9.8e:ssl_err.obj
 0002:0002610c       ??_C@_08FDABGFCL@SSL_ctrl?$AA@ 100de10c     ssleay32_EM_dbg.0.9.8e:ssl_err.obj
 0002:00026118       ??_C@_0BH@KDKMPKLM@SSL_CREATE_CIPHER_LIST?$AA@ 100de118     ssleay32_EM_dbg.0.9.8e:ssl_err.obj
 0002:00026130       ??_C@_0CA@MOMIKDDA@SSL_COMP_add_compression_method?$AA@ 100de130     ssleay32_EM_dbg.0.9.8e:ssl_err.obj
 0002:00026150       ??_C@_09CEGAMDGH@SSL_clear?$AA@ 100de150     ssleay32_EM_dbg.0.9.8e:ssl_err.obj
 0002:0002615c       ??_C@_0BJ@HPJCONIF@SSL_CIPHER_STRENGTH_SORT?$AA@ 100de15c     ssleay32_EM_dbg.0.9.8e:ssl_err.obj
 0002:00026178       ??_C@_0BL@HFHOMBOB@SSL_CIPHER_PROCESS_RULESTR?$AA@ 100de178     ssleay32_EM_dbg.0.9.8e:ssl_err.obj
 0002:00026194       ??_C@_0BG@MBHOHJKE@SSL_check_private_key?$AA@ 100de194     ssleay32_EM_dbg.0.9.8e:ssl_err.obj
 0002:000261ac       ??_C@_0N@HMHHIOEL@SSL_CERT_NEW?$AA@ 100de1ac     ssleay32_EM_dbg.0.9.8e:ssl_err.obj
 0002:000261bc       ??_C@_0BF@BNLBPJC@SSL_CERT_INSTANTIATE?$AA@ 100de1bc     ssleay32_EM_dbg.0.9.8e:ssl_err.obj
 0002:000261d4       ??_C@_0O@FNINIEAL@SSL_CERT_INST?$AA@ 100de1d4     ssleay32_EM_dbg.0.9.8e:ssl_err.obj
 0002:000261e4       ??_C@_0N@EAKNFLJI@SSL_CERT_DUP?$AA@ 100de1e4     ssleay32_EM_dbg.0.9.8e:ssl_err.obj
 0002:000261f4       ??_C@_0BJ@BIMHFFFE@SSL_BYTES_TO_CIPHER_LIST?$AA@ 100de1f4     ssleay32_EM_dbg.0.9.8e:ssl_err.obj
 0002:00026210       ??_C@_0P@HDPHNIKK@SSL_BAD_METHOD?$AA@ 100de210     ssleay32_EM_dbg.0.9.8e:ssl_err.obj
 0002:00026220       ??_C@_0CE@OBNAFHD@SSL_add_file_cert_subjects_to_st@ 100de220     ssleay32_EM_dbg.0.9.8e:ssl_err.obj
 0002:00026244       ??_C@_0CD@CINMCBHH@SSL_add_dir_cert_subjects_to_sta@ 100de244     ssleay32_EM_dbg.0.9.8e:ssl_err.obj
 0002:00026268       ??_C@_0BD@PANJNML@SSL3_WRITE_PENDING?$AA@ 100de268     ssleay32_EM_dbg.0.9.8e:ssl_err.obj
 0002:0002627c       ??_C@_0BB@PNLEOFFO@SSL3_WRITE_BYTES?$AA@ 100de27c     ssleay32_EM_dbg.0.9.8e:ssl_err.obj
 0002:00026290       ??_C@_0BF@ENIMJJPP@SSL3_SETUP_KEY_BLOCK?$AA@ 100de290     ssleay32_EM_dbg.0.9.8e:ssl_err.obj
 0002:000262a8       ??_C@_0BD@PDPMICEA@SSL3_SETUP_BUFFERS?$AA@ 100de2a8     ssleay32_EM_dbg.0.9.8e:ssl_err.obj
 0002:000262bc       ??_C@_0BO@GKKKJJIC@SSL3_SEND_SERVER_KEY_EXCHANGE?$AA@ 100de2bc     ssleay32_EM_dbg.0.9.8e:ssl_err.obj
 0002:000262dc       ??_C@_0BH@LELDKKIF@SSL3_SEND_SERVER_HELLO?$AA@ 100de2dc     ssleay32_EM_dbg.0.9.8e:ssl_err.obj
 0002:000262f4       ??_C@_0BN@PFDEHCFF@SSL3_SEND_SERVER_CERTIFICATE?$AA@ 100de2f4     ssleay32_EM_dbg.0.9.8e:ssl_err.obj
 0002:00026314       ??_C@_0BI@GGCHIBE@SSL3_SEND_CLIENT_VERIFY?$AA@ 100de314     ssleay32_EM_dbg.0.9.8e:ssl_err.obj
 0002:0002632c       ??_C@_0BO@LLLBLNLK@SSL3_SEND_CLIENT_KEY_EXCHANGE?$AA@ 100de32c     ssleay32_EM_dbg.0.9.8e:ssl_err.obj
 0002:0002634c       ??_C@_0BN@FFHHLLPB@SSL3_SEND_CLIENT_CERTIFICATE?$AA@ 100de34c     ssleay32_EM_dbg.0.9.8e:ssl_err.obj
 0002:0002636c       ??_C@_0BO@OOLBGENL@SSL3_SEND_CERTIFICATE_REQUEST?$AA@ 100de36c     ssleay32_EM_dbg.0.9.8e:ssl_err.obj
 0002:0002638c       ??_C@_0M@KCIPCGMO@SSL3_READ_N?$AA@ 100de38c     ssleay32_EM_dbg.0.9.8e:ssl_err.obj
 0002:00026398       ??_C@_0BA@MPPIFBKP@SSL3_READ_BYTES?$AA@ 100de398     ssleay32_EM_dbg.0.9.8e:ssl_err.obj
 0002:000263a8       ??_C@_09OOONLLBP@SSL3_PEEK?$AA@ 100de3a8     ssleay32_EM_dbg.0.9.8e:ssl_err.obj
 0002:000263b4       ??_C@_0BH@NGJLKJPA@SSL3_OUTPUT_CERT_CHAIN?$AA@ 100de3b4     ssleay32_EM_dbg.0.9.8e:ssl_err.obj
 0002:000263cc       ??_C@_0BG@PFPCPINP@SSL3_GET_SERVER_HELLO?$AA@ 100de3cc     ssleay32_EM_dbg.0.9.8e:ssl_err.obj
 0002:000263e4       ??_C@_0BF@GDFELGBE@SSL3_GET_SERVER_DONE?$AA@ 100de3e4     ssleay32_EM_dbg.0.9.8e:ssl_err.obj
 0002:000263fc       ??_C@_0BM@EIACBNMA@SSL3_GET_SERVER_CERTIFICATE?$AA@ 100de3fc     ssleay32_EM_dbg.0.9.8e:ssl_err.obj
 0002:00026418       ??_C@_0BA@BKKPCMMD@SSL3_GET_RECORD?$AA@ 100de418     ssleay32_EM_dbg.0.9.8e:ssl_err.obj
 0002:00026428       ??_C@_0BB@MMMOJKNB@SSL3_GET_MESSAGE?$AA@ 100de428     ssleay32_EM_dbg.0.9.8e:ssl_err.obj
 0002:0002643c       ??_C@_0BG@FMEPKCLE@SSL3_GET_KEY_EXCHANGE?$AA@ 100de43c     ssleay32_EM_dbg.0.9.8e:ssl_err.obj
 0002:00026454       ??_C@_0BC@FGPACFAM@SSL3_GET_FINISHED?$AA@ 100de454     ssleay32_EM_dbg.0.9.8e:ssl_err.obj
 0002:00026468       ??_C@_0BN@DLGJOMBO@SSL3_GET_CLIENT_KEY_EXCHANGE?$AA@ 100de468     ssleay32_EM_dbg.0.9.8e:ssl_err.obj
 0002:00026488       ??_C@_0BG@NJCIIKKK@SSL3_GET_CLIENT_HELLO?$AA@ 100de488     ssleay32_EM_dbg.0.9.8e:ssl_err.obj
 0002:000264a0       ??_C@_0BM@OIEBNEGE@SSL3_GET_CLIENT_CERTIFICATE?$AA@ 100de4a0     ssleay32_EM_dbg.0.9.8e:ssl_err.obj
 0002:000264bc       ??_C@_0BF@NIGMGKHI@SSL3_GET_CERT_VERIFY?$AA@ 100de4bc     ssleay32_EM_dbg.0.9.8e:ssl_err.obj
 0002:000264d4       ??_C@_0BN@GOGJDFHP@SSL3_GET_CERTIFICATE_REQUEST?$AA@ 100de4d4     ssleay32_EM_dbg.0.9.8e:ssl_err.obj
 0002:000264f4       ??_C@_0BI@HPPDOICI@SSL3_GENERATE_KEY_BLOCK?$AA@ 100de4f4     ssleay32_EM_dbg.0.9.8e:ssl_err.obj
 0002:0002650c       ??_C@_08DPBMEENA@SSL3_ENC?$AA@ 100de50c     ssleay32_EM_dbg.0.9.8e:ssl_err.obj
 0002:00026518       ??_C@_0O@LOMJKGNP@SSL3_CTX_CTRL?$AA@ 100de518     ssleay32_EM_dbg.0.9.8e:ssl_err.obj
 0002:00026528       ??_C@_09HHCAEFIF@SSL3_CTRL?$AA@ 100de528     ssleay32_EM_dbg.0.9.8e:ssl_err.obj
 0002:00026534       ??_C@_0N@DKFCBIOG@SSL3_CONNECT?$AA@ 100de534     ssleay32_EM_dbg.0.9.8e:ssl_err.obj
 0002:00026544       ??_C@_0BC@IEHKDIOK@SSL3_CLIENT_HELLO?$AA@ 100de544     ssleay32_EM_dbg.0.9.8e:ssl_err.obj
 0002:00026558       ??_C@_0BO@FONALDLM@SSL3_CHECK_CERT_AND_ALGORITHM?$AA@ 100de558     ssleay32_EM_dbg.0.9.8e:ssl_err.obj
 0002:00026578       ??_C@_0BJ@GPBPKKBP@SSL3_CHANGE_CIPHER_STATE?$AA@ 100de578     ssleay32_EM_dbg.0.9.8e:ssl_err.obj
 0002:00026594       ??_C@_0BD@PPIMHIIK@SSL3_CALLBACK_CTRL?$AA@ 100de594     ssleay32_EM_dbg.0.9.8e:ssl_err.obj
 0002:000265a8       ??_C@_0M@FLONMKGD@SSL3_ACCEPT?$AA@ 100de5a8     ssleay32_EM_dbg.0.9.8e:ssl_err.obj
 0002:000265b4       ??_C@_0L@FOCLHLEP@SSL2_WRITE?$AA@ 100de5b4     ssleay32_EM_dbg.0.9.8e:ssl_err.obj
 0002:000265c0       ??_C@_0BF@MOABHGAH@SSL2_SET_CERTIFICATE?$AA@ 100de5c0     ssleay32_EM_dbg.0.9.8e:ssl_err.obj
 0002:000265d8       ??_C@_0BD@PDJONKJH@SSL2_READ_INTERNAL?$AA@ 100de5d8     ssleay32_EM_dbg.0.9.8e:ssl_err.obj
 0002:000265ec       ??_C@_09LCMLFHNI@SSL2_READ?$AA@ 100de5ec     ssleay32_EM_dbg.0.9.8e:ssl_err.obj
 0002:000265f8       ??_C@_09EIJKLAKL@SSL2_PEEK?$AA@ 100de5f8     ssleay32_EM_dbg.0.9.8e:ssl_err.obj
 0002:00026604       ??_C@_0BL@FECMFMNB@SSL2_GENERATE_KEY_MATERIAL?$AA@ 100de604     ssleay32_EM_dbg.0.9.8e:ssl_err.obj
 0002:00026620       ??_C@_0O@GDIDJONA@SSL2_ENC_INIT?$AA@ 100de620     ssleay32_EM_dbg.0.9.8e:ssl_err.obj
 0002:00026630       ??_C@_0N@NFJAHDNI@SSL2_CONNECT?$AA@ 100de630     ssleay32_EM_dbg.0.9.8e:ssl_err.obj
 0002:00026640       ??_C@_0M@EMJGNOCA@SSL2_ACCEPT?$AA@ 100de640     ssleay32_EM_dbg.0.9.8e:ssl_err.obj
 0002:0002664c       ??_C@_0M@CHPCEGIM@SSL23_WRITE?$AA@ 100de64c     ssleay32_EM_dbg.0.9.8e:ssl_err.obj
 0002:00026658       ??_C@_0L@LHEODANB@SSL23_READ?$AA@ 100de658     ssleay32_EM_dbg.0.9.8e:ssl_err.obj
 0002:00026664       ??_C@_0L@ENBPNHKC@SSL23_PEEK?$AA@ 100de664     ssleay32_EM_dbg.0.9.8e:ssl_err.obj
 0002:00026670       ??_C@_0BH@IMONEGKH@SSL23_GET_SERVER_HELLO?$AA@ 100de670     ssleay32_EM_dbg.0.9.8e:ssl_err.obj
 0002:00026688       ??_C@_0BH@KADHDENC@SSL23_GET_CLIENT_HELLO?$AA@ 100de688     ssleay32_EM_dbg.0.9.8e:ssl_err.obj
 0002:000266a0       ??_C@_0O@GNCPMCJN@SSL23_CONNECT?$AA@ 100de6a0     ssleay32_EM_dbg.0.9.8e:ssl_err.obj
 0002:000266b0       ??_C@_0BD@OKECIAFJ@SSL23_CLIENT_HELLO?$AA@ 100de6b0     ssleay32_EM_dbg.0.9.8e:ssl_err.obj
 0002:000266c4       ??_C@_0N@EOICJEBH@SSL23_ACCEPT?$AA@ 100de6c4     ssleay32_EM_dbg.0.9.8e:ssl_err.obj
 0002:000266d4       ??_C@_0O@JJMHAGGN@SERVER_VERIFY?$AA@ 100de6d4     ssleay32_EM_dbg.0.9.8e:ssl_err.obj
 0002:000266e4       ??_C@_0N@ICPDAELG@SERVER_HELLO?$AA@ 100de6e4     ssleay32_EM_dbg.0.9.8e:ssl_err.obj
 0002:000266f4       ??_C@_0O@GFPPGCNA@SERVER_FINISH?$AA@ 100de6f4     ssleay32_EM_dbg.0.9.8e:ssl_err.obj
 0002:00026704       ??_C@_0BE@BDKAIFMI@REQUEST_CERTIFICATE?$AA@ 100de704     ssleay32_EM_dbg.0.9.8e:ssl_err.obj
 0002:00026718       ??_C@_06PBLDPGFF@READ_N?$AA@ 100de718     ssleay32_EM_dbg.0.9.8e:ssl_err.obj
 0002:00026720       ??_C@_0BA@GABDEBON@i2d_SSL_SESSION?$AA@ 100de720     ssleay32_EM_dbg.0.9.8e:ssl_err.obj
 0002:00026730       ??_C@_0BC@BLFFOANH@GET_SERVER_VERIFY?$AA@ 100de730     ssleay32_EM_dbg.0.9.8e:ssl_err.obj
 0002:00026744       ??_C@_0BB@BIOBHPOA@GET_SERVER_HELLO?$AA@ 100de744     ssleay32_EM_dbg.0.9.8e:ssl_err.obj
 0002:00026758       ??_C@_0BE@JHIDOGFD@GET_SERVER_FINISHED?$AA@ 100de758     ssleay32_EM_dbg.0.9.8e:ssl_err.obj
 0002:0002676c       ??_C@_0BG@NCELPKJP@GET_CLIENT_MASTER_KEY?$AA@ 100de76c     ssleay32_EM_dbg.0.9.8e:ssl_err.obj
 0002:00026784       ??_C@_0BB@DEDLANJF@GET_CLIENT_HELLO?$AA@ 100de784     ssleay32_EM_dbg.0.9.8e:ssl_err.obj
 0002:00026798       ??_C@_0BE@LOLGGMHK@GET_CLIENT_FINISHED?$AA@ 100de798     ssleay32_EM_dbg.0.9.8e:ssl_err.obj
 0002:000267ac       ??_C@_0BL@MNKCLLCJ@DTLS1_WRITE_APP_DATA_BYTES?$AA@ 100de7ac     ssleay32_EM_dbg.0.9.8e:ssl_err.obj
 0002:000267c8       ??_C@_0BP@JHJBIEMK@DTLS1_SEND_SERVER_KEY_EXCHANGE?$AA@ 100de7c8     ssleay32_EM_dbg.0.9.8e:ssl_err.obj
 0002:000267e8       ??_C@_0BI@OEODABOK@DTLS1_SEND_SERVER_HELLO?$AA@ 100de7e8     ssleay32_EM_dbg.0.9.8e:ssl_err.obj
 0002:00026800       ??_C@_0BO@KMNAEAEP@DTLS1_SEND_SERVER_CERTIFICATE?$AA@ 100de800     ssleay32_EM_dbg.0.9.8e:ssl_err.obj
 0002:00026820       ??_C@_0CA@LDMJIIEM@DTLS1_SEND_HELLO_VERIFY_REQUEST?$AA@ 100de820     ssleay32_EM_dbg.0.9.8e:ssl_err.obj
 0002:00026840       ??_C@_0BJ@NLDPFEHG@DTLS1_SEND_CLIENT_VERIFY?$AA@ 100de840     ssleay32_EM_dbg.0.9.8e:ssl_err.obj
 0002:0002685c       ??_C@_0BP@EGIKKAPC@DTLS1_SEND_CLIENT_KEY_EXCHANGE?$AA@ 100de85c     ssleay32_EM_dbg.0.9.8e:ssl_err.obj
 0002:0002687c       ??_C@_0BO@MJDIJOL@DTLS1_SEND_CLIENT_CERTIFICATE?$AA@ 100de87c     ssleay32_EM_dbg.0.9.8e:ssl_err.obj
 0002:0002689c       ??_C@_0BP@BDIKHJJD@DTLS1_SEND_CERTIFICATE_REQUEST?$AA@ 100de89c     ssleay32_EM_dbg.0.9.8e:ssl_err.obj
 0002:000268bc       ??_C@_0BC@JCKAIPLB@DTLS1_READ_FAILED?$AA@ 100de8bc     ssleay32_EM_dbg.0.9.8e:ssl_err.obj
 0002:000268d0       ??_C@_0BB@HJILDAAK@DTLS1_READ_BYTES?$AA@ 100de8d0     ssleay32_EM_dbg.0.9.8e:ssl_err.obj
 0002:000268e4       ??_C@_0BF@IDHBPGFE@DTLS1_PROCESS_RECORD?$AA@ 100de8e4     ssleay32_EM_dbg.0.9.8e:ssl_err.obj
 0002:000268fc       ??_C@_0CB@CJDIPKCC@DTLS1_PROCESS_OUT_OF_SEQ_MESSAGE@ 100de8fc     ssleay32_EM_dbg.0.9.8e:ssl_err.obj
 0002:00026920       ??_C@_0BI@IGMLACJP@DTLS1_OUTPUT_CERT_CHAIN?$AA@ 100de920     ssleay32_EM_dbg.0.9.8e:ssl_err.obj
 0002:00026938       ??_C@_0BB@KMNMENGG@DTLS1_GET_RECORD?$AA@ 100de938     ssleay32_EM_dbg.0.9.8e:ssl_err.obj
 0002:0002694c       ??_C@_0BL@IIOIGEEG@DTLS1_GET_MESSAGE_FRAGMENT?$AA@ 100de94c     ssleay32_EM_dbg.0.9.8e:ssl_err.obj
 0002:00026968       ??_C@_0BC@GKMELONH@DTLS1_GET_MESSAGE?$AA@ 100de968     ssleay32_EM_dbg.0.9.8e:ssl_err.obj
 0002:0002697c       ??_C@_0BH@OMNGAONJ@DTLS1_GET_HELLO_VERIFY?$AA@ 100de97c     ssleay32_EM_dbg.0.9.8e:ssl_err.obj
 0002:00026994       ??_C@_09LAGKJMLA@DTLS1_ENC?$AA@ 100de994     ssleay32_EM_dbg.0.9.8e:ssl_err.obj
 0002:000269a0       ??_C@_0O@IGIMMLKM@DTLS1_CONNECT?$AA@ 100de9a0     ssleay32_EM_dbg.0.9.8e:ssl_err.obj
 0002:000269b0       ??_C@_0BD@GNLPJHPL@DTLS1_CLIENT_HELLO?$AA@ 100de9b0     ssleay32_EM_dbg.0.9.8e:ssl_err.obj
 0002:000269c4       ??_C@_0BE@DHLDODNH@DTLS1_BUFFER_RECORD?$AA@ 100de9c4     ssleay32_EM_dbg.0.9.8e:ssl_err.obj
 0002:000269d8       ??_C@_0N@ODLNJKNC@DTLS1_ACCEPT?$AA@ 100de9d8     ssleay32_EM_dbg.0.9.8e:ssl_err.obj
 0002:000269e8       ??_C@_0O@KELKEKPD@DO_SSL3_WRITE?$AA@ 100de9e8     ssleay32_EM_dbg.0.9.8e:ssl_err.obj
 0002:000269f8       ??_C@_0P@KKCCLPDD@DO_DTLS1_WRITE?$AA@ 100de9f8     ssleay32_EM_dbg.0.9.8e:ssl_err.obj
 0002:00026a08       ??_C@_0BA@NOKDHDOP@d2i_SSL_SESSION?$AA@ 100dea08     ssleay32_EM_dbg.0.9.8e:ssl_err.obj
 0002:00026a18       ??_C@_0BC@ENCKPCOH@CLIENT_MASTER_KEY?$AA@ 100dea18     ssleay32_EM_dbg.0.9.8e:ssl_err.obj
 0002:00026a2c       ??_C@_0N@KOCJHGMD@CLIENT_HELLO?$AA@ 100dea2c     ssleay32_EM_dbg.0.9.8e:ssl_err.obj
 0002:00026a3c       ??_C@_0BA@OJPFOPJH@CLIENT_FINISHED?$AA@ 100dea3c     ssleay32_EM_dbg.0.9.8e:ssl_err.obj
 0002:00026a4c       ??_C@_0BD@KDHMCOBK@CLIENT_CERTIFICATE?$AA@ 100dea4c     ssleay32_EM_dbg.0.9.8e:ssl_err.obj
 0002:00026a60       ??_C@_0BB@GIFGIGOO@?4?2ssl?2ssl_sess?4c?$AA@ 100dea60     ssleay32_EM_dbg.0.9.8e:ssl_sess.obj
 0002:00026a74       ??_C@_0BI@GCIOAHAF@SSL?5for?5verify?5callback?$AA@ 100dea74     ssleay32_EM_dbg.0.9.8e:ssl_cert.obj
 0002:00026a8c       ??_C@_0BB@KPDPALCJ@?4?2ssl?2ssl_cert?4c?$AA@ 100dea8c     ssleay32_EM_dbg.0.9.8e:ssl_cert.obj
 0002:00026aa0       ??_C@_0BA@MMNFJFNM@?4?2ssl?2s3_both?4c?$AA@ 100deaa0     ssleay32_EM_dbg.0.9.8e:s3_both.obj
 0002:00026ab0       ??_C@_04MHNGBHAE@SRVR?$AA@ 100deab0     ssleay32_EM_dbg.0.9.8e:s3_lib.obj
 0002:00026ab8       ??_C@_04FDJPPFGE@CLNT?$AA@ 100deab8     ssleay32_EM_dbg.0.9.8e:s3_lib.obj
 0002:00026ac0       ??_C@_0BB@OGEMNONP@AECDH?9AES256?9SHA?$AA@ 100deac0     ssleay32_EM_dbg.0.9.8e:s3_lib.obj
 0002:00026ad4       ??_C@_0BB@JHGOIGMC@AECDH?9AES128?9SHA?$AA@ 100dead4     ssleay32_EM_dbg.0.9.8e:s3_lib.obj
 0002:00026ae8       ??_C@_0BD@OILGHBPL@AECDH?9DES?9CBC3?9SHA?$AA@ 100deae8     ssleay32_EM_dbg.0.9.8e:s3_lib.obj
 0002:00026afc       ??_C@_0O@HOGKIOL@AECDH?9RC4?9SHA?$AA@ 100deafc     ssleay32_EM_dbg.0.9.8e:s3_lib.obj
 0002:00026b0c       ??_C@_0P@PMJJNNNJ@AECDH?9NULL?9SHA?$AA@ 100deb0c     ssleay32_EM_dbg.0.9.8e:s3_lib.obj
 0002:00026b1c       ??_C@_0BF@MEKBBPKD@ECDHE?9RSA?9AES256?9SHA?$AA@ 100deb1c     ssleay32_EM_dbg.0.9.8e:s3_lib.obj
 0002:00026b34       ??_C@_0BF@LFIDEHLO@ECDHE?9RSA?9AES128?9SHA?$AA@ 100deb34     ssleay32_EM_dbg.0.9.8e:s3_lib.obj
 0002:00026b4c       ??_C@_0BH@IHFPJHMK@ECDHE?9RSA?9DES?9CBC3?9SHA?$AA@ 100deb4c     ssleay32_EM_dbg.0.9.8e:s3_lib.obj
 0002:00026b64       ??_C@_0BC@LPOJOBCI@ECDHE?9RSA?9RC4?9SHA?$AA@ 100deb64     ssleay32_EM_dbg.0.9.8e:s3_lib.obj
 0002:00026b78       ??_C@_0BD@POEMEBJK@ECDHE?9RSA?9NULL?9SHA?$AA@ 100deb78     ssleay32_EM_dbg.0.9.8e:s3_lib.obj
 0002:00026b8c       ??_C@_0BE@DDOIEHPH@ECDH?9RSA?9AES256?9SHA?$AA@ 100deb8c     ssleay32_EM_dbg.0.9.8e:s3_lib.obj
 0002:00026ba0       ??_C@_0BE@ECMKBPOK@ECDH?9RSA?9AES128?9SHA?$AA@ 100deba0     ssleay32_EM_dbg.0.9.8e:s3_lib.obj
 0002:00026bb4       ??_C@_0BG@DMDICBBF@ECDH?9RSA?9DES?9CBC3?9SHA?$AA@ 100debb4     ssleay32_EM_dbg.0.9.8e:s3_lib.obj
 0002:00026bcc       ??_C@_0BB@OHKIFIJN@ECDH?9RSA?9RC4?9SHA?$AA@ 100debcc     ssleay32_EM_dbg.0.9.8e:s3_lib.obj
 0002:00026be0       ??_C@_0BC@EFBPEHCA@ECDH?9RSA?9NULL?9SHA?$AA@ 100debe0     ssleay32_EM_dbg.0.9.8e:s3_lib.obj
 0002:00026bf4       ??_C@_0BH@JMPGCDAE@ECDHE?9ECDSA?9AES256?9SHA?$AA@ 100debf4     ssleay32_EM_dbg.0.9.8e:s3_lib.obj
 0002:00026c0c       ??_C@_0BH@ONNEHLBJ@ECDHE?9ECDSA?9AES128?9SHA?$AA@ 100dec0c     ssleay32_EM_dbg.0.9.8e:s3_lib.obj
 0002:00026c24       ??_C@_0BJ@EJHGJJDE@ECDHE?9ECDSA?9DES?9CBC3?9SHA?$AA@ 100dec24     ssleay32_EM_dbg.0.9.8e:s3_lib.obj
 0002:00026c40       ??_C@_0BE@LFDCPJJA@ECDHE?9ECDSA?9RC4?9SHA?$AA@ 100dec40     ssleay32_EM_dbg.0.9.8e:s3_lib.obj
 0002:00026c54       ??_C@_0BF@DLPMKBDM@ECDHE?9ECDSA?9NULL?9SHA?$AA@ 100dec54     ssleay32_EM_dbg.0.9.8e:s3_lib.obj
 0002:00026c6c       ??_C@_0BG@CHJBJFNL@ECDH?9ECDSA?9AES256?9SHA?$AA@ 100dec6c     ssleay32_EM_dbg.0.9.8e:s3_lib.obj
 0002:00026c84       ??_C@_0BG@FGLDMNMG@ECDH?9ECDSA?9AES128?9SHA?$AA@ 100dec84     ssleay32_EM_dbg.0.9.8e:s3_lib.obj
 0002:00026c9c       ??_C@_0BI@GNNEONDK@ECDH?9ECDSA?9DES?9CBC3?9SHA?$AA@ 100dec9c     ssleay32_EM_dbg.0.9.8e:s3_lib.obj
 0002:00026cb4       ??_C@_0BD@JODNPAAE@ECDH?9ECDSA?9RC4?9SHA?$AA@ 100decb4     ssleay32_EM_dbg.0.9.8e:s3_lib.obj
 0002:00026cc8       ??_C@_0BE@MMLFPJGI@ECDH?9ECDSA?9NULL?9SHA?$AA@ 100decc8     ssleay32_EM_dbg.0.9.8e:s3_lib.obj
 0002:00026cdc       ??_C@_0BE@GNKMIPBE@ADH?9CAMELLIA256?9SHA?$AA@ 100decdc     ssleay32_EM_dbg.0.9.8e:s3_lib.obj
 0002:00026cf0       ??_C@_0BI@NLNPNBIK@DHE?9RSA?9CAMELLIA256?9SHA?$AA@ 100decf0     ssleay32_EM_dbg.0.9.8e:s3_lib.obj
 0002:00026d08       ??_C@_0BI@JEENNAOB@DHE?9DSS?9CAMELLIA256?9SHA?$AA@ 100ded08     ssleay32_EM_dbg.0.9.8e:s3_lib.obj
 0002:00026d20       ??_C@_0BH@LHELGIHB@DH?9RSA?9CAMELLIA256?9SHA?$AA@ 100ded20     ssleay32_EM_dbg.0.9.8e:s3_lib.obj
 0002:00026d38       ??_C@_0BH@PINJGJBK@DH?9DSS?9CAMELLIA256?9SHA?$AA@ 100ded38     ssleay32_EM_dbg.0.9.8e:s3_lib.obj
 0002:00026d50       ??_C@_0BA@OLPMGKNC@CAMELLIA256?9SHA?$AA@ 100ded50     ssleay32_EM_dbg.0.9.8e:s3_lib.obj
 0002:00026d60       ??_C@_0BE@BMIONHAJ@ADH?9CAMELLIA128?9SHA?$AA@ 100ded60     ssleay32_EM_dbg.0.9.8e:s3_lib.obj
 0002:00026d74       ??_C@_0BI@KKPNIJJH@DHE?9RSA?9CAMELLIA128?9SHA?$AA@ 100ded74     ssleay32_EM_dbg.0.9.8e:s3_lib.obj
 0002:00026d8c       ??_C@_0BI@OFGPIIPM@DHE?9DSS?9CAMELLIA128?9SHA?$AA@ 100ded8c     ssleay32_EM_dbg.0.9.8e:s3_lib.obj
 0002:00026da4       ??_C@_0BH@MGGJDAGM@DH?9RSA?9CAMELLIA128?9SHA?$AA@ 100deda4     ssleay32_EM_dbg.0.9.8e:s3_lib.obj
 0002:00026dbc       ??_C@_0BH@IJPLDBAH@DH?9DSS?9CAMELLIA128?9SHA?$AA@ 100dedbc     ssleay32_EM_dbg.0.9.8e:s3_lib.obj
 0002:00026dd4       ??_C@_0BA@JKNODCMP@CAMELLIA128?9SHA?$AA@ 100dedd4     ssleay32_EM_dbg.0.9.8e:s3_lib.obj
 0002:00026de4       ??_C@_0P@NODBBIEP@ADH?9AES256?9SHA?$AA@ 100dede4     ssleay32_EM_dbg.0.9.8e:s3_lib.obj
 0002:00026df4       ??_C@_0BD@LMDODEEP@DHE?9RSA?9AES256?9SHA?$AA@ 100dedf4     ssleay32_EM_dbg.0.9.8e:s3_lib.obj
 0002:00026e08       ??_C@_0BD@OPNGMGD@DHE?9DSS?9AES256?9SHA?$AA@ 100dee08     ssleay32_EM_dbg.0.9.8e:s3_lib.obj
 0002:00026e1c       ??_C@_0BC@KLAKAJLP@DH?9RSA?9AES256?9SHA?$AA@ 100dee1c     ssleay32_EM_dbg.0.9.8e:s3_lib.obj
 0002:00026e30       ??_C@_0BC@BJMJFBJD@DH?9DSS?9AES256?9SHA?$AA@ 100dee30     ssleay32_EM_dbg.0.9.8e:s3_lib.obj
 0002:00026e44       ??_C@_0L@CIGAOKOL@AES256?9SHA?$AA@ 100dee44     ssleay32_EM_dbg.0.9.8e:s3_lib.obj
 0002:00026e50       ??_C@_0P@KPBDEAFC@ADH?9AES128?9SHA?$AA@ 100dee50     ssleay32_EM_dbg.0.9.8e:s3_lib.obj
 0002:00026e60       ??_C@_0BD@MNBMGMFC@DHE?9RSA?9AES128?9SHA?$AA@ 100dee60     ssleay32_EM_dbg.0.9.8e:s3_lib.obj
 0002:00026e74       ??_C@_0BD@HPNPDEHO@DHE?9DSS?9AES128?9SHA?$AA@ 100dee74     ssleay32_EM_dbg.0.9.8e:s3_lib.obj
 0002:00026e88       ??_C@_0BC@NKCIFBKC@DH?9RSA?9AES128?9SHA?$AA@ 100dee88     ssleay32_EM_dbg.0.9.8e:s3_lib.obj
 0002:00026e9c       ??_C@_0BC@GIOLAJIO@DH?9DSS?9AES128?9SHA?$AA@ 100dee9c     ssleay32_EM_dbg.0.9.8e:s3_lib.obj
 0002:00026eb0       ??_C@_0L@FJECLCPG@AES128?9SHA?$AA@ 100deeb0     ssleay32_EM_dbg.0.9.8e:s3_lib.obj
 0002:00026ebc       ??_C@_0BA@GCBICBBP@FZA?9FZA?9CBC?9SHA?$AA@ 100deebc     ssleay32_EM_dbg.0.9.8e:s3_lib.obj
 0002:00026ecc       ??_C@_0N@BBGPBCMB@FZA?9NULL?9SHA?$AA@ 100deecc     ssleay32_EM_dbg.0.9.8e:s3_lib.obj
 0002:00026edc       ??_C@_0BB@OLPAKEBJ@ADH?9DES?9CBC3?9SHA?$AA@ 100deedc     ssleay32_EM_dbg.0.9.8e:s3_lib.obj
 0002:00026ef0       ??_C@_0BA@GKMIFOFH@ADH?9DES?9CBC?9SHA?$AA@ 100deef0     ssleay32_EM_dbg.0.9.8e:s3_lib.obj
 0002:00026f00       ??_C@_0BE@GIAMIJLB@EXP?9ADH?9DES?9CBC?9SHA?$AA@ 100def00     ssleay32_EM_dbg.0.9.8e:s3_lib.obj
 0002:00026f14       ??_C@_0M@MPCININJ@ADH?9RC4?9MD5?$AA@ 100def14     ssleay32_EM_dbg.0.9.8e:s3_lib.obj
 0002:00026f20       ??_C@_0BA@JOCILGKM@EXP?9ADH?9RC4?9MD5?$AA@ 100def20     ssleay32_EM_dbg.0.9.8e:s3_lib.obj
 0002:00026f30       ??_C@_0BF@KCOPIELP@EDH?9RSA?9DES?9CBC3?9SHA?$AA@ 100def30     ssleay32_EM_dbg.0.9.8e:s3_lib.obj
 0002:00026f48       ??_C@_0BE@BMKPLFLB@EDH?9RSA?9DES?9CBC?9SHA?$AA@ 100def48     ssleay32_EM_dbg.0.9.8e:s3_lib.obj
 0002:00026f5c       ??_C@_0BI@CGOFPLIG@EXP?9EDH?9RSA?9DES?9CBC?9SHA?$AA@ 100def5c     ssleay32_EM_dbg.0.9.8e:s3_lib.obj
 0002:00026f74       ??_C@_0BF@POGOIEBE@EDH?9DSS?9DES?9CBC3?9SHA?$AA@ 100def74     ssleay32_EM_dbg.0.9.8e:s3_lib.obj
 0002:00026f8c       ??_C@_0BE@COMFBKAK@EDH?9DSS?9DES?9CBC?9SHA?$AA@ 100def8c     ssleay32_EM_dbg.0.9.8e:s3_lib.obj
 0002:00026fa0       ??_C@_0BI@BEIPFEDN@EXP?9EDH?9DSS?9DES?9CBC?9SHA?$AA@ 100defa0     ssleay32_EM_dbg.0.9.8e:s3_lib.obj
 0002:00026fb8       ??_C@_0BE@JFPMBAGN@DH?9RSA?9DES?9CBC3?9SHA?$AA@ 100defb8     ssleay32_EM_dbg.0.9.8e:s3_lib.obj
 0002:00026fcc       ??_C@_0BD@NHAAJHFK@DH?9RSA?9DES?9CBC?9SHA?$AA@ 100defcc     ssleay32_EM_dbg.0.9.8e:s3_lib.obj
 0002:00026fe0       ??_C@_0BH@CIBPGODL@EXP?9DH?9RSA?9DES?9CBC?9SHA?$AA@ 100defe0     ssleay32_EM_dbg.0.9.8e:s3_lib.obj
 0002:00026ff8       ??_C@_0BE@MJHNBAMG@DH?9DSS?9DES?9CBC3?9SHA?$AA@ 100deff8     ssleay32_EM_dbg.0.9.8e:s3_lib.obj
 0002:0002700c       ??_C@_0BD@OFGKDIOB@DH?9DSS?9DES?9CBC?9SHA?$AA@ 100df00c     ssleay32_EM_dbg.0.9.8e:s3_lib.obj
 0002:00027020       ??_C@_0BH@BKHFMBIA@EXP?9DH?9DSS?9DES?9CBC?9SHA?$AA@ 100df020     ssleay32_EM_dbg.0.9.8e:s3_lib.obj
 0002:00027038       ??_C@_0N@HCCILIJF@DES?9CBC3?9SHA?$AA@ 100df038     ssleay32_EM_dbg.0.9.8e:s3_lib.obj
 0002:00027048       ??_C@_0M@LLIFGIFE@DES?9CBC?9SHA?$AA@ 100df048     ssleay32_EM_dbg.0.9.8e:s3_lib.obj
 0002:00027054       ??_C@_0BA@OKIFAGCB@EXP?9DES?9CBC?9SHA?$AA@ 100df054     ssleay32_EM_dbg.0.9.8e:s3_lib.obj
 0002:00027064       ??_C@_0N@NGGHCCCP@IDEA?9CBC?9SHA?$AA@ 100df064     ssleay32_EM_dbg.0.9.8e:s3_lib.obj
 0002:00027074       ??_C@_0BA@CNLPIOAK@EXP?9RC2?9CBC?9MD5?$AA@ 100df074     ssleay32_EM_dbg.0.9.8e:s3_lib.obj
 0002:00027084       ??_C@_07BANEBHLH@RC4?9SHA?$AA@ 100df084     ssleay32_EM_dbg.0.9.8e:s3_lib.obj
 0002:0002708c       ??_C@_07OCFLHCIN@RC4?9MD5?$AA@ 100df08c     ssleay32_EM_dbg.0.9.8e:s3_lib.obj
 0002:00027094       ??_C@_0M@FMLLHELG@EXP?9RC4?9MD5?$AA@ 100df094     ssleay32_EM_dbg.0.9.8e:s3_lib.obj
 0002:000270a0       ??_C@_08JOFDPCLJ@NULL?9SHA?$AA@ 100df0a0     ssleay32_EM_dbg.0.9.8e:s3_lib.obj
 0002:000270ac       ??_C@_08GMNMJHID@NULL?9MD5?$AA@ 100df0ac     ssleay32_EM_dbg.0.9.8e:s3_lib.obj
 0002:000270b8       _ssl3_version_str          100df0b8     ssleay32_EM_dbg.0.9.8e:s3_lib.obj
 0002:000270e4       ??_C@_0P@PMKBCFPP@?4?2ssl?2s3_lib?4c?$AA@ 100df0e4     ssleay32_EM_dbg.0.9.8e:s3_lib.obj
 0002:000270f4       ??_C@_0P@IHAHLMDM@?4?2ssl?2s3_pkt?4c?$AA@ 100df0f4     ssleay32_EM_dbg.0.9.8e:s3_pkt.obj
 0002:00027104       ??_C@_0BC@PCIPMNJJ@SSL?5alert?5number?5?$AA@ 100df104     ssleay32_EM_dbg.0.9.8e:s3_pkt.obj
 0002:00027118       ??_C@_0BA@NMKJILMC@?4?2ssl?2s3_clnt?4c?$AA@ 100df118     ssleay32_EM_dbg.0.9.8e:s3_clnt.obj
 0002:00027128       ??_C@_0BA@PHFAPHHI@?4?2ssl?2s3_srvr?4c?$AA@ 100df128     ssleay32_EM_dbg.0.9.8e:s3_srvr.obj
 0002:00027138       ??_C@_03POJCPIGP@CCC?$AA@  100df138     ssleay32_EM_dbg.0.9.8e:s3_enc.obj
 0002:0002713c       ??_C@_02LBOPFCME@BB?$AA@   100df13c     ssleay32_EM_dbg.0.9.8e:s3_enc.obj
 0002:00027140       ??_C@_01FHEEJDEE@A?$AA@    100df140     ssleay32_EM_dbg.0.9.8e:s3_enc.obj
 0002:00027144       ??_C@_0P@NBDCMPEC@?4?2ssl?2s3_enc?4c?$AA@ 100df144     ssleay32_EM_dbg.0.9.8e:s3_enc.obj
 0002:00027158       ??_7type_info@@6B@         100df158     MSVCRTD:ti_inst.obj
 0002:0002715c       __pDefaultRawDllMain       100df15c     MSVCRTD:crtdll.obj
 0002:0002715c       __pRawDllMain              100df15c     MSVCRTD:crtdll.obj
 0002:00027160       ??_C@_08EIBOPINA@crtdll?4c?$AA@ 100df160     MSVCRTD:crtdll.obj
 0002:00027174       ??_C@_0BJ@DAGKNKDH@?4?2crypto?2comp?2comp_lib?4c?$AA@ 100df174     libeay32_EM_dbg.0.9.8e:comp_lib.obj
 0002:000271c4       ??_C@_07FELGDGBG@?$CIundef?$CJ?$AA@ 100df1c4     libeay32_EM_dbg.0.9.8e:c_zlib.obj
 0002:000271cc       _ECDH_version              100df1cc     libeay32_EM_dbg.0.9.8e:ech_lib.obj
 0002:000271f4       ??_C@_0BI@LFHHMGOE@?4?2crypto?2ecdh?2ech_lib?4c?$AA@ 100df1f4     libeay32_EM_dbg.0.9.8e:ech_lib.obj
 0002:0002720c       ??_C@_0BE@LILBBPKE@OpenSSL?5ECDH?5method?$AA@ 100df20c     libeay32_EM_dbg.0.9.8e:ech_ossl.obj
 0002:00027220       ??_C@_0BJ@GOHIGCLE@?4?2crypto?2ecdh?2ech_ossl?4c?$AA@ 100df220     libeay32_EM_dbg.0.9.8e:ech_ossl.obj
 0002:00027240       ??_C@_0P@GHFPNOJB@bad?5allocation?$AA@ 100df240     SgiCripto.obj
 0002:00027250       ??_C@_0BP@HHOIEPNJ@Proceso?5concluido?5exitosamente?$AA@ 100df250     SgiCripto.obj
 0002:00027270       ??_C@_0CB@MBGNKMGO@Certificado?5da?qado?5o?5mal?5formado@ 100df270     SgiCripto.obj
 0002:00027294       ??_C@_0CD@DPMOPCCG@Error?5al?5procesar?5la?5llave?5p?zbli@ 100df294     SgiCripto.obj
 0002:000272b8       ??_C@_0DB@OMPJGDBN@Llaves?5?$CIpublica?5?$DM?9?$DO?5privada?$CJ?5no?5@ 100df2b8     SgiCripto.obj
 0002:000272ec       ??_C@_0CG@CEOHOIIF@Error?5al?5abrir?5archivo?5de?5certif@ 100df2ec     SgiCripto.obj
 0002:00027314       ??_C@_0CD@EIGBJIEL@Llave?5privada?5da?qada?5o?5mal?5forma@ 100df314     SgiCripto.obj
 0002:00027338       ??_C@_0CL@NBLCFENB@Error?5al?5abrir?5archivo?5de?5la?5lla@ 100df338     SgiCripto.obj
 0002:00027364       ??_C@_0CL@EGCBGPDJ@Constrase?qa?5de?5la?5llave?5privada?5@ 100df364     SgiCripto.obj
 0002:00027390       ??_C@_0BG@HNCOEHNB@Cadena?5B64?5incorrecta?$AA@ 100df390     SgiCripto.obj
 0002:000273a8       ??_C@_0CA@LBLKDGIL@Error?5al?5convertir?5cadena?5a?5B64?$AA@ 100df3a8     SgiCripto.obj
 0002:000273c8       ??_C@_0BK@LCHCOLPN@Error?5al?5generar?5la?5firma?$AA@ 100df3c8     SgiCripto.obj
 0002:000273e4       ??_C@_0BP@FBPEECHC@Error?5al?5desencriptar?5la?5firma?$AA@ 100df3e4     SgiCripto.obj
 0002:00027404       ??_C@_0DA@GJGOPMKG@No?5se?5ha?5iniciado?5el?5objeto?5para@ 100df404     SgiCripto.obj
 0002:00027434       ??_C@_0DC@IEIHAPMA@Firma?5incorrecta?5?$CIno?5corresponde@ 100df434     SgiCripto.obj
 0002:00027468       ??_C@_0DA@DCFKHDBK@Identificador?5de?5digesti?sn?5inv?al@ 100df468     SgiCripto.obj
 0002:00027498       ??_C@_0BM@KIIGMCII@No?5se?5pudo?5generar?5el?5PKCS7?$AA@ 100df498     SgiCripto.obj
 0002:000274b8       ??_C@_0EH@MDJJNAIE@Error?5al?5decodificar?5el?5PKCS7?0?5p@ 100df4b8     SgiCripto.obj
 0002:00027500       ??_C@_0CO@PLEONLJL@Error?5al?5extraer?5datos?5del?5firma@ 100df500     SgiCripto.obj
 0002:00027530       ??_C@_0CK@DFMINIML@El?5PKCS7?5no?5cuenta?5con?5datos?5del@ 100df530     SgiCripto.obj
 0002:0002755c       ??_C@_0BN@CGJNGAON@Error?5al?5abrir?5archivo?5PKCS7?$AA@ 100df55c     SgiCripto.obj
 0002:0002757c       ??_C@_0BN@NGIMDEIJ@Error?5al?5crear?5archivo?5PKCS7?$AA@ 100df57c     SgiCripto.obj
 0002:0002759c       ??_C@_0BL@NKFEHAJJ@Error?5al?5verificar?5archivo?$AA@ 100df59c     SgiCripto.obj
 0002:000275b8       ??_C@_0DP@BJEGCLFO@El?5PKCS7?5no?5est?a?5firmado?5con?5un?5@ 100df5b8     SgiCripto.obj
 0002:000275f8       ??_C@_0DM@JINIPICC@El?5PKCS7?5est?a?5firmado?5con?5un?5cer@ 100df5f8     SgiCripto.obj
 0002:00027634       ??_C@_0CI@INNOKIPL@Error?5al?5extraer?5datos?5del?5desti@ 100df634     SgiCripto.obj
 0002:0002765c       ??_C@_0CN@ICFEKFEB@El?5PKCS7?5no?5cuenta?5con?5datos?5de?5@ 100df65c     SgiCripto.obj
 0002:0002768c       ??_C@_0BN@ILKMPFNF@No?5se?5pudo?5procesar?5el?5PKCS7?$AA@ 100df68c     SgiCripto.obj
 0002:000276ac       ??_C@_0BN@GBOEEPOJ@Error?5al?5a?qadir?5destinatario?$AA@ 100df6ac     SgiCripto.obj
 0002:000276cc       ??_C@_0BJ@LJBLMOCB@Error?5al?5a?qadir?5firmante?$AA@ 100df6cc     SgiCripto.obj
 0002:000276e8       ??_C@_0DB@ENIFHPKM@Error?5al?5iniciar?5datos?5para?5el?5p@ 100df6e8     SgiCripto.obj
 0002:0002771c       ??_C@_0CB@DBJBEFJG@Tipo?5de?5operaci?sn?5PKCS7?5inv?alida@ 100df71c     SgiCripto.obj
 0002:00027740       ??_C@_0CI@HHJOHPDL@Error?5al?5cargar?5algoritmo?5de?5enc@ 100df740     SgiCripto.obj
 0002:00027768       ??_C@_0CI@LLOHKML@Error?5al?5iniciar?5contexto?5de?5enc@ 100df768     SgiCripto.obj
 0002:00027790       ??_C@_0CC@IDJHIDGE@Error?5en?5el?5proceso?5de?5encripci?s@ 100df790     SgiCripto.obj
 0002:000277b4       ??_C@_0CA@PPGBEFME@Error?5al?5establecer?5el?5cifrador?$AA@ 100df7b4     SgiCripto.obj
 0002:000277d4       ??_C@_0CA@EIOIIHOE@Algoritmo?5de?5digesti?sn?5inv?alido?$AA@ 100df7d4     SgiCripto.obj
 0002:000277f4       ??_C@_0BJ@BNKJKDPA@Interfase?5de?5objeto?5nula?$AA@ 100df7f4     SgiCripto.obj
 0002:00027810       ??_C@_0BF@ECMBPNGI@Memoria?5insuficiente?$AA@ 100df810     SgiCripto.obj
 0002:00027828       ??_C@_0CB@KIGCCNIH@Par?ametro?5sin?5espacio?5suficiente@ 100df828     SgiCripto.obj
 0002:0002784c       ??_C@_0P@PCFCAFJG@Par?ametro?5nulo?$AA@ 100df84c     SgiCripto.obj
 0002:0002785c       ??_C@_0CC@MJGAHANF@Objeto?5de?5Certificado?5no?5iniciad@ 100df85c     SgiCripto.obj
 0002:00027880       ??_C@_0BP@OCCHFBKG@No?5requiere?5consultar?5a?5la?5ARA?$AA@ 100df880     SgiCripto.obj
 0002:000278a0       ??_C@_0DB@KAPNNPAO@No?5se?5ha?5iniciado?5el?5objeto?5de?5c@ 100df8a0     SgiCripto.obj
 0002:000278d4       ??_C@_0CH@DDGLCHL@No?5se?5ha?5establecido?5conexi?sn?5a?5@ 100df8d4     SgiCripto.obj
 0002:000278fc       ??_C@_0DH@KCOAODOP@No?5se?5ha?5cargado?5la?5configuraci?s@ 100df8fc     SgiCripto.obj
 0002:00027938       ??_C@_0ED@OIFKLHAE@Error?5al?5leer?5los?5parametros?5de?5@ 100df938     SgiCripto.obj
 0002:0002797c       ??_C@_0DH@DAKDLHA@No?5se?5pudo?5establecer?5la?5bit?acor@ 100df97c     SgiCripto.obj
 0002:000279b8       ??_C@_0EF@IHFIKCND@No?5se?5pudo?5iniciar?5la?5librer?ma?5d@ 100df9b8     SgiCripto.obj
 0002:00027a00       ??_C@_0BO@GAGPDPPP@No?5se?5puede?5conectar?5a?5la?5ARA?$AA@ 100dfa00     SgiCripto.obj
 0002:00027a20       ??_C@_0DF@JGEGCAFB@No?5se?5pudo?5crear?5el?5mensaje?5de?5s@ 100dfa20     SgiCripto.obj
 0002:00027a58       ??_C@_0EA@ENLCMHOH@No?5se?5pudo?5extraer?5los?5datos?5del@ 100dfa58     SgiCripto.obj
 0002:00027a98       ??_C@_0CM@ICLPKGC@No?5se?5pudo?5transmitir?5la?5solicit@ 100dfa98     SgiCripto.obj
 0002:00027ac4       ??_C@_0CH@CBFCODBM@No?5se?5pudo?5recibir?5respuesta?5de?5@ 100dfac4     SgiCripto.obj
 0002:00027aec       ??_C@_0BO@GJKMNGGL@Se?5recibi?s?5un?5error?5de?5la?5ARA?$AA@ 100dfaec     SgiCripto.obj
 0002:00027b0c       ??_C@_0DI@GALMDPID@Se?5recibi?s?5un?5mensaje?5de?5respues@ 100dfb0c     SgiCripto.obj
 0002:00027b44       ??_C@_0CK@HAMGBDPD@No?5est?a?5registra?5el?5certificado?5@ 100dfb44     SgiCripto.obj
 0002:00027b70       ??_C@_0DJ@LIEHLACP@Por?5el?5momento?5el?5certificado?5no@ 100dfb70     SgiCripto.obj
 0002:00027bac       ??_C@_0CP@DHCPOMFJ@El?5n?zmero?5de?5serie?5de?5la?5solicit@ 100dfbac     SgiCripto.obj
 0002:00027bdc       ??_C@_0CD@MBJBKKEJ@El?5RFC?5de?5la?5solicitud?5es?5inv?ali@ 100dfbdc     SgiCripto.obj
 0002:00027c00       ??_C@_0DH@PEIFBMDO@La?5informaci?sn?5solicitada?5no?5est@ 100dfc00     SgiCripto.obj
 0002:00027c38       ??_C@_0BG@OFDIGEO@Error?5no?5identificado?$AA@ 100dfc38     SgiCripto.obj
 0002:00027c50       ??_C@_0BE@MLJEJHEI@Error?5no?5catalogado?$AA@ 100dfc50     SgiCripto.obj
 0002:00027c68       ??_C@_1IM@JLDLAKNH@?$AAC?$AA?3?$AA?2?$AAA?$AAr?$AAc?$AAh?$AAi?$AAv?$AAo?$AAs?$AA?5?$AAd?$AAe?$AA?5?$AAp?$AAr?$AAo?$AAg?$AAr?$AAa?$AAm?$AAa?$AA?2?$AAM?$AAi?$AAc?$AAr?$AAo?$AAs?$AAo?$AAf@ 100dfc68     Sgi_ARA.obj
 0002:00027cf4       ??_C@_1DC@POOIKBAO@?$AAI?$AAT?$AAE?$AAR?$AAA?$AAT?$AAO?$AAR?$AA?5?$AAL?$AAI?$AAS?$AAT?$AA?5?$AAC?$AAO?$AAR?$AAR?$AAU?$AAP?$AAT?$AAE?$AAD?$AA?$CB?$AA?$AA@ 100dfcf4     Sgi_ARA.obj
 0002:00027d28       ??_C@_1BO@MEPPHOO@?$AA?$CC?$AAo?$AAu?$AAt?$AA?5?$AAo?$AAf?$AA?5?$AAr?$AAa?$AAn?$AAg?$AAe?$AA?$CC?$AA?$AA@ 100dfd28     Sgi_ARA.obj
 0002:00027d46       ??_C@_00CNPNBAHC@?$AA@     100dfd46     Sgi_ARA.obj
 0002:00027d48       ??_C@_0BA@JNGDMAB@C?3?2SAT?2PKI?2ARA?2?$AA@ 100dfd48     Sgi_ARA.obj
 0002:00027d58       ??_C@_08FLEIJFKP@Inicia?$CI?$CJ?$AA@ 100dfd58     Sgi_ARA.obj
 0002:00027d68       ??_C@_0EP@HFHICLMG@Par?ametros?5de?5configuraci?sn?3?5Cer@ 100dfd68     Sgi_ARA.obj
 0002:00027db8       ??_C@_0BL@NNPNFEOK@C?3?2SAT?2PKI?2ARA?2Sgi_ARA?4cfg?$AA@ 100dfdb8     Sgi_ARA.obj
 0002:00027dd4       ??_C@_04DLKLOAPK@CERT?$AA@ 100dfdd4     Sgi_ARA.obj
 0002:00027ddc       ??_C@_0M@FJMPKFEE@?$FLLLAVE_SRV?$FN?$AA@ 100dfddc     Sgi_ARA.obj
 0002:00027de8       ??_C@_04CCAEFLLI@HOST?$AA@ 100dfde8     Sgi_ARA.obj
 0002:00027df0       ??_C@_05FCKONEFG@?$FLARA?$FN?$AA@ 100dfdf0     Sgi_ARA.obj
 0002:00027df8       ??_C@_08IJCBGBHB@SERVICIO?$AA@ 100dfdf8     Sgi_ARA.obj
 0002:00027e04       ??_C@_05LHCNKMMH@BITAC?$AA@ 100dfe04     Sgi_ARA.obj
 0002:00027e0c       ??_C@_0L@FIKPEBNO@?$FLBITACORA?$FN?$AA@ 100dfe0c     Sgi_ARA.obj
 0002:00027e18       ??_C@_08CLGGKGLB@NIVELBIT?$AA@ 100dfe18     Sgi_ARA.obj
 0002:00027e24       ??_C@_09IFHNJHLK@Conecta?$CI?$CJ?$AA@ 100dfe24     Sgi_ARA.obj
 0002:00027e30       ??_C@_0CD@GPFGGNHD@INICIAOBJ?9?$DO?5Se?5present?s?5el?5error@ 100dfe30     Sgi_ARA.obj
 0002:00027e54       ??_C@_0CK@ILLKLLFD@INICIAOBJ?9?$DO?5Se?5present?s?5el?5error@ 100dfe54     Sgi_ARA.obj
 0002:00027e80       ??_C@_0DF@LFGLJEHB@INICIAOBJ?9?$DO?5Se?5present?s?5el?5error@ 100dfe80     Sgi_ARA.obj
 0002:00027eb8       ??_C@_0N@IMNLGOEJ@Desconecta?$CI?$CJ?$AA@ 100dfeb8     Sgi_ARA.obj
 0002:00027ec8       ??_C@_0CA@BBENPAIH@No?5se?5ha?5inicializado?5el?5objeto?$AA@ 100dfec8     Sgi_ARA.obj
 0002:00027ee8       ??_C@_0BN@ECNEOIKF@No?5se?5ha?5conectado?5el?5objeto?$AA@ 100dfee8     Sgi_ARA.obj
 0002:00027f08       ??_C@_0HL@EGLKFHGN@No?5se?5carg?s?5correctamente?5el?5arc@ 100dff08     Sgi_ARA.obj
 0002:00027f88       ??_C@_0EH@HBHGLMEE@No?5se?5leyeron?5correctamente?5los?5@ 100dff88     Sgi_ARA.obj
 0002:00027fd0       ??_C@_0GO@CBFELOJN@No?5se?5estableci?s?5la?5bit?acora?5cor@ 100dffd0     Sgi_ARA.obj
 0002:00028040       ??_C@_0DF@IAPGGCNO@No?5se?5inicializ?s?5correctamente?5e@ 100e0040     Sgi_ARA.obj
 0002:00028078       ??_C@_0GC@GNPAPLEB@No?5se?5inicializ?s?5correctamente?5e@ 100e0078     Sgi_ARA.obj
 0002:000280e0       ??_C@_0KD@OHGDFGHL@No?5se?5conect?s?5correctamente?5el?5c@ 100e00e0     Sgi_ARA.obj
 0002:00028188       ??_C@_0EB@MOLIIPIG@No?5se?5recibio?5correctamente?5la?5i@ 100e0188     Sgi_ARA.obj
 0002:000281cc       ??_C@_0DN@NEDGHLAN@No?5se?5carg?s?5correctamente?5la?5inf@ 100e01cc     Sgi_ARA.obj
 0002:0002820c       ??_C@_0CK@PIEBJPOO@No?5se?5pudo?5transmitir?5el?5mensaje@ 100e020c     Sgi_ARA.obj
 0002:00028238       ??_C@_0CJ@KFBCAFHL@Se?5recibi?s?5un?5mensaje?5de?5error?5d@ 100e0238     Sgi_ARA.obj
 0002:00028264       ??_C@_0CC@HDPEMKGM@Se?5recibi?s?5un?5mensaje?5no?5esperad@ 100e0264     Sgi_ARA.obj
 0002:00028288       ??_C@_0DM@DEMBMCFL@Por?5el?5momento?5el?5certificado?5so@ 100e0288     Sgi_ARA.obj
 0002:000282c4       ??_C@_0CE@JDEHMKBC@El?5Certificado?5solicitado?5no?5exi@ 100e02c4     Sgi_ARA.obj
 0002:000282e8       ??_C@_0CD@OAIFIGCD@Se?5recibi?s?5un?5mensaje?5de?5KEEPALI@ 100e02e8     Sgi_ARA.obj
 0002:0002830c       ??_C@_0BF@HOHLDKBO@Error?5no?5determinado?$AA@ 100e030c     Sgi_ARA.obj
 0002:00028324       ??_C@_0L@DCKGKMIB@?$CFs?5?$CI?$CFi?$CJ?5?$CFs?$AA@ 100e0324     Sgi_ARA.obj
 0002:00028330       ??_C@_0CL@NDKCFPMK@Error?0?5memoria?5insuficiente?5RecM@ 100e0330     Sgi_ARA.obj
 0002:00028360       ??_C@_0EE@MCAACEPM@Al?5recibir?5el?5mensaje?5?$CIERROR_ARA@ 100e0360     Sgi_ARA.obj
 0002:000283a4       ??_C@_0P@OMAMGIOC@?$CFs?0?5error?$CI?$CFs?$CJ?4?$AA@ 100e03a4     Sgi_ARA.obj
 0002:000283b4       ??_C@_0CC@CFCGICMA@?$CFs?5La?5ARA?5env?mo?5el?5error?5?$CI?$CFi?$CJ?3?5?$CF@ 100e03b4     Sgi_ARA.obj
 0002:000283d8       ??_C@_01POHCFINO@Z?$AA@    100e03d8     Sgi_ARA.obj
 0002:000283dc       ??_C@_0N@CHAHHHJP@SolCDxNS?$CI?$CFs?$CJ?$AA@ 100e03dc     Sgi_ARA.obj
 0002:000283f0       ??_C@_0EA@NJPLJLNN@SOLCDxNS?9?$DO?5En?5la?5validaci?sn?5de?5c@ 100e03f0     Sgi_ARA.obj
 0002:00028430       ??_C@_0EP@JPODEIIE@SOLCDxNS?9?$DO?5En?5la?5carga?5del?5mensa@ 100e0430     Sgi_ARA.obj
 0002:00028480       ??_C@_0EL@NFCDOMBE@SOLCDxNS?9?$DO?5En?5la?5transmisi?sn?5del@ 100e0480     Sgi_ARA.obj
 0002:000284cc       ??_C@_0DN@LHIFFKLN@SolCDxNS?$CI?$CFs?$CJ?3?5estado?$CI?$CFc?$CJ?0?5tipo?$CI?$CF@ 100e04cc     Sgi_ARA.obj
 0002:00028510       ??_C@_0EN@KJCJDINC@SOLCDxNS?9?$DO?5Al?5recibir?5el?5mensaje@ 100e0510     Sgi_ARA.obj
 0002:00028560       ??_C@_0DP@FBODHJBP@SolCDxNS?$CI?$CFs?$CJ?3?5estado?$CI?$CFc?$CJ?0?5tipo?$CI?$CF@ 100e0560     Sgi_ARA.obj
 0002:000285a0       ??_C@_0EO@CHKJPJLL@SOLCDxNS?9?$DO?5Al?5recibir?5el?5mensaje@ 100e05a0     Sgi_ARA.obj
 0002:000285f0       ??_C@_0M@DIHOJDCO@SOLCDxNS?9?$DO?5?$AA@ 100e05f0     Sgi_ARA.obj
 0002:000285fc       ??_C@_0BA@GJFFCFKM@SolEdoCDxNS?$CI?$CFs?$CJ?$AA@ 100e05fc     Sgi_ARA.obj
 0002:00028610       ??_C@_0ED@OONLLNBF@SOLEDOCDxNS?9?$DO?5En?5la?5validaci?sn?5d@ 100e0610     Sgi_ARA.obj
 0002:00028658       ??_C@_0FF@PIKLJFAD@SOLEDOCDxNS?9?$DO?5En?5la?5carga?5del?5me@ 100e0658     Sgi_ARA.obj
 0002:000286b0       ??_C@_0FB@OMKAICAD@SOLEDOCDxNS?9?$DO?5En?5la?5transmisi?sn?5@ 100e06b0     Sgi_ARA.obj
 0002:00028704       ??_C@_0DF@NEEBIGAI@SolEdoCDxNS?$CI?$CFs?$CJ?3?5estado?$CI?$CFc?$CJ?0?5tip@ 100e0704     Sgi_ARA.obj
 0002:00028740       ??_C@_0FD@MGJEDCBP@SOLEDOCDxNS?9?$DO?5Al?5recibir?5el?5mens@ 100e0740     Sgi_ARA.obj
 0002:00028794       ??_C@_0DH@PKDOFKCB@SolEdoCDxNS?$CI?$CFs?$CJ?3?5estado?$CI?$CFc?$CJ?0?5tip@ 100e0794     Sgi_ARA.obj
 0002:000287d0       ??_C@_0FE@MCBDPKLM@SOLEDOCDxNS?9?$DO?5Al?5recibir?5el?5mens@ 100e07d0     Sgi_ARA.obj
 0002:00028824       ??_C@_0P@BALFMHOB@SOLEDOCDxNS?9?$DO?5?$AA@ 100e0824     Sgi_ARA.obj
 0002:00028834       ??_C@_0BD@HBKMIHIO@SolNSCDFEAxRFC?$CI?$CFs?$CJ?$AA@ 100e0834     Sgi_ARA.obj
 0002:00028848       ??_C@_0EG@BBHEEBEL@SOLNSCDFEAXRFC?9?$DO?5En?5la?5validaci?s@ 100e0848     Sgi_ARA.obj
 0002:00028890       ??_C@_0FI@DBFPEAOC@SOLNSCDFEAXRFC?9?$DO?5En?5la?5carga?5del@ 100e0890     Sgi_ARA.obj
 0002:000288e8       ??_C@_0FE@FLMIHKMN@SOLNSCDFEAXRFC?9?$DO?5En?5la?5transmisi@ 100e08e8     Sgi_ARA.obj
 0002:00028940       ??_C@_0FD@PAOFKDPH@SOLNSCDFEAXRFC?9?$DO?5Al?5recibir?5el?5m@ 100e0940     Sgi_ARA.obj
 0002:00028994       ??_C@_0BH@LNHLNPGF@SolNSCDFEAxRFC?$CI?$CFs?$CJ?3?5?$CFs?$AA@ 100e0994     Sgi_ARA.obj
 0002:000289ac       ??_C@_0BF@FOJALGLA@SOLNSCDFEAxRFCxNS?9?$DO?5?$AA@ 100e09ac     Sgi_ARA.obj
 0002:000289c4       ??_C@_0BP@JDJCNNAI@SolListaCDxRFC?$CI?$CFs?0?5?$CFc?0?5?$CFd?0?5?$CFd?$CJ?$AA@ 100e09c4     Sgi_ARA.obj
 0002:000289e4       ??_C@_0CN@JAMMJNCK@SolListaCDxRFC?9?$DO?5Error?0?5memoria?5@ 100e09e4     Sgi_ARA.obj
 0002:00028a14       ??_C@_02DPKJAMEF@?$CFd?$AA@ 100e0a14     Sgi_ARA.obj
 0002:00028a18       ??_C@_02HAOIJKIC@?$CFc?$AA@ 100e0a18     Sgi_ARA.obj
 0002:00028a20       ??_C@_0EG@NENNAEPK@SOLLISTACDxRFC?9?$DO?5En?5la?5validaci?s@ 100e0a20     Sgi_ARA.obj
 0002:00028a68       ??_C@_0FN@DHFBOOHE@SOLLISTACDxRFC?9?$DO?5En?5la?5carga?5del@ 100e0a68     Sgi_ARA.obj
 0002:00028ac8       ??_C@_0FK@KGHNEDBC@SOLLISTACDxRFC?9?$DO?5En?5la?5transmisi@ 100e0ac8     Sgi_ARA.obj
 0002:00028b28       ??_C@_0FE@CEKLNDPI@SOLLISTACDxRFC?9?$DO?5Al?5recibir?5el?5m@ 100e0b28     Sgi_ARA.obj
 0002:00028b7c       ??_C@_0BH@DJOOIJLL@SolListaCDxRFC?$CI?$CFs?$CJ?3?5?$CFs?$AA@ 100e0b7c     Sgi_ARA.obj
 0002:00028b94       ??_C@_0BC@BKLJFIFA@SOLLISTACDxRFC?9?$DO?5?$AA@ 100e0b94     Sgi_ARA.obj
 0002:00028ba8       ??_C@_09IOKGKBMN@KeepAlive?$AA@ 100e0ba8     Sgi_ARA.obj
 0002:00028bb8       ??_C@_0EB@MEGGDELM@KEEPALIVE?9?$DO?5En?5la?5validaci?sn?5de?5@ 100e0bb8     Sgi_ARA.obj
 0002:00028c00       ??_C@_0FC@BIFHCJFD@KEEPALIVE?9?$DO?5En?5la?5carga?5del?5mens@ 100e0c00     Sgi_ARA.obj
 0002:00028c58       ??_C@_0EN@KBDEOGFG@KEEPALIVE?9?$DO?5En?5la?5transmisi?sn?5de@ 100e0c58     Sgi_ARA.obj
 0002:00028ca8       ??_C@_0N@NJKBDDDE@KEEPALIVE?9?$DO?5?$AA@ 100e0ca8     Sgi_ARA.obj
 0002:00028cb8       ??_C@_1FG@CMLDHNON@?$AA?$CI?$AA?$CC?$AAS?$AAt?$AAa?$AAn?$AAd?$AAa?$AAr?$AAd?$AA?5?$AAC?$AA?$CL?$AA?$CL?$AA?5?$AAL?$AAi?$AAb?$AAr?$AAa?$AAr?$AAi?$AAe?$AAs?$AA?5?$AAO?$AAu?$AAt?$AA?5?$AAo?$AAf?$AA?5@ 100e0cb8     Sgi_ARA.obj
 0002:00028d10       ??_C@_1IG@LCOAPHFE@?$AAC?$AA?3?$AA?2?$AAA?$AAr?$AAc?$AAh?$AAi?$AAv?$AAo?$AAs?$AA?5?$AAd?$AAe?$AA?5?$AAp?$AAr?$AAo?$AAg?$AAr?$AAa?$AAm?$AAa?$AA?2?$AAM?$AAi?$AAc?$AAr?$AAo?$AAs?$AAo?$AAf@ 100e0d10     Sgi_ARA.obj
 0002:00028d98       ??_C@_1EK@PPDBPCAN@?$AAm?$AAa?$AAp?$AA?1?$AAs?$AAe?$AAt?$AA?5?$AAe?$AAr?$AAa?$AAs?$AAe?$AA?5?$AAi?$AAt?$AAe?$AAr?$AAa?$AAt?$AAo?$AAr?$AA?5?$AAo?$AAu?$AAt?$AAs?$AAi?$AAd?$AAe?$AA?5?$AAr@ 100e0d98     Sgi_ARA.obj
 0002:00028de4       ??_C@_1CG@JNLFBNGN@?$AA?$CC?$AAi?$AAn?$AAv?$AAa?$AAl?$AAi?$AAd?$AA?5?$AAa?$AAr?$AAg?$AAu?$AAm?$AAe?$AAn?$AAt?$AA?$CC?$AA?$AA@ 100e0de4     Sgi_ARA.obj
 0002:00028e0c       ??_C@_1DO@CFEEPGGJ@?$AAm?$AAa?$AAp?$AA?1?$AAs?$AAe?$AAt?$AA?5?$AAi?$AAt?$AAe?$AAr?$AAa?$AAt?$AAo?$AAr?$AAs?$AA?5?$AAi?$AAn?$AAc?$AAo?$AAm?$AAp?$AAa?$AAt?$AAi?$AAb?$AAl?$AAe?$AA?$AA@ 100e0e0c     Sgi_ARA.obj
 0002:00028e50       ??_C@_1FO@OCPOOAIA@?$AA?$CI?$AA?$CC?$AAS?$AAt?$AAa?$AAn?$AAd?$AAa?$AAr?$AAd?$AA?5?$AAC?$AA?$CL?$AA?$CL?$AA?5?$AAL?$AAi?$AAb?$AAr?$AAa?$AAr?$AAi?$AAe?$AAs?$AA?5?$AAI?$AAn?$AAv?$AAa?$AAl?$AAi?$AAd@ 100e0e50     Sgi_ARA.obj
 0002:00028eb0       ??_C@_1EIC@GOFKNGIK@?$AAs?$AAt?$AAd?$AA?3?$AA?3?$AA_?$AAT?$AAr?$AAe?$AAe?$AA?$DM?$AAc?$AAl?$AAa?$AAs?$AAs?$AA?5?$AAs?$AAt?$AAd?$AA?3?$AA?3?$AA_?$AAT?$AAm?$AAa?$AAp?$AA_?$AAt?$AAr?$AAa?$AAi@ 100e0eb0     Sgi_ARA.obj
 0002:00029338       ??_C@_1EG@EHJFMBHJ@?$AAm?$AAa?$AAp?$AA?1?$AAs?$AAe?$AAt?$AA?5?$AAi?$AAt?$AAe?$AAr?$AAa?$AAt?$AAo?$AAr?$AA?5?$AAn?$AAo?$AAt?$AA?5?$AAi?$AAn?$AAc?$AAr?$AAe?$AAm?$AAe?$AAn?$AAt?$AAa?$AAb@ 100e1338     Sgi_ARA.obj
 0002:00029380       ??_C@_1EHE@JGGANGPH@?$AAs?$AAt?$AAd?$AA?3?$AA?3?$AA_?$AAT?$AAr?$AAe?$AAe?$AA?$DM?$AAc?$AAl?$AAa?$AAs?$AAs?$AA?5?$AAs?$AAt?$AAd?$AA?3?$AA?3?$AA_?$AAT?$AAm?$AAa?$AAp?$AA_?$AAt?$AAr?$AAa?$AAi@ 100e1380     Sgi_ARA.obj
 0002:000297f8       ??_7CArchivo@@6B@          100e17f8     Sgi_Archivo.obj
 0002:00029800       ??_C@_01OHGJGJJP@?$FL?$AA@ 100e1800     Sgi_Bitacora.obj
 0002:00029804       ??_C@_01EEMJAFIK@?6?$AA@   100e1804     Sgi_Bitacora.obj
 0002:00029808       ??_C@_02LMMGGCAJ@?3?5?$AA@ 100e1808     Sgi_Bitacora.obj
 0002:0002980c       ??_C@_07FHDJLJDO@?5NIVEL?$DN?$AA@ 100e180c     Sgi_Bitacora.obj
 0002:00029814       ??_C@_02PBFOLPKM@?$FN?5?$AA@ 100e1814     Sgi_Bitacora.obj
 0002:00029818       ??_C@_0EP@HGGGIGJP@Error?5en?5CBitacora?3?3escribePV?5al@ 100e1818     Sgi_Bitacora.obj
 0002:00029868       ??_C@_0CB@DHPHONNP@?$CF10lld?5?$CF04d?$CF02d?$CF02d?9?$CF02d?$CF02d?$CF02d@ 100e1868     Sgi_Bitacora.obj
 0002:0002988c       ??_C@_06EOPONJBP@ERROR?5?$AA@ 100e188c     Sgi_Bitacora.obj
 0002:00029894       ??_C@_06DPFPPMPH@INFO?5?5?$AA@ 100e1894     Sgi_Bitacora.obj
 0002:0002989c       ??_C@_06GLLDLMFH@EXITO?5?$AA@ 100e189c     Sgi_Bitacora.obj
 0002:000298a4       ??_C@_06ILLFHMGD@ALERTA?$AA@ 100e18a4     Sgi_Bitacora.obj
 0002:000298ac       ??_C@_06LDPDKBGK@DEBUG?5?$AA@ 100e18ac     Sgi_Bitacora.obj
 0002:000298b4       ??_C@_06MLAHNBLJ@DEBUG2?$AA@ 100e18b4     Sgi_Bitacora.obj
 0002:000298c0       ??_C@_1EI@FHEHNNNM@?$AAm?$AAa?$AAp?$AA?1?$AAs?$AAe?$AAt?$AA?5?$AAi?$AAt?$AAe?$AAr?$AAa?$AAt?$AAo?$AAr?$AA?5?$AAn?$AAo?$AAt?$AA?5?$AAd?$AAe?$AAr?$AAe?$AAf?$AAe?$AAr?$AAe?$AAn?$AAc?$AAa@ 100e18c0     Sgi_ConfigFile.obj
 0002:00029908       ??_C@_1EIA@BJMFFPDG@?$AAs?$AAt?$AAd?$AA?3?$AA?3?$AA_?$AAT?$AAr?$AAe?$AAe?$AA?$DM?$AAc?$AAl?$AAa?$AAs?$AAs?$AA?5?$AAs?$AAt?$AAd?$AA?3?$AA?3?$AA_?$AAT?$AAm?$AAa?$AAp?$AA_?$AAt?$AAr?$AAa?$AAi@ 100e1908     Sgi_ConfigFile.obj
 0002:00029d88       ??_C@_0BE@JONHPENG@map?1set?$DMT?$DO?5too?5long?$AA@ 100e1d88     Sgi_ConfigFile.obj
 0002:00029d9c       ??_C@_1CE@IGJMOCCK@?$AAi?$AAn?$AAv?$AAa?$AAl?$AAi?$AAd?$AA?5?$AAo?$AAp?$AAe?$AAr?$AAa?$AAt?$AAo?$AAr?$AA?$DM?$AA?$AA@ 100e1d9c     Sgi_ConfigFile.obj
 0002:00029dc4       ??_S?$basic_fstream@DU?$char_traits@D@std@@@std@@6B@ 100e1dc4     Sgi_ConfigFile.obj
 0002:00029dcc       ??_7logic_error@std@@6B@   100e1dcc     Sgi_ConfigFile.obj
 0002:00029dd8       ??_7length_error@std@@6B@  100e1dd8     Sgi_ConfigFile.obj
 0002:00029de0       ??_C@_01HIHLOKLC@1?$AA@    100e1de0     Sgi_MsgPKI.obj
 0002:00029de4       ??_C@_1CA@BPLEPMIN@?$AAM?$AAU?$AAT?$AAE?$AAX?$AA_?$AAL?$AAI?$AAB?$AA_?$AAO?$AAP?$AAS?$AAS?$AAL?$AA?$AA@ 100e1de4     Sgi_OpenSSL.obj
 0002:00029e04       ??_C@_01MCMALHOG@a?$AA@    100e1e04     Sgi_OpenSSL.obj
 0002:00029e08       ??_C@_0P@BPDMANMH@SgiOpenSSL?4log?$AA@ 100e1e08     Sgi_OpenSSL.obj
 0002:00029e18       ??_C@_01NOFIACDB@w?$AA@    100e1e18     Sgi_OpenSSL.obj
 0002:00029e1c       ??_C@_02GMLFBBN@wb?$AA@    100e1e1c     Sgi_OpenSSL.obj
 0002:00029e20       ??_C@_01KDCPPGHE@r?$AA@    100e1e20     Sgi_OpenSSL.obj
 0002:00029e24       ??_C@_0BB@IKNGJCLO@basicConstraints?$AA@ 100e1e24     Sgi_OpenSSL.obj
 0002:00029e38       ??_C@_08BCICBOHF@keyUsage?$AA@ 100e1e38     Sgi_OpenSSL.obj
 0002:00029e44       ??_C@_0L@IICLKDNB@nsCertType?$AA@ 100e1e44     Sgi_OpenSSL.obj
 0002:00029e50       ??_C@_0BB@DGDLKPHD@extendedKeyUsage?$AA@ 100e1e50     Sgi_OpenSSL.obj
 0002:00029e64       ??_C@_02JDPG@rb?$AA@       100e1e64     Sgi_OpenSSL.obj
 0002:00029e68       ??_C@_05HKPGCKL@?$CFs?3?$CFd?$AA@ 100e1e68     Sgi_SSL.obj
 0002:00029e74       ??_7CSSL_Skt@@6B@          100e1e74     Sgi_SSL.obj
 0002:00029e88       ??_7CSSL_Skt_Ssl@@6B@      100e1e88     Sgi_SSL.obj
 0002:00029e9c       ??_7CSSL_Skt_Bio@@6B@      100e1e9c     Sgi_SSL.obj
 0002:00029f20       ??_C@_01IHBHIGKO@?0?$AA@   100e1f20     sgi_cripto.obj
 0002:00029f24       ??_C@_0CM@IINFABNI@?4?4?2?4?4?2SgiCripto2_base?2SgiOpenSSL@ 100e1f24     SgiOpenSSL_AraFnc.obj
 0002:00029f50       ??_C@_0O@HFNJECFC@Verify?5error?3?$AA@ 100e1f50     SgiOpenSSL_AraFnc.obj
 0002:00029f60       ??_R4type_info@@6B@        100e1f60     MSVCRTD:ti_inst.obj
 0002:00029f74       ??_R3type_info@@8          100e1f74     MSVCRTD:ti_inst.obj
 0002:00029f84       ??_R2type_info@@8          100e1f84     MSVCRTD:ti_inst.obj
 0002:00029f8c       ??_R1A@?0A@EA@type_info@@8 100e1f8c     MSVCRTD:ti_inst.obj
 0002:00029fa8       ??_R4CArchivo@@6B@         100e1fa8     Sgi_Archivo.obj
 0002:00029fbc       ??_R3CArchivo@@8           100e1fbc     Sgi_Archivo.obj
 0002:00029fcc       ??_R2CArchivo@@8           100e1fcc     Sgi_Archivo.obj
 0002:00029fd4       ??_R1A@?0A@EA@CArchivo@@8  100e1fd4     Sgi_Archivo.obj
 0002:00029ff0       ??_R4length_error@std@@6B@ 100e1ff0     Sgi_ConfigFile.obj
 0002:0002a004       ??_R3length_error@std@@8   100e2004     Sgi_ConfigFile.obj
 0002:0002a014       ??_R2length_error@std@@8   100e2014     Sgi_ConfigFile.obj
 0002:0002a024       ??_R1A@?0A@EA@length_error@std@@8 100e2024     Sgi_ConfigFile.obj
 0002:0002a040       ??_R4logic_error@std@@6B@  100e2040     Sgi_ConfigFile.obj
 0002:0002a054       ??_R3logic_error@std@@8    100e2054     Sgi_ConfigFile.obj
 0002:0002a064       ??_R2logic_error@std@@8    100e2064     Sgi_ConfigFile.obj
 0002:0002a070       ??_R1A@?0A@EA@logic_error@std@@8 100e2070     Sgi_ConfigFile.obj
 0002:0002a08c       ??_R4?$basic_fstream@DU?$char_traits@D@std@@@std@@6B@ 100e208c     Sgi_ConfigFile.obj
 0002:0002a0a0       ??_R3?$basic_fstream@DU?$char_traits@D@std@@@std@@8 100e20a0     Sgi_ConfigFile.obj
 0002:0002a0b0       ??_R2?$basic_fstream@DU?$char_traits@D@std@@@std@@8 100e20b0     Sgi_ConfigFile.obj
 0002:0002a0dc       ??_R1A@?0A@EA@?$basic_iostream@DU?$char_traits@D@std@@@std@@8 100e20dc     Sgi_ConfigFile.obj
 0002:0002a0f8       ??_R3?$basic_iostream@DU?$char_traits@D@std@@@std@@8 100e20f8     Sgi_ConfigFile.obj
 0002:0002a108       ??_R2?$basic_iostream@DU?$char_traits@D@std@@@std@@8 100e2108     Sgi_ConfigFile.obj
 0002:0002a130       ??_R17?0A@EA@?$basic_ostream@DU?$char_traits@D@std@@@std@@8 100e2130     Sgi_ConfigFile.obj
 0002:0002a14c       ??_R3?$basic_ostream@DU?$char_traits@D@std@@@std@@8 100e214c     Sgi_ConfigFile.obj
 0002:0002a15c       ??_R2?$basic_ostream@DU?$char_traits@D@std@@@std@@8 100e215c     Sgi_ConfigFile.obj
 0002:0002a170       ??_R1A@?0A@EA@?$basic_ostream@DU?$char_traits@D@std@@@std@@8 100e2170     Sgi_ConfigFile.obj
 0002:0002a18c       ??_R1A@?0A@EA@?$basic_istream@DU?$char_traits@D@std@@@std@@8 100e218c     Sgi_ConfigFile.obj
 0002:0002a1a8       ??_R3?$basic_istream@DU?$char_traits@D@std@@@std@@8 100e21a8     Sgi_ConfigFile.obj
 0002:0002a1b8       ??_R2?$basic_istream@DU?$char_traits@D@std@@@std@@8 100e21b8     Sgi_ConfigFile.obj
 0002:0002a1cc       ??_R13A@3EA@?$_Iosb@H@std@@8 100e21cc     Sgi_ConfigFile.obj
 0002:0002a1e8       ??_R1A@A@3EA@ios_base@std@@8 100e21e8     Sgi_ConfigFile.obj
 0002:0002a204       ??_R1A@A@3FA@?$basic_ios@DU?$char_traits@D@std@@@std@@8 100e2204     Sgi_ConfigFile.obj
 0002:0002a220       ??_R3?$basic_ios@DU?$char_traits@D@std@@@std@@8 100e2220     Sgi_ConfigFile.obj
 0002:0002a230       ??_R2?$basic_ios@DU?$char_traits@D@std@@@std@@8 100e2230     Sgi_ConfigFile.obj
 0002:0002a240       ??_R1A@?0A@EA@ios_base@std@@8 100e2240     Sgi_ConfigFile.obj
 0002:0002a25c       ??_R3ios_base@std@@8       100e225c     Sgi_ConfigFile.obj
 0002:0002a26c       ??_R2ios_base@std@@8       100e226c     Sgi_ConfigFile.obj
 0002:0002a278       ??_R13?0A@EA@?$_Iosb@H@std@@8 100e2278     Sgi_ConfigFile.obj
 0002:0002a294       ??_R3?$_Iosb@H@std@@8      100e2294     Sgi_ConfigFile.obj
 0002:0002a2a4       ??_R2?$_Iosb@H@std@@8      100e22a4     Sgi_ConfigFile.obj
 0002:0002a2ac       ??_R1A@?0A@EA@?$_Iosb@H@std@@8 100e22ac     Sgi_ConfigFile.obj
 0002:0002a2c8       ??_R1A@?0A@EA@?$basic_ios@DU?$char_traits@D@std@@@std@@8 100e22c8     Sgi_ConfigFile.obj
 0002:0002a2e4       ??_R1A@?0A@EA@?$basic_fstream@DU?$char_traits@D@std@@@std@@8 100e22e4     Sgi_ConfigFile.obj
 0002:0002a300       ??_R1A@?0A@EA@exception@std@@8 100e2300     Sgi_ConfigFile.obj
 0002:0002a31c       ??_R3exception@std@@8      100e231c     Sgi_ConfigFile.obj
 0002:0002a32c       ??_R2exception@std@@8      100e232c     Sgi_ConfigFile.obj
 0002:0002a334       ??_R4CSSL_Skt_Bio@@6B@     100e2334     Sgi_SSL.obj
 0002:0002a348       ??_R3CSSL_Skt_Bio@@8       100e2348     Sgi_SSL.obj
 0002:0002a358       ??_R2CSSL_Skt_Bio@@8       100e2358     Sgi_SSL.obj
 0002:0002a364       ??_R1A@?0A@EA@CSSL_Skt_Bio@@8 100e2364     Sgi_SSL.obj
 0002:0002a380       ??_R4CSSL_Skt_Ssl@@6B@     100e2380     Sgi_SSL.obj
 0002:0002a394       ??_R3CSSL_Skt_Ssl@@8       100e2394     Sgi_SSL.obj
 0002:0002a3a4       ??_R2CSSL_Skt_Ssl@@8       100e23a4     Sgi_SSL.obj
 0002:0002a3b0       ??_R1A@?0A@EA@CSSL_Skt_Ssl@@8 100e23b0     Sgi_SSL.obj
 0002:0002a3cc       ??_R4CSSL_Skt@@6B@         100e23cc     Sgi_SSL.obj
 0002:0002a3e0       ??_R3CSSL_Skt@@8           100e23e0     Sgi_SSL.obj
 0002:0002a3f0       ??_R2CSSL_Skt@@8           100e23f0     Sgi_SSL.obj
 0002:0002a3f8       ??_R1A@?0A@EA@CSSL_Skt@@8  100e23f8     Sgi_SSL.obj
 0002:0002a414       ___rtc_iaa                 100e2414     MSVCRTD:initsect.obj
 0002:0002a418       ___rtc_izz                 100e2418     MSVCRTD:initsect.obj
 0002:0002a41c       ___rtc_taa                 100e241c     MSVCRTD:initsect.obj
 0002:0002a420       ___rtc_tzz                 100e2420     MSVCRTD:initsect.obj
 0002:0002a50c       __CT??_R0?AVexception@std@@@8??0exception@std@@QAE@ABV01@@Z12 100e250c     Sgi_ConfigFile.obj
 0002:0002a528       __CT??_R0?AVlogic_error@std@@@8??0logic_error@std@@QAE@ABV01@@Z44 100e2528     Sgi_ConfigFile.obj
 0002:0002a544       __CT??_R0?AVlength_error@std@@@8??0length_error@std@@QAE@ABV01@@Z44 100e2544     Sgi_ConfigFile.obj
 0002:0002a560       __CTA3?AVlength_error@std@@ 100e2560     Sgi_ConfigFile.obj
 0002:0002a570       __TI3?AVlength_error@std@@ 100e2570     Sgi_ConfigFile.obj
 0002:0002b4b8       __IMPORT_DESCRIPTOR_KERNEL32 100e34b8     kernel32:KERNEL32.dll
 0002:0002b4cc       __IMPORT_DESCRIPTOR_WSOCK32 100e34cc     WSock32:WSOCK32.dll
 0002:0002b4e0       __IMPORT_DESCRIPTOR_MSVCP80D 100e34e0     msvcprtd:MSVCP80D.dll
 0002:0002b4f4       __IMPORT_DESCRIPTOR_MSVCR80D 100e34f4     MSVCRTD:MSVCR80D.dll
 0002:0002b508       __IMPORT_DESCRIPTOR_USER32 100e3508     user32:USER32.dll
 0002:0002b51c       __IMPORT_DESCRIPTOR_GDI32  100e351c     gdi32:GDI32.dll
 0002:0002b530       __IMPORT_DESCRIPTOR_ADVAPI32 100e3530     advapi32:ADVAPI32.dll
 0002:0002b544       __NULL_IMPORT_DESCRIPTOR   100e3544     kernel32:KERNEL32.dll
 0003:00008818       _rand_ssleay_meth          100ee818     libeay32_EM_dbg.0.9.8e:md_rand.obj
 0003:00008a64       _x509_dir_lookup           100eea64     libeay32_EM_dbg.0.9.8e:by_dir.obj
 0003:00008a8c       _x509_file_lookup          100eea8c     libeay32_EM_dbg.0.9.8e:by_file.obj
 0003:0000c53c       _SSL_version_str           100f253c     ssleay32_EM_dbg.0.9.8e:ssl_lib.obj
 0003:0000c540       _ssl3_undef_enc_method     100f2540     ssleay32_EM_dbg.0.9.8e:ssl_lib.obj
 0003:0000d2a8       _ssl3_ciphers              100f32a8     ssleay32_EM_dbg.0.9.8e:s3_lib.obj
 0003:0000ded8       _SSLv3_enc_data            100f3ed8     ssleay32_EM_dbg.0.9.8e:s3_lib.obj
 0003:0000e14c       ??_R0?AVtype_info@@@8      100f414c     MSVCRTD:ti_inst.obj
 0003:0000e170       ___security_cookie         100f4170     MSVCRTD:gs_cookie.obj
 0003:0000e174       ___security_cookie_complement 100f4174     MSVCRTD:gs_cookie.obj
 0003:0000e180       ___native_dllmain_reason   100f4180     MSVCRTD:natstart.obj
 0003:0000e184       ___native_vcclrit_reason   100f4184     MSVCRTD:natstart.obj
 0003:0000e7f8       ?B64_Mapa@@3PADA           100f47f8     Sgi_B64.obj
 0003:0000e840       ??_R0?AVCArchivo@@@8       100f4840     Sgi_Archivo.obj
 0003:0000e858       ??_R0?AV?$basic_ostream@DU?$char_traits@D@std@@@std@@@8 100f4858     Sgi_ConfigFile.obj
 0003:0000e894       ??_R0?AV?$_Iosb@H@std@@@8  100f4894     Sgi_ConfigFile.obj
 0003:0000e8b0       ??_R0?AVios_base@std@@@8   100f48b0     Sgi_ConfigFile.obj
 0003:0000e8cc       ??_R0?AV?$basic_ios@DU?$char_traits@D@std@@@std@@@8 100f48cc     Sgi_ConfigFile.obj
 0003:0000e904       ??_R0?AV?$basic_istream@DU?$char_traits@D@std@@@std@@@8 100f4904     Sgi_ConfigFile.obj
 0003:0000e940       ??_R0?AV?$basic_iostream@DU?$char_traits@D@std@@@std@@@8 100f4940     Sgi_ConfigFile.obj
 0003:0000e97c       ??_R0?AV?$basic_fstream@DU?$char_traits@D@std@@@std@@@8 100f497c     Sgi_ConfigFile.obj
 0003:0000e9b8       ??_R0?AVexception@std@@@8  100f49b8     Sgi_ConfigFile.obj
 0003:0000e9d4       ??_R0?AVlogic_error@std@@@8 100f49d4     Sgi_ConfigFile.obj
 0003:0000e9f4       ??_R0?AVlength_error@std@@@8 100f49f4     Sgi_ConfigFile.obj
 0003:0000ea14       ??_R0?AVCSSL_Skt_Bio@@@8   100f4a14     Sgi_SSL.obj
 0003:0000ea30       ??_R0?AVCSSL_Skt_Ssl@@@8   100f4a30     Sgi_SSL.obj
 0003:0000ea4c       ??_R0?AVCSSL_Skt@@@8       100f4a4c     Sgi_SSL.obj
 0003:000101b4       _cleanse_ctr               100f61b4     libeay32_EM_dbg.0.9.8e:mem_clr.obj
 0003:000101e8       _OPENSSL_ia32cap_P         100f61e8     libeay32_EM_dbg.0.9.8e:cryptlib.obj
 0003:000101ec       _OPENSSL_NONPIC_relocated  100f61ec     libeay32_EM_dbg.0.9.8e:cryptlib.obj
 0003:00011024       __forceCRTManifest         100f7024     MSVCRTD:crtmanifest.obj
 0003:00011028       ?__type_info_root_node@@3U__type_info_node@@A 100f7028     MSVCRTD:tncleanup.obj
 0003:00011038       ?B64_Error@@3IA            100f7038     Sgi_B64.obj
 0003:0001103c       ?ERR_str@@3HA              100f703c     Sgi_OpenSSL.obj
 0003:00011040       ?Iniciado@Sgi_SSL@@0_NA    100f7040     Sgi_SSL.obj
 0003:00011044       ___sse2_available          100f7044     <common>
 0003:00011048       __adjust_fdiv              100f7048     <common>
 0003:0001104c       ___native_startup_state    100f704c     <common>
 0003:00011050       ___native_startup_lock     100f7050     <common>
 0003:00011054       ___onexitend               100f7054     <common>
 0003:00011058       ___onexitbegin             100f7058     <common>
 0003:0001105c       ___dyn_tls_init_callback   100f705c     <common>

 entry point at        0001:000b3a90

 Static symbols

 0001:000044d9       __catch$??$?6U?$char_traits@D@std@@@std@@YAAAV?$basic_ostream@DU?$char_traits@D@std@@@0@AAV10@PBD@Z$0 100054d9 f i  CIL library: CIL module
 0001:00005b0e       __catch$?_Buynode@?$_Tree@V?$_Tmap_traits@V?$basic_string@DU?$char_traits@D@std@@V?$allocator@D@2@@std@@V12@U?$less@V?$basic_string@DU?$char_traits@D@std@@V?$allocator@D@2@@std@@@2@V?$allocator@U?$pair@$$CBV?$basic_string@DU?$char_traits@D@std@@V?$allocator@D@2@@std@@V12@@std@@@2@$00@std@@@std@@IAEPAU_Node@?$_Tree_nod@V?$_Tmap_traits@V?$basic_string@DU?$char_traits@D@std@@V?$allocator@D@2@@std@@V12@U?$less@V?$basic_string@DU?$char_traits@D@std@@V?$allocator@D@2@@std@@@2@V?$allocator@U?$pair@$$CBV?$basic_string@DU?$char_traits@D@std@@V?$allocator@D@2@@std@@V12@@std@@@2@$00@std@@@2@PAU342@00ABU?$pair@$$CBV?$basic_string@DU?$char_traits@D@std@@V?$allocator@D@2@@std@@V12@@2@D@Z$0 10006b0e f i  CIL library: CIL module
 0001:0000d9a0       _rsa_get_public_exp        1000e9a0 f   libeay32_EM_dbg.0.9.8e:rsa_lib.obj
 0001:0000e980       _bn_expand_internal        1000f980 f   libeay32_EM_dbg.0.9.8e:bn_lib.obj
 0001:0000f470       _desx_cbc_init_key         10010470 f   libeay32_EM_dbg.0.9.8e:e_xcbc_d.obj
 0001:0000f4e0       _desx_cbc_cipher           100104e0 f   libeay32_EM_dbg.0.9.8e:e_xcbc_d.obj
 0001:00010280       _rinf_cb                   10011280 f   libeay32_EM_dbg.0.9.8e:x_req.obj
 0001:00011180       _idea_ecb_cipher           10012180 f   libeay32_EM_dbg.0.9.8e:e_idea.obj
 0001:00011200       _idea_cbc_cipher           10012200 f   libeay32_EM_dbg.0.9.8e:e_idea.obj
 0001:00011240       _idea_ofb_cipher           10012240 f   libeay32_EM_dbg.0.9.8e:e_idea.obj
 0001:00011280       _idea_cfb64_cipher         10012280 f   libeay32_EM_dbg.0.9.8e:e_idea.obj
 0001:00011300       _idea_init_key             10012300 f   libeay32_EM_dbg.0.9.8e:e_idea.obj
 0001:00011a20       _init224                   10012a20 f   libeay32_EM_dbg.0.9.8e:m_sha1.obj
 0001:00011a40       _init256                   10012a40 f   libeay32_EM_dbg.0.9.8e:m_sha1.obj
 0001:00011a60       _update256                 10012a60 f   libeay32_EM_dbg.0.9.8e:m_sha1.obj
 0001:00011a80       _final256                  10012a80 f   libeay32_EM_dbg.0.9.8e:m_sha1.obj
 0001:00011ac0       _init384                   10012ac0 f   libeay32_EM_dbg.0.9.8e:m_sha1.obj
 0001:00011ae0       _init512                   10012ae0 f   libeay32_EM_dbg.0.9.8e:m_sha1.obj
 0001:00011b00       _update512                 10012b00 f   libeay32_EM_dbg.0.9.8e:m_sha1.obj
 0001:00011b20       _final512                  10012b20 f   libeay32_EM_dbg.0.9.8e:m_sha1.obj
 0001:00011cd0       _sock_new                  10012cd0 f   libeay32_EM_dbg.0.9.8e:bss_file.obj
 0001:00011cd0       _file_new                  10012cd0 f   libeay32_EM_dbg.0.9.8e:bss_file.obj
 0001:00011d10       _file_free                 10012d10 f   libeay32_EM_dbg.0.9.8e:bss_file.obj
 0001:00011d90       _file_read                 10012d90 f   libeay32_EM_dbg.0.9.8e:bss_file.obj
 0001:00011e90       _file_write                10012e90 f   libeay32_EM_dbg.0.9.8e:bss_file.obj
 0001:00011f10       _file_ctrl                 10012f10 f   libeay32_EM_dbg.0.9.8e:bss_file.obj
 0001:00012340       _file_gets                 10013340 f   libeay32_EM_dbg.0.9.8e:bss_file.obj
 0001:000123c0       _file_puts                 100133c0 f   libeay32_EM_dbg.0.9.8e:bss_file.obj
 0001:00012400       _des_ecb_cipher            10013400 f   libeay32_EM_dbg.0.9.8e:e_des.obj
 0001:00012480       _des_ofb_cipher            10013480 f   libeay32_EM_dbg.0.9.8e:e_des.obj
 0001:000124c0       _des_cbc_cipher            100134c0 f   libeay32_EM_dbg.0.9.8e:e_des.obj
 0001:00012500       _des_cfb64_cipher          10013500 f   libeay32_EM_dbg.0.9.8e:e_des.obj
 0001:00012540       _des_cfb1_cipher           10013540 f   libeay32_EM_dbg.0.9.8e:e_des.obj
 0001:00012630       _des_cfb8_cipher           10013630 f   libeay32_EM_dbg.0.9.8e:e_des.obj
 0001:000126d0       _des_init_key              100136d0 f   libeay32_EM_dbg.0.9.8e:e_des.obj
 0001:00012700       _des_ctrl                  10013700 f   libeay32_EM_dbg.0.9.8e:e_des.obj
 0001:00012750       _rc2_cbc_cipher            10013750 f   libeay32_EM_dbg.0.9.8e:e_rc2.obj
 0001:00012790       _rc2_cfb64_cipher          10013790 f   libeay32_EM_dbg.0.9.8e:e_rc2.obj
 0001:000127d0       _rc2_ecb_cipher            100137d0 f   libeay32_EM_dbg.0.9.8e:e_rc2.obj
 0001:00012850       _rc2_ofb_cipher            10013850 f   libeay32_EM_dbg.0.9.8e:e_rc2.obj
 0001:000128f0       _rc2_init_key              100138f0 f   libeay32_EM_dbg.0.9.8e:e_rc2.obj
 0001:00012930       _rc2_get_asn1_type_and_iv  10013930 f   libeay32_EM_dbg.0.9.8e:e_rc2.obj
 0001:00012a40       _rc2_magic_to_meth         10013a40 f   libeay32_EM_dbg.0.9.8e:e_rc2.obj
 0001:00012a90       _rc2_set_asn1_type_and_iv  10013a90 f   libeay32_EM_dbg.0.9.8e:e_rc2.obj
 0001:00012af0       _rc2_meth_to_magic         10013af0 f   libeay32_EM_dbg.0.9.8e:e_rc2.obj
 0001:00012b50       _rc2_ctrl                  10013b50 f   libeay32_EM_dbg.0.9.8e:e_rc2.obj
 0001:00013480       _PKCS7_adb                 10014480 f   libeay32_EM_dbg.0.9.8e:pk7_asn1.obj
 0001:00013550       _si_cb                     10014550 f   libeay32_EM_dbg.0.9.8e:pk7_asn1.obj
 0001:00013620       _ri_cb                     10014620 f   libeay32_EM_dbg.0.9.8e:pk7_asn1.obj
 0001:00014010       _ln_cmp                    10015010 f   libeay32_EM_dbg.0.9.8e:obj_dat.obj
 0001:000140e0       _sn_cmp                    100150e0 f   libeay32_EM_dbg.0.9.8e:obj_dat.obj
 0001:00014120       _obj_cmp                   10015120 f   libeay32_EM_dbg.0.9.8e:obj_dat.obj
 0001:00014660       _aes_256_cbc_cipher        10015660 f   libeay32_EM_dbg.0.9.8e:e_aes.obj
 0001:00014660       _aes_128_cbc_cipher        10015660 f   libeay32_EM_dbg.0.9.8e:e_aes.obj
 0001:00014660       _aes_192_cbc_cipher        10015660 f   libeay32_EM_dbg.0.9.8e:e_aes.obj
 0001:000146e0       _aes_192_cfb128_cipher     100156e0 f   libeay32_EM_dbg.0.9.8e:e_aes.obj
 0001:000146e0       _aes_256_cfb128_cipher     100156e0 f   libeay32_EM_dbg.0.9.8e:e_aes.obj
 0001:000146e0       _aes_128_cfb128_cipher     100156e0 f   libeay32_EM_dbg.0.9.8e:e_aes.obj
 0001:00014720       _aes_192_ecb_cipher        10015720 f   libeay32_EM_dbg.0.9.8e:e_aes.obj
 0001:00014720       _aes_256_ecb_cipher        10015720 f   libeay32_EM_dbg.0.9.8e:e_aes.obj
 0001:00014720       _aes_128_ecb_cipher        10015720 f   libeay32_EM_dbg.0.9.8e:e_aes.obj
 0001:000147e0       _aes_256_ofb_cipher        100157e0 f   libeay32_EM_dbg.0.9.8e:e_aes.obj
 0001:000147e0       _aes_192_ofb_cipher        100157e0 f   libeay32_EM_dbg.0.9.8e:e_aes.obj
 0001:000147e0       _aes_128_ofb_cipher        100157e0 f   libeay32_EM_dbg.0.9.8e:e_aes.obj
 0001:00014860       _aes_128_cfb1_cipher       10015860 f   libeay32_EM_dbg.0.9.8e:e_aes.obj
 0001:00014860       _aes_256_cfb1_cipher       10015860 f   libeay32_EM_dbg.0.9.8e:e_aes.obj
 0001:00014860       _aes_192_cfb1_cipher       10015860 f   libeay32_EM_dbg.0.9.8e:e_aes.obj
 0001:000148e0       _aes_128_cfb8_cipher       100158e0 f   libeay32_EM_dbg.0.9.8e:e_aes.obj
 0001:000148e0       _aes_256_cfb8_cipher       100158e0 f   libeay32_EM_dbg.0.9.8e:e_aes.obj
 0001:000148e0       _aes_192_cfb8_cipher       100158e0 f   libeay32_EM_dbg.0.9.8e:e_aes.obj
 0001:00014940       _aes_init_key              10015940 f   libeay32_EM_dbg.0.9.8e:e_aes.obj
 0001:00014b30       _rsa_cb                    10015b30 f   libeay32_EM_dbg.0.9.8e:rsa_asn1.obj
 0001:000160d0       _PKCS7_get_octet_string    100170d0 f   libeay32_EM_dbg.0.9.8e:pk7_doit.obj
 0001:00016130       _PKCS7_type_is_other       10017130 f   libeay32_EM_dbg.0.9.8e:pk7_doit.obj
 0001:00016190       _PKCS7_bio_add_digest      10017190 f   libeay32_EM_dbg.0.9.8e:pk7_doit.obj
 0001:00016980       _pkcs7_cmp_ri              10017980 f   libeay32_EM_dbg.0.9.8e:pk7_doit.obj
 0001:000170d0       _PKCS7_find_digest         100180d0 f   libeay32_EM_dbg.0.9.8e:pk7_doit.obj
 0001:000174f0       _get_attribute             100184f0 f   libeay32_EM_dbg.0.9.8e:pk7_doit.obj
 0001:00017610       _add_attribute             10018610 f   libeay32_EM_dbg.0.9.8e:pk7_doit.obj
 0001:00017770       _PKCS12_BAGS_adb           10018770 f   libeay32_EM_dbg.0.9.8e:p12_asn.obj
 0001:00017790       _PKCS12_SAFEBAG_adb        10018790 f   libeay32_EM_dbg.0.9.8e:p12_asn.obj
 0001:00017860       _nconf_get_string          10018860 f   libeay32_EM_dbg.0.9.8e:v3_conf.obj
 0001:00017880       _nconf_get_section         10018880 f   libeay32_EM_dbg.0.9.8e:v3_conf.obj
 0001:000178a0       _conf_lhash_get_string     100188a0 f   libeay32_EM_dbg.0.9.8e:v3_conf.obj
 0001:000178c0       _conf_lhash_get_section    100188c0 f   libeay32_EM_dbg.0.9.8e:v3_conf.obj
 0001:000178e0       _cast5_cbc_cipher          100188e0 f   libeay32_EM_dbg.0.9.8e:e_cast.obj
 0001:00017920       _cast5_cfb64_cipher        10018920 f   libeay32_EM_dbg.0.9.8e:e_cast.obj
 0001:00017960       _cast5_ecb_cipher          10018960 f   libeay32_EM_dbg.0.9.8e:e_cast.obj
 0001:000179e0       _cast5_ofb_cipher          100189e0 f   libeay32_EM_dbg.0.9.8e:e_cast.obj
 0001:00017a60       _cast_init_key             10018a60 f   libeay32_EM_dbg.0.9.8e:e_cast.obj
 0001:00017ea0       _internal_find             10018ea0 f   libeay32_EM_dbg.0.9.8e:stack.obj
 0001:00018e30       _sk_comp_cmp               10019e30 f   libeay32_EM_dbg.0.9.8e:v3_lib.obj
 0001:00018e30       _ext_cmp                   10019e30 f   libeay32_EM_dbg.0.9.8e:v3_lib.obj
 0001:000192c0       _x509_name_ex_new          1001a2c0 f   libeay32_EM_dbg.0.9.8e:x_name.obj
 0001:00019380       _x509_name_ex_free         1001a380 f   libeay32_EM_dbg.0.9.8e:x_name.obj
 0001:000193e0       _x509_name_ex_d2i          1001a3e0 f   libeay32_EM_dbg.0.9.8e:x_name.obj
 0001:000195b0       _x509_name_ex_i2d          1001a5b0 f   libeay32_EM_dbg.0.9.8e:x_name.obj
 0001:00019630       _x509_name_encode          1001a630 f   libeay32_EM_dbg.0.9.8e:x_name.obj
 0001:000197b0       _sk_internal_free          1001a7b0 f   libeay32_EM_dbg.0.9.8e:x_name.obj
 0001:00019db0       _nocase_cmp                1001adb0 f   libeay32_EM_dbg.0.9.8e:x509_cmp.obj
 0001:00019e40       _nocase_spacenorm_cmp      1001ae40 f   libeay32_EM_dbg.0.9.8e:x509_cmp.obj
 0001:0001a050       _asn1_string_memcmp        1001b050 f   libeay32_EM_dbg.0.9.8e:x509_cmp.obj
 0001:0001a4e0       _x509_cb                   1001b4e0 f   libeay32_EM_dbg.0.9.8e:x_x509.obj
 0001:0001a9e0       _x509_object_cmp           1001b9e0 f   libeay32_EM_dbg.0.9.8e:x509_lu.obj
 0001:0001ab40       _cleanup                   1001bb40 f   libeay32_EM_dbg.0.9.8e:x509_lu.obj
 0001:0001b3c0       _des_ede_ecb_cipher        1001c3c0 f   libeay32_EM_dbg.0.9.8e:e_des3.obj
 0001:0001b460       _des_ede_ofb_cipher        1001c460 f   libeay32_EM_dbg.0.9.8e:e_des3.obj
 0001:0001b4b0       _des_ede_cbc_cipher        1001c4b0 f   libeay32_EM_dbg.0.9.8e:e_des3.obj
 0001:0001b500       _des_ede_cfb64_cipher      1001c500 f   libeay32_EM_dbg.0.9.8e:e_des3.obj
 0001:0001b560       _des_ede3_cfb1_cipher      1001c560 f   libeay32_EM_dbg.0.9.8e:e_des3.obj
 0001:0001b670       _des_ede3_cfb8_cipher      1001c670 f   libeay32_EM_dbg.0.9.8e:e_des3.obj
 0001:0001b720       _des_ede_init_key          1001c720 f   libeay32_EM_dbg.0.9.8e:e_des3.obj
 0001:0001b790       _des_ede3_init_key         1001c790 f   libeay32_EM_dbg.0.9.8e:e_des3.obj
 0001:0001b800       _des3_ctrl                 1001c800 f   libeay32_EM_dbg.0.9.8e:e_des3.obj
 0001:0001bb20       _err_fns_check             1001cb20 f   libeay32_EM_dbg.0.9.8e:err.obj
 0001:0001bb70       _int_err_get               1001cb70 f   libeay32_EM_dbg.0.9.8e:err.obj
 0001:0001bc10       _int_err_del               1001cc10 f   libeay32_EM_dbg.0.9.8e:err.obj
 0001:0001bc70       _int_err_get_item          1001cc70 f   libeay32_EM_dbg.0.9.8e:err.obj
 0001:0001bcf0       _int_err_set_item          1001ccf0 f   libeay32_EM_dbg.0.9.8e:err.obj
 0001:0001bd70       _int_err_del_item          1001cd70 f   libeay32_EM_dbg.0.9.8e:err.obj
 0001:0001bdf0       _int_thread_get            1001cdf0 f   libeay32_EM_dbg.0.9.8e:err.obj
 0001:0001bea0       _int_thread_release        1001cea0 f   libeay32_EM_dbg.0.9.8e:err.obj
 0001:0001bef0       _int_thread_get_item       1001cef0 f   libeay32_EM_dbg.0.9.8e:err.obj
 0001:0001bf80       _int_thread_set_item       1001cf80 f   libeay32_EM_dbg.0.9.8e:err.obj
 0001:0001c010       _int_thread_del_item       1001d010 f   libeay32_EM_dbg.0.9.8e:err.obj
 0001:0001c0f0       _int_err_get_next_lib      1001d0f0 f   libeay32_EM_dbg.0.9.8e:err.obj
 0001:0001c150       _ERR_STATE_free            1001d150 f   libeay32_EM_dbg.0.9.8e:err.obj
 0001:0001c240       _build_SYS_str_reasons     1001d240 f   libeay32_EM_dbg.0.9.8e:err.obj
 0001:0001c3a0       _err_load_strings          1001d3a0 f   libeay32_EM_dbg.0.9.8e:err.obj
 0001:0001c730       _get_error_values          1001d730 f   libeay32_EM_dbg.0.9.8e:err.obj
 0001:0001cd40       _err_hash                  1001dd40 f   libeay32_EM_dbg.0.9.8e:err.obj
 0001:0001cd90       _pid_hash                  1001dd90 f   libeay32_EM_dbg.0.9.8e:err.obj
 0001:0001d0e0       _update                    1001e0e0 f   libeay32_EM_dbg.0.9.8e:m_sha.obj
 0001:0001d100       _final                     1001e100 f   libeay32_EM_dbg.0.9.8e:m_sha.obj
 0001:0001d4e0       _rc4_init_key              1001e4e0 f   libeay32_EM_dbg.0.9.8e:e_rc4.obj
 0001:0001d510       _rc4_cipher                1001e510 f   libeay32_EM_dbg.0.9.8e:e_rc4.obj
 0001:0001d700       _init                      1001e700 f   libeay32_EM_dbg.0.9.8e:m_md4.obj
 0001:0001d700       _init                      1001e700 f   libeay32_EM_dbg.0.9.8e:m_md4.obj
 0001:0001d720       _update                    1001e720 f   libeay32_EM_dbg.0.9.8e:m_md4.obj
 0001:0001d740       _final                     1001e740 f   libeay32_EM_dbg.0.9.8e:m_md4.obj
 0001:0001de10       _find_issuer               1001ee10 f   libeay32_EM_dbg.0.9.8e:x509_vfy.obj
 0001:0001de80       _check_chain_extensions    1001ee80 f   libeay32_EM_dbg.0.9.8e:x509_vfy.obj
 0001:0001e1e0       _check_trust               1001f1e0 f   libeay32_EM_dbg.0.9.8e:x509_vfy.obj
 0001:0001e290       _internal_verify           1001f290 f   libeay32_EM_dbg.0.9.8e:x509_vfy.obj
 0001:0001e4c0       _check_cert_time           1001f4c0 f   libeay32_EM_dbg.0.9.8e:x509_vfy.obj
 0001:0001f010       _null_callback             10020010 f   libeay32_EM_dbg.0.9.8e:x509_vfy.obj
 0001:0001f020       _check_issued              10020020 f   libeay32_EM_dbg.0.9.8e:x509_vfy.obj
 0001:0001f0a0       _check_revocation          100200a0 f   libeay32_EM_dbg.0.9.8e:x509_vfy.obj
 0001:0001f140       _check_cert                10020140 f   libeay32_EM_dbg.0.9.8e:x509_vfy.obj
 0001:0001f220       _get_crl                   10020220 f   libeay32_EM_dbg.0.9.8e:x509_vfy.obj
 0001:0001f2e0       _get_crl_sk                100202e0 f   libeay32_EM_dbg.0.9.8e:x509_vfy.obj
 0001:0001f3d0       _check_crl_time            100203d0 f   libeay32_EM_dbg.0.9.8e:x509_vfy.obj
 0001:0001f520       _check_crl                 10020520 f   libeay32_EM_dbg.0.9.8e:x509_vfy.obj
 0001:0001f6e0       _cert_crl                  100206e0 f   libeay32_EM_dbg.0.9.8e:x509_vfy.obj
 0001:0001f830       _check_policy              10020830 f   libeay32_EM_dbg.0.9.8e:x509_vfy.obj
 0001:00020460       _readtimer                 10021460 f   libeay32_EM_dbg.0.9.8e:rand_win.obj
 0001:000204f0       _readscreen                100214f0 f   libeay32_EM_dbg.0.9.8e:rand_win.obj
 0001:00020ee0       _EVP_PKEY_free_it          10021ee0 f   libeay32_EM_dbg.0.9.8e:p_lib.obj
 0001:00020fd0       _rc5_32_12_16_cbc_cipher   10021fd0 f   libeay32_EM_dbg.0.9.8e:e_rc5.obj
 0001:00021010       _rc5_32_12_16_cfb64_cipher 10022010 f   libeay32_EM_dbg.0.9.8e:e_rc5.obj
 0001:00021050       _rc5_32_12_16_ecb_cipher   10022050 f   libeay32_EM_dbg.0.9.8e:e_rc5.obj
 0001:000210d0       _rc5_32_12_16_ofb_cipher   100220d0 f   libeay32_EM_dbg.0.9.8e:e_rc5.obj
 0001:00021150       _rc5_ctrl                  10022150 f   libeay32_EM_dbg.0.9.8e:e_rc5.obj
 0001:000211f0       _r_32_12_16_init_key       100221f0 f   libeay32_EM_dbg.0.9.8e:e_rc5.obj
 0001:00021230       __asn1_check_infinite_end  10022230 f   libeay32_EM_dbg.0.9.8e:asn1_lib.obj
 0001:00021460       _asn1_get_length           10022460 f   libeay32_EM_dbg.0.9.8e:asn1_lib.obj
 0001:000216f0       _asn1_put_length           100226f0 f   libeay32_EM_dbg.0.9.8e:asn1_lib.obj
 0001:00021c70       _pkey_get_rsa              10022c70 f   libeay32_EM_dbg.0.9.8e:pem_all.obj
 0001:00021d10       _impl_check                10022d10 f   libeay32_EM_dbg.0.9.8e:ex_data.obj
 0001:00021d60       _int_new_class             10022d60 f   libeay32_EM_dbg.0.9.8e:ex_data.obj
 0001:00021dc0       _int_cleanup               10022dc0 f   libeay32_EM_dbg.0.9.8e:ex_data.obj
 0001:00021e10       _ex_data_check             10022e10 f   libeay32_EM_dbg.0.9.8e:ex_data.obj
 0001:00021e90       _def_cleanup_cb            10022e90 f   libeay32_EM_dbg.0.9.8e:ex_data.obj
 0001:00021ed0       _int_get_new_index         10022ed0 f   libeay32_EM_dbg.0.9.8e:ex_data.obj
 0001:00021f20       _def_get_class             10022f20 f   libeay32_EM_dbg.0.9.8e:ex_data.obj
 0001:00022030       _def_add_index             10023030 f   libeay32_EM_dbg.0.9.8e:ex_data.obj
 0001:00022170       _int_new_ex_data           10023170 f   libeay32_EM_dbg.0.9.8e:ex_data.obj
 0001:00022320       _int_dup_ex_data           10023320 f   libeay32_EM_dbg.0.9.8e:ex_data.obj
 0001:00022510       _int_free_ex_data          10023510 f   libeay32_EM_dbg.0.9.8e:ex_data.obj
 0001:000231d0       _asn1_item_flags_i2d       100241d0 f   libeay32_EM_dbg.0.9.8e:tasn_enc.obj
 0001:000236d0       _asn1_template_ex_i2d      100246d0 f   libeay32_EM_dbg.0.9.8e:tasn_enc.obj
 0001:00023a00       _asn1_set_seq_out          10024a00 f   libeay32_EM_dbg.0.9.8e:tasn_enc.obj
 0001:00023c70       _der_cmp                   10024c70 f   libeay32_EM_dbg.0.9.8e:tasn_enc.obj
 0001:00023cf0       _asn1_i2d_ex_primitive     10024cf0 f   libeay32_EM_dbg.0.9.8e:tasn_enc.obj
 0001:00024150       _mem_new                   10025150 f   libeay32_EM_dbg.0.9.8e:bss_mem.obj
 0001:000241a0       _mem_free                  100251a0 f   libeay32_EM_dbg.0.9.8e:bss_mem.obj
 0001:00024220       _mem_read                  10025220 f   libeay32_EM_dbg.0.9.8e:bss_mem.obj
 0001:00024340       _mem_write                 10025340 f   libeay32_EM_dbg.0.9.8e:bss_mem.obj
 0001:00024400       _mem_ctrl                  10025400 f   libeay32_EM_dbg.0.9.8e:bss_mem.obj
 0001:00024620       _mem_gets                  10025620 f   libeay32_EM_dbg.0.9.8e:bss_mem.obj
 0001:00024710       _mem_puts                  10025710 f   libeay32_EM_dbg.0.9.8e:bss_mem.obj
 0001:00024750       _default_malloc_ex         10025750 f   libeay32_EM_dbg.0.9.8e:mem.obj
 0001:00024770       _default_realloc_ex        10025770 f   libeay32_EM_dbg.0.9.8e:mem.obj
 0001:00024790       _default_malloc_locked_ex  10025790 f   libeay32_EM_dbg.0.9.8e:mem.obj
 0001:00024bb0       _print_fp                  10025bb0 f   libeay32_EM_dbg.0.9.8e:err_prn.obj
 0001:00024c00       _update                    10025c00 f   libeay32_EM_dbg.0.9.8e:m_md5.obj
 0001:00024c20       _final                     10025c20 f   libeay32_EM_dbg.0.9.8e:m_md5.obj
 0001:00024c50       _bf_cbc_cipher             10025c50 f   libeay32_EM_dbg.0.9.8e:e_bf.obj
 0001:00024c90       _bf_cfb64_cipher           10025c90 f   libeay32_EM_dbg.0.9.8e:e_bf.obj
 0001:00024cd0       _bf_ecb_cipher             10025cd0 f   libeay32_EM_dbg.0.9.8e:e_bf.obj
 0001:00024d50       _bf_ofb_cipher             10025d50 f   libeay32_EM_dbg.0.9.8e:e_bf.obj
 0001:00024dd0       _bf_init_key               10025dd0 f   libeay32_EM_dbg.0.9.8e:e_bf.obj
 0001:00025710       _init                      10026710 f   libeay32_EM_dbg.0.9.8e:m_md2.obj
 0001:00025730       _update                    10026730 f   libeay32_EM_dbg.0.9.8e:m_md2.obj
 0001:00025750       _final                     10026750 f   libeay32_EM_dbg.0.9.8e:m_md2.obj
 0001:000259f0       _mime_parse_hdr            100269f0 f   libeay32_EM_dbg.0.9.8e:pk7_mime.obj
 0001:00025d30       _strip_ends                10026d30 f   libeay32_EM_dbg.0.9.8e:pk7_mime.obj
 0001:00025d50       _strip_start               10026d50 f   libeay32_EM_dbg.0.9.8e:pk7_mime.obj
 0001:00025dc0       _strip_end                 10026dc0 f   libeay32_EM_dbg.0.9.8e:pk7_mime.obj
 0001:00025e60       _mime_hdr_new              10026e60 f   libeay32_EM_dbg.0.9.8e:pk7_mime.obj
 0001:00025fc0       _mime_hdr_addparam         10026fc0 f   libeay32_EM_dbg.0.9.8e:pk7_mime.obj
 0001:000260c0       _mime_hdr_cmp              100270c0 f   libeay32_EM_dbg.0.9.8e:pk7_mime.obj
 0001:000260c0       _mime_param_cmp            100270c0 f   libeay32_EM_dbg.0.9.8e:pk7_mime.obj
 0001:000260e0       _mime_hdr_find             100270e0 f   libeay32_EM_dbg.0.9.8e:pk7_mime.obj
 0001:00026130       _mime_hdr_free             10027130 f   libeay32_EM_dbg.0.9.8e:pk7_mime.obj
 0001:00026190       _mime_param_free           10027190 f   libeay32_EM_dbg.0.9.8e:pk7_mime.obj
 0001:000261d0       _strip_eol                 100271d0 f   libeay32_EM_dbg.0.9.8e:pk7_mime.obj
 0001:00026780       _traverse_string           10027780 f   libeay32_EM_dbg.0.9.8e:a_mbstr.obj
 0001:000268e0       _in_utf8                   100278e0 f   libeay32_EM_dbg.0.9.8e:a_mbstr.obj
 0001:00026910       _out_utf8                  10027910 f   libeay32_EM_dbg.0.9.8e:a_mbstr.obj
 0001:00026950       _type_str                  10027950 f   libeay32_EM_dbg.0.9.8e:a_mbstr.obj
 0001:00026a00       _cpy_asc                   10027a00 f   libeay32_EM_dbg.0.9.8e:a_mbstr.obj
 0001:00026a40       _cpy_bmp                   10027a40 f   libeay32_EM_dbg.0.9.8e:a_mbstr.obj
 0001:00026aa0       _cpy_univ                  10027aa0 f   libeay32_EM_dbg.0.9.8e:a_mbstr.obj
 0001:00026b30       _cpy_utf8                  10027b30 f   libeay32_EM_dbg.0.9.8e:a_mbstr.obj
 0001:00026b80       _is_printable              10027b80 f   libeay32_EM_dbg.0.9.8e:a_mbstr.obj
 0001:00026c00       _init                      10027c00 f   libeay32_EM_dbg.0.9.8e:m_ripemd.obj
 0001:00026c00       _init                      10027c00 f   libeay32_EM_dbg.0.9.8e:m_ripemd.obj
 0001:00026c00       _init                      10027c00 f   libeay32_EM_dbg.0.9.8e:m_ripemd.obj
 0001:00026c00       _init                      10027c00 f   libeay32_EM_dbg.0.9.8e:m_ripemd.obj
 0001:00026c00       _init                      10027c00 f   libeay32_EM_dbg.0.9.8e:m_ripemd.obj
 0001:00026c00       _init                      10027c00 f   libeay32_EM_dbg.0.9.8e:m_ripemd.obj
 0001:00026c20       _update                    10027c20 f   libeay32_EM_dbg.0.9.8e:m_ripemd.obj
 0001:00026c40       _final                     10027c40 f   libeay32_EM_dbg.0.9.8e:m_ripemd.obj
 0001:00026c70       _init                      10027c70 f   libeay32_EM_dbg.0.9.8e:m_mdc2.obj
 0001:00026c90       _update                    10027c90 f   libeay32_EM_dbg.0.9.8e:m_mdc2.obj
 0001:00026cb0       _final                     10027cb0 f   libeay32_EM_dbg.0.9.8e:m_mdc2.obj
 0001:00026de0       _conn_new                  10027de0 f   libeay32_EM_dbg.0.9.8e:bss_conn.obj
 0001:00026e30       _conn_free                 10027e30 f   libeay32_EM_dbg.0.9.8e:bss_conn.obj
 0001:00026ea0       _conn_close_socket         10027ea0 f   libeay32_EM_dbg.0.9.8e:bss_conn.obj
 0001:00026ef0       _conn_read                 10027ef0 f   libeay32_EM_dbg.0.9.8e:bss_conn.obj
 0001:00026fa0       _conn_state                10027fa0 f   libeay32_EM_dbg.0.9.8e:bss_conn.obj
 0001:00027560       _conn_write                10028560 f   libeay32_EM_dbg.0.9.8e:bss_conn.obj
 0001:00027600       _conn_ctrl                 10028600 f   libeay32_EM_dbg.0.9.8e:bss_conn.obj
 0001:00027a50       _conn_callback_ctrl        10028a50 f   libeay32_EM_dbg.0.9.8e:bss_conn.obj
 0001:00027aa0       _conn_puts                 10028aa0 f   libeay32_EM_dbg.0.9.8e:bss_conn.obj
 0001:00027ba0       _sock_free                 10028ba0 f   libeay32_EM_dbg.0.9.8e:bss_sock.obj
 0001:00027c00       _sock_read                 10028c00 f   libeay32_EM_dbg.0.9.8e:bss_sock.obj
 0001:00027c80       _sock_write                10028c80 f   libeay32_EM_dbg.0.9.8e:bss_sock.obj
 0001:00027cf0       _sock_ctrl                 10028cf0 f   libeay32_EM_dbg.0.9.8e:bss_sock.obj
 0001:00027ea0       _sock_puts                 10028ea0 f   libeay32_EM_dbg.0.9.8e:bss_sock.obj
 0001:00027f60       _acpt_new                  10028f60 f   libeay32_EM_dbg.0.9.8e:bss_acpt.obj
 0001:000280a0       _acpt_free                 100290a0 f   libeay32_EM_dbg.0.9.8e:bss_acpt.obj
 0001:00028110       _acpt_close_socket         10029110 f   libeay32_EM_dbg.0.9.8e:bss_acpt.obj
 0001:00028170       _acpt_read                 10029170 f   libeay32_EM_dbg.0.9.8e:bss_acpt.obj
 0001:00028200       _acpt_state                10029200 f   libeay32_EM_dbg.0.9.8e:bss_acpt.obj
 0001:000284b0       _acpt_write                100294b0 f   libeay32_EM_dbg.0.9.8e:bss_acpt.obj
 0001:00028530       _acpt_ctrl                 10029530 f   libeay32_EM_dbg.0.9.8e:bss_acpt.obj
 0001:00028810       _acpt_puts                 10029810 f   libeay32_EM_dbg.0.9.8e:bss_acpt.obj
 0001:000290c0       _enc_new                   1002a0c0 f   libeay32_EM_dbg.0.9.8e:bio_enc.obj
 0001:00029160       _enc_free                  1002a160 f   libeay32_EM_dbg.0.9.8e:bio_enc.obj
 0001:000291e0       _enc_read                  1002a1e0 f   libeay32_EM_dbg.0.9.8e:bio_enc.obj
 0001:00029450       _enc_write                 1002a450 f   libeay32_EM_dbg.0.9.8e:bio_enc.obj
 0001:00029620       _enc_ctrl                  1002a620 f   libeay32_EM_dbg.0.9.8e:bio_enc.obj
 0001:00029990       _buffer_new                1002a990 f   libeay32_EM_dbg.0.9.8e:bf_buff.obj
 0001:00029aa0       _buffer_free               1002aaa0 f   libeay32_EM_dbg.0.9.8e:bf_buff.obj
 0001:00029b30       _buffer_read               1002ab30 f   libeay32_EM_dbg.0.9.8e:bf_buff.obj
 0001:00029d20       _buffer_write              1002ad20 f   libeay32_EM_dbg.0.9.8e:bf_buff.obj
 0001:00029f60       _buffer_ctrl               1002af60 f   libeay32_EM_dbg.0.9.8e:bf_buff.obj
 0001:0002a540       _buffer_gets               1002b540 f   libeay32_EM_dbg.0.9.8e:bf_buff.obj
 0001:0002a6c0       _buffer_puts               1002b6c0 f   libeay32_EM_dbg.0.9.8e:bf_buff.obj
 0001:0002a760       _md_new                    1002b760 f   libeay32_EM_dbg.0.9.8e:bio_md.obj
 0001:0002a7b0       _md_free                   1002b7b0 f   libeay32_EM_dbg.0.9.8e:bio_md.obj
 0001:0002a800       _md_read                   1002b800 f   libeay32_EM_dbg.0.9.8e:bio_md.obj
 0001:0002a8a0       _md_write                  1002b8a0 f   libeay32_EM_dbg.0.9.8e:bio_md.obj
 0001:0002a940       _md_ctrl                   1002b940 f   libeay32_EM_dbg.0.9.8e:bio_md.obj
 0001:0002abc0       _md_gets                   1002bbc0 f   libeay32_EM_dbg.0.9.8e:bio_md.obj
 0001:0002ac20       _RSA_eay_public_encrypt    1002bc20 f   libeay32_EM_dbg.0.9.8e:rsa_eay.obj
 0001:0002aff0       _RSA_eay_private_encrypt   1002bff0 f   libeay32_EM_dbg.0.9.8e:rsa_eay.obj
 0001:0002b4c0       _rsa_get_blinding          1002c4c0 f   libeay32_EM_dbg.0.9.8e:rsa_eay.obj
 0001:0002b630       _rsa_blinding_convert      1002c630 f   libeay32_EM_dbg.0.9.8e:rsa_eay.obj
 0001:0002b6b0       _rsa_blinding_invert       1002c6b0 f   libeay32_EM_dbg.0.9.8e:rsa_eay.obj
 0001:0002b730       _RSA_eay_private_decrypt   1002c730 f   libeay32_EM_dbg.0.9.8e:rsa_eay.obj
 0001:0002bbe0       _RSA_eay_public_decrypt    1002cbe0 f   libeay32_EM_dbg.0.9.8e:rsa_eay.obj
 0001:0002bfa0       _RSA_eay_mod_exp           1002cfa0 f   libeay32_EM_dbg.0.9.8e:rsa_eay.obj
 0001:0002c4e0       _RSA_eay_init              1002d4e0 f   libeay32_EM_dbg.0.9.8e:rsa_eay.obj
 0001:0002c500       _RSA_eay_finish            1002d500 f   libeay32_EM_dbg.0.9.8e:rsa_eay.obj
 0001:0002d830       _BN_STACK_init             1002e830 f   libeay32_EM_dbg.0.9.8e:bn_ctx.obj
 0001:0002d860       _BN_STACK_finish           1002e860 f   libeay32_EM_dbg.0.9.8e:bn_ctx.obj
 0001:0002d880       _BN_STACK_push             1002e880 f   libeay32_EM_dbg.0.9.8e:bn_ctx.obj
 0001:0002d970       _BN_STACK_pop              1002e970 f   libeay32_EM_dbg.0.9.8e:bn_ctx.obj
 0001:0002d9a0       _BN_POOL_init              1002e9a0 f   libeay32_EM_dbg.0.9.8e:bn_ctx.obj
 0001:0002d9e0       _BN_POOL_finish            1002e9e0 f   libeay32_EM_dbg.0.9.8e:bn_ctx.obj
 0001:0002da70       _BN_POOL_get               1002ea70 f   libeay32_EM_dbg.0.9.8e:bn_ctx.obj
 0001:0002dbf0       _BN_POOL_release           1002ebf0 f   libeay32_EM_dbg.0.9.8e:bn_ctx.obj
 0001:000302a0       _check_pem                 100312a0 f   libeay32_EM_dbg.0.9.8e:pem_lib.obj
 0001:00030910       _load_iv                   10031910 f   libeay32_EM_dbg.0.9.8e:pem_lib.obj
 0001:000312a0       __dopr                     100322a0 f   libeay32_EM_dbg.0.9.8e:b_print.obj
 0001:00031be0       _fmtstr                    10032be0 f   libeay32_EM_dbg.0.9.8e:b_print.obj
 0001:00031d10       _fmtint                    10032d10 f   libeay32_EM_dbg.0.9.8e:b_print.obj
 0001:00032030       _fmtfp                     10033030 f   libeay32_EM_dbg.0.9.8e:b_print.obj
 0001:00032410       _abs_val                   10033410 f   libeay32_EM_dbg.0.9.8e:b_print.obj
 0001:00032440       _pow_10                    10033440 f   libeay32_EM_dbg.0.9.8e:b_print.obj
 0001:00032480       _roundv                    10033480 f   libeay32_EM_dbg.0.9.8e:b_print.obj
 0001:000324d0       _doapr_outch               100334d0 f   libeay32_EM_dbg.0.9.8e:b_print.obj
 0001:000341e0       _pubkey_cb                 100351e0 f   libeay32_EM_dbg.0.9.8e:x_pubkey.obj
 0001:00034f90       _asn1_template_ex_d2i      10035f90 f   libeay32_EM_dbg.0.9.8e:tasn_dec.obj
 0001:00035180       _asn1_template_noexp_d2i   10036180 f   libeay32_EM_dbg.0.9.8e:tasn_dec.obj
 0001:00035510       _asn1_d2i_ex_primitive     10036510 f   libeay32_EM_dbg.0.9.8e:tasn_dec.obj
 0001:00035bc0       _asn1_find_end             10036bc0 f   libeay32_EM_dbg.0.9.8e:tasn_dec.obj
 0001:00035cf0       _asn1_collect              10036cf0 f   libeay32_EM_dbg.0.9.8e:tasn_dec.obj
 0001:00035e70       _collect_data              10036e70 f   libeay32_EM_dbg.0.9.8e:tasn_dec.obj
 0001:00035f00       _asn1_check_eoc            10036f00 f   libeay32_EM_dbg.0.9.8e:tasn_dec.obj
 0001:00035f50       _asn1_check_tlen           10036f50 f   libeay32_EM_dbg.0.9.8e:tasn_dec.obj
 0001:000361c0       _asn1_item_ex_combine_new  100371c0 f   libeay32_EM_dbg.0.9.8e:tasn_new.obj
 0001:00036600       _asn1_template_clear       10037600 f   libeay32_EM_dbg.0.9.8e:tasn_new.obj
 0001:00036640       _asn1_item_clear           10037640 f   libeay32_EM_dbg.0.9.8e:tasn_new.obj
 0001:00036960       _asn1_item_combine_free    10037960 f   libeay32_EM_dbg.0.9.8e:tasn_fre.obj
 0001:00039a00       _inverse                   1003aa00 f   libeay32_EM_dbg.0.9.8e:i_skey.obj
 0001:00039bc0       _send_bio_chars            1003abc0 f   libeay32_EM_dbg.0.9.8e:a_strex.obj
 0001:00039c00       _do_name_ex                1003ac00 f   libeay32_EM_dbg.0.9.8e:a_strex.obj
 0001:0003a0e0       _do_print_ex               1003b0e0 f   libeay32_EM_dbg.0.9.8e:a_strex.obj
 0001:0003a310       _do_buf                    1003b310 f   libeay32_EM_dbg.0.9.8e:a_strex.obj
 0001:0003a550       _do_esc_char               1003b550 f   libeay32_EM_dbg.0.9.8e:a_strex.obj
 0001:0003a720       _do_dump                   1003b720 f   libeay32_EM_dbg.0.9.8e:a_strex.obj
 0001:0003a830       _do_hex_dump               1003b830 f   libeay32_EM_dbg.0.9.8e:a_strex.obj
 0001:0003a8b0       _do_indent                 1003b8b0 f   libeay32_EM_dbg.0.9.8e:a_strex.obj
 0001:0003a900       _pkey_cb                   1003b900 f   libeay32_EM_dbg.0.9.8e:p8_pkey.obj
 0001:0003d040       _sha256_block              1003e040 f   libeay32_EM_dbg.0.9.8e:sha256.obj
 0001:000402f0       _sha512_block              100412f0 f   libeay32_EM_dbg.0.9.8e:sha512.obj
 0001:0004a970       _ssleay_rand_cleanup       1004b970 f   libeay32_EM_dbg.0.9.8e:md_rand.obj
 0001:0004a9d0       _ssleay_rand_add           1004b9d0 f   libeay32_EM_dbg.0.9.8e:md_rand.obj
 0001:0004ad50       _ssleay_rand_seed          1004bd50 f   libeay32_EM_dbg.0.9.8e:md_rand.obj
 0001:0004ad80       _ssleay_rand_bytes         1004bd80 f   libeay32_EM_dbg.0.9.8e:md_rand.obj
 0001:0004b1c0       _ssleay_rand_pseudo_bytes  1004c1c0 f   libeay32_EM_dbg.0.9.8e:md_rand.obj
 0001:0004b220       _ssleay_rand_status        1004c220 f   libeay32_EM_dbg.0.9.8e:md_rand.obj
 0001:0004bcd0       _strip_spaces              1004ccd0 f   libeay32_EM_dbg.0.9.8e:v3_utl.obj
 0001:0004c330       _ipv4_from_asc             1004d330 f   libeay32_EM_dbg.0.9.8e:v3_utl.obj
 0001:0004c3e0       _ipv6_from_asc             1004d3e0 f   libeay32_EM_dbg.0.9.8e:v3_utl.obj
 0001:0004c520       _ipv6_cb                   1004d520 f   libeay32_EM_dbg.0.9.8e:v3_utl.obj
 0001:0004c620       _ipv6_hex                  1004d620 f   libeay32_EM_dbg.0.9.8e:v3_utl.obj
 0001:0004d1e0       _table_cmp                 1004e1e0 f   libeay32_EM_dbg.0.9.8e:a_strnid.obj
 0001:0004d220       _crl_inf_cb                1004e220 f   libeay32_EM_dbg.0.9.8e:x_crl.obj
 0001:0004d2e0       _X509_REVOKED_cmp          1004e2e0 f   libeay32_EM_dbg.0.9.8e:x_crl.obj
 0001:0004d790       _doall_util_fn             1004e790 f   libeay32_EM_dbg.0.9.8e:lhash.obj
 0001:0004d830       _expand                    1004e830 f   libeay32_EM_dbg.0.9.8e:lhash.obj
 0001:0004d9d0       _contract                  1004e9d0 f   libeay32_EM_dbg.0.9.8e:lhash.obj
 0001:0004db20       _getrn                     1004eb20 f   libeay32_EM_dbg.0.9.8e:lhash.obj
 0001:0004e680       _asn1_d2i_read_bio         1004f680 f   libeay32_EM_dbg.0.9.8e:a_d2i_fp.obj
 0001:0004eea0       _sig_cb                    1004fea0 f   libeay32_EM_dbg.0.9.8e:dsa_asn1.obj
 0001:0004efb0       _dsa_cb                    1004ffb0 f   libeay32_EM_dbg.0.9.8e:dsa_asn1.obj
 0001:0004f800       _X9_62_CHARACTERISTIC_TWO_adb 10050800 f   libeay32_EM_dbg.0.9.8e:ec_asn1.obj
 0001:0004f820       _X9_62_FIELDID_adb         10050820 f   libeay32_EM_dbg.0.9.8e:ec_asn1.obj
 0001:0004fa00       _ec_asn1_pkparameters2group 10050a00 f   libeay32_EM_dbg.0.9.8e:ec_asn1.obj
 0001:0004fb30       _ec_asn1_parameters2group  10050b30 f   libeay32_EM_dbg.0.9.8e:ec_asn1.obj
 0001:000528e0       _dir_ctrl                  100538e0 f   libeay32_EM_dbg.0.9.8e:by_dir.obj
 0001:000529a0       _new_dir                   100539a0 f   libeay32_EM_dbg.0.9.8e:by_dir.obj
 0001:00052a30       _free_dir                  10053a30 f   libeay32_EM_dbg.0.9.8e:by_dir.obj
 0001:00052ae0       _add_cert_dir              10053ae0 f   libeay32_EM_dbg.0.9.8e:by_dir.obj
 0001:00052da0       _get_cert_by_subject       10053da0 f   libeay32_EM_dbg.0.9.8e:by_dir.obj
 0001:000530f0       _stat                      100540f0 f   libeay32_EM_dbg.0.9.8e:by_dir.obj
 0001:00053120       _by_file_ctrl              10054120 f   libeay32_EM_dbg.0.9.8e:by_file.obj
 0001:00053730       _bn_new                    10054730 f   libeay32_EM_dbg.0.9.8e:x_bignum.obj
 0001:00053760       _bn_free                   10054760 f   libeay32_EM_dbg.0.9.8e:x_bignum.obj
 0001:000537b0       _bn_i2c                    100547b0 f   libeay32_EM_dbg.0.9.8e:x_bignum.obj
 0001:00053840       _bn_c2i                    10054840 f   libeay32_EM_dbg.0.9.8e:x_bignum.obj
 0001:000538d0       _long_new                  100548d0 f   libeay32_EM_dbg.0.9.8e:x_long.obj
 0001:000538f0       _long_free                 100548f0 f   libeay32_EM_dbg.0.9.8e:x_long.obj
 0001:00053900       _long_i2c                  10054900 f   libeay32_EM_dbg.0.9.8e:x_long.obj
 0001:00053a10       _long_c2i                  10054a10 f   libeay32_EM_dbg.0.9.8e:x_long.obj
 0001:00053bb0       _null_new                  10054bb0 f   libeay32_EM_dbg.0.9.8e:bss_null.obj
 0001:00053be0       _null_free                 10054be0 f   libeay32_EM_dbg.0.9.8e:bss_null.obj
 0001:00053c00       _null_read                 10054c00 f   libeay32_EM_dbg.0.9.8e:bss_null.obj
 0001:00053c00       _null_gets                 10054c00 f   libeay32_EM_dbg.0.9.8e:bss_null.obj
 0001:00053c10       _null_write                10054c10 f   libeay32_EM_dbg.0.9.8e:bss_null.obj
 0001:00053c20       _null_ctrl                 10054c20 f   libeay32_EM_dbg.0.9.8e:bss_null.obj
 0001:00053c90       _null_puts                 10054c90 f   libeay32_EM_dbg.0.9.8e:bss_null.obj
 0001:00053e40       _update                    10054e40 f   libeay32_EM_dbg.0.9.8e:m_ecdsa.obj
 0001:00053e40       _update                    10054e40 f   libeay32_EM_dbg.0.9.8e:m_ecdsa.obj
 0001:00053e40       _update                    10054e40 f   libeay32_EM_dbg.0.9.8e:m_ecdsa.obj
 0001:00053e40       _update                    10054e40 f   libeay32_EM_dbg.0.9.8e:m_ecdsa.obj
 0001:00053e60       _final                     10054e60 f   libeay32_EM_dbg.0.9.8e:m_ecdsa.obj
 0001:00053e60       _final                     10054e60 f   libeay32_EM_dbg.0.9.8e:m_ecdsa.obj
 0001:00053e60       _final                     10054e60 f   libeay32_EM_dbg.0.9.8e:m_ecdsa.obj
 0001:00053e60       _final                     10054e60 f   libeay32_EM_dbg.0.9.8e:m_ecdsa.obj
 0001:000545a0       _asn1_cb                   100555a0 f   libeay32_EM_dbg.0.9.8e:asn1_gen.obj
 0001:00054920       _parse_tagging             10055920 f   libeay32_EM_dbg.0.9.8e:asn1_gen.obj
 0001:00054ab0       _asn1_multi                10055ab0 f   libeay32_EM_dbg.0.9.8e:asn1_gen.obj
 0001:00054cb0       _append_exp                10055cb0 f   libeay32_EM_dbg.0.9.8e:asn1_gen.obj
 0001:00054db0       _asn1_str2tag              10055db0 f   libeay32_EM_dbg.0.9.8e:asn1_gen.obj
 0001:00054e50       _asn1_str2type             10055e50 f   libeay32_EM_dbg.0.9.8e:asn1_gen.obj
 0001:000553d0       _bitstr_cb                 100563d0 f   libeay32_EM_dbg.0.9.8e:asn1_gen.obj
 0001:00057aa0       _s2i_asn1_int              10058aa0 f   libeay32_EM_dbg.0.9.8e:v3_int.obj
 0001:00057b20       _i2v_POLICY_MAPPINGS       10058b20 f   libeay32_EM_dbg.0.9.8e:v3_pmaps.obj
 0001:00057bd0       _v2i_POLICY_MAPPINGS       10058bd0 f   libeay32_EM_dbg.0.9.8e:v3_pmaps.obj
 0001:00057e60       _v2i_NAME_CONSTRAINTS      10058e60 f   libeay32_EM_dbg.0.9.8e:v3_ncons.obj
 0001:00058030       _i2r_NAME_CONSTRAINTS      10059030 f   libeay32_EM_dbg.0.9.8e:v3_ncons.obj
 0001:00058090       _do_i2r_name_constraints   10059090 f   libeay32_EM_dbg.0.9.8e:v3_ncons.obj
 0001:00058190       _print_nc_ipadd            10059190 f   libeay32_EM_dbg.0.9.8e:v3_ncons.obj
 0001:000582c0       _i2r_pci                   100592c0 f   libeay32_EM_dbg.0.9.8e:v3_pci.obj
 0001:000583b0       _r2i_pci                   100593b0 f   libeay32_EM_dbg.0.9.8e:v3_pci.obj
 0001:00058790       _process_pci_value         10059790 f   libeay32_EM_dbg.0.9.8e:v3_pci.obj
 0001:00058e10       _i2r_ocsp_crlid            10059e10 f   libeay32_EM_dbg.0.9.8e:v3_ocsp.obj
 0001:00058f50       _i2r_ocsp_acutoff          10059f50 f   libeay32_EM_dbg.0.9.8e:v3_ocsp.obj
 0001:00058fa0       _i2r_object                10059fa0 f   libeay32_EM_dbg.0.9.8e:v3_ocsp.obj
 0001:00058ff0       _ocsp_nonce_new            10059ff0 f   libeay32_EM_dbg.0.9.8e:v3_ocsp.obj
 0001:00059000       _i2d_ocsp_nonce            1005a000 f   libeay32_EM_dbg.0.9.8e:v3_ocsp.obj
 0001:00059050       _d2i_ocsp_nonce            1005a050 f   libeay32_EM_dbg.0.9.8e:v3_ocsp.obj
 0001:00059100       _ocsp_nonce_free           1005a100 f   libeay32_EM_dbg.0.9.8e:v3_ocsp.obj
 0001:00059120       _i2r_ocsp_nonce            1005a120 f   libeay32_EM_dbg.0.9.8e:v3_ocsp.obj
 0001:00059170       _s2i_ocsp_nocheck          1005a170 f   libeay32_EM_dbg.0.9.8e:v3_ocsp.obj
 0001:00059180       _i2r_ocsp_serviceloc       1005a180 f   libeay32_EM_dbg.0.9.8e:v3_ocsp.obj
 0001:000592f0       _i2v_POLICY_CONSTRAINTS    1005a2f0 f   libeay32_EM_dbg.0.9.8e:v3_pcons.obj
 0001:00059340       _v2i_POLICY_CONSTRAINTS    1005a340 f   libeay32_EM_dbg.0.9.8e:v3_pcons.obj
 0001:00059520       _i2v_AUTHORITY_INFO_ACCESS 1005a520 f   libeay32_EM_dbg.0.9.8e:v3_info.obj
 0001:000596a0       _v2i_AUTHORITY_INFO_ACCESS 1005a6a0 f   libeay32_EM_dbg.0.9.8e:v3_info.obj
 0001:000598e0       _i2v_EXTENDED_KEY_USAGE    1005a8e0 f   libeay32_EM_dbg.0.9.8e:v3_extku.obj
 0001:00059970       _v2i_EXTENDED_KEY_USAGE    1005a970 f   libeay32_EM_dbg.0.9.8e:v3_extku.obj
 0001:00059b30       _sxnet_i2r                 1005ab30 f   libeay32_EM_dbg.0.9.8e:v3_sxnet.obj
 0001:00059c10       _sxnet_v2i                 1005ac10 f   libeay32_EM_dbg.0.9.8e:v3_sxnet.obj
 0001:00059f90       _i2v_crld                  1005af90 f   libeay32_EM_dbg.0.9.8e:v3_crld.obj
 0001:0005a070       _v2i_crld                  1005b070 f   libeay32_EM_dbg.0.9.8e:v3_crld.obj
 0001:0005a280       _i2v_AUTHORITY_KEYID       1005b280 f   libeay32_EM_dbg.0.9.8e:v3_akey.obj
 0001:0005a350       _v2i_AUTHORITY_KEYID       1005b350 f   libeay32_EM_dbg.0.9.8e:v3_akey.obj
 0001:0005a6e0       _POLICYQUALINFO_adb        1005b6e0 f   libeay32_EM_dbg.0.9.8e:v3_cpols.obj
 0001:0005a7a0       _r2i_certpol               1005b7a0 f   libeay32_EM_dbg.0.9.8e:v3_cpols.obj
 0001:0005aa70       _policy_section            1005ba70 f   libeay32_EM_dbg.0.9.8e:v3_cpols.obj
 0001:0005ae10       _notice_section            1005be10 f   libeay32_EM_dbg.0.9.8e:v3_cpols.obj
 0001:0005b150       _nref_nos                  1005c150 f   libeay32_EM_dbg.0.9.8e:v3_cpols.obj
 0001:0005b220       _i2r_certpol               1005c220 f   libeay32_EM_dbg.0.9.8e:v3_cpols.obj
 0001:0005b2e0       _print_qualifiers          1005c2e0 f   libeay32_EM_dbg.0.9.8e:v3_cpols.obj
 0001:0005b400       _print_notice              1005c400 f   libeay32_EM_dbg.0.9.8e:v3_cpols.obj
 0001:0005b5a0       _i2v_BASIC_CONSTRAINTS     1005c5a0 f   libeay32_EM_dbg.0.9.8e:v3_bcons.obj
 0001:0005b5e0       _v2i_BASIC_CONSTRAINTS     1005c5e0 f   libeay32_EM_dbg.0.9.8e:v3_bcons.obj
 0001:0005bc60       _v2i_issuer_alt            1005cc60 f   libeay32_EM_dbg.0.9.8e:v3_alt.obj
 0001:0005bd80       _copy_issuer               1005cd80 f   libeay32_EM_dbg.0.9.8e:v3_alt.obj
 0001:0005bed0       _v2i_subject_alt           1005ced0 f   libeay32_EM_dbg.0.9.8e:v3_alt.obj
 0001:0005c050       _copy_email                1005d050 f   libeay32_EM_dbg.0.9.8e:v3_alt.obj
 0001:0005c570       _do_othername              1005d570 f   libeay32_EM_dbg.0.9.8e:v3_alt.obj
 0001:0005c680       _do_dirname                1005d680 f   libeay32_EM_dbg.0.9.8e:v3_alt.obj
 0001:0005c750       _i2r_PKEY_USAGE_PERIOD     1005d750 f   libeay32_EM_dbg.0.9.8e:v3_pku.obj
 0001:0005ca70       _s2i_skey_id               1005da70 f   libeay32_EM_dbg.0.9.8e:v3_skey.obj
 0001:0005cc00       _i2s_ASN1_IA5STRING        1005dc00 f   libeay32_EM_dbg.0.9.8e:v3_ia5.obj
 0001:0005cc90       _s2i_ASN1_IA5STRING        1005dc90 f   libeay32_EM_dbg.0.9.8e:v3_ia5.obj
 0001:0005cff0       _SetBlobCmp                1005dff0 f   libeay32_EM_dbg.0.9.8e:a_set.obj
 0001:0005d980       _x509v3_cache_extensions   1005e980 f   libeay32_EM_dbg.0.9.8e:v3_purp.obj
 0001:0005df70       _check_ca                  1005ef70 f   libeay32_EM_dbg.0.9.8e:v3_purp.obj
 0001:0005e000       _check_purpose_ssl_client  1005f000 f   libeay32_EM_dbg.0.9.8e:v3_purp.obj
 0001:0005e080       _check_ssl_ca              1005f080 f   libeay32_EM_dbg.0.9.8e:v3_purp.obj
 0001:0005e0d0       _check_purpose_ssl_server  1005f0d0 f   libeay32_EM_dbg.0.9.8e:v3_purp.obj
 0001:0005e140       _check_purpose_ns_ssl_server 1005f140 f   libeay32_EM_dbg.0.9.8e:v3_purp.obj
 0001:0005e1a0       _check_purpose_smime_sign  1005f1a0 f   libeay32_EM_dbg.0.9.8e:v3_purp.obj
 0001:0005e200       _purpose_smime             1005f200 f   libeay32_EM_dbg.0.9.8e:v3_purp.obj
 0001:0005e2a0       _check_purpose_smime_encrypt 1005f2a0 f   libeay32_EM_dbg.0.9.8e:v3_purp.obj
 0001:0005e300       _check_purpose_crl_sign    1005f300 f   libeay32_EM_dbg.0.9.8e:v3_purp.obj
 0001:0005e360       _ocsp_helper               1005f360 f   libeay32_EM_dbg.0.9.8e:v3_purp.obj
 0001:0005edd0       _witness                   1005fdd0 f   libeay32_EM_dbg.0.9.8e:bn_prime.obj
 0001:0005eec0       _probable_prime            1005fec0 f   libeay32_EM_dbg.0.9.8e:bn_prime.obj
 0001:0005efd0       _probable_prime_dh         1005ffd0 f   libeay32_EM_dbg.0.9.8e:bn_prime.obj
 0001:0005f110       _probable_prime_dh_safe    10060110 f   libeay32_EM_dbg.0.9.8e:bn_prime.obj
 0001:0005f3d0       _policy_cache_new          100603d0 f   libeay32_EM_dbg.0.9.8e:pcy_cache.obj
 0001:0005f610       _policy_cache_create       10060610 f   libeay32_EM_dbg.0.9.8e:pcy_cache.obj
 0001:0005f800       _policy_data_cmp           10060800 f   libeay32_EM_dbg.0.9.8e:pcy_cache.obj
 0001:0005f820       _policy_cache_set_int      10060820 f   libeay32_EM_dbg.0.9.8e:pcy_cache.obj
 0001:0005f8b0       _x509_verify_param_zero    100608b0 f   libeay32_EM_dbg.0.9.8e:x509_vpm.obj
 0001:0005fc50       _table_cmp                 10060c50 f   libeay32_EM_dbg.0.9.8e:x509_vpm.obj
 0001:00061df0       _app_info_cmp              10062df0 f   libeay32_EM_dbg.0.9.8e:mem_dbg.obj
 0001:00061e10       _app_info_hash             10062e10 f   libeay32_EM_dbg.0.9.8e:mem_dbg.obj
 0001:00061eb0       _pop_info                  10062eb0 f   libeay32_EM_dbg.0.9.8e:mem_dbg.obj
 0001:00066790       _obj_name_cmp              10067790 f   libeay32_EM_dbg.0.9.8e:o_names.obj
 0001:00066830       _obj_name_hash             10067830 f   libeay32_EM_dbg.0.9.8e:o_names.obj
 0001:00066bf0       _names_lh_free_LHASH_DOALL 10067bf0 f   libeay32_EM_dbg.0.9.8e:o_names.obj
 0001:00066c20       _names_lh_free             10067c20 f   libeay32_EM_dbg.0.9.8e:o_names.obj
 0001:00066c60       _name_funcs_free           10067c60 f   libeay32_EM_dbg.0.9.8e:o_names.obj
 0001:00066c60       _def_cleanup_util_cb       10067c60 f   libeay32_EM_dbg.0.9.8e:o_names.obj
 0001:00066e70       _pbe_cmp                   10067e70 f   libeay32_EM_dbg.0.9.8e:evp_pbe.obj
 0001:00068310       _trust_1oidany             10069310 f   libeay32_EM_dbg.0.9.8e:x509_trs.obj
 0001:00068370       _trust_1oid                10069370 f   libeay32_EM_dbg.0.9.8e:x509_trs.obj
 0001:000683a0       _trust_compat              100693a0 f   libeay32_EM_dbg.0.9.8e:x509_trs.obj
 0001:000683d0       _obj_trust                 100693d0 f   libeay32_EM_dbg.0.9.8e:x509_trs.obj
 0001:00068e80       _exnode_free               10069e80 f   libeay32_EM_dbg.0.9.8e:pcy_tree.obj
 0001:00069060       _tree_init                 1006a060 f   libeay32_EM_dbg.0.9.8e:pcy_tree.obj
 0001:00069440       _tree_calculate_authority_set 1006a440 f   libeay32_EM_dbg.0.9.8e:pcy_tree.obj
 0001:00069570       _tree_add_auth_node        1006a570 f   libeay32_EM_dbg.0.9.8e:pcy_tree.obj
 0001:000695e0       _tree_calculate_user_set   1006a5e0 f   libeay32_EM_dbg.0.9.8e:pcy_tree.obj
 0001:00069790       _tree_evaluate             1006a790 f   libeay32_EM_dbg.0.9.8e:pcy_tree.obj
 0001:00069850       _tree_link_nodes           1006a850 f   libeay32_EM_dbg.0.9.8e:pcy_tree.obj
 0001:00069920       _tree_link_any             1006a920 f   libeay32_EM_dbg.0.9.8e:pcy_tree.obj
 0001:00069a40       _tree_prune                1006aa40 f   libeay32_EM_dbg.0.9.8e:pcy_tree.obj
 0001:0006a1c0       _ex_hash_cb                1006b1c0 f   libeay32_EM_dbg.0.9.8e:ec_lib.obj
 0001:0006a1c0       _engine_pile_hash          1006b1c0 f   libeay32_EM_dbg.0.9.8e:ec_lib.obj
 0001:0006b790       _ecdsa_data_new            1006c790 f   libeay32_EM_dbg.0.9.8e:ecs_lib.obj
 0001:0006b7a0       _ECDSA_DATA_new_method     1006c7a0 f   libeay32_EM_dbg.0.9.8e:ecs_lib.obj
 0001:0006b8a0       _ecdsa_data_dup            1006c8a0 f   libeay32_EM_dbg.0.9.8e:ecs_lib.obj
 0001:0006b8d0       _ecdsa_data_free           1006c8d0 f   libeay32_EM_dbg.0.9.8e:ecs_lib.obj
 0001:0006d240       _nsseq_cb                  1006e240 f   libeay32_EM_dbg.0.9.8e:nsseq.obj
 0001:0006d280       _dh_cb                     1006e280 f   libeay32_EM_dbg.0.9.8e:dh_asn1.obj
 0001:0006d490       _asn1_get_enc_ptr          1006e490 f   libeay32_EM_dbg.0.9.8e:tasn_utl.obj
 0001:0006ff20       _md2_block                 10070f20 f   libeay32_EM_dbg.0.9.8e:md2_dgst.obj
 0001:00070300       _b64_new                   10071300 f   libeay32_EM_dbg.0.9.8e:bio_b64.obj
 0001:000703a0       _b64_free                  100713a0 f   libeay32_EM_dbg.0.9.8e:bio_b64.obj
 0001:000703f0       _b64_read                  100713f0 f   libeay32_EM_dbg.0.9.8e:bio_b64.obj
 0001:000709e0       _b64_write                 100719e0 f   libeay32_EM_dbg.0.9.8e:bio_b64.obj
 0001:00070cf0       _b64_ctrl                  10071cf0 f   libeay32_EM_dbg.0.9.8e:bio_b64.obj
 0001:00071010       _b64_callback_ctrl         10072010 f   libeay32_EM_dbg.0.9.8e:bio_b64.obj
 0001:00071010       _buffer_callback_ctrl      10072010 f   libeay32_EM_dbg.0.9.8e:bio_b64.obj
 0001:00071010       _md_callback_ctrl          10072010 f   libeay32_EM_dbg.0.9.8e:bio_b64.obj
 0001:00071010       _enc_callback_ctrl         10072010 f   libeay32_EM_dbg.0.9.8e:bio_b64.obj
 0001:00072f10       _mdc2_body                 10073f10 f   libeay32_EM_dbg.0.9.8e:mdc2dgst.obj
 0001:00073800       _get_ip                    10074800 f   libeay32_EM_dbg.0.9.8e:b_sock.obj
 0001:00074e10       _MOD_EXP_CTIME_COPY_TO_PREBUF 10075e10 f   libeay32_EM_dbg.0.9.8e:bn_exp.obj
 0001:00074f20       _MOD_EXP_CTIME_COPY_FROM_PREBUF 10075f20 f   libeay32_EM_dbg.0.9.8e:bn_exp.obj
 0001:00076e90       _int_table_check           10077e90 f   libeay32_EM_dbg.0.9.8e:eng_table.obj
 0001:00076ef0       _engine_pile_hash_LHASH_HASH 10077ef0 f   libeay32_EM_dbg.0.9.8e:eng_table.obj
 0001:00076f20       _engine_pile_cmp_LHASH_COMP 10077f20 f   libeay32_EM_dbg.0.9.8e:eng_table.obj
 0001:00076f50       _nid_cmp                   10077f50 f   libeay32_EM_dbg.0.9.8e:eng_table.obj
 0001:00076f50       _pid_cmp                   10077f50 f   libeay32_EM_dbg.0.9.8e:eng_table.obj
 0001:00076f50       _ex_cmp_cb                 10077f50 f   libeay32_EM_dbg.0.9.8e:eng_table.obj
 0001:00076f50       _engine_pile_cmp           10077f50 f   libeay32_EM_dbg.0.9.8e:eng_table.obj
 0001:00076f50       _err_cmp                   10077f50 f   libeay32_EM_dbg.0.9.8e:eng_table.obj
 0001:00077120       _bnrand                    10078120 f   libeay32_EM_dbg.0.9.8e:bn_rand.obj
 0001:000773d0       _bn_rand_range             100783d0 f   libeay32_EM_dbg.0.9.8e:bn_rand.obj
 0001:000799a0       _ec_group_new_from_data    1007a9a0 f   libeay32_EM_dbg.0.9.8e:ec_curve.obj
 0001:0007b110       _camellia_128_ecb_cipher   1007c110 f   libeay32_EM_dbg.0.9.8e:e_camellia.obj
 0001:0007b110       _camellia_256_ecb_cipher   1007c110 f   libeay32_EM_dbg.0.9.8e:e_camellia.obj
 0001:0007b110       _camellia_192_ecb_cipher   1007c110 f   libeay32_EM_dbg.0.9.8e:e_camellia.obj
 0001:0007b190       _camellia_256_ofb_cipher   1007c190 f   libeay32_EM_dbg.0.9.8e:e_camellia.obj
 0001:0007b190       _camellia_192_ofb_cipher   1007c190 f   libeay32_EM_dbg.0.9.8e:e_camellia.obj
 0001:0007b190       _camellia_128_ofb_cipher   1007c190 f   libeay32_EM_dbg.0.9.8e:e_camellia.obj
 0001:0007b210       _camellia_128_cbc_cipher   1007c210 f   libeay32_EM_dbg.0.9.8e:e_camellia.obj
 0001:0007b210       _camellia_192_cbc_cipher   1007c210 f   libeay32_EM_dbg.0.9.8e:e_camellia.obj
 0001:0007b210       _camellia_256_cbc_cipher   1007c210 f   libeay32_EM_dbg.0.9.8e:e_camellia.obj
 0001:0007b250       _camellia_192_cfb128_cipher 1007c250 f   libeay32_EM_dbg.0.9.8e:e_camellia.obj
 0001:0007b250       _camellia_256_cfb128_cipher 1007c250 f   libeay32_EM_dbg.0.9.8e:e_camellia.obj
 0001:0007b250       _camellia_128_cfb128_cipher 1007c250 f   libeay32_EM_dbg.0.9.8e:e_camellia.obj
 0001:0007b2f0       _camellia_128_cfb1_cipher  1007c2f0 f   libeay32_EM_dbg.0.9.8e:e_camellia.obj
 0001:0007b2f0       _camellia_192_cfb1_cipher  1007c2f0 f   libeay32_EM_dbg.0.9.8e:e_camellia.obj
 0001:0007b2f0       _camellia_256_cfb1_cipher  1007c2f0 f   libeay32_EM_dbg.0.9.8e:e_camellia.obj
 0001:0007b360       _camellia_256_cfb8_cipher  1007c360 f   libeay32_EM_dbg.0.9.8e:e_camellia.obj
 0001:0007b360       _camellia_192_cfb8_cipher  1007c360 f   libeay32_EM_dbg.0.9.8e:e_camellia.obj
 0001:0007b360       _camellia_128_cfb8_cipher  1007c360 f   libeay32_EM_dbg.0.9.8e:e_camellia.obj
 0001:0007b3b0       _camellia_init_key         1007c3b0 f   libeay32_EM_dbg.0.9.8e:e_camellia.obj
 0001:0007c780       _dsa_do_sign               1007d780 f   libeay32_EM_dbg.0.9.8e:dsa_ossl.obj
 0001:0007ca00       _dsa_sign_setup            1007da00 f   libeay32_EM_dbg.0.9.8e:dsa_ossl.obj
 0001:0007cd40       _dsa_do_verify             1007dd40 f   libeay32_EM_dbg.0.9.8e:dsa_ossl.obj
 0001:0007d0b0       _dsa_init                  1007e0b0 f   libeay32_EM_dbg.0.9.8e:dsa_ossl.obj
 0001:0007d0d0       _dsa_finish                1007e0d0 f   libeay32_EM_dbg.0.9.8e:dsa_ossl.obj
 0001:0007fa10       _def_create                10080a10 f   libeay32_EM_dbg.0.9.8e:conf_def.obj
 0001:0007fa70       _def_init_default          10080a70 f   libeay32_EM_dbg.0.9.8e:conf_def.obj
 0001:0007fab0       _def_init_WIN32            10080ab0 f   libeay32_EM_dbg.0.9.8e:conf_def.obj
 0001:0007faf0       _def_destroy               10080af0 f   libeay32_EM_dbg.0.9.8e:conf_def.obj
 0001:0007fb20       _def_destroy_data          10080b20 f   libeay32_EM_dbg.0.9.8e:conf_def.obj
 0001:0007fb40       _def_load                  10080b40 f   libeay32_EM_dbg.0.9.8e:conf_def.obj
 0001:0007fbe0       _def_load_bio              10080be0 f   libeay32_EM_dbg.0.9.8e:conf_def.obj
 0001:000803f0       _clear_comments            100813f0 f   libeay32_EM_dbg.0.9.8e:conf_def.obj
 0001:00080570       _str_copy                  10081570 f   libeay32_EM_dbg.0.9.8e:conf_def.obj
 0001:00080ac0       _eat_ws                    10081ac0 f   libeay32_EM_dbg.0.9.8e:conf_def.obj
 0001:00080b10       _eat_alpha_numeric         10081b10 f   libeay32_EM_dbg.0.9.8e:conf_def.obj
 0001:00080bb0       _scan_quote                10081bb0 f   libeay32_EM_dbg.0.9.8e:conf_def.obj
 0001:00080c60       _scan_dquote               10081c60 f   libeay32_EM_dbg.0.9.8e:conf_def.obj
 0001:00080cf0       _def_dump                  10081cf0 f   libeay32_EM_dbg.0.9.8e:conf_def.obj
 0001:00080d20       _dump_value_LHASH_DOALL_ARG 10081d20 f   libeay32_EM_dbg.0.9.8e:conf_def.obj
 0001:00080d50       _dump_value                10081d50 f   libeay32_EM_dbg.0.9.8e:conf_def.obj
 0001:00080da0       _def_is_number             10081da0 f   libeay32_EM_dbg.0.9.8e:conf_def.obj
 0001:00080dc0       _def_to_int                10081dc0 f   libeay32_EM_dbg.0.9.8e:conf_def.obj
 0001:000810a0       _value_free_hash_LHASH_DOALL_ARG 100820a0 f   libeay32_EM_dbg.0.9.8e:conf_api.obj
 0001:000810d0       _value_free_stack_LHASH_DOALL_ARG 100820d0 f   libeay32_EM_dbg.0.9.8e:conf_api.obj
 0001:00081100       _value_free_hash           10082100 f   libeay32_EM_dbg.0.9.8e:conf_api.obj
 0001:00081130       _value_free_stack          10082130 f   libeay32_EM_dbg.0.9.8e:conf_api.obj
 0001:000811f0       _hash                      100821f0 f   libeay32_EM_dbg.0.9.8e:conf_api.obj
 0001:00081230       _cmp_conf                  10082230 f   libeay32_EM_dbg.0.9.8e:conf_api.obj
 0001:00081ba0       _ref_cmp                   10082ba0 f   libeay32_EM_dbg.0.9.8e:pcy_map.obj
 0001:00081bc0       _policy_map_free           10082bc0 f   libeay32_EM_dbg.0.9.8e:pcy_map.obj
 0001:00081bf0       _policy_map_find           10082bf0 f   libeay32_EM_dbg.0.9.8e:pcy_map.obj
 0001:00081d30       _gmtime                    10082d30 f   libeay32_EM_dbg.0.9.8e:o_time.obj
 0001:00081d70       _node_cmp                  10082d70 f   libeay32_EM_dbg.0.9.8e:pcy_node.obj
 0001:00082b90       _ec_pre_comp_dup           10083b90 f   libeay32_EM_dbg.0.9.8e:ec_mult.obj
 0001:00082bd0       _ec_pre_comp_free          10083bd0 f   libeay32_EM_dbg.0.9.8e:ec_mult.obj
 0001:00082c70       _ec_pre_comp_clear_free    10083c70 f   libeay32_EM_dbg.0.9.8e:ec_mult.obj
 0001:00082d30       _compute_wNAF              10083d30 f   libeay32_EM_dbg.0.9.8e:ec_mult.obj
 0001:000835b0       _ec_pre_comp_new           100845b0 f   libeay32_EM_dbg.0.9.8e:ec_mult.obj
 0001:00083690       _ecdsa_sign_setup          10084690 f   libeay32_EM_dbg.0.9.8e:ecs_ossl.obj
 0001:00083a40       _ecdsa_do_sign             10084a40 f   libeay32_EM_dbg.0.9.8e:ecs_ossl.obj
 0001:00083e00       _ecdsa_do_verify           10084e00 f   libeay32_EM_dbg.0.9.8e:ecs_ossl.obj
 0001:000842d0       _generate_key              100852d0 f   libeay32_EM_dbg.0.9.8e:dh_key.obj
 0001:00084520       _compute_key               10085520 f   libeay32_EM_dbg.0.9.8e:dh_key.obj
 0001:000846e0       _dh_bn_mod_exp             100856e0 f   libeay32_EM_dbg.0.9.8e:dh_key.obj
 0001:00084760       _dh_init                   10085760 f   libeay32_EM_dbg.0.9.8e:dh_key.obj
 0001:00084780       _dh_finish                 10085780 f   libeay32_EM_dbg.0.9.8e:dh_key.obj
 0001:00086f90       _free_string               10087f90 f   libeay32_EM_dbg.0.9.8e:ui_lib.obj
 0001:00087040       _general_allocate_string   10088040 f   libeay32_EM_dbg.0.9.8e:ui_lib.obj
 0001:000870f0       _allocate_string_stack     100880f0 f   libeay32_EM_dbg.0.9.8e:ui_lib.obj
 0001:00087120       _general_allocate_prompt   10088120 f   libeay32_EM_dbg.0.9.8e:ui_lib.obj
 0001:000873d0       _print_error               100883d0 f   libeay32_EM_dbg.0.9.8e:ui_lib.obj
 0001:0008af60       _ec_GF2m_montgomery_point_multiply 1008bf60 f   libeay32_EM_dbg.0.9.8e:ec2_mult.obj
 0001:0008b300       _gf2m_Mdouble              1008c300 f   libeay32_EM_dbg.0.9.8e:ec2_mult.obj
 0001:0008b470       _gf2m_Madd                 1008c470 f   libeay32_EM_dbg.0.9.8e:ec2_mult.obj
 0001:0008b600       _gf2m_Mxy                  1008c600 f   libeay32_EM_dbg.0.9.8e:ec2_mult.obj
 0001:0008c210       _bn_GF2m_mul_2x2           1008d210 f   libeay32_EM_dbg.0.9.8e:bn_gf2m.obj
 0001:0008c2b0       _bn_GF2m_mul_1x1           1008d2b0 f   libeay32_EM_dbg.0.9.8e:bn_gf2m.obj
 0001:0008d840       _write_string              1008e840 f   libeay32_EM_dbg.0.9.8e:ui_openssl.obj
 0001:0008d8a0       _read_string               1008e8a0 f   libeay32_EM_dbg.0.9.8e:ui_openssl.obj
 0001:0008da60       _read_string_inner         1008ea60 f   libeay32_EM_dbg.0.9.8e:ui_openssl.obj
 0001:0008dc30       _read_till_nl              1008ec30 f   libeay32_EM_dbg.0.9.8e:ui_openssl.obj
 0001:0008dc80       _open_console              1008ec80 f   libeay32_EM_dbg.0.9.8e:ui_openssl.obj
 0001:0008dd10       _echo_console              1008ed10 f   libeay32_EM_dbg.0.9.8e:ui_openssl.obj
 0001:0008dd10       _i2r_ocsp_nocheck          1008ed10 f   libeay32_EM_dbg.0.9.8e:ui_openssl.obj
 0001:0008dd10       _no_check                  1008ed10 f   libeay32_EM_dbg.0.9.8e:ui_openssl.obj
 0001:0008dd10       _null_init_key             1008ed10 f   libeay32_EM_dbg.0.9.8e:ui_openssl.obj
 0001:0008dd10       _noecho_console            1008ed10 f   libeay32_EM_dbg.0.9.8e:ui_openssl.obj
 0001:0008dd20       _close_console             1008ed20 f   libeay32_EM_dbg.0.9.8e:ui_openssl.obj
 0001:0008dd80       _pushsig                   1008ed80 f   libeay32_EM_dbg.0.9.8e:ui_openssl.obj
 0001:0008de10       _popsig                    1008ee10 f   libeay32_EM_dbg.0.9.8e:ui_openssl.obj
 0001:0008de80       _recsig                    1008ee80 f   libeay32_EM_dbg.0.9.8e:ui_openssl.obj
 0001:0008de90       _noecho_fgets              1008ee90 f   libeay32_EM_dbg.0.9.8e:ui_openssl.obj
 0001:0009bb20       _nist_cp_bn_0              1009cb20 f   libeay32_EM_dbg.0.9.8e:bn_nist.obj
 0001:0009bba0       _nist_cp_bn                1009cba0 f   libeay32_EM_dbg.0.9.8e:bn_nist.obj
 0001:0009cbb0       __init_256_data            1009dbb0 f   libeay32_EM_dbg.0.9.8e:bn_nist.obj
 0001:0009d8b0       __init_384_data            1009e8b0 f   libeay32_EM_dbg.0.9.8e:bn_nist.obj
 0001:0009db80       _win32_load                1009eb80 f   libeay32_EM_dbg.0.9.8e:dso_win32.obj
 0001:0009dce0       _win32_unload              1009ece0 f   libeay32_EM_dbg.0.9.8e:dso_win32.obj
 0001:0009ddc0       _win32_bind_var            1009edc0 f   libeay32_EM_dbg.0.9.8e:dso_win32.obj
 0001:0009ded0       _win32_bind_func           1009eed0 f   libeay32_EM_dbg.0.9.8e:dso_win32.obj
 0001:0009dfe0       _win32_merger              1009efe0 f   libeay32_EM_dbg.0.9.8e:dso_win32.obj
 0001:0009e260       _win32_splitter            1009f260 f   libeay32_EM_dbg.0.9.8e:dso_win32.obj
 0001:0009e5a0       _win32_joiner              1009f5a0 f   libeay32_EM_dbg.0.9.8e:dso_win32.obj
 0001:0009e960       _win32_name_converter      1009f960 f   libeay32_EM_dbg.0.9.8e:dso_win32.obj
 0001:0009ea80       _openssl_strnchr           1009fa80 f   libeay32_EM_dbg.0.9.8e:dso_win32.obj
 0001:000a0fc0       _SSL_SESSION_hash_LHASH_HASH 100a1fc0 f   ssleay32_EM_dbg.0.9.8e:ssl_lib.obj
 0001:000a0ff0       _SSL_SESSION_cmp_LHASH_COMP 100a1ff0 f   ssleay32_EM_dbg.0.9.8e:ssl_lib.obj
 0001:000a2260       _ssl_set_pkey              100a3260 f   ssleay32_EM_dbg.0.9.8e:ssl_rsa.obj
 0001:000a24d0       _ssl_set_cert              100a34d0 f   ssleay32_EM_dbg.0.9.8e:ssl_rsa.obj
 0001:000a29c0       _ssl3_get_method           100a39c0 f   ssleay32_EM_dbg.0.9.8e:s3_meth.obj
 0001:000a2d60       _load_builtin_compressions 100a3d60 f   ssleay32_EM_dbg.0.9.8e:ssl_ciph.obj
 0001:000a3340       _ssl_cipher_collect_ciphers 100a4340 f   ssleay32_EM_dbg.0.9.8e:ssl_ciph.obj
 0001:000a34c0       _ssl_cipher_collect_aliases 100a44c0 f   ssleay32_EM_dbg.0.9.8e:ssl_ciph.obj
 0001:000a3560       _ssl_cipher_process_rulestr 100a4560 f   ssleay32_EM_dbg.0.9.8e:ssl_ciph.obj
 0001:000a39f0       _ssl_cipher_apply_rule     100a49f0 f   ssleay32_EM_dbg.0.9.8e:ssl_ciph.obj
 0001:000a3c20       _ll_append_tail            100a4c20 f   ssleay32_EM_dbg.0.9.8e:ssl_ciph.obj
 0001:000a3ca0       _ssl_cipher_strength_sort  100a4ca0 f   ssleay32_EM_dbg.0.9.8e:ssl_ciph.obj
 0001:000a4310       _def_generate_session_id   100a5310 f   ssleay32_EM_dbg.0.9.8e:ssl_sess.obj
 0001:000a4970       _remove_session_lock       100a5970 f   ssleay32_EM_dbg.0.9.8e:ssl_sess.obj
 0001:000a4c10       _timeout_LHASH_DOALL_ARG   100a5c10 f   ssleay32_EM_dbg.0.9.8e:ssl_sess.obj
 0001:000a4c40       _timeout                   100a5c40 f   ssleay32_EM_dbg.0.9.8e:ssl_sess.obj
 0001:000a4d40       _SSL_SESSION_list_remove   100a5d40 f   ssleay32_EM_dbg.0.9.8e:ssl_sess.obj
 0001:000a4e50       _SSL_SESSION_list_add      100a5e50 f   ssleay32_EM_dbg.0.9.8e:ssl_sess.obj
 0001:000a7b10       _ssl3_read_internal        100a8b10 f   ssleay32_EM_dbg.0.9.8e:s3_lib.obj
 0001:000a8210       _do_ssl3_write             100a9210 f   ssleay32_EM_dbg.0.9.8e:s3_pkt.obj
 0001:000a9310       _ssl3_get_record           100aa310 f   ssleay32_EM_dbg.0.9.8e:s3_pkt.obj
 0001:000a9b70       _ssl3_get_client_method    100aab70 f   ssleay32_EM_dbg.0.9.8e:s3_clnt.obj
 0001:000aca90       _ca_dn_cmp                 100ada90 f   ssleay32_EM_dbg.0.9.8e:s3_clnt.obj
 0001:000addb0       _curve_id2nid              100aedb0 f   ssleay32_EM_dbg.0.9.8e:s3_clnt.obj
 0001:000addd0       _ssl3_get_server_method    100aedd0 f   ssleay32_EM_dbg.0.9.8e:s3_srvr.obj
 0001:000aea60       _time                      100afa60 f   ssleay32_EM_dbg.0.9.8e:s3_srvr.obj
 0001:000aea60       _time                      100afa60 f   ssleay32_EM_dbg.0.9.8e:s3_srvr.obj
 0001:000aea60       _time                      100afa60 f   ssleay32_EM_dbg.0.9.8e:s3_srvr.obj
 0001:000aea60       _time                      100afa60 f   ssleay32_EM_dbg.0.9.8e:s3_srvr.obj
 0001:000aea60       _time                      100afa60 f   ssleay32_EM_dbg.0.9.8e:s3_srvr.obj
 0001:000aea60       _time                      100afa60 f   ssleay32_EM_dbg.0.9.8e:s3_srvr.obj
 0001:000b1d70       _nid2curve_id              100b2d70 f   ssleay32_EM_dbg.0.9.8e:s3_srvr.obj
 0001:000b27c0       _ssl3_generate_key_block   100b37c0 f   ssleay32_EM_dbg.0.9.8e:s3_enc.obj
 0001:000b2d70       _ssl3_handshake_mac        100b3d70 f   ssleay32_EM_dbg.0.9.8e:s3_enc.obj
 0001:000b36d0       ?ArrayUnwindFilter@@YAHPAU_EXCEPTION_POINTERS@@@Z 100b46d0 f   MSVCRTD:ehvecdtr.obj
 0001:000b37c0       _pre_c_init                100b47c0 f   MSVCRTD:crtdll.obj
 0001:000b3ac0       ___DllMainCRTStartup       100b4ac0 f   MSVCRTD:crtdll.obj
 0001:000b4570       _has_osfxsr_set            100b5570 f   MSVCRTD:cpu_disp.obj
 0001:000b4810       _null_cipher               100b5810 f   libeay32_EM_dbg.0.9.8e:e_null.obj
 0001:000b4a90       _ecdh_data_new             100b5a90 f   libeay32_EM_dbg.0.9.8e:ech_lib.obj
 0001:000b4aa0       _ECDH_DATA_new_method      100b5aa0 f   libeay32_EM_dbg.0.9.8e:ech_lib.obj
 0001:000b4bb0       _ecdh_data_dup             100b5bb0 f   libeay32_EM_dbg.0.9.8e:ech_lib.obj
 0001:000b4be0       _ecdh_data_free            100b5be0 f   libeay32_EM_dbg.0.9.8e:ech_lib.obj
 0001:000b4c50       _ecdh_compute_key          100b5c50 f   libeay32_EM_dbg.0.9.8e:ech_ossl.obj
 0001:000b5000       __unwindfunclet$??0CSSL_parms@@QAE@ABU0@@Z$0 100b6000 f    CIL library: CIL module
 0001:000b500c       __unwindfunclet$??0CSSL_parms@@QAE@ABU0@@Z$1 100b600c f    CIL library: CIL module
 0001:000b5018       __unwindfunclet$??0CSSL_parms@@QAE@ABU0@@Z$2 100b6018 f    CIL library: CIL module
 0001:000b5024       __unwindfunclet$??0CSSL_parms@@QAE@ABU0@@Z$3 100b6024 f    CIL library: CIL module
 0001:000b5030       __ehhandler$??0CSSL_parms@@QAE@ABU0@@Z 100b6030 f    CIL library: CIL module
 0001:000b5050       __unwindfunclet$?formCadena@CConfigFile@@AAE_NV?$basic_string@DU?$char_traits@D@std@@V?$allocator@D@2@@std@@PAV23@@Z$0 100b6050 f    CIL library: CIL module
 0001:000b5059       __ehhandler$?formCadena@CConfigFile@@AAE_NV?$basic_string@DU?$char_traits@D@std@@V?$allocator@D@2@@std@@PAV23@@Z 100b6059 f    CIL library: CIL module
 0001:000b5090       __unwindfunclet$??0logic_error@std@@QAE@ABV01@@Z$0 100b6090 f    CIL library: CIL module
 0001:000b5099       __ehhandler$??0logic_error@std@@QAE@ABV01@@Z 100b6099 f    CIL library: CIL module
 0001:000b50c0       __unwindfunclet$??1sentry@?$basic_ostream@DU?$char_traits@D@std@@@std@@QAE@XZ$0 100b60c0 f    CIL library: CIL module
 0001:000b50c8       __ehhandler$??1sentry@?$basic_ostream@DU?$char_traits@D@std@@@std@@QAE@XZ 100b60c8 f    CIL library: CIL module
 0001:000b50f0       __unwindfunclet$??0sentry@?$basic_ostream@DU?$char_traits@D@std@@@std@@QAE@AAV12@@Z$0 100b60f0 f    CIL library: CIL module
 0001:000b50f8       __ehhandler$??0sentry@?$basic_ostream@DU?$char_traits@D@std@@@std@@QAE@AAV12@@Z 100b60f8 f    CIL library: CIL module
 0001:000b5120       __unwindfunclet$??1?$pair@$$CBV?$basic_string@DU?$char_traits@D@std@@V?$allocator@D@2@@std@@V12@@std@@QAE@XZ$0 100b6120 f    CIL library: CIL module
 0001:000b5129       __ehhandler$??1?$pair@$$CBV?$basic_string@DU?$char_traits@D@std@@V?$allocator@D@2@@std@@V12@@std@@QAE@XZ 100b6129 f    CIL library: CIL module
 0001:000b5150       __unwindfunclet$??1CSSL_parms@@QAE@XZ$0 100b6150 f    CIL library: CIL module
 0001:000b515c       __unwindfunclet$??1CSSL_parms@@QAE@XZ$1 100b615c f    CIL library: CIL module
 0001:000b5168       __unwindfunclet$??1CSSL_parms@@QAE@XZ$2 100b6168 f    CIL library: CIL module
 0001:000b5174       __unwindfunclet$??1CSSL_parms@@QAE@XZ$3 100b6174 f    CIL library: CIL module
 0001:000b5180       __ehhandler$??1CSSL_parms@@QAE@XZ 100b6180 f    CIL library: CIL module
 0001:000b51a0       __unwindfunclet$?_Adopt@_Iterator_base@std@@QAEXPBV_Container_base@2@@Z$0 100b61a0 f    CIL library: CIL module
 0001:000b51a9       __ehhandler$?_Adopt@_Iterator_base@std@@QAEXPBV_Container_base@2@@Z 100b61a9 f    CIL library: CIL module
 0001:000b51d0       __unwindfunclet$??1_Iterator_base@std@@QAE@XZ$0 100b61d0 f    CIL library: CIL module
 0001:000b51d9       __ehhandler$??1_Iterator_base@std@@QAE@XZ 100b61d9 f    CIL library: CIL module
 0001:000b5200       __unwindfunclet$??4_Iterator_base@std@@QAEAAV01@ABV01@@Z$0 100b6200 f    CIL library: CIL module
 0001:000b5209       __ehhandler$??4_Iterator_base@std@@QAEAAV01@ABV01@@Z 100b6209 f    CIL library: CIL module
 0001:000b5230       __unwindfunclet$?Set_CTX@Sgi_SSL@@CAIAAPAUssl_ctx_st@@_NUCSSL_parms@@@Z$0 100b6230 f    CIL library: CIL module
 0001:000b523a       __ehhandler$?Set_CTX@Sgi_SSL@@CAIAAPAUssl_ctx_st@@_NUCSSL_parms@@@Z 100b623a f    CIL library: CIL module
 0001:000b5260       __unwindfunclet$??0CSSL_parms@@QAE@XZ$0 100b6260 f    CIL library: CIL module
 0001:000b526c       __unwindfunclet$??0CSSL_parms@@QAE@XZ$1 100b626c f    CIL library: CIL module
 0001:000b5278       __unwindfunclet$??0CSSL_parms@@QAE@XZ$2 100b6278 f    CIL library: CIL module
 0001:000b5284       __unwindfunclet$??0CSSL_parms@@QAE@XZ$3 100b6284 f    CIL library: CIL module
 0001:000b5290       __ehhandler$??0CSSL_parms@@QAE@XZ 100b6290 f    CIL library: CIL module
 0001:000b52b0       __unwindfunclet$??0Mensajes@@QAE@XZ$0 100b62b0 f    CIL library: CIL module
 0001:000b52bb       __unwindfunclet$??0Mensajes@@QAE@XZ$1 100b62bb f    CIL library: CIL module
 0001:000b52c6       __unwindfunclet$??0Mensajes@@QAE@XZ$2 100b62c6 f    CIL library: CIL module
 0001:000b52d4       __ehhandler$??0Mensajes@@QAE@XZ 100b62d4 f    CIL library: CIL module
 0001:000b52f0       __unwindfunclet$??0_Node@?$_Tree_nod@V?$_Tmap_traits@V?$basic_string@DU?$char_traits@D@std@@V?$allocator@D@2@@std@@V12@U?$less@V?$basic_string@DU?$char_traits@D@std@@V?$allocator@D@2@@std@@@2@V?$allocator@U?$pair@$$CBV?$basic_string@DU?$char_traits@D@std@@V?$allocator@D@2@@std@@V12@@std@@@2@$00@std@@@std@@QAE@PAU012@00ABU?$pair@$$CBV?$basic_string@DU?$char_traits@D@std@@V?$allocator@D@2@@std@@V12@@2@D@Z$1 100b62f0 f    CIL library: CIL module
 0001:000b52f9       __ehhandler$??0_Node@?$_Tree_nod@V?$_Tmap_traits@V?$basic_string@DU?$char_traits@D@std@@V?$allocator@D@2@@std@@V12@U?$less@V?$basic_string@DU?$char_traits@D@std@@V?$allocator@D@2@@std@@@2@V?$allocator@U?$pair@$$CBV?$basic_string@DU?$char_traits@D@std@@V?$allocator@D@2@@std@@V12@@std@@@2@$00@std@@@std@@QAE@PAU012@00ABU?$pair@$$CBV?$basic_string@DU?$char_traits@D@std@@V?$allocator@D@2@@std@@V12@@2@D@Z 100b62f9 f    CIL library: CIL module
 0001:000b5320       __unwindfunclet$?_Buynode@?$_Tree@V?$_Tmap_traits@V?$basic_string@DU?$char_traits@D@std@@V?$allocator@D@2@@std@@V12@U?$less@V?$basic_string@DU?$char_traits@D@std@@V?$allocator@D@2@@std@@@2@V?$allocator@U?$pair@$$CBV?$basic_string@DU?$char_traits@D@std@@V?$allocator@D@2@@std@@V12@@std@@@2@$00@std@@@std@@IAEPAU_Node@?$_Tree_nod@V?$_Tmap_traits@V?$basic_string@DU?$char_traits@D@std@@V?$allocator@D@2@@std@@V12@U?$less@V?$basic_string@DU?$char_traits@D@std@@V?$allocator@D@2@@std@@@2@V?$allocator@U?$pair@$$CBV?$basic_string@DU?$char_traits@D@std@@V?$allocator@D@2@@std@@V12@@std@@@2@$00@std@@@2@PAU342@00ABU?$pair@$$CBV?$basic_string@DU?$char_traits@D@std@@V?$allocator@D@2@@std@@V12@@2@D@Z$2 100b6320 f    CIL library: CIL module
 0001:000b5325       __ehhandler$?_Buynode@?$_Tree@V?$_Tmap_traits@V?$basic_string@DU?$char_traits@D@std@@V?$allocator@D@2@@std@@V12@U?$less@V?$basic_string@DU?$char_traits@D@std@@V?$allocator@D@2@@std@@@2@V?$allocator@U?$pair@$$CBV?$basic_string@DU?$char_traits@D@std@@V?$allocator@D@2@@std@@V12@@std@@@2@$00@std@@@std@@IAEPAU_Node@?$_Tree_nod@V?$_Tmap_traits@V?$basic_string@DU?$char_traits@D@std@@V?$allocator@D@2@@std@@V12@U?$less@V?$basic_string@DU?$char_traits@D@std@@V?$allocator@D@2@@std@@@2@V?$allocator@U?$pair@$$CBV?$basic_string@DU?$char_traits@D@std@@V?$allocator@D@2@@std@@V12@@std@@@2@$00@std@@@2@PAU342@00ABU?$pair@$$CBV?$basic_string@DU?$char_traits@D@std@@V?$allocator@D@2@@std@@V12@@2@D@Z 100b6325 f    CIL library: CIL module
 0001:000b5340       __unwindfunclet$??$?6U?$char_traits@D@std@@@std@@YAAAV?$basic_ostream@DU?$char_traits@D@std@@@0@AAV10@PBD@Z$2 100b6340 f    CIL library: CIL module
 0001:000b534a       __unwindfunclet$??$?6U?$char_traits@D@std@@@std@@YAAAV?$basic_ostream@DU?$char_traits@D@std@@@0@AAV10@PBD@Z$3 100b634a f    CIL library: CIL module
 0001:000b5352       __ehhandler$??$?6U?$char_traits@D@std@@@std@@YAAAV?$basic_ostream@DU?$char_traits@D@std@@@0@AAV10@PBD@Z 100b6352 f    CIL library: CIL module
 0001:000b5370       __unwindfunclet$?escribe@CBitacora@@QAEXW4BIT_NIVEL@@PBD@Z$0 100b6370 f    CIL library: CIL module
 0001:000b537c       __ehhandler$?escribe@CBitacora@@QAEXW4BIT_NIVEL@@PBD@Z 100b637c f    CIL library: CIL module
 0001:000b53b0       __unwindfunclet$??0CBitacora@@QAE@V?$basic_string@DU?$char_traits@D@std@@V?$allocator@D@2@@std@@@Z$0 100b63b0 f    CIL library: CIL module
 0001:000b53b9       __unwindfunclet$??0CBitacora@@QAE@V?$basic_string@DU?$char_traits@D@std@@V?$allocator@D@2@@std@@@Z$1 100b63b9 f    CIL library: CIL module
 0001:000b53c2       __ehhandler$??0CBitacora@@QAE@V?$basic_string@DU?$char_traits@D@std@@V?$allocator@D@2@@std@@@Z 100b63c2 f    CIL library: CIL module
 0001:000b53e0       __unwindfunclet$?Lee@CArchivo@@UAEIPBD@Z$0 100b63e0 f    CIL library: CIL module
 0001:000b53ec       __ehhandler$?Lee@CArchivo@@UAEIPBD@Z 100b63ec f    CIL library: CIL module
 0001:000b5410       __unwindfunclet$?_Erase@?$_Tree@V?$_Tmap_traits@V?$basic_string@DU?$char_traits@D@std@@V?$allocator@D@2@@std@@V12@U?$less@V?$basic_string@DU?$char_traits@D@std@@V?$allocator@D@2@@std@@@2@V?$allocator@U?$pair@$$CBV?$basic_string@DU?$char_traits@D@std@@V?$allocator@D@2@@std@@V12@@std@@@2@$00@std@@@std@@IAEXPAU_Node@?$_Tree_nod@V?$_Tmap_traits@V?$basic_string@DU?$char_traits@D@std@@V?$allocator@D@2@@std@@V12@U?$less@V?$basic_string@DU?$char_traits@D@std@@V?$allocator@D@2@@std@@@2@V?$allocator@U?$pair@$$CBV?$basic_string@DU?$char_traits@D@std@@V?$allocator@D@2@@std@@V12@@std@@@2@$00@std@@@2@@Z$1 100b6410 f    CIL library: CIL module
 0001:000b5419       __ehhandler$?_Erase@?$_Tree@V?$_Tmap_traits@V?$basic_string@DU?$char_traits@D@std@@V?$allocator@D@2@@std@@V12@U?$less@V?$basic_string@DU?$char_traits@D@std@@V?$allocator@D@2@@std@@@2@V?$allocator@U?$pair@$$CBV?$basic_string@DU?$char_traits@D@std@@V?$allocator@D@2@@std@@V12@@std@@@2@$00@std@@@std@@IAEXPAU_Node@?$_Tree_nod@V?$_Tmap_traits@V?$basic_string@DU?$char_traits@D@std@@V?$allocator@D@2@@std@@V12@U?$less@V?$basic_string@DU?$char_traits@D@std@@V?$allocator@D@2@@std@@@2@V?$allocator@U?$pair@$$CBV?$basic_string@DU?$char_traits@D@std@@V?$allocator@D@2@@std@@V12@@std@@@2@$00@std@@@2@@Z 100b6419 f    CIL library: CIL module
 0001:000b5440       __unwindfunclet$?Crea_Bitacora@CSgiARA@@IAEPAVCBitacora@@PBD@Z$0 100b6440 f    CIL library: CIL module
 0001:000b544b       __ehhandler$?Crea_Bitacora@CSgiARA@@IAEPAVCBitacora@@PBD@Z 100b644b f    CIL library: CIL module
 0001:000b5470       __unwindfunclet$??1Mensajes@@QAE@XZ$0 100b6470 f    CIL library: CIL module
 0001:000b547b       __unwindfunclet$??1Mensajes@@QAE@XZ$1 100b647b f    CIL library: CIL module
 0001:000b5486       __unwindfunclet$??1Mensajes@@QAE@XZ$2 100b6486 f    CIL library: CIL module
 0001:000b5494       __ehhandler$??1Mensajes@@QAE@XZ 100b6494 f    CIL library: CIL module
 0001:000b54b0       __unwindfunclet$?new_SgiCripto@SgiCripto@@YAPAXXZ$0 100b64b0 f    CIL library: CIL module
 0001:000b54bb       __ehhandler$?new_SgiCripto@SgiCripto@@YAPAXXZ 100b64bb f    CIL library: CIL module
 0001:000b54e0       __unwindfunclet$??1CSgi_Certificado@SgiCripto@@QAE@XZ$0 100b64e0 f    CIL library: CIL module
 0001:000b54e8       __unwindfunclet$??1CSgi_Certificado@SgiCripto@@QAE@XZ$1 100b64e8 f    CIL library: CIL module
 0001:000b54f4       __unwindfunclet$??1CSgi_Certificado@SgiCripto@@QAE@XZ$2 100b64f4 f    CIL library: CIL module
 0001:000b5500       __unwindfunclet$??1CSgi_Certificado@SgiCripto@@QAE@XZ$3 100b6500 f    CIL library: CIL module
 0001:000b550c       __unwindfunclet$??1CSgi_Certificado@SgiCripto@@QAE@XZ$4 100b650c f    CIL library: CIL module
 0001:000b5518       __ehhandler$??1CSgi_Certificado@SgiCripto@@QAE@XZ 100b6518 f    CIL library: CIL module
 0001:000b5540       __unwindfunclet$??0CSgi_Certificado@SgiCripto@@QAE@XZ$0 100b6540 f    CIL library: CIL module
 0001:000b5548       __unwindfunclet$??0CSgi_Certificado@SgiCripto@@QAE@XZ$1 100b6548 f    CIL library: CIL module
 0001:000b5554       __unwindfunclet$??0CSgi_Certificado@SgiCripto@@QAE@XZ$2 100b6554 f    CIL library: CIL module
 0001:000b5560       __unwindfunclet$??0CSgi_Certificado@SgiCripto@@QAE@XZ$3 100b6560 f    CIL library: CIL module
 0001:000b556c       __unwindfunclet$??0CSgi_Certificado@SgiCripto@@QAE@XZ$4 100b656c f    CIL library: CIL module
 0001:000b5578       __ehhandler$??0CSgi_Certificado@SgiCripto@@QAE@XZ 100b6578 f    CIL library: CIL module
 0001:000b55a0       __unwindfunclet$?Inicia@MensajesARA@@QAEHPBD@Z$0 100b65a0 f    CIL library: CIL module
 0001:000b55ab       __unwindfunclet$?Inicia@MensajesARA@@QAEHPBD@Z$1 100b65ab f    CIL library: CIL module
 0001:000b55b6       __ehhandler$?Inicia@MensajesARA@@QAEHPBD@Z 100b65b6 f    CIL library: CIL module
 0001:000b55f0       __unwindfunclet$??0?$_Tree@V?$_Tmap_traits@V?$basic_string@DU?$char_traits@D@std@@V?$allocator@D@2@@std@@V12@U?$less@V?$basic_string@DU?$char_traits@D@std@@V?$allocator@D@2@@std@@@2@V?$allocator@U?$pair@$$CBV?$basic_string@DU?$char_traits@D@std@@V?$allocator@D@2@@std@@V12@@std@@@2@$00@std@@@std@@QAE@ABU?$less@V?$basic_string@DU?$char_traits@D@std@@V?$allocator@D@2@@std@@@1@ABV?$allocator@U?$pair@$$CBV?$basic_string@DU?$char_traits@D@std@@V?$allocator@D@2@@std@@V12@@std@@@1@@Z$0 100b65f0 f    CIL library: CIL module
 0001:000b55f8       __ehhandler$??0?$_Tree@V?$_Tmap_traits@V?$basic_string@DU?$char_traits@D@std@@V?$allocator@D@2@@std@@V12@U?$less@V?$basic_string@DU?$char_traits@D@std@@V?$allocator@D@2@@std@@@2@V?$allocator@U?$pair@$$CBV?$basic_string@DU?$char_traits@D@std@@V?$allocator@D@2@@std@@V12@@std@@@2@$00@std@@@std@@QAE@ABU?$less@V?$basic_string@DU?$char_traits@D@std@@V?$allocator@D@2@@std@@@1@ABV?$allocator@U?$pair@$$CBV?$basic_string@DU?$char_traits@D@std@@V?$allocator@D@2@@std@@V12@@std@@@1@@Z 100b65f8 f    CIL library: CIL module
 0001:000b5620       __unwindfunclet$?end@?$_Tree@V?$_Tmap_traits@V?$basic_string@DU?$char_traits@D@std@@V?$allocator@D@2@@std@@V12@U?$less@V?$basic_string@DU?$char_traits@D@std@@V?$allocator@D@2@@std@@@2@V?$allocator@U?$pair@$$CBV?$basic_string@DU?$char_traits@D@std@@V?$allocator@D@2@@std@@V12@@std@@@2@$00@std@@@std@@QAE?AViterator@12@XZ$2 100b6620 f    CIL library: CIL module
 0001:000b5628       __ehhandler$?end@?$_Tree@V?$_Tmap_traits@V?$basic_string@DU?$char_traits@D@std@@V?$allocator@D@2@@std@@V12@U?$less@V?$basic_string@DU?$char_traits@D@std@@V?$allocator@D@2@@std@@@2@V?$allocator@U?$pair@$$CBV?$basic_string@DU?$char_traits@D@std@@V?$allocator@D@2@@std@@V12@@std@@@2@$00@std@@@std@@QAE?AViterator@12@XZ 100b6628 f    CIL library: CIL module
 0001:000b5650       __unwindfunclet$?begin@?$_Tree@V?$_Tmap_traits@V?$basic_string@DU?$char_traits@D@std@@V?$allocator@D@2@@std@@V12@U?$less@V?$basic_string@DU?$char_traits@D@std@@V?$allocator@D@2@@std@@@2@V?$allocator@U?$pair@$$CBV?$basic_string@DU?$char_traits@D@std@@V?$allocator@D@2@@std@@V12@@std@@@2@$00@std@@@std@@QAE?AViterator@12@XZ$2 100b6650 f    CIL library: CIL module
 0001:000b5658       __ehhandler$?begin@?$_Tree@V?$_Tmap_traits@V?$basic_string@DU?$char_traits@D@std@@V?$allocator@D@2@@std@@V12@U?$less@V?$basic_string@DU?$char_traits@D@std@@V?$allocator@D@2@@std@@@2@V?$allocator@U?$pair@$$CBV?$basic_string@DU?$char_traits@D@std@@V?$allocator@D@2@@std@@V12@@std@@@2@$00@std@@@std@@QAE?AViterator@12@XZ 100b6658 f    CIL library: CIL module
 0001:000b5680       __unwindfunclet$?RegErrorBitTxt@CSgiARA@@IAEXPBDHH@Z$0 100b6680 f    CIL library: CIL module
 0001:000b5689       __unwindfunclet$?RegErrorBitTxt@CSgiARA@@IAEXPBDHH@Z$1 100b6689 f    CIL library: CIL module
 0001:000b5692       __ehhandler$?RegErrorBitTxt@CSgiARA@@IAEXPBDHH@Z 100b6692 f    CIL library: CIL module
 0001:000b56b0       __unwindfunclet$??0CSgiARA@@QAE@PBD@Z$0 100b66b0 f    CIL library: CIL module
 0001:000b56b9       __unwindfunclet$??0CSgiARA@@QAE@PBD@Z$1 100b66b9 f    CIL library: CIL module
 0001:000b56c5       __unwindfunclet$??0CSgiARA@@QAE@PBD@Z$2 100b66c5 f    CIL library: CIL module
 0001:000b56d1       __unwindfunclet$??0CSgiARA@@QAE@PBD@Z$3 100b66d1 f    CIL library: CIL module
 0001:000b56dd       __unwindfunclet$??0CSgiARA@@QAE@PBD@Z$4 100b66dd f    CIL library: CIL module
 0001:000b56ec       __unwindfunclet$??0CSgiARA@@QAE@PBD@Z$5 100b66ec f    CIL library: CIL module
 0001:000b56fb       __unwindfunclet$??0CSgiARA@@QAE@PBD@Z$6 100b66fb f    CIL library: CIL module
 0001:000b5708       __unwindfunclet$??0CSgiARA@@QAE@PBD@Z$7 100b6708 f    CIL library: CIL module
 0001:000b5711       __unwindfunclet$??0CSgiARA@@QAE@PBD@Z$8 100b6711 f    CIL library: CIL module
 0001:000b571a       __unwindfunclet$??0CSgiARA@@QAE@PBD@Z$9 100b671a f    CIL library: CIL module
 0001:000b5723       __ehhandler$??0CSgiARA@@QAE@PBD@Z 100b6723 f    CIL library: CIL module
 0001:000b5740       __unwindfunclet$?new_SgiCertificado@SgiCripto@@YAPAXXZ$0 100b6740 f    CIL library: CIL module
 0001:000b574b       __ehhandler$?new_SgiCertificado@SgiCripto@@YAPAXXZ 100b674b f    CIL library: CIL module
 0001:000b5770       __unwindfunclet$?generaFirma@CSgi_Cripto@SgiCripto@@QAE?AW4tError@2@PBD00HPAV?$basic_string@DU?$char_traits@D@std@@V?$allocator@D@2@@std@@@Z$0 100b6770 f    CIL library: CIL module
 0001:000b577b       __ehhandler$?generaFirma@CSgi_Cripto@SgiCripto@@QAE?AW4tError@2@PBD00HPAV?$basic_string@DU?$char_traits@D@std@@V?$allocator@D@2@@std@@@Z 100b677b f    CIL library: CIL module
 0001:000b57b0       __unwindfunclet$?procesa@CSgi_Certificado@SgiCripto@@IAE?AW4tError@2@PBEH@Z$0 100b67b0 f    CIL library: CIL module
 0001:000b57bb       __unwindfunclet$?procesa@CSgi_Certificado@SgiCripto@@IAE?AW4tError@2@PBEH@Z$1 100b67bb f    CIL library: CIL module
 0001:000b57d1       __ehhandler$?procesa@CSgi_Certificado@SgiCripto@@IAE?AW4tError@2@PBEH@Z 100b67d1 f    CIL library: CIL module
 0001:000b5800       __unwindfunclet$?GenPKCS7@SGIPKCS7@@QAEIPAD000HQAUcertificados_st@@HPAE0H@Z$0 100b6800 f    CIL library: CIL module
 0001:000b580b       __unwindfunclet$?GenPKCS7@SGIPKCS7@@QAEIPAD000HQAUcertificados_st@@HPAE0H@Z$1 100b680b f    CIL library: CIL module
 0001:000b5816       __ehhandler$?GenPKCS7@SGIPKCS7@@QAEIPAD000HQAUcertificados_st@@HPAE0H@Z 100b6816 f    CIL library: CIL module
 0001:000b5850       __unwindfunclet$?ConectaCliente@MensajesARA@@QAEIPAVCSSL_Skt@@@Z$0 100b6850 f    CIL library: CIL module
 0001:000b585b       __unwindfunclet$?ConectaCliente@MensajesARA@@QAEIPAVCSSL_Skt@@@Z$1 100b685b f    CIL library: CIL module
 0001:000b5866       __ehhandler$?ConectaCliente@MensajesARA@@QAEIPAVCSSL_Skt@@@Z 100b6866 f    CIL library: CIL module
 0001:000b58a0       __unwindfunclet$?_Insert@?$_Tree@V?$_Tmap_traits@V?$basic_string@DU?$char_traits@D@std@@V?$allocator@D@2@@std@@V12@U?$less@V?$basic_string@DU?$char_traits@D@std@@V?$allocator@D@2@@std@@@2@V?$allocator@U?$pair@$$CBV?$basic_string@DU?$char_traits@D@std@@V?$allocator@D@2@@std@@V12@@std@@@2@$00@std@@@std@@IAE?AViterator@12@_NPAU_Node@?$_Tree_nod@V?$_Tmap_traits@V?$basic_string@DU?$char_traits@D@std@@V?$allocator@D@2@@std@@V12@U?$less@V?$basic_string@DU?$char_traits@D@std@@V?$allocator@D@2@@std@@@2@V?$allocator@U?$pair@$$CBV?$basic_string@DU?$char_traits@D@std@@V?$allocator@D@2@@std@@V12@@std@@@2@$00@std@@@2@ABU?$pair@$$CBV?$basic_string@DU?$char_traits@D@std@@V?$allocator@D@2@@std@@V12@@2@@Z$0 100b68a0 f    CIL library: CIL module
 0001:000b58a9       __unwindfunclet$?_Insert@?$_Tree@V?$_Tmap_traits@V?$basic_string@DU?$char_traits@D@std@@V?$allocator@D@2@@std@@V12@U?$less@V?$basic_string@DU?$char_traits@D@std@@V?$allocator@D@2@@std@@@2@V?$allocator@U?$pair@$$CBV?$basic_string@DU?$char_traits@D@std@@V?$allocator@D@2@@std@@V12@@std@@@2@$00@std@@@std@@IAE?AViterator@12@_NPAU_Node@?$_Tree_nod@V?$_Tmap_traits@V?$basic_string@DU?$char_traits@D@std@@V?$allocator@D@2@@std@@V12@U?$less@V?$basic_string@DU?$char_traits@D@std@@V?$allocator@D@2@@std@@@2@V?$allocator@U?$pair@$$CBV?$basic_string@DU?$char_traits@D@std@@V?$allocator@D@2@@std@@V12@@std@@@2@$00@std@@@2@ABU?$pair@$$CBV?$basic_string@DU?$char_traits@D@std@@V?$allocator@D@2@@std@@V12@@2@@Z$3 100b68a9 f    CIL library: CIL module
 0001:000b58b2       __unwindfunclet$?_Insert@?$_Tree@V?$_Tmap_traits@V?$basic_string@DU?$char_traits@D@std@@V?$allocator@D@2@@std@@V12@U?$less@V?$basic_string@DU?$char_traits@D@std@@V?$allocator@D@2@@std@@@2@V?$allocator@U?$pair@$$CBV?$basic_string@DU?$char_traits@D@std@@V?$allocator@D@2@@std@@V12@@std@@@2@$00@std@@@std@@IAE?AViterator@12@_NPAU_Node@?$_Tree_nod@V?$_Tmap_traits@V?$basic_string@DU?$char_traits@D@std@@V?$allocator@D@2@@std@@V12@U?$less@V?$basic_string@DU?$char_traits@D@std@@V?$allocator@D@2@@std@@@2@V?$allocator@U?$pair@$$CBV?$basic_string@DU?$char_traits@D@std@@V?$allocator@D@2@@std@@V12@@std@@@2@$00@std@@@2@ABU?$pair@$$CBV?$basic_string@DU?$char_traits@D@std@@V?$allocator@D@2@@std@@V12@@2@@Z$6 100b68b2 f    CIL library: CIL module
 0001:000b58ba       __ehhandler$?_Insert@?$_Tree@V?$_Tmap_traits@V?$basic_string@DU?$char_traits@D@std@@V?$allocator@D@2@@std@@V12@U?$less@V?$basic_string@DU?$char_traits@D@std@@V?$allocator@D@2@@std@@@2@V?$allocator@U?$pair@$$CBV?$basic_string@DU?$char_traits@D@std@@V?$allocator@D@2@@std@@V12@@std@@@2@$00@std@@@std@@IAE?AViterator@12@_NPAU_Node@?$_Tree_nod@V?$_Tmap_traits@V?$basic_string@DU?$char_traits@D@std@@V?$allocator@D@2@@std@@V12@U?$less@V?$basic_string@DU?$char_traits@D@std@@V?$allocator@D@2@@std@@@2@V?$allocator@U?$pair@$$CBV?$basic_string@DU?$char_traits@D@std@@V?$allocator@D@2@@std@@V12@@std@@@2@$00@std@@@2@ABU?$pair@$$CBV?$basic_string@DU?$char_traits@D@std@@V?$allocator@D@2@@std@@V12@@2@@Z 100b68ba f    CIL library: CIL module
 0001:000b58e0       __unwindfunclet$?lower_bound@?$_Tree@V?$_Tmap_traits@V?$basic_string@DU?$char_traits@D@std@@V?$allocator@D@2@@std@@V12@U?$less@V?$basic_string@DU?$char_traits@D@std@@V?$allocator@D@2@@std@@@2@V?$allocator@U?$pair@$$CBV?$basic_string@DU?$char_traits@D@std@@V?$allocator@D@2@@std@@V12@@std@@@2@$00@std@@@std@@QAE?AViterator@12@ABV?$basic_string@DU?$char_traits@D@std@@V?$allocator@D@2@@2@@Z$2 100b68e0 f    CIL library: CIL module
 0001:000b58e8       __ehhandler$?lower_bound@?$_Tree@V?$_Tmap_traits@V?$basic_string@DU?$char_traits@D@std@@V?$allocator@D@2@@std@@V12@U?$less@V?$basic_string@DU?$char_traits@D@std@@V?$allocator@D@2@@std@@@2@V?$allocator@U?$pair@$$CBV?$basic_string@DU?$char_traits@D@std@@V?$allocator@D@2@@std@@V12@@std@@@2@$00@std@@@std@@QAE?AViterator@12@ABV?$basic_string@DU?$char_traits@D@std@@V?$allocator@D@2@@2@@Z 100b68e8 f    CIL library: CIL module
 0001:000b5910       __unwindfunclet$?insert@?$_Tree@V?$_Tmap_traits@V?$basic_string@DU?$char_traits@D@std@@V?$allocator@D@2@@std@@V12@U?$less@V?$basic_string@DU?$char_traits@D@std@@V?$allocator@D@2@@std@@@2@V?$allocator@U?$pair@$$CBV?$basic_string@DU?$char_traits@D@std@@V?$allocator@D@2@@std@@V12@@std@@@2@$00@std@@@std@@QAE?AU?$pair@Viterator@?$_Tree@V?$_Tmap_traits@V?$basic_string@DU?$char_traits@D@std@@V?$allocator@D@2@@std@@V12@U?$less@V?$basic_string@DU?$char_traits@D@std@@V?$allocator@D@2@@std@@@2@V?$allocator@U?$pair@$$CBV?$basic_string@DU?$char_traits@D@std@@V?$allocator@D@2@@std@@V12@@std@@@2@$00@std@@@std@@_N@2@ABU?$pair@$$CBV?$basic_string@DU?$char_traits@D@std@@V?$allocator@D@2@@std@@V12@@2@@Z$0 100b6910 f    CIL library: CIL module
 0001:000b5918       __unwindfunclet$?insert@?$_Tree@V?$_Tmap_traits@V?$basic_string@DU?$char_traits@D@std@@V?$allocator@D@2@@std@@V12@U?$less@V?$basic_string@DU?$char_traits@D@std@@V?$allocator@D@2@@std@@@2@V?$allocator@U?$pair@$$CBV?$basic_string@DU?$char_traits@D@std@@V?$allocator@D@2@@std@@V12@@std@@@2@$00@std@@@std@@QAE?AU?$pair@Viterator@?$_Tree@V?$_Tmap_traits@V?$basic_string@DU?$char_traits@D@std@@V?$allocator@D@2@@std@@V12@U?$less@V?$basic_string@DU?$char_traits@D@std@@V?$allocator@D@2@@std@@@2@V?$allocator@U?$pair@$$CBV?$basic_string@DU?$char_traits@D@std@@V?$allocator@D@2@@std@@V12@@std@@@2@$00@std@@@std@@_N@2@ABU?$pair@$$CBV?$basic_string@DU?$char_traits@D@std@@V?$allocator@D@2@@std@@V12@@2@@Z$1 100b6918 f    CIL library: CIL module
 0001:000b5931       __unwindfunclet$?insert@?$_Tree@V?$_Tmap_traits@V?$basic_string@DU?$char_traits@D@std@@V?$allocator@D@2@@std@@V12@U?$less@V?$basic_string@DU?$char_traits@D@std@@V?$allocator@D@2@@std@@@2@V?$allocator@U?$pair@$$CBV?$basic_string@DU?$char_traits@D@std@@V?$allocator@D@2@@std@@V12@@std@@@2@$00@std@@@std@@QAE?AU?$pair@Viterator@?$_Tree@V?$_Tmap_traits@V?$basic_string@DU?$char_traits@D@std@@V?$allocator@D@2@@std@@V12@U?$less@V?$basic_string@DU?$char_traits@D@std@@V?$allocator@D@2@@std@@@2@V?$allocator@U?$pair@$$CBV?$basic_string@DU?$char_traits@D@std@@V?$allocator@D@2@@std@@V12@@std@@@2@$00@std@@@std@@_N@2@ABU?$pair@$$CBV?$basic_string@DU?$char_traits@D@std@@V?$allocator@D@2@@std@@V12@@2@@Z$13 100b6931 f    CIL library: CIL module
 0001:000b593a       __ehhandler$?insert@?$_Tree@V?$_Tmap_traits@V?$basic_string@DU?$char_traits@D@std@@V?$allocator@D@2@@std@@V12@U?$less@V?$basic_string@DU?$char_traits@D@std@@V?$allocator@D@2@@std@@@2@V?$allocator@U?$pair@$$CBV?$basic_string@DU?$char_traits@D@std@@V?$allocator@D@2@@std@@V12@@std@@@2@$00@std@@@std@@QAE?AU?$pair@Viterator@?$_Tree@V?$_Tmap_traits@V?$basic_string@DU?$char_traits@D@std@@V?$allocator@D@2@@std@@V12@U?$less@V?$basic_string@DU?$char_traits@D@std@@V?$allocator@D@2@@std@@@2@V?$allocator@U?$pair@$$CBV?$basic_string@DU?$char_traits@D@std@@V?$allocator@D@2@@std@@V12@@std@@@2@$00@std@@@std@@_N@2@ABU?$pair@$$CBV?$basic_string@DU?$char_traits@D@std@@V?$allocator@D@2@@std@@V12@@2@@Z 100b693a f    CIL library: CIL module
 0001:000b5960       __unwindfunclet$?find@?$_Tree@V?$_Tmap_traits@V?$basic_string@DU?$char_traits@D@std@@V?$allocator@D@2@@std@@V12@U?$less@V?$basic_string@DU?$char_traits@D@std@@V?$allocator@D@2@@std@@@2@V?$allocator@U?$pair@$$CBV?$basic_string@DU?$char_traits@D@std@@V?$allocator@D@2@@std@@V12@@std@@@2@$00@std@@@std@@QAE?AViterator@12@ABV?$basic_string@DU?$char_traits@D@std@@V?$allocator@D@2@@2@@Z$0 100b6960 f    CIL library: CIL module
 0001:000b5968       __unwindfunclet$?find@?$_Tree@V?$_Tmap_traits@V?$basic_string@DU?$char_traits@D@std@@V?$allocator@D@2@@std@@V12@U?$less@V?$basic_string@DU?$char_traits@D@std@@V?$allocator@D@2@@std@@@2@V?$allocator@U?$pair@$$CBV?$basic_string@DU?$char_traits@D@std@@V?$allocator@D@2@@std@@V12@@std@@@2@$00@std@@@std@@QAE?AViterator@12@ABV?$basic_string@DU?$char_traits@D@std@@V?$allocator@D@2@@2@@Z$1 100b6968 f    CIL library: CIL module
 0001:000b5981       __unwindfunclet$?find@?$_Tree@V?$_Tmap_traits@V?$basic_string@DU?$char_traits@D@std@@V?$allocator@D@2@@std@@V12@U?$less@V?$basic_string@DU?$char_traits@D@std@@V?$allocator@D@2@@std@@@2@V?$allocator@U?$pair@$$CBV?$basic_string@DU?$char_traits@D@std@@V?$allocator@D@2@@std@@V12@@std@@@2@$00@std@@@std@@QAE?AViterator@12@ABV?$basic_string@DU?$char_traits@D@std@@V?$allocator@D@2@@2@@Z$2 100b6981 f    CIL library: CIL module
 0001:000b599a       __unwindfunclet$?find@?$_Tree@V?$_Tmap_traits@V?$basic_string@DU?$char_traits@D@std@@V?$allocator@D@2@@std@@V12@U?$less@V?$basic_string@DU?$char_traits@D@std@@V?$allocator@D@2@@std@@@2@V?$allocator@U?$pair@$$CBV?$basic_string@DU?$char_traits@D@std@@V?$allocator@D@2@@std@@V12@@std@@@2@$00@std@@@std@@QAE?AViterator@12@ABV?$basic_string@DU?$char_traits@D@std@@V?$allocator@D@2@@2@@Z$3 100b699a f    CIL library: CIL module
 0001:000b59b3       __unwindfunclet$?find@?$_Tree@V?$_Tmap_traits@V?$basic_string@DU?$char_traits@D@std@@V?$allocator@D@2@@std@@V12@U?$less@V?$basic_string@DU?$char_traits@D@std@@V?$allocator@D@2@@std@@@2@V?$allocator@U?$pair@$$CBV?$basic_string@DU?$char_traits@D@std@@V?$allocator@D@2@@std@@V12@@std@@@2@$00@std@@@std@@QAE?AViterator@12@ABV?$basic_string@DU?$char_traits@D@std@@V?$allocator@D@2@@2@@Z$10 100b69b3 f    CIL library: CIL module
 0001:000b59bc       __unwindfunclet$?find@?$_Tree@V?$_Tmap_traits@V?$basic_string@DU?$char_traits@D@std@@V?$allocator@D@2@@std@@V12@U?$less@V?$basic_string@DU?$char_traits@D@std@@V?$allocator@D@2@@std@@@2@V?$allocator@U?$pair@$$CBV?$basic_string@DU?$char_traits@D@std@@V?$allocator@D@2@@std@@V12@@std@@@2@$00@std@@@std@@QAE?AViterator@12@ABV?$basic_string@DU?$char_traits@D@std@@V?$allocator@D@2@@2@@Z$14 100b69bc f    CIL library: CIL module
 0001:000b59c5       __unwindfunclet$?find@?$_Tree@V?$_Tmap_traits@V?$basic_string@DU?$char_traits@D@std@@V?$allocator@D@2@@std@@V12@U?$less@V?$basic_string@DU?$char_traits@D@std@@V?$allocator@D@2@@std@@@2@V?$allocator@U?$pair@$$CBV?$basic_string@DU?$char_traits@D@std@@V?$allocator@D@2@@std@@V12@@std@@@2@$00@std@@@std@@QAE?AViterator@12@ABV?$basic_string@DU?$char_traits@D@std@@V?$allocator@D@2@@2@@Z$18 100b69c5 f    CIL library: CIL module
 0001:000b59ce       __ehhandler$?find@?$_Tree@V?$_Tmap_traits@V?$basic_string@DU?$char_traits@D@std@@V?$allocator@D@2@@std@@V12@U?$less@V?$basic_string@DU?$char_traits@D@std@@V?$allocator@D@2@@std@@@2@V?$allocator@U?$pair@$$CBV?$basic_string@DU?$char_traits@D@std@@V?$allocator@D@2@@std@@V12@@std@@@2@$00@std@@@std@@QAE?AViterator@12@ABV?$basic_string@DU?$char_traits@D@std@@V?$allocator@D@2@@2@@Z 100b69ce f    CIL library: CIL module
 0001:000b59f0       __unwindfunclet$?insert@?$multimap@V?$basic_string@DU?$char_traits@D@std@@V?$allocator@D@2@@std@@V12@U?$less@V?$basic_string@DU?$char_traits@D@std@@V?$allocator@D@2@@std@@@2@V?$allocator@U?$pair@$$CBV?$basic_string@DU?$char_traits@D@std@@V?$allocator@D@2@@std@@V12@@std@@@2@@std@@QAE?AViterator@?$_Tree@V?$_Tmap_traits@V?$basic_string@DU?$char_traits@D@std@@V?$allocator@D@2@@std@@V12@U?$less@V?$basic_string@DU?$char_traits@D@std@@V?$allocator@D@2@@std@@@2@V?$allocator@U?$pair@$$CBV?$basic_string@DU?$char_traits@D@std@@V?$allocator@D@2@@std@@V12@@std@@@2@$00@std@@@2@ABU?$pair@$$CBV?$basic_string@DU?$char_traits@D@std@@V?$allocator@D@2@@std@@V12@@2@@Z$0 100b69f0 f    CIL library: CIL module
 0001:000b59f8       __unwindfunclet$?insert@?$multimap@V?$basic_string@DU?$char_traits@D@std@@V?$allocator@D@2@@std@@V12@U?$less@V?$basic_string@DU?$char_traits@D@std@@V?$allocator@D@2@@std@@@2@V?$allocator@U?$pair@$$CBV?$basic_string@DU?$char_traits@D@std@@V?$allocator@D@2@@std@@V12@@std@@@2@@std@@QAE?AViterator@?$_Tree@V?$_Tmap_traits@V?$basic_string@DU?$char_traits@D@std@@V?$allocator@D@2@@std@@V12@U?$less@V?$basic_string@DU?$char_traits@D@std@@V?$allocator@D@2@@std@@@2@V?$allocator@U?$pair@$$CBV?$basic_string@DU?$char_traits@D@std@@V?$allocator@D@2@@std@@V12@@std@@@2@$00@std@@@2@ABU?$pair@$$CBV?$basic_string@DU?$char_traits@D@std@@V?$allocator@D@2@@std@@V12@@2@@Z$1 100b69f8 f    CIL library: CIL module
 0001:000b5a11       __unwindfunclet$?insert@?$multimap@V?$basic_string@DU?$char_traits@D@std@@V?$allocator@D@2@@std@@V12@U?$less@V?$basic_string@DU?$char_traits@D@std@@V?$allocator@D@2@@std@@@2@V?$allocator@U?$pair@$$CBV?$basic_string@DU?$char_traits@D@std@@V?$allocator@D@2@@std@@V12@@std@@@2@@std@@QAE?AViterator@?$_Tree@V?$_Tmap_traits@V?$basic_string@DU?$char_traits@D@std@@V?$allocator@D@2@@std@@V12@U?$less@V?$basic_string@DU?$char_traits@D@std@@V?$allocator@D@2@@std@@@2@V?$allocator@U?$pair@$$CBV?$basic_string@DU?$char_traits@D@std@@V?$allocator@D@2@@std@@V12@@std@@@2@$00@std@@@2@ABU?$pair@$$CBV?$basic_string@DU?$char_traits@D@std@@V?$allocator@D@2@@std@@V12@@2@@Z$9 100b6a11 f    CIL library: CIL module
 0001:000b5a1a       __ehhandler$?insert@?$multimap@V?$basic_string@DU?$char_traits@D@std@@V?$allocator@D@2@@std@@V12@U?$less@V?$basic_string@DU?$char_traits@D@std@@V?$allocator@D@2@@std@@@2@V?$allocator@U?$pair@$$CBV?$basic_string@DU?$char_traits@D@std@@V?$allocator@D@2@@std@@V12@@std@@@2@@std@@QAE?AViterator@?$_Tree@V?$_Tmap_traits@V?$basic_string@DU?$char_traits@D@std@@V?$allocator@D@2@@std@@V12@U?$less@V?$basic_string@DU?$char_traits@D@std@@V?$allocator@D@2@@std@@@2@V?$allocator@U?$pair@$$CBV?$basic_string@DU?$char_traits@D@std@@V?$allocator@D@2@@std@@V12@@std@@@2@$00@std@@@2@ABU?$pair@$$CBV?$basic_string@DU?$char_traits@D@std@@V?$allocator@D@2@@std@@V12@@2@@Z 100b6a1a f    CIL library: CIL module
 0001:000b5a40       __unwindfunclet$?getValorVar@CConfigFile@@QAEHPBD0PAV?$basic_string@DU?$char_traits@D@std@@V?$allocator@D@2@@std@@@Z$0 100b6a40 f    CIL library: CIL module
 0001:000b5a4c       __unwindfunclet$?getValorVar@CConfigFile@@QAEHPBD0PAV?$basic_string@DU?$char_traits@D@std@@V?$allocator@D@2@@std@@@Z$1 100b6a4c f    CIL library: CIL module
 0001:000b5a58       __unwindfunclet$?getValorVar@CConfigFile@@QAEHPBD0PAV?$basic_string@DU?$char_traits@D@std@@V?$allocator@D@2@@std@@@Z$2 100b6a58 f    CIL library: CIL module
 0001:000b5a64       __unwindfunclet$?getValorVar@CConfigFile@@QAEHPBD0PAV?$basic_string@DU?$char_traits@D@std@@V?$allocator@D@2@@std@@@Z$3 100b6a64 f    CIL library: CIL module
 0001:000b5a6d       __unwindfunclet$?getValorVar@CConfigFile@@QAEHPBD0PAV?$basic_string@DU?$char_traits@D@std@@V?$allocator@D@2@@std@@@Z$4 100b6a6d f    CIL library: CIL module
 0001:000b5a78       __unwindfunclet$?getValorVar@CConfigFile@@QAEHPBD0PAV?$basic_string@DU?$char_traits@D@std@@V?$allocator@D@2@@std@@@Z$5 100b6a78 f    CIL library: CIL module
 0001:000b5a83       __unwindfunclet$?getValorVar@CConfigFile@@QAEHPBD0PAV?$basic_string@DU?$char_traits@D@std@@V?$allocator@D@2@@std@@@Z$16 100b6a83 f    CIL library: CIL module
 0001:000b5a8f       __unwindfunclet$?getValorVar@CConfigFile@@QAEHPBD0PAV?$basic_string@DU?$char_traits@D@std@@V?$allocator@D@2@@std@@@Z$6 100b6a8f f    CIL library: CIL module
 0001:000b5a9a       __unwindfunclet$?getValorVar@CConfigFile@@QAEHPBD0PAV?$basic_string@DU?$char_traits@D@std@@V?$allocator@D@2@@std@@@Z$20 100b6a9a f    CIL library: CIL module
 0001:000b5aa6       __unwindfunclet$?getValorVar@CConfigFile@@QAEHPBD0PAV?$basic_string@DU?$char_traits@D@std@@V?$allocator@D@2@@std@@@Z$23 100b6aa6 f    CIL library: CIL module
 0001:000b5ab2       __unwindfunclet$?getValorVar@CConfigFile@@QAEHPBD0PAV?$basic_string@DU?$char_traits@D@std@@V?$allocator@D@2@@std@@@Z$7 100b6ab2 f    CIL library: CIL module
 0001:000b5abd       __unwindfunclet$?getValorVar@CConfigFile@@QAEHPBD0PAV?$basic_string@DU?$char_traits@D@std@@V?$allocator@D@2@@std@@@Z$27 100b6abd f    CIL library: CIL module
 0001:000b5ac9       __unwindfunclet$?getValorVar@CConfigFile@@QAEHPBD0PAV?$basic_string@DU?$char_traits@D@std@@V?$allocator@D@2@@std@@@Z$8 100b6ac9 f    CIL library: CIL module
 0001:000b5ad2       __unwindfunclet$?getValorVar@CConfigFile@@QAEHPBD0PAV?$basic_string@DU?$char_traits@D@std@@V?$allocator@D@2@@std@@@Z$9 100b6ad2 f    CIL library: CIL module
 0001:000b5adb       __unwindfunclet$?getValorVar@CConfigFile@@QAEHPBD0PAV?$basic_string@DU?$char_traits@D@std@@V?$allocator@D@2@@std@@@Z$30 100b6adb f    CIL library: CIL module
 0001:000b5ae7       __unwindfunclet$?getValorVar@CConfigFile@@QAEHPBD0PAV?$basic_string@DU?$char_traits@D@std@@V?$allocator@D@2@@std@@@Z$33 100b6ae7 f    CIL library: CIL module
 0001:000b5af3       __unwindfunclet$?getValorVar@CConfigFile@@QAEHPBD0PAV?$basic_string@DU?$char_traits@D@std@@V?$allocator@D@2@@std@@@Z$36 100b6af3 f    CIL library: CIL module
 0001:000b5aff       __ehhandler$?getValorVar@CConfigFile@@QAEHPBD0PAV?$basic_string@DU?$char_traits@D@std@@V?$allocator@D@2@@std@@@Z 100b6aff f    CIL library: CIL module
 0001:000b5b30       __unwindfunclet$?m_leeTagPrincipal@CConfigFile@@AAEHPAV?$basic_fstream@DU?$char_traits@D@std@@@std@@V?$basic_string@DU?$char_traits@D@std@@V?$allocator@D@2@@3@@Z$0 100b6b30 f    CIL library: CIL module
 0001:000b5b39       __unwindfunclet$?m_leeTagPrincipal@CConfigFile@@AAEHPAV?$basic_fstream@DU?$char_traits@D@std@@@std@@V?$basic_string@DU?$char_traits@D@std@@V?$allocator@D@2@@3@@Z$1 100b6b39 f    CIL library: CIL module
 0001:000b5b45       __unwindfunclet$?m_leeTagPrincipal@CConfigFile@@AAEHPAV?$basic_fstream@DU?$char_traits@D@std@@@std@@V?$basic_string@DU?$char_traits@D@std@@V?$allocator@D@2@@3@@Z$4 100b6b45 f    CIL library: CIL module
 0001:000b5b51       __unwindfunclet$?m_leeTagPrincipal@CConfigFile@@AAEHPAV?$basic_fstream@DU?$char_traits@D@std@@@std@@V?$basic_string@DU?$char_traits@D@std@@V?$allocator@D@2@@3@@Z$2 100b6b51 f    CIL library: CIL module
 0001:000b5b5e       __unwindfunclet$?m_leeTagPrincipal@CConfigFile@@AAEHPAV?$basic_fstream@DU?$char_traits@D@std@@@std@@V?$basic_string@DU?$char_traits@D@std@@V?$allocator@D@2@@3@@Z$9 100b6b5e f    CIL library: CIL module
 0001:000b5b6a       __unwindfunclet$?m_leeTagPrincipal@CConfigFile@@AAEHPAV?$basic_fstream@DU?$char_traits@D@std@@@std@@V?$basic_string@DU?$char_traits@D@std@@V?$allocator@D@2@@3@@Z$10 100b6b6a f    CIL library: CIL module
 0001:000b5b76       __ehhandler$?m_leeTagPrincipal@CConfigFile@@AAEHPAV?$basic_fstream@DU?$char_traits@D@std@@@std@@V?$basic_string@DU?$char_traits@D@std@@V?$allocator@D@2@@3@@Z 100b6b76 f    CIL library: CIL module
 0001:000b5bb0       __unwindfunclet$??Eiterator@?$_Tree@V?$_Tmap_traits@V?$basic_string@DU?$char_traits@D@std@@V?$allocator@D@2@@std@@V12@U?$less@V?$basic_string@DU?$char_traits@D@std@@V?$allocator@D@2@@std@@@2@V?$allocator@U?$pair@$$CBV?$basic_string@DU?$char_traits@D@std@@V?$allocator@D@2@@std@@V12@@std@@@2@$00@std@@@std@@QAE?AV012@H@Z$0 100b6bb0 f    CIL library: CIL module
 0001:000b5bc9       __ehhandler$??Eiterator@?$_Tree@V?$_Tmap_traits@V?$basic_string@DU?$char_traits@D@std@@V?$allocator@D@2@@std@@V12@U?$less@V?$basic_string@DU?$char_traits@D@std@@V?$allocator@D@2@@std@@@2@V?$allocator@U?$pair@$$CBV?$basic_string@DU?$char_traits@D@std@@V?$allocator@D@2@@std@@V12@@std@@@2@$00@std@@@std@@QAE?AV012@H@Z 100b6bc9 f    CIL library: CIL module
 0001:000b5bf0       __unwindfunclet$?erase@?$_Tree@V?$_Tmap_traits@V?$basic_string@DU?$char_traits@D@std@@V?$allocator@D@2@@std@@V12@U?$less@V?$basic_string@DU?$char_traits@D@std@@V?$allocator@D@2@@std@@@2@V?$allocator@U?$pair@$$CBV?$basic_string@DU?$char_traits@D@std@@V?$allocator@D@2@@std@@V12@@std@@@2@$00@std@@@std@@QAE?AViterator@12@V312@@Z$0 100b6bf0 f    CIL library: CIL module
 0001:000b5bf8       __unwindfunclet$?erase@?$_Tree@V?$_Tmap_traits@V?$basic_string@DU?$char_traits@D@std@@V?$allocator@D@2@@std@@V12@U?$less@V?$basic_string@DU?$char_traits@D@std@@V?$allocator@D@2@@std@@@2@V?$allocator@U?$pair@$$CBV?$basic_string@DU?$char_traits@D@std@@V?$allocator@D@2@@std@@V12@@std@@@2@$00@std@@@std@@QAE?AViterator@12@V312@@Z$3 100b6bf8 f    CIL library: CIL module
 0001:000b5c01       __unwindfunclet$?erase@?$_Tree@V?$_Tmap_traits@V?$basic_string@DU?$char_traits@D@std@@V?$allocator@D@2@@std@@V12@U?$less@V?$basic_string@DU?$char_traits@D@std@@V?$allocator@D@2@@std@@@2@V?$allocator@U?$pair@$$CBV?$basic_string@DU?$char_traits@D@std@@V?$allocator@D@2@@std@@V12@@std@@@2@$00@std@@@std@@QAE?AViterator@12@V312@@Z$8 100b6c01 f    CIL library: CIL module
 0001:000b5c0a       __unwindfunclet$?erase@?$_Tree@V?$_Tmap_traits@V?$basic_string@DU?$char_traits@D@std@@V?$allocator@D@2@@std@@V12@U?$less@V?$basic_string@DU?$char_traits@D@std@@V?$allocator@D@2@@std@@@2@V?$allocator@U?$pair@$$CBV?$basic_string@DU?$char_traits@D@std@@V?$allocator@D@2@@std@@V12@@std@@@2@$00@std@@@std@@QAE?AViterator@12@V312@@Z$1 100b6c0a f    CIL library: CIL module
 0001:000b5c23       __unwindfunclet$?erase@?$_Tree@V?$_Tmap_traits@V?$basic_string@DU?$char_traits@D@std@@V?$allocator@D@2@@std@@V12@U?$less@V?$basic_string@DU?$char_traits@D@std@@V?$allocator@D@2@@std@@@2@V?$allocator@U?$pair@$$CBV?$basic_string@DU?$char_traits@D@std@@V?$allocator@D@2@@std@@V12@@std@@@2@$00@std@@@std@@QAE?AViterator@12@V312@@Z$12 100b6c23 f    CIL library: CIL module
 0001:000b5c2c       __ehhandler$?erase@?$_Tree@V?$_Tmap_traits@V?$basic_string@DU?$char_traits@D@std@@V?$allocator@D@2@@std@@V12@U?$less@V?$basic_string@DU?$char_traits@D@std@@V?$allocator@D@2@@std@@@2@V?$allocator@U?$pair@$$CBV?$basic_string@DU?$char_traits@D@std@@V?$allocator@D@2@@std@@V12@@std@@@2@$00@std@@@std@@QAE?AViterator@12@V312@@Z 100b6c2c f    CIL library: CIL module
 0001:000b5c50       __unwindfunclet$?erase@?$_Tree@V?$_Tmap_traits@V?$basic_string@DU?$char_traits@D@std@@V?$allocator@D@2@@std@@V12@U?$less@V?$basic_string@DU?$char_traits@D@std@@V?$allocator@D@2@@std@@@2@V?$allocator@U?$pair@$$CBV?$basic_string@DU?$char_traits@D@std@@V?$allocator@D@2@@std@@V12@@std@@@2@$00@std@@@std@@QAE?AViterator@12@V312@0@Z$0 100b6c50 f    CIL library: CIL module
 0001:000b5c58       __unwindfunclet$?erase@?$_Tree@V?$_Tmap_traits@V?$basic_string@DU?$char_traits@D@std@@V?$allocator@D@2@@std@@V12@U?$less@V?$basic_string@DU?$char_traits@D@std@@V?$allocator@D@2@@std@@@2@V?$allocator@U?$pair@$$CBV?$basic_string@DU?$char_traits@D@std@@V?$allocator@D@2@@std@@V12@@std@@@2@$00@std@@@std@@QAE?AViterator@12@V312@0@Z$1 100b6c58 f    CIL library: CIL module
 0001:000b5c60       __unwindfunclet$?erase@?$_Tree@V?$_Tmap_traits@V?$basic_string@DU?$char_traits@D@std@@V?$allocator@D@2@@std@@V12@U?$less@V?$basic_string@DU?$char_traits@D@std@@V?$allocator@D@2@@std@@@2@V?$allocator@U?$pair@$$CBV?$basic_string@DU?$char_traits@D@std@@V?$allocator@D@2@@std@@V12@@std@@@2@$00@std@@@std@@QAE?AViterator@12@V312@0@Z$2 100b6c60 f    CIL library: CIL module
 0001:000b5c79       __unwindfunclet$?erase@?$_Tree@V?$_Tmap_traits@V?$basic_string@DU?$char_traits@D@std@@V?$allocator@D@2@@std@@V12@U?$less@V?$basic_string@DU?$char_traits@D@std@@V?$allocator@D@2@@std@@@2@V?$allocator@U?$pair@$$CBV?$basic_string@DU?$char_traits@D@std@@V?$allocator@D@2@@std@@V12@@std@@@2@$00@std@@@std@@QAE?AViterator@12@V312@0@Z$3 100b6c79 f    CIL library: CIL module
 0001:000b5c92       __unwindfunclet$?erase@?$_Tree@V?$_Tmap_traits@V?$basic_string@DU?$char_traits@D@std@@V?$allocator@D@2@@std@@V12@U?$less@V?$basic_string@DU?$char_traits@D@std@@V?$allocator@D@2@@std@@@2@V?$allocator@U?$pair@$$CBV?$basic_string@DU?$char_traits@D@std@@V?$allocator@D@2@@std@@V12@@std@@@2@$00@std@@@std@@QAE?AViterator@12@V312@0@Z$10 100b6c92 f    CIL library: CIL module
 0001:000b5c9b       __unwindfunclet$?erase@?$_Tree@V?$_Tmap_traits@V?$basic_string@DU?$char_traits@D@std@@V?$allocator@D@2@@std@@V12@U?$less@V?$basic_string@DU?$char_traits@D@std@@V?$allocator@D@2@@std@@@2@V?$allocator@U?$pair@$$CBV?$basic_string@DU?$char_traits@D@std@@V?$allocator@D@2@@std@@V12@@std@@@2@$00@std@@@std@@QAE?AViterator@12@V312@0@Z$14 100b6c9b f    CIL library: CIL module
 0001:000b5ca4       __unwindfunclet$?erase@?$_Tree@V?$_Tmap_traits@V?$basic_string@DU?$char_traits@D@std@@V?$allocator@D@2@@std@@V12@U?$less@V?$basic_string@DU?$char_traits@D@std@@V?$allocator@D@2@@std@@@2@V?$allocator@U?$pair@$$CBV?$basic_string@DU?$char_traits@D@std@@V?$allocator@D@2@@std@@V12@@std@@@2@$00@std@@@std@@QAE?AViterator@12@V312@0@Z$4 100b6ca4 f    CIL library: CIL module
 0001:000b5cbd       __unwindfunclet$?erase@?$_Tree@V?$_Tmap_traits@V?$basic_string@DU?$char_traits@D@std@@V?$allocator@D@2@@std@@V12@U?$less@V?$basic_string@DU?$char_traits@D@std@@V?$allocator@D@2@@std@@@2@V?$allocator@U?$pair@$$CBV?$basic_string@DU?$char_traits@D@std@@V?$allocator@D@2@@std@@V12@@std@@@2@$00@std@@@std@@QAE?AViterator@12@V312@0@Z$18 100b6cbd f    CIL library: CIL module
 0001:000b5cc6       __unwindfunclet$?erase@?$_Tree@V?$_Tmap_traits@V?$basic_string@DU?$char_traits@D@std@@V?$allocator@D@2@@std@@V12@U?$less@V?$basic_string@DU?$char_traits@D@std@@V?$allocator@D@2@@std@@@2@V?$allocator@U?$pair@$$CBV?$basic_string@DU?$char_traits@D@std@@V?$allocator@D@2@@std@@V12@@std@@@2@$00@std@@@std@@QAE?AViterator@12@V312@0@Z$22 100b6cc6 f    CIL library: CIL module
 0001:000b5ccf       __unwindfunclet$?erase@?$_Tree@V?$_Tmap_traits@V?$basic_string@DU?$char_traits@D@std@@V?$allocator@D@2@@std@@V12@U?$less@V?$basic_string@DU?$char_traits@D@std@@V?$allocator@D@2@@std@@@2@V?$allocator@U?$pair@$$CBV?$basic_string@DU?$char_traits@D@std@@V?$allocator@D@2@@std@@V12@@std@@@2@$00@std@@@std@@QAE?AViterator@12@V312@0@Z$26 100b6ccf f    CIL library: CIL module
 0001:000b5cd8       __unwindfunclet$?erase@?$_Tree@V?$_Tmap_traits@V?$basic_string@DU?$char_traits@D@std@@V?$allocator@D@2@@std@@V12@U?$less@V?$basic_string@DU?$char_traits@D@std@@V?$allocator@D@2@@std@@@2@V?$allocator@U?$pair@$$CBV?$basic_string@DU?$char_traits@D@std@@V?$allocator@D@2@@std@@V12@@std@@@2@$00@std@@@std@@QAE?AViterator@12@V312@0@Z$33 100b6cd8 f    CIL library: CIL module
 0001:000b5ce1       __unwindfunclet$?erase@?$_Tree@V?$_Tmap_traits@V?$basic_string@DU?$char_traits@D@std@@V?$allocator@D@2@@std@@V12@U?$less@V?$basic_string@DU?$char_traits@D@std@@V?$allocator@D@2@@std@@@2@V?$allocator@U?$pair@$$CBV?$basic_string@DU?$char_traits@D@std@@V?$allocator@D@2@@std@@V12@@std@@@2@$00@std@@@std@@QAE?AViterator@12@V312@0@Z$37 100b6ce1 f    CIL library: CIL module
 0001:000b5cea       __ehhandler$?erase@?$_Tree@V?$_Tmap_traits@V?$basic_string@DU?$char_traits@D@std@@V?$allocator@D@2@@std@@V12@U?$less@V?$basic_string@DU?$char_traits@D@std@@V?$allocator@D@2@@std@@@2@V?$allocator@U?$pair@$$CBV?$basic_string@DU?$char_traits@D@std@@V?$allocator@D@2@@std@@V12@@std@@@2@$00@std@@@std@@QAE?AViterator@12@V312@0@Z 100b6cea f    CIL library: CIL module
 0001:000b5d10       __unwindfunclet$?_Tidy@?$_Tree@V?$_Tmap_traits@V?$basic_string@DU?$char_traits@D@std@@V?$allocator@D@2@@std@@V12@U?$less@V?$basic_string@DU?$char_traits@D@std@@V?$allocator@D@2@@std@@@2@V?$allocator@U?$pair@$$CBV?$basic_string@DU?$char_traits@D@std@@V?$allocator@D@2@@std@@V12@@std@@@2@$00@std@@@std@@IAEXXZ$0 100b6d10 f    CIL library: CIL module
 0001:000b5d18       __unwindfunclet$?_Tidy@?$_Tree@V?$_Tmap_traits@V?$basic_string@DU?$char_traits@D@std@@V?$allocator@D@2@@std@@V12@U?$less@V?$basic_string@DU?$char_traits@D@std@@V?$allocator@D@2@@std@@@2@V?$allocator@U?$pair@$$CBV?$basic_string@DU?$char_traits@D@std@@V?$allocator@D@2@@std@@V12@@std@@@2@$00@std@@@std@@IAEXXZ$6 100b6d18 f    CIL library: CIL module
 0001:000b5d21       __ehhandler$?_Tidy@?$_Tree@V?$_Tmap_traits@V?$basic_string@DU?$char_traits@D@std@@V?$allocator@D@2@@std@@V12@U?$less@V?$basic_string@DU?$char_traits@D@std@@V?$allocator@D@2@@std@@@2@V?$allocator@U?$pair@$$CBV?$basic_string@DU?$char_traits@D@std@@V?$allocator@D@2@@std@@V12@@std@@@2@$00@std@@@std@@IAEXXZ 100b6d21 f    CIL library: CIL module
 0001:000b5d40       __unwindfunclet$?RecMsgErrorARA@CSgiARA@@IAEHPBD@Z$0 100b6d40 f    CIL library: CIL module
 0001:000b5d49       __unwindfunclet$?RecMsgErrorARA@CSgiARA@@IAEHPBD@Z$1 100b6d49 f    CIL library: CIL module
 0001:000b5d55       __unwindfunclet$?RecMsgErrorARA@CSgiARA@@IAEHPBD@Z$2 100b6d55 f    CIL library: CIL module
 0001:000b5d5e       __unwindfunclet$?RecMsgErrorARA@CSgiARA@@IAEHPBD@Z$3 100b6d5e f    CIL library: CIL module
 0001:000b5d67       __unwindfunclet$?RecMsgErrorARA@CSgiARA@@IAEHPBD@Z$4 100b6d67 f    CIL library: CIL module
 0001:000b5d70       __unwindfunclet$?RecMsgErrorARA@CSgiARA@@IAEHPBD@Z$5 100b6d70 f    CIL library: CIL module
 0001:000b5d79       __unwindfunclet$?RecMsgErrorARA@CSgiARA@@IAEHPBD@Z$6 100b6d79 f    CIL library: CIL module
 0001:000b5d85       __ehhandler$?RecMsgErrorARA@CSgiARA@@IAEHPBD@Z 100b6d85 f    CIL library: CIL module
 0001:000b5dc0       __unwindfunclet$?Conecta@CSgiARA@@QAEHXZ$0 100b6dc0 f    CIL library: CIL module
 0001:000b5dcd       __ehhandler$?Conecta@CSgiARA@@QAEHXZ 100b6dcd f    CIL library: CIL module
 0001:000b5e00       __unwindfunclet$??1CSgiARA@@QAE@XZ$0 100b6e00 f    CIL library: CIL module
 0001:000b5e09       __unwindfunclet$??1CSgiARA@@QAE@XZ$1 100b6e09 f    CIL library: CIL module
 0001:000b5e15       __unwindfunclet$??1CSgiARA@@QAE@XZ$2 100b6e15 f    CIL library: CIL module
 0001:000b5e21       __unwindfunclet$??1CSgiARA@@QAE@XZ$3 100b6e21 f    CIL library: CIL module
 0001:000b5e2d       __unwindfunclet$??1CSgiARA@@QAE@XZ$4 100b6e2d f    CIL library: CIL module
 0001:000b5e3c       __unwindfunclet$??1CSgiARA@@QAE@XZ$5 100b6e3c f    CIL library: CIL module
 0001:000b5e4b       __unwindfunclet$??1CSgiARA@@QAE@XZ$6 100b6e4b f    CIL library: CIL module
 0001:000b5e58       __ehhandler$??1CSgiARA@@QAE@XZ 100b6e58 f    CIL library: CIL module
 0001:000b5e80       __unwindfunclet$??1?$multimap@V?$basic_string@DU?$char_traits@D@std@@V?$allocator@D@2@@std@@V12@U?$less@V?$basic_string@DU?$char_traits@D@std@@V?$allocator@D@2@@std@@@2@V?$allocator@U?$pair@$$CBV?$basic_string@DU?$char_traits@D@std@@V?$allocator@D@2@@std@@V12@@std@@@2@@std@@QAE@XZ$1 100b6e80 f    CIL library: CIL module
 0001:000b5e88       __ehhandler$??1?$multimap@V?$basic_string@DU?$char_traits@D@std@@V?$allocator@D@2@@std@@V12@U?$less@V?$basic_string@DU?$char_traits@D@std@@V?$allocator@D@2@@std@@@2@V?$allocator@U?$pair@$$CBV?$basic_string@DU?$char_traits@D@std@@V?$allocator@D@2@@std@@V12@@std@@@2@@std@@QAE@XZ 100b6e88 f    CIL library: CIL module
 0001:000b5eb0       __unwindfunclet$??1CConfigFile@@QAE@XZ$0 100b6eb0 f    CIL library: CIL module
 0001:000b5eb9       __unwindfunclet$??1CConfigFile@@QAE@XZ$3 100b6eb9 f    CIL library: CIL module
 0001:000b5ec1       __ehhandler$??1CConfigFile@@QAE@XZ 100b6ec1 f    CIL library: CIL module
 0001:000b5ee0       __unwindfunclet$?genP7@CSgi_Cripto@SgiCripto@@QAE?AW4tError@2@PBD000H0H0@Z$0 100b6ee0 f    CIL library: CIL module
 0001:000b5ee5       __ehhandler$?genP7@CSgi_Cripto@SgiCripto@@QAE?AW4tError@2@PBD000H0H0@Z 100b6ee5 f    CIL library: CIL module
 0001:000b5f00       __unwindfunclet$??1CSgi_Cripto@SgiCripto@@QAE@XZ$0 100b6f00 f    CIL library: CIL module
 0001:000b5f0c       __ehhandler$??1CSgi_Cripto@SgiCripto@@QAE@XZ 100b6f0c f    CIL library: CIL module
 0001:000b5f30       __unwindfunclet$?m_readCfgFile@CConfigFile@@AAEHXZ$0 100b6f30 f    CIL library: CIL module
 0001:000b5f3e       __ehhandler$?m_readCfgFile@CConfigFile@@AAEHXZ 100b6f3e f    CIL library: CIL module
 0001:000b5f70       __unwindfunclet$??0CConfigFile@@QAE@V?$basic_string@DU?$char_traits@D@std@@V?$allocator@D@2@@std@@@Z$0 100b6f70 f    CIL library: CIL module
 0001:000b5f79       __unwindfunclet$??0CConfigFile@@QAE@V?$basic_string@DU?$char_traits@D@std@@V?$allocator@D@2@@std@@@Z$1 100b6f79 f    CIL library: CIL module
 0001:000b5f82       __unwindfunclet$??0CConfigFile@@QAE@V?$basic_string@DU?$char_traits@D@std@@V?$allocator@D@2@@std@@@Z$2 100b6f82 f    CIL library: CIL module
 0001:000b5f8f       __ehhandler$??0CConfigFile@@QAE@V?$basic_string@DU?$char_traits@D@std@@V?$allocator@D@2@@std@@@Z 100b6f8f f    CIL library: CIL module
 0001:000b5fb0       __unwindfunclet$?LeeCfgUsr@CSgiARA@@IAEXXZ$0 100b6fb0 f    CIL library: CIL module
 0001:000b5fb9       __unwindfunclet$?LeeCfgUsr@CSgiARA@@IAEXXZ$1 100b6fb9 f    CIL library: CIL module
 0001:000b5fc4       __unwindfunclet$?LeeCfgUsr@CSgiARA@@IAEXXZ$3 100b6fc4 f    CIL library: CIL module
 0001:000b5fcd       __unwindfunclet$?LeeCfgUsr@CSgiARA@@IAEXXZ$4 100b6fcd f    CIL library: CIL module
 0001:000b5fd6       __ehhandler$?LeeCfgUsr@CSgiARA@@IAEXXZ 100b6fd6 f    CIL library: CIL module
 0001:000b6000       __unwindfunclet$?LeeCfg@CSgiARA@@IAEHXZ$0 100b7000 f    CIL library: CIL module
 0001:000b6009       __unwindfunclet$?LeeCfg@CSgiARA@@IAEHXZ$1 100b7009 f    CIL library: CIL module
 0001:000b6014       __ehhandler$?LeeCfg@CSgiARA@@IAEHXZ 100b7014 f    CIL library: CIL module
 0001:000b6040       __unwindfunclet$?inicia@CSgi_Cripto@SgiCripto@@QAE?AW4tError@2@_NPBD@Z$0 100b7040 f    CIL library: CIL module
 0001:000b604b       __unwindfunclet$?inicia@CSgi_Cripto@SgiCripto@@QAE?AW4tError@2@_NPBD@Z$1 100b704b f    CIL library: CIL module
 0001:000b6056       __ehhandler$?inicia@CSgi_Cripto@SgiCripto@@QAE?AW4tError@2@_NPBD@Z 100b7056 f    CIL library: CIL module
 0001:000b6080       __unwindfunclet$?procesaPKCS7ara@CSgi_Cripto@SgiCripto@@IAE?AW4tError@2@PBEH0HPBD111HPAV?$basic_string@DU?$char_traits@D@std@@V?$allocator@D@2@@std@@@Z$27 100b7080 f    CIL library: CIL module
 0001:000b608b       __unwindfunclet$?procesaPKCS7ara@CSgi_Cripto@SgiCripto@@IAE?AW4tError@2@PBEH0HPBD111HPAV?$basic_string@DU?$char_traits@D@std@@V?$allocator@D@2@@std@@@Z$28 100b708b f    CIL library: CIL module
 0001:000b6097       __unwindfunclet$?procesaPKCS7ara@CSgi_Cripto@SgiCripto@@IAE?AW4tError@2@PBEH0HPBD111HPAV?$basic_string@DU?$char_traits@D@std@@V?$allocator@D@2@@std@@@Z$29 100b7097 f    CIL library: CIL module
 0001:000b60a3       __ehhandler$?procesaPKCS7ara@CSgi_Cripto@SgiCripto@@IAE?AW4tError@2@PBEH0HPBD111HPAV?$basic_string@DU?$char_traits@D@std@@V?$allocator@D@2@@std@@@Z 100b70a3 f    CIL library: CIL module
 0001:000b60e0       __unwindfunclet$?procesaPKCS7ara@CSgi_Cripto@SgiCripto@@IAE?AW4tError@2@PBEH0HPBDPAUpkcs7_st@@PAPAUbio_st@@1HPAV?$basic_string@DU?$char_traits@D@std@@V?$allocator@D@2@@std@@@Z$22 100b70e0 f    CIL library: CIL module
 0001:000b60eb       __unwindfunclet$?procesaPKCS7ara@CSgi_Cripto@SgiCripto@@IAE?AW4tError@2@PBEH0HPBDPAUpkcs7_st@@PAPAUbio_st@@1HPAV?$basic_string@DU?$char_traits@D@std@@V?$allocator@D@2@@std@@@Z$23 100b70eb f    CIL library: CIL module
 0001:000b60f7       __unwindfunclet$?procesaPKCS7ara@CSgi_Cripto@SgiCripto@@IAE?AW4tError@2@PBEH0HPBDPAUpkcs7_st@@PAPAUbio_st@@1HPAV?$basic_string@DU?$char_traits@D@std@@V?$allocator@D@2@@std@@@Z$24 100b70f7 f    CIL library: CIL module
 0001:000b6103       __ehhandler$?procesaPKCS7ara@CSgi_Cripto@SgiCripto@@IAE?AW4tError@2@PBEH0HPBDPAUpkcs7_st@@PAPAUbio_st@@1HPAV?$basic_string@DU?$char_traits@D@std@@V?$allocator@D@2@@std@@@Z 100b7103 f    CIL library: CIL module
 0001:000b6140       __unwindfunclet$?procP7@CSgi_Cripto@SgiCripto@@QAE?AW4tError@2@PBD000HPAPADPAH0H@Z$0 100b7140 f    CIL library: CIL module
 0001:000b6148       __unwindfunclet$?procP7@CSgi_Cripto@SgiCripto@@QAE?AW4tError@2@PBD000HPAPADPAH0H@Z$1 100b7148 f    CIL library: CIL module
 0001:000b6150       __ehhandler$?procP7@CSgi_Cripto@SgiCripto@@QAE?AW4tError@2@PBD000HPAPADPAH0H@Z 100b7150 f    CIL library: CIL module
 0001:000b6170       __unwindfunclet$?procP7@CSgi_Cripto@SgiCripto@@QAE?AW4tError@2@PBD00000H@Z$0 100b7170 f    CIL library: CIL module
 0001:000b6178       __unwindfunclet$?procP7@CSgi_Cripto@SgiCripto@@QAE?AW4tError@2@PBD00000H@Z$1 100b7178 f    CIL library: CIL module
 0001:000b6180       __ehhandler$?procP7@CSgi_Cripto@SgiCripto@@QAE?AW4tError@2@PBD00000H@Z 100b7180 f    CIL library: CIL module
