 SgiCripto2

 Timestamp is 477ecbc8 (Fri Jan 04 18:14:00 2008)

 Preferred load address is 10000000

 Start         Length     Name                   Class
 0001:00000000 000870e4H .text                   CODE
 0001:000870f0 00000bcbH .text$x                 CODE
 0002:00000000 00000324H .idata$5                DATA
 0002:00000324 00000004H .CRT$XCA                DATA
 0002:00000328 00000004H .CRT$XCZ                DATA
 0002:0000032c 00000004H .CRT$XIA                DATA
 0002:00000330 00000004H .CRT$XIAA               DATA
 0002:00000334 00000004H .CRT$XIC                DATA
 0002:00000338 00000004H .CRT$XIZ                DATA
 0002:00000340 00028ac2H .rdata                  DATA
 0002:00028e04 00000504H .rdata$r                DATA
 0002:00029308 00000004H .rtc$IAA                DATA
 0002:0002930c 00000004H .rtc$IZZ                DATA
 0002:00029310 00000004H .rtc$TAA                DATA
 0002:00029314 00000004H .rtc$TZZ                DATA
 0002:00029318 00000bc0H .xdata$x                DATA
 0002:00029ed8 0000008cH .idata$2                DATA
 0002:00029f64 00000014H .idata$3                DATA
 0002:00029f78 00000324H .idata$4                DATA
 0002:0002a29c 000014b0H .idata$6                DATA
 0002:0002b750 00000a7fH .edata                  DATA
 0003:00000000 0000ea83H .data                   DATA
 0003:0000ea88 00002600H .bss                    DATA
 0004:00000000 00000058H .rsrc$01                DATA
 0004:00000060 00000330H .rsrc$02                DATA

  Address         Publics by Value              Rva+Base       Lib:Object

 0000:00000000       ___safe_se_handler_table   00000000     <absolute>
 0000:00000000       ___safe_se_handler_count   00000000     <absolute>
 0000:00000000       __except_list              00000000     <absolute>
 0000:00009876       __fltused                  00009876     <absolute>
 0000:00009876       __ldused                   00009876     <absolute>
 0000:00000000       ___ImageBase               10000000     <linker-defined>
 0001:00000000       _DllMain@12                10001000 f   SgiCripto.obj
 0001:00000050       ?new_SgiCripto@SgiCripto@@YAPAXXZ 10001050 f   SgiCripto.obj
 0001:000000d0       ?delete_SgiCripto@SgiCripto@@YAXPAX@Z 100010d0 f   SgiCripto.obj
 0001:000000f0       ?new_SgiCertificado@SgiCripto@@YAPAXXZ 100010f0 f   SgiCripto.obj
 0001:00000160       ?delete_SgiCertificado@SgiCripto@@YAXPAX@Z 10001160 f   SgiCripto.obj
 0001:00000180       ?inicia@SgiCripto@@YA?AW4tError@1@PAX_NPBD@Z 10001180 f   SgiCripto.obj
 0001:000001b0       ?conectaARA@SgiCripto@@YA?AW4tError@1@PAX@Z 100011b0 f   SgiCripto.obj
 0001:000001e0       ?desconectaARA@SgiCripto@@YAXPAX@Z 100011e0 f   SgiCripto.obj
 0001:00000200       ?keepaliveARA@SgiCripto@@YA?AW4tError@1@PAX@Z 10001200 f   SgiCripto.obj
 0001:00000230       ?solCDxNS@SgiCripto@@YA?AW4tError@1@PAXPBDPAW4tCertEdo@1@PAW4tCertTipo@1@PAV?$basic_string@DU?$char_traits@D@std@@V?$allocator@D@2@@std@@4PAEPAH@Z 10001230 f   SgiCripto.obj
 0001:00000280       ?solEdoCDxNS@SgiCripto@@YA?AW4tError@1@PAXPBDPAW4tCertEdo@1@PAW4tCertTipo@1@PAV?$basic_string@DU?$char_traits@D@std@@V?$allocator@D@2@@std@@4@Z 10001280 f   SgiCripto.obj
 0001:000002d0       ?solNSCDFEAxRFC@SgiCripto@@YA?AW4tError@1@PAXPBDPAV?$basic_string@DU?$char_traits@D@std@@V?$allocator@D@2@@std@@@Z 100012d0 f   SgiCripto.obj
 0001:00000310       ?solListaCDxRFC@SgiCripto@@YA?AW4tError@1@PAXPBDW4tCertEdo@1@W4tCertTipo@1@GPAV?$basic_string@DU?$char_traits@D@std@@V?$allocator@D@2@@std@@@Z 10001310 f   SgiCripto.obj
 0001:00000360       ?verificaLlaves@SgiCripto@@YA?AW4tError@1@PAXPBD11@Z 10001360 f   SgiCripto.obj
 0001:00000380       ?generaFirma@SgiCripto@@YA?AW4tError@1@PAXPBD11W4tAlgDig@1@PAV?$basic_string@DU?$char_traits@D@std@@V?$allocator@D@2@@std@@@Z 10001380 f   SgiCripto.obj
 0001:000003c0       ?verFirmaIni@SgiCripto@@YA?AW4tError@1@PAX0PBD@Z 100013c0 f   SgiCripto.obj
 0001:000003e0       ?verFirmaProceso@SgiCripto@@YA?AW4tError@1@PAXPBDI@Z 100013e0 f   SgiCripto.obj
 0001:00000420       ?verFirmaFin@SgiCripto@@YA?AW4tError@1@PAX@Z 10001420 f   SgiCripto.obj
 0001:00000440       ?verFirma@SgiCripto@@YA?AW4tError@1@PAX0PBD1@Z 10001440 f   SgiCripto.obj
 0001:000004b0       ?genP7@SgiCripto@@YA?AW4tError@1@PAXPBD111W4tTipoPKCS7@1@1W4tAlgEnc@1@1@Z 100014b0 f   SgiCripto.obj
 0001:000004f0       ?obtieneNumSerieP7@SgiCripto@@YA?AW4tError@1@PAXPBDPAV?$basic_string@DU?$char_traits@D@std@@V?$allocator@D@2@@std@@@Z 100014f0 f   SgiCripto.obj
 0001:00000510       ?procP7@SgiCripto@@YA?AW4tError@1@PAXPBD11111W4tCertTipo@1@@Z 10001510 f   SgiCripto.obj
 0001:00000550       ?procP7@SgiCripto@@YA?AW4tError@1@PAXPBD111HPAPADPAH1W4tCertTipo@1@@Z 10001550 f   SgiCripto.obj
 0001:00000590       ?encripta@SgiCripto@@YA?AW4tError@1@PAXPBEGW4tAlgEnc@1@1HPAEPAG@Z 10001590 f   SgiCripto.obj
 0001:000005e0       ?desencripta@SgiCripto@@YA?AW4tError@1@PAXPBEGW4tAlgEnc@1@1HPAEPAG@Z 100015e0 f   SgiCripto.obj
 0001:00000630       ?inicializa@SgiCripto@@YA?AW4tError@1@PAXPBEH@Z 10001630 f   SgiCripto.obj
 0001:00000650       ?getNSerie@SgiCripto@@YA?AW4tError@1@PAXPAV?$basic_string@DU?$char_traits@D@std@@V?$allocator@D@2@@std@@@Z 10001650 f   SgiCripto.obj
 0001:00000680       ?getRFC@SgiCripto@@YA?AW4tError@1@PAXPAV?$basic_string@DU?$char_traits@D@std@@V?$allocator@D@2@@std@@@Z 10001680 f   SgiCripto.obj
 0001:000006b0       ?getNom@SgiCripto@@YA?AW4tError@1@PAXPAV?$basic_string@DU?$char_traits@D@std@@V?$allocator@D@2@@std@@@Z 100016b0 f   SgiCripto.obj
 0001:000006e0       ?getVigIni@SgiCripto@@YA?AW4tError@1@PAXPAV?$basic_string@DU?$char_traits@D@std@@V?$allocator@D@2@@std@@@Z 100016e0 f   SgiCripto.obj
 0001:00000710       ?getVigFin@SgiCripto@@YA?AW4tError@1@PAXPAV?$basic_string@DU?$char_traits@D@std@@V?$allocator@D@2@@std@@@Z 10001710 f   SgiCripto.obj
 0001:00000740       ?msgError@SgiCripto@@YAPBDW4tError@1@@Z 10001740 f   SgiCripto.obj
 0001:00000c60       ?what@logic_error@std@@UBEPBDXZ 10001c60 f i Sgi_ARA.obj
 0001:00000c70       ??_Elength_error@std@@UAEPAXI@Z 10001c70 f i  CIL library: CIL module
 0001:00000c70       ??_Glogic_error@std@@UAEPAXI@Z 10001c70 f i Sgi_ARA.obj
 0001:00000c70       ??_Elogic_error@std@@UAEPAXI@Z 10001c70 f i  CIL library: CIL module
 0001:00000c70       ??_Gout_of_range@std@@UAEPAXI@Z 10001c70 f i Sgi_ARA.obj
 0001:00000c70       ??_Glength_error@std@@UAEPAXI@Z 10001c70 f i Sgi_ConfigFile.obj
 0001:00000c70       ??_Eout_of_range@std@@UAEPAXI@Z 10001c70 f i  CIL library: CIL module
 0001:00000ca0       ??0out_of_range@std@@QAE@ABV01@@Z 10001ca0 f i Sgi_ARA.obj
 0001:00000cc0       ??0logic_error@std@@QAE@ABV01@@Z 10001cc0 f i Sgi_ARA.obj
 0001:00000d30       ??1?$multimap@V?$basic_string@DU?$char_traits@D@std@@V?$allocator@D@2@@std@@V12@U?$less@V?$basic_string@DU?$char_traits@D@std@@V?$allocator@D@2@@std@@@2@V?$allocator@U?$pair@$$CBV?$basic_string@DU?$char_traits@D@std@@V?$allocator@D@2@@std@@V12@@std@@@2@@std@@QAE@XZ 10001d30 f i Sgi_ARA.obj
 0001:00000d40       ??0CSgiARA@@QAE@PBD@Z      10001d40 f   Sgi_ARA.obj
 0001:00000ec0       ??1MensajesARA@@QAE@XZ     10001ec0 f i Sgi_ARA.obj
 0001:00000ed0       ??1Mensajes@@QAE@XZ        10001ed0 f i Sgi_ARA.obj
 0001:00000fb0       ??1ManArchivo@@QAE@XZ      10001fb0 f i Sgi_ARA.obj
 0001:00000fc0       ??1CSgiARA@@QAE@XZ         10001fc0 f   Sgi_ARA.obj
 0001:00001080       ?Inicia@CSgiARA@@QAEHXZ    10002080 f   Sgi_ARA.obj
 0001:000011a0       ?LeeCfg@CSgiARA@@IAEHXZ    100021a0 f   Sgi_ARA.obj
 0001:00001360       ??_GCConfigFile@@QAEPAXI@Z 10002360 f i Sgi_ARA.obj
 0001:000013d0       ?LeeCfgUsr@CSgiARA@@IAEXXZ 100023d0 f   Sgi_ARA.obj
 0001:000015d0       ?Crea_Bitacora@CSgiARA@@IAEPAVCBitacora@@PBD@Z 100025d0 f   Sgi_ARA.obj
 0001:00001670       ?Conecta@CSgiARA@@QAEHXZ   10002670 f   Sgi_ARA.obj
 0001:00001870       ??1CSSL_parms@@QAE@XZ      10002870 f i Sgi_ARA.obj
 0001:00001900       ?Desconecta@CSgiARA@@QAEXXZ 10002900 f   Sgi_ARA.obj
 0001:00001960       ?EnviaRecibe@CSgiARA@@IAEHXZ 10002960 f   Sgi_ARA.obj
 0001:000019c0       ?getMsgError@CSgiARA@@IAEPBDH@Z 100029c0 f   Sgi_ARA.obj
 0001:00001aa0       ?RegErrorBitTxt@CSgiARA@@IAEXPBDHH@Z 10002aa0 f   Sgi_ARA.obj
 0001:00001b80       ?RecMsgErrorARA@CSgiARA@@IAEHPBD@Z 10002b80 f   Sgi_ARA.obj
 0001:00001eb0       ?TrataFecha@CSgiARA@@IAEXQADHPAV?$basic_string@DU?$char_traits@D@std@@V?$allocator@D@2@@std@@@Z 10002eb0 f   Sgi_ARA.obj
 0001:00001ef0       ?SolCDxNS@CSgiARA@@QAEHPBDAADAAEPAV?$basic_string@DU?$char_traits@D@std@@V?$allocator@D@2@@std@@3PAEAAH@Z 10002ef0 f   Sgi_ARA.obj
 0001:00002220       ?SolEdoCDxNS@CSgiARA@@QAEHPBDAADAAEPAV?$basic_string@DU?$char_traits@D@std@@V?$allocator@D@2@@std@@3@Z 10003220 f   Sgi_ARA.obj
 0001:00002530       ?SolNSCDFEAxRFC@CSgiARA@@QAEHPBDPAV?$basic_string@DU?$char_traits@D@std@@V?$allocator@D@2@@std@@@Z 10003530 f   Sgi_ARA.obj
 0001:00002700       ?SolListaCDxRFC@CSgiARA@@QAEHPBDDEGPAV?$basic_string@DU?$char_traits@D@std@@V?$allocator@D@2@@std@@@Z 10003700 f   Sgi_ARA.obj
 0001:00002940       ?KeepAlive@CSgiARA@@QAEHXZ 10003940 f   Sgi_ARA.obj
 0001:00002a00       ?_Tidy@?$_Tree@V?$_Tmap_traits@V?$basic_string@DU?$char_traits@D@std@@V?$allocator@D@2@@std@@V12@U?$less@V?$basic_string@DU?$char_traits@D@std@@V?$allocator@D@2@@std@@@2@V?$allocator@U?$pair@$$CBV?$basic_string@DU?$char_traits@D@std@@V?$allocator@D@2@@std@@V12@@std@@@2@$00@std@@@std@@IAEXXZ 10003a00 f i Sgi_ARA.obj
 0001:00002a40       ?erase@?$_Tree@V?$_Tmap_traits@V?$basic_string@DU?$char_traits@D@std@@V?$allocator@D@2@@std@@V12@U?$less@V?$basic_string@DU?$char_traits@D@std@@V?$allocator@D@2@@std@@@2@V?$allocator@U?$pair@$$CBV?$basic_string@DU?$char_traits@D@std@@V?$allocator@D@2@@std@@V12@@std@@@2@$00@std@@@std@@QAE?AViterator@12@V312@0@Z 10003a40 f i Sgi_ARA.obj
 0001:00002b60       ?erase@?$_Tree@V?$_Tmap_traits@V?$basic_string@DU?$char_traits@D@std@@V?$allocator@D@2@@std@@V12@U?$less@V?$basic_string@DU?$char_traits@D@std@@V?$allocator@D@2@@std@@@2@V?$allocator@U?$pair@$$CBV?$basic_string@DU?$char_traits@D@std@@V?$allocator@D@2@@std@@V12@@std@@@2@$00@std@@@std@@QAE?AViterator@12@V312@@Z 10003b60 f i Sgi_ARA.obj
 0001:00002e90       ?_Erase@?$_Tree@V?$_Tmap_traits@V?$basic_string@DU?$char_traits@D@std@@V?$allocator@D@2@@std@@V12@U?$less@V?$basic_string@DU?$char_traits@D@std@@V?$allocator@D@2@@std@@@2@V?$allocator@U?$pair@$$CBV?$basic_string@DU?$char_traits@D@std@@V?$allocator@D@2@@std@@V12@@std@@@2@$00@std@@@std@@IAEXPAU_Node@?$_Tree_nod@V?$_Tmap_traits@V?$basic_string@DU?$char_traits@D@std@@V?$allocator@D@2@@std@@V12@U?$less@V?$basic_string@DU?$char_traits@D@std@@V?$allocator@D@2@@std@@@2@V?$allocator@U?$pair@$$CBV?$basic_string@DU?$char_traits@D@std@@V?$allocator@D@2@@std@@V12@@std@@@2@$00@std@@@2@@Z 10003e90 f i Sgi_ARA.obj
 0001:00002f20       ?_Lrotate@?$_Tree@V?$_Tmap_traits@V?$basic_string@DU?$char_traits@D@std@@V?$allocator@D@2@@std@@V12@U?$less@V?$basic_string@DU?$char_traits@D@std@@V?$allocator@D@2@@std@@@2@V?$allocator@U?$pair@$$CBV?$basic_string@DU?$char_traits@D@std@@V?$allocator@D@2@@std@@V12@@std@@@2@$00@std@@@std@@IAEXPAU_Node@?$_Tree_nod@V?$_Tmap_traits@V?$basic_string@DU?$char_traits@D@std@@V?$allocator@D@2@@std@@V12@U?$less@V?$basic_string@DU?$char_traits@D@std@@V?$allocator@D@2@@std@@@2@V?$allocator@U?$pair@$$CBV?$basic_string@DU?$char_traits@D@std@@V?$allocator@D@2@@std@@V12@@std@@@2@$00@std@@@2@@Z 10003f20 f i Sgi_ARA.obj
 0001:00002f70       ?_Max@?$_Tree@V?$_Tmap_traits@V?$basic_string@DU?$char_traits@D@std@@V?$allocator@D@2@@std@@V12@U?$less@V?$basic_string@DU?$char_traits@D@std@@V?$allocator@D@2@@std@@@2@V?$allocator@U?$pair@$$CBV?$basic_string@DU?$char_traits@D@std@@V?$allocator@D@2@@std@@V12@@std@@@2@$00@std@@@std@@KAPAU_Node@?$_Tree_nod@V?$_Tmap_traits@V?$basic_string@DU?$char_traits@D@std@@V?$allocator@D@2@@std@@V12@U?$less@V?$basic_string@DU?$char_traits@D@std@@V?$allocator@D@2@@std@@@2@V?$allocator@U?$pair@$$CBV?$basic_string@DU?$char_traits@D@std@@V?$allocator@D@2@@std@@V12@@std@@@2@$00@std@@@2@PAU342@@Z 10003f70 f i Sgi_ARA.obj
 0001:00002f90       ?_Rrotate@?$_Tree@V?$_Tmap_traits@V?$basic_string@DU?$char_traits@D@std@@V?$allocator@D@2@@std@@V12@U?$less@V?$basic_string@DU?$char_traits@D@std@@V?$allocator@D@2@@std@@@2@V?$allocator@U?$pair@$$CBV?$basic_string@DU?$char_traits@D@std@@V?$allocator@D@2@@std@@V12@@std@@@2@$00@std@@@std@@IAEXPAU_Node@?$_Tree_nod@V?$_Tmap_traits@V?$basic_string@DU?$char_traits@D@std@@V?$allocator@D@2@@std@@V12@U?$less@V?$basic_string@DU?$char_traits@D@std@@V?$allocator@D@2@@std@@@2@V?$allocator@U?$pair@$$CBV?$basic_string@DU?$char_traits@D@std@@V?$allocator@D@2@@std@@V12@@std@@@2@$00@std@@@2@@Z 10003f90 f i Sgi_ARA.obj
 0001:00002fe0       ?_Inc@const_iterator@?$_Tree@V?$_Tmap_traits@V?$basic_string@DU?$char_traits@D@std@@V?$allocator@D@2@@std@@V12@U?$less@V?$basic_string@DU?$char_traits@D@std@@V?$allocator@D@2@@std@@@2@V?$allocator@U?$pair@$$CBV?$basic_string@DU?$char_traits@D@std@@V?$allocator@D@2@@std@@V12@@std@@@2@$00@std@@@std@@QAEXXZ 10003fe0 f i Sgi_ARA.obj
 0001:00003050       ??1?$pair@$$CBV?$basic_string@DU?$char_traits@D@std@@V?$allocator@D@2@@std@@V12@@std@@QAE@XZ 10004050 f i Sgi_ARA.obj
 0001:000030b0       ??_GCArchivo@@UAEPAXI@Z    100040b0 f i Sgi_Archivo.obj
 0001:000030b0       ??_ECArchivo@@UAEPAXI@Z    100040b0 f i  CIL library: CIL module
 0001:000030f0       ??1CArchivo@@UAE@XZ        100040f0 f   Sgi_Archivo.obj
 0001:00003120       ?Lee@CArchivo@@UAEIPBD@Z   10004120 f   Sgi_Archivo.obj
 0001:00003270       ?B64_Decodifica@@YA_NPADGPAEPAG@Z 10004270 f   Sgi_B64.obj
 0001:00003480       ?B64_Codifica@@YA_NPAEGPADPAG@Z 10004480 f   Sgi_B64.obj
 0001:00003610       ??0CBitacora@@QAE@V?$basic_string@DU?$char_traits@D@std@@V?$allocator@D@2@@std@@@Z 10004610 f   Sgi_Bitacora.obj
 0001:00003690       ?escribe@CBitacora@@QAEXW4BIT_NIVEL@@PBD@Z 10004690 f   Sgi_Bitacora.obj
 0001:00003840       ?escribePV@CBitacora@@QAAXW4BIT_NIVEL@@PBDZZ 10004840 f   Sgi_Bitacora.obj
 0001:000038a0       ?ObtenerFecha@CBitacora@@AAEXPAD@Z 100048a0 f   Sgi_Bitacora.obj
 0001:00003970       ??0sentry@?$basic_ostream@DU?$char_traits@D@std@@@std@@QAE@AAV12@@Z 10004970 f i Sgi_Bitacora.obj
 0001:00003a00       ??1sentry@?$basic_ostream@DU?$char_traits@D@std@@@std@@QAE@XZ 10004a00 f i Sgi_Bitacora.obj
 0001:00003a80       ??1_Sentry_base@?$basic_ostream@DU?$char_traits@D@std@@@std@@QAE@XZ 10004a80 f i Sgi_Bitacora.obj
 0001:00003aa0       ??$?6U?$char_traits@D@std@@@std@@YAAAV?$basic_ostream@DU?$char_traits@D@std@@@0@AAV10@PBD@Z 10004aa0 f i Sgi_Bitacora.obj
 0001:00003c70       ??1length_error@std@@UAE@XZ 10004c70 f i Sgi_ConfigFile.obj
 0001:00003c70       ??1out_of_range@std@@UAE@XZ 10004c70 f i Sgi_ARA.obj
 0001:00003c90       ??0CConfigFile@@QAE@V?$basic_string@DU?$char_traits@D@std@@V?$allocator@D@2@@std@@@Z 10004c90 f   Sgi_ConfigFile.obj
 0001:00003d30       ?m_leeTagPrincipal@CConfigFile@@AAEHPAV?$basic_fstream@DU?$char_traits@D@std@@@std@@V?$basic_string@DU?$char_traits@D@std@@V?$allocator@D@2@@3@@Z 10004d30 f   Sgi_ConfigFile.obj
 0001:00003ee0       ?formCadena@CConfigFile@@AAE_NV?$basic_string@DU?$char_traits@D@std@@V?$allocator@D@2@@std@@PAV23@@Z 10004ee0 f   Sgi_ConfigFile.obj
 0001:00003ff0       ?getValorVar@CConfigFile@@QAEHPBD0PAV?$basic_string@DU?$char_traits@D@std@@V?$allocator@D@2@@std@@@Z 10004ff0 f   Sgi_ConfigFile.obj
 0001:00004400       ?m_readCfgFile@CConfigFile@@AAEHXZ 10005400 f   Sgi_ConfigFile.obj
 0001:00004590       ??_E?$basic_fstream@DU?$char_traits@D@std@@@std@@UAEPAXI@Z 10005590 f i  CIL library: CIL module
 0001:00004590       ??_G?$basic_fstream@DU?$char_traits@D@std@@@std@@UAEPAXI@Z 10005590 f i Sgi_ConfigFile.obj
 0001:000045c0       ?find@?$_Tree@V?$_Tmap_traits@V?$basic_string@DU?$char_traits@D@std@@V?$allocator@D@2@@std@@V12@U?$less@V?$basic_string@DU?$char_traits@D@std@@V?$allocator@D@2@@std@@@2@V?$allocator@U?$pair@$$CBV?$basic_string@DU?$char_traits@D@std@@V?$allocator@D@2@@std@@V12@@std@@@2@$00@std@@@std@@QAE?AViterator@12@ABV?$basic_string@DU?$char_traits@D@std@@V?$allocator@D@2@@2@@Z 100055c0 f i Sgi_ConfigFile.obj
 0001:00004630       ?insert@?$_Tree@V?$_Tmap_traits@V?$basic_string@DU?$char_traits@D@std@@V?$allocator@D@2@@std@@V12@U?$less@V?$basic_string@DU?$char_traits@D@std@@V?$allocator@D@2@@std@@@2@V?$allocator@U?$pair@$$CBV?$basic_string@DU?$char_traits@D@std@@V?$allocator@D@2@@std@@V12@@std@@@2@$00@std@@@std@@QAE?AU?$pair@Viterator@?$_Tree@V?$_Tmap_traits@V?$basic_string@DU?$char_traits@D@std@@V?$allocator@D@2@@std@@V12@U?$less@V?$basic_string@DU?$char_traits@D@std@@V?$allocator@D@2@@std@@@2@V?$allocator@U?$pair@$$CBV?$basic_string@DU?$char_traits@D@std@@V?$allocator@D@2@@std@@V12@@std@@@2@$00@std@@@std@@_N@2@ABU?$pair@$$CBV?$basic_string@DU?$char_traits@D@std@@V?$allocator@D@2@@std@@V12@@2@@Z 10005630 f i Sgi_ConfigFile.obj
 0001:000046b0       ?_Insert@?$_Tree@V?$_Tmap_traits@V?$basic_string@DU?$char_traits@D@std@@V?$allocator@D@2@@std@@V12@U?$less@V?$basic_string@DU?$char_traits@D@std@@V?$allocator@D@2@@std@@@2@V?$allocator@U?$pair@$$CBV?$basic_string@DU?$char_traits@D@std@@V?$allocator@D@2@@std@@V12@@std@@@2@$00@std@@@std@@IAE?AViterator@12@_NPAU_Node@?$_Tree_nod@V?$_Tmap_traits@V?$basic_string@DU?$char_traits@D@std@@V?$allocator@D@2@@std@@V12@U?$less@V?$basic_string@DU?$char_traits@D@std@@V?$allocator@D@2@@std@@@2@V?$allocator@U?$pair@$$CBV?$basic_string@DU?$char_traits@D@std@@V?$allocator@D@2@@std@@V12@@std@@@2@$00@std@@@2@ABU?$pair@$$CBV?$basic_string@DU?$char_traits@D@std@@V?$allocator@D@2@@std@@V12@@2@@Z 100056b0 f i Sgi_ConfigFile.obj
 0001:00004940       ?_Lbound@?$_Tree@V?$_Tmap_traits@V?$basic_string@DU?$char_traits@D@std@@V?$allocator@D@2@@std@@V12@U?$less@V?$basic_string@DU?$char_traits@D@std@@V?$allocator@D@2@@std@@@2@V?$allocator@U?$pair@$$CBV?$basic_string@DU?$char_traits@D@std@@V?$allocator@D@2@@std@@V12@@std@@@2@$00@std@@@std@@IBEPAU_Node@?$_Tree_nod@V?$_Tmap_traits@V?$basic_string@DU?$char_traits@D@std@@V?$allocator@D@2@@std@@V12@U?$less@V?$basic_string@DU?$char_traits@D@std@@V?$allocator@D@2@@std@@@2@V?$allocator@U?$pair@$$CBV?$basic_string@DU?$char_traits@D@std@@V?$allocator@D@2@@std@@V12@@std@@@2@$00@std@@@2@ABV?$basic_string@DU?$char_traits@D@std@@V?$allocator@D@2@@2@@Z 10005940 f i Sgi_ConfigFile.obj
 0001:00004990       ??0length_error@std@@QAE@ABV01@@Z 10005990 f i Sgi_ConfigFile.obj
 0001:000049b0       ?_Buynode@?$_Tree@V?$_Tmap_traits@V?$basic_string@DU?$char_traits@D@std@@V?$allocator@D@2@@std@@V12@U?$less@V?$basic_string@DU?$char_traits@D@std@@V?$allocator@D@2@@std@@@2@V?$allocator@U?$pair@$$CBV?$basic_string@DU?$char_traits@D@std@@V?$allocator@D@2@@std@@V12@@std@@@2@$00@std@@@std@@IAEPAU_Node@?$_Tree_nod@V?$_Tmap_traits@V?$basic_string@DU?$char_traits@D@std@@V?$allocator@D@2@@std@@V12@U?$less@V?$basic_string@DU?$char_traits@D@std@@V?$allocator@D@2@@std@@@2@V?$allocator@U?$pair@$$CBV?$basic_string@DU?$char_traits@D@std@@V?$allocator@D@2@@std@@V12@@std@@@2@$00@std@@@2@XZ 100059b0 f i Sgi_ConfigFile.obj
 0001:000049f0       ?_Buynode@?$_Tree@V?$_Tmap_traits@V?$basic_string@DU?$char_traits@D@std@@V?$allocator@D@2@@std@@V12@U?$less@V?$basic_string@DU?$char_traits@D@std@@V?$allocator@D@2@@std@@@2@V?$allocator@U?$pair@$$CBV?$basic_string@DU?$char_traits@D@std@@V?$allocator@D@2@@std@@V12@@std@@@2@$00@std@@@std@@IAEPAU_Node@?$_Tree_nod@V?$_Tmap_traits@V?$basic_string@DU?$char_traits@D@std@@V?$allocator@D@2@@std@@V12@U?$less@V?$basic_string@DU?$char_traits@D@std@@V?$allocator@D@2@@std@@@2@V?$allocator@U?$pair@$$CBV?$basic_string@DU?$char_traits@D@std@@V?$allocator@D@2@@std@@V12@@std@@@2@$00@std@@@2@PAU342@00ABU?$pair@$$CBV?$basic_string@DU?$char_traits@D@std@@V?$allocator@D@2@@std@@V12@@2@D@Z 100059f0 f i Sgi_ConfigFile.obj
 0001:00004a80       ??0_Node@?$_Tree_nod@V?$_Tmap_traits@V?$basic_string@DU?$char_traits@D@std@@V?$allocator@D@2@@std@@V12@U?$less@V?$basic_string@DU?$char_traits@D@std@@V?$allocator@D@2@@std@@@2@V?$allocator@U?$pair@$$CBV?$basic_string@DU?$char_traits@D@std@@V?$allocator@D@2@@std@@V12@@std@@@2@$00@std@@@std@@QAE@PAU012@00ABU?$pair@$$CBV?$basic_string@DU?$char_traits@D@std@@V?$allocator@D@2@@std@@V12@@2@D@Z 10005a80 f i Sgi_ConfigFile.obj
 0001:00004b00       ??0Mensajes@@QAE@XZ        10005b00 f   Sgi_MsgPKI.obj
 0001:00004ba0       ?setMensaje@Mensajes@@QAAHHZZ 10005ba0 f   Sgi_MsgPKI.obj
 0001:00004d70       ?getMensaje@Mensajes@@QAAHHZZ 10005d70 f   Sgi_MsgPKI.obj
 0001:00005100       ?Firmar@Mensajes@@QAEIH@Z  10006100 f   Sgi_MsgPKI.obj
 0001:000051b0       ?VerificarFirma@Mensajes@@QAEIPADPAH@Z 100061b0 f   Sgi_MsgPKI.obj
 0001:00005240       ?Firma@Mensajes@@QAEIPAEGPADPAGPAUrsa_st@@@Z 10006240 f   Sgi_MsgPKI.obj
 0001:000052e0       ?VerificaFirma@Mensajes@@QAEIPADH@Z 100062e0 f   Sgi_MsgPKI.obj
 0001:000053e0       ?Encripta@Mensajes@@QAEIPAEH0PAGPAUrsa_st@@@Z 100063e0 f   Sgi_MsgPKI.obj
 0001:00005490       ?Intercambio@Mensajes@@QAEIPAVCSSL_Skt@@@Z 10006490 f   Sgi_MsgPKI.obj
 0001:000054e0       ?Recibe@Mensajes@@QAEHPAVCSSL_Skt@@@Z 100064e0 f   Sgi_MsgPKI.obj
 0001:00005560       ?setVersion@MensajesARA@@QAEIH@Z 10006560 f   Sgi_MsgPKI.obj
 0001:000055d0       ?Inicia@MensajesARA@@QAEHPBD@Z 100065d0 f   Sgi_MsgPKI.obj
 0001:000057b0       ?ConectaCliente@MensajesARA@@QAEIPAVCSSL_Skt@@@Z 100067b0 f   Sgi_MsgPKI.obj
 0001:00005d60       ?Desconecta@MensajesARA@@QAEIPAVCSSL_Skt@@@Z 10006d60 f   Sgi_MsgPKI.obj
 0001:00005dd0       ?iniciaLibOpenSSL@@YAXI@Z  10006dd0 f   Sgi_OpenSSL.obj
 0001:00005e80       ??0SNames@@QAE@XZ          10006e80 f   Sgi_OpenSSL.obj
 0001:00005e90       ??1SNames@@QAE@XZ          10006e90 f   Sgi_OpenSSL.obj
 0001:00005ec0       ?AsignaLlavePrivada_EVP@ManejaEVP_RSA@@QAEIPAUrsa_st@@@Z 10006ec0 f   Sgi_OpenSSL.obj
 0001:00005f20       ?GetllavePub@Getllave@@QAEIPAPAUrsa_st@@PAUx509_st@@PAUX509_req_st@@@Z 10006f20 f   Sgi_OpenSSL.obj
 0001:00005f80       ?GetllavePri@Getllave@@QAEIDPAU_iobuf@@PADPAPAUrsa_st@@@Z 10006f80 f   Sgi_OpenSSL.obj
 0001:00006040       ??1SGIX509@@QAE@XZ         10007040 f   Sgi_OpenSSL.obj
 0001:00006090       ?ObtienePbK@SGIX509@@QAEIPBEHPAPAUrsa_st@@PAEPAD@Z 10007090 f   Sgi_OpenSSL.obj
 0001:000061f0       ??1SGIRSA@@QAE@XZ          100071f0 f   Sgi_OpenSSL.obj
 0001:00006240       ?getLlave@SGIRSA@@QAEHPAEH0PAPAUrsa_st@@@Z 10007240 f   Sgi_OpenSSL.obj
 0001:000062f0       ?asignaAlgDigestion@SGIRSA@@QAEPBUenv_md_st@@HPAH@Z 100072f0 f   Sgi_OpenSSL.obj
 0001:000063a0       ?DecodPvKey@SGIRSA@@QAEIPAD0PAPAUrsa_st@@@Z 100073a0 f   Sgi_OpenSSL.obj
 0001:000064e0       ?EncPb@SGIRSA@@QAEIPAEHPAUrsa_st@@0PAH@Z 100074e0 f   Sgi_OpenSSL.obj
 0001:00006550       ?RSAFirma@SGIRSA@@QAEIPAEIPAUrsa_st@@0PAIH@Z 10007550 f   Sgi_OpenSSL.obj
 0001:00006670       ?VerificaFirma@SGIRSA@@QAEIPBEHPAUrsa_st@@HPAEPAH@Z 10007670 f   Sgi_OpenSSL.obj
 0001:00006800       ?GenAleatorio@SGIRSA@@QAEIHPADPAH@Z 10007800 f   Sgi_OpenSSL.obj
 0001:00006920       ?setPublica@SGIRSA@@QAEIPAUrsa_st@@PAUsgi_publicRSA_st@@@Z 10007920 f   Sgi_OpenSSL.obj
 0001:00006a10       ??1SGIPKCS7@@QAE@XZ        10007a10 f   Sgi_OpenSSL.obj
 0001:00006a30       ?TerminaGenPKCS7@SGIPKCS7@@AAEIPAEPAUx509_st@@1PAUstack_st@@PAUbio_st@@IPAU_iobuf@@4PAVManejaEVP_RSA@@PAUrsa_st@@PAUpkcs7_st@@3@Z 10007a30 f   Sgi_OpenSSL.obj
 0001:00006b60       ?GenPKCS7@SGIPKCS7@@QAEIPAD000HQAUcertificados_st@@HPAE0H@Z 10007b60 f   Sgi_OpenSSL.obj
 0001:00007d40       ?CreaArchivo@ManArchivo@@QAE_NPAEHPBD@Z 10008d40 f   Sgi_OpenSSL.obj
 0001:00007d90       ?ProcesaArchivo@ManArchivo@@QAE_NPBDPAEPAH@Z 10008d90 f   Sgi_OpenSSL.obj
 0001:00007e30       ??_GCSSL_Skt@@UAEPAXI@Z    10008e30 f i Sgi_SSL.obj
 0001:00007e30       ??_ECSSL_Skt@@UAEPAXI@Z    10008e30 f i  CIL library: CIL module
 0001:00007e50       ??0CSSL_parms@@QAE@XZ      10008e50 f   Sgi_SSL.obj
 0001:00007f00       ?LecPendiente@CSSL_Skt@@UAEHXZ 10008f00 f   Sgi_SSL.obj
 0001:00007f50       ??0CSSL_Skt_Ssl@@QAE@PAUssl_ctx_st@@PAUssl_st@@@Z 10008f50 f   Sgi_SSL.obj
 0001:00007f80       ??_GCSSL_Skt_Ssl@@UAEPAXI@Z 10008f80 f i Sgi_SSL.obj
 0001:00007f80       ??_ECSSL_Skt_Ssl@@UAEPAXI@Z 10008f80 f i  CIL library: CIL module
 0001:00007ff0       ?Envia@CSSL_Skt_Ssl@@UAEIPAEH@Z 10008ff0 f   Sgi_SSL.obj
 0001:00008030       ?Recibe@CSSL_Skt_Ssl@@UAEIPAEAAH@Z 10009030 f   Sgi_SSL.obj
 0001:00008090       ??0CSSL_Skt_Bio@@QAE@PAUbio_st@@@Z 10009090 f   Sgi_SSL.obj
 0001:000080c0       ??_ECSSL_Skt_Bio@@UAEPAXI@Z 100090c0 f i  CIL library: CIL module
 0001:000080c0       ??_GCSSL_Skt_Bio@@UAEPAXI@Z 100090c0 f i Sgi_SSL.obj
 0001:00008110       ?Envia@CSSL_Skt_Bio@@UAEIPAEH@Z 10009110 f   Sgi_SSL.obj
 0001:00008170       ?Recibe@CSSL_Skt_Bio@@UAEIPAEAAH@Z 10009170 f   Sgi_SSL.obj
 0001:000081d0       ??0CSSL_parms@@QAE@ABU0@@Z 100091d0 f i Sgi_SSL.obj
 0001:000082d0       ?Set_CTX@Sgi_SSL@@CAIAAPAUssl_ctx_st@@_NUCSSL_parms@@@Z 100092d0 f   Sgi_SSL.obj
 0001:000084d0       ?Cliente@Sgi_SSL@@SAIAAUCSSL_parms@@AAPAVCSSL_Skt@@@Z 100094d0 f   Sgi_SSL.obj
 0001:000086c0       ??0CSgi_Certificado@SgiCripto@@QAE@XZ 100096c0 f   Sgi_Certificado.obj
 0001:00008760       ??1CSgi_Certificado@SgiCripto@@QAE@XZ 10009760 f   Sgi_Certificado.obj
 0001:00008840       ?inicializa@CSgi_Certificado@SgiCripto@@QAE?AW4tError@2@PBEH@Z 10009840 f   Sgi_Certificado.obj
 0001:000088e0       ?procesa@CSgi_Certificado@SgiCripto@@IAE?AW4tError@2@PBEH@Z 100098e0 f   Sgi_Certificado.obj
 0001:00008d70       ??1CSgi_Cripto@SgiCripto@@QAE@XZ 10009d70 f   sgi_cripto.obj
 0001:00008de0       ?inicia@CSgi_Cripto@SgiCripto@@QAE?AW4tError@2@_NPBD@Z 10009de0 f   sgi_cripto.obj
 0001:00008ec0       ?solEdoCDxNS@CSgi_Cripto@SgiCripto@@QAE?AW4tError@2@PBDPADPAEPAV?$basic_string@DU?$char_traits@D@std@@V?$allocator@D@2@@std@@3@Z 10009ec0 f   sgi_cripto.obj
 0001:00008f00       ?verificaLlaves@CSgi_Cripto@SgiCripto@@QAE?AW4tError@2@PBD00@Z 10009f00 f   sgi_cripto.obj
 0001:00009040       ?generaFirma@CSgi_Cripto@SgiCripto@@QAE?AW4tError@2@PBD00HPAV?$basic_string@DU?$char_traits@D@std@@V?$allocator@D@2@@std@@@Z 1000a040 f   sgi_cripto.obj
 0001:00009220       ?verFirmaIni@CSgi_Cripto@SgiCripto@@QAE?AW4tError@2@PAVCSgi_Certificado@2@PBD@Z 1000a220 f   sgi_cripto.obj
 0001:00009360       ?verFirmaFin@CSgi_Cripto@SgiCripto@@QAE?AW4tError@2@XZ 1000a360 f   sgi_cripto.obj
 0001:00009480       ?genP7@CSgi_Cripto@SgiCripto@@QAE?AW4tError@2@PBD000H0H0@Z 1000a480 f   sgi_cripto.obj
 0001:00009540       ?obtieneNumSerieP7@CSgi_Cripto@SgiCripto@@QAE?AW4tError@2@PBDPAV?$basic_string@DU?$char_traits@D@std@@V?$allocator@D@2@@std@@@Z 1000a540 f   sgi_cripto.obj
 0001:000096d0       ?procP7@CSgi_Cripto@SgiCripto@@QAE?AW4tError@2@PBD00000H@Z 1000a6d0 f   sgi_cripto.obj
 0001:00009860       ?procP7@CSgi_Cripto@SgiCripto@@QAE?AW4tError@2@PBD000HPAPADPAH0H@Z 1000a860 f   sgi_cripto.obj
 0001:00009ad0       ?procesaPKCS7ara@CSgi_Cripto@SgiCripto@@IAE?AW4tError@2@PBEH0HPBDPAUpkcs7_st@@PAPAUbio_st@@1HPAV?$basic_string@DU?$char_traits@D@std@@V?$allocator@D@2@@std@@@Z 1000aad0 f   sgi_cripto.obj
 0001:0000a270       ?procesaPKCS7ara@CSgi_Cripto@SgiCripto@@IAE?AW4tError@2@PBEH0HPBD111HPAV?$basic_string@DU?$char_traits@D@std@@V?$allocator@D@2@@std@@@Z 1000b270 f   sgi_cripto.obj
 0001:0000ac00       ?encripta@CSgi_Cripto@SgiCripto@@QAE?AW4tError@2@PBEGH0HPAEPAG@Z 1000bc00 f   sgi_cripto.obj
 0001:0000ad80       ?desencripta@CSgi_Cripto@SgiCripto@@QAE?AW4tError@2@PBEFH0HPAEPAG@Z 1000bd80 f   sgi_cripto.obj
 0001:0000af90       ?asignaAlgoritmo@SGIRSA@@QAEPBUevp_cipher_st@@H@Z 1000bf90 f   Sgi_OpenSSL.obj
 0001:0000af90       ?setAlgEncripcion@CSgi_Cripto@SgiCripto@@IAEPBUevp_cipher_st@@H@Z 1000bf90 f   sgi_cripto.obj
 0001:0000b0f0       ?procStDigestion@CSgi_Cripto@SgiCripto@@IAE?AW4tError@2@PBEHPAPBUenv_md_st@@PAEPAI@Z 1000c0f0 f   sgi_cripto.obj
 0001:0000b540       ?ConvError@SgiCripto@@YA?AW4tError@1@_NH@Z 1000c540 f   sgi_cripto.obj
 0001:0000b810       ?forzaVer@@YAHPAUx509_st@@PAUpkcs7_st@@PAUstack_st@@PAUx509_store_st@@PAUbio_st@@4H@Z 1000c810 f   SgiOpenSSL_AraFnc.obj
 0001:0000ba30       ?forzaDec@@YAHPAUpkcs7_st@@PAUevp_pkey_st@@PAUx509_st@@PAUbio_st@@H@Z 1000ca30 f   SgiOpenSSL_AraFnc.obj
 0001:0000bd70       ?forzaDesen@@YAPAUbio_st@@PAUpkcs7_st@@PAUevp_pkey_st@@PAU1@PAUx509_st@@@Z 1000cd70 f   SgiOpenSSL_AraFnc.obj
 0001:0000c0f0       _RSA_new_method            1000d0f0 f   libeay32_EM.0.9.8e:rsa_lib.obj
 0001:0000c260       _RSA_free                  1000d260 f   libeay32_EM.0.9.8e:rsa_lib.obj
 0001:0000c380       _RSA_up_ref                1000d380 f   libeay32_EM.0.9.8e:rsa_lib.obj
 0001:0000c3b0       _RSA_size                  1000d3b0 f   libeay32_EM.0.9.8e:rsa_lib.obj
 0001:0000c3d0       _RSA_public_encrypt        1000d3d0 f   libeay32_EM.0.9.8e:rsa_lib.obj
 0001:0000c3e0       _RSA_private_encrypt       1000d3e0 f   libeay32_EM.0.9.8e:rsa_lib.obj
 0001:0000c3f0       _RSA_private_decrypt       1000d3f0 f   libeay32_EM.0.9.8e:rsa_lib.obj
 0001:0000c400       _RSA_public_decrypt        1000d400 f   libeay32_EM.0.9.8e:rsa_lib.obj
 0001:0000c410       _RSA_flags                 1000d410 f   libeay32_EM.0.9.8e:rsa_lib.obj
 0001:0000c500       _RSA_setup_blinding        1000d500 f   libeay32_EM.0.9.8e:rsa_lib.obj
 0001:0000c650       _RSA_new                   1000d650 f   libeay32_EM.0.9.8e:rsa_lib.obj
 0001:0000c750       _PKCS7_dataInit            1000d750 f   libeay32_EM.0.9.8e:pk7_doit.obj
 0001:0000cc80       _PKCS7_dataDecode          1000dc80 f   libeay32_EM.0.9.8e:pk7_doit.obj
 0001:0000d460       _PKCS7_signatureVerify     1000e460 f   libeay32_EM.0.9.8e:pk7_doit.obj
 0001:0000d790       _PKCS7_add_signed_attribute 1000e790 f   libeay32_EM.0.9.8e:pk7_doit.obj
 0001:0000d7c0       _PKCS7_dataFinal           1000e7c0 f   libeay32_EM.0.9.8e:pk7_doit.obj
 0001:0000dd80       _PKCS7_add_attrib_smimecap 1000ed80 f   libeay32_EM.0.9.8e:pk7_attr.obj
 0001:0000de40       _PKCS7_simple_smimecap     1000ee40 f   libeay32_EM.0.9.8e:pk7_attr.obj
 0001:0000df00       _PKCS7_sign                1000ef00 f   libeay32_EM.0.9.8e:pk7_smime.obj
 0001:0000e1c0       _PKCS7_get0_signers        1000f1c0 f   libeay32_EM.0.9.8e:pk7_smime.obj
 0001:0000e360       _PKCS7_encrypt             1000f360 f   libeay32_EM.0.9.8e:pk7_smime.obj
 0001:0000e4a0       _PKCS7_decrypt             1000f4a0 f   libeay32_EM.0.9.8e:pk7_smime.obj
 0001:0000e690       _PKCS7_verify              1000f690 f   libeay32_EM.0.9.8e:pk7_smime.obj
 0001:0000eb20       _X509_CINF_it              1000fb20 f   libeay32_EM.0.9.8e:x_x509.obj
 0001:0000ec00       _X509_it                   1000fc00 f   libeay32_EM.0.9.8e:x_x509.obj
 0001:0000ec10       _d2i_X509                  1000fc10 f   libeay32_EM.0.9.8e:x_x509.obj
 0001:0000ec30       _i2d_X509                  1000fc30 f   libeay32_EM.0.9.8e:x_x509.obj
 0001:0000ec50       _X509_new                  1000fc50 f   libeay32_EM.0.9.8e:x_x509.obj
 0001:0000ec60       _X509_free                 1000fc60 f   libeay32_EM.0.9.8e:x_x509.obj
 0001:0000ec80       _d2i_X509_AUX              1000fc80 f   libeay32_EM.0.9.8e:x_x509.obj
 0001:0000ed10       _X509_REQ_INFO_it          1000fd10 f   libeay32_EM.0.9.8e:x_req.obj
 0001:0000ed20       _X509_REQ_free             1000fd20 f   libeay32_EM.0.9.8e:x_req.obj
 0001:0000ed40       _X509_verify               1000fd40 f   libeay32_EM.0.9.8e:x_all.obj
 0001:0000ed70       _X509_CRL_verify           1000fd70 f   libeay32_EM.0.9.8e:x_all.obj
 0001:0000eda0       _d2i_X509_fp               1000fda0 f   libeay32_EM.0.9.8e:x_all.obj
 0001:0000edc0       _d2i_X509_bio              1000fdc0 f   libeay32_EM.0.9.8e:x_all.obj
 0001:0000ede0       _d2i_X509_CRL_bio          1000fde0 f   libeay32_EM.0.9.8e:x_all.obj
 0001:0000ee00       _d2i_PKCS7_fp              1000fe00 f   libeay32_EM.0.9.8e:x_all.obj
 0001:0000ee20       _i2d_PKCS7_fp              1000fe20 f   libeay32_EM.0.9.8e:x_all.obj
 0001:0000ee40       _d2i_PKCS7_bio             1000fe40 f   libeay32_EM.0.9.8e:x_all.obj
 0001:0000ee60       _X509_digest               1000fe60 f   libeay32_EM.0.9.8e:x_all.obj
 0001:0000ee90       _d2i_PKCS8_bio             1000fe90 f   libeay32_EM.0.9.8e:x_all.obj
 0001:0000eeb0       _d2i_PrivateKey_bio        1000feb0 f   libeay32_EM.0.9.8e:x_all.obj
 0001:0000eed0       _X509_get_subject_name     1000fed0 f   libeay32_EM.0.9.8e:x509_cmp.obj
 0001:0000eee0       _X509_get_serialNumber     1000fee0 f   libeay32_EM.0.9.8e:x509_cmp.obj
 0001:0000eee0       _EVP_CIPHER_CTX_block_size 1000fee0 f   libeay32_EM.0.9.8e:evp_lib.obj
 0001:0000eef0       _X509_cmp                  1000fef0 f   libeay32_EM.0.9.8e:x509_cmp.obj
 0001:0000f220       _X509_NAME_cmp             10010220 f   libeay32_EM.0.9.8e:x509_cmp.obj
 0001:0000f3a0       _X509_NAME_hash            100103a0 f   libeay32_EM.0.9.8e:x509_cmp.obj
 0001:0000f420       _X509_get_pubkey           10010420 f   libeay32_EM.0.9.8e:x509_cmp.obj
 0001:0000f440       _X509_check_private_key    10010440 f   libeay32_EM.0.9.8e:x509_cmp.obj
 0001:0000f520       _X509_subject_name_cmp     10010520 f   libeay32_EM.0.9.8e:x509_cmp.obj
 0001:0000f540       _X509_CRL_cmp              10010540 f   libeay32_EM.0.9.8e:x509_cmp.obj
 0001:0000f560       _X509_find_by_issuer_and_serial 10010560 f   libeay32_EM.0.9.8e:x509_cmp.obj
 0001:0000f5e0       _X509_ALGOR_it             100105e0 f   libeay32_EM.0.9.8e:x_algor.obj
 0001:0000f5f0       _i2d_X509_ALGOR            100105f0 f   libeay32_EM.0.9.8e:x_algor.obj
 0001:0000f610       _X509_ALGOR_new            10010610 f   libeay32_EM.0.9.8e:x_algor.obj
 0001:0000f620       _X509_ALGOR_free           10010620 f   libeay32_EM.0.9.8e:x_algor.obj
 0001:0000f640       _X509_ALGOR_dup            10010640 f   libeay32_EM.0.9.8e:x_algor.obj
 0001:0000f660       _PKCS7_ctrl                10010660 f   libeay32_EM.0.9.8e:pk7_lib.obj
 0001:0000f730       _PKCS7_set_content         10010730 f   libeay32_EM.0.9.8e:pk7_lib.obj
 0001:0000f7b0       _PKCS7_set_type            100107b0 f   libeay32_EM.0.9.8e:pk7_lib.obj
 0001:0000f960       _PKCS7_add_signer          10010960 f   libeay32_EM.0.9.8e:pk7_lib.obj
 0001:0000fa70       _PKCS7_add_certificate     10010a70 f   libeay32_EM.0.9.8e:pk7_lib.obj
 0001:0000fb20       _PKCS7_SIGNER_INFO_set     10010b20 f   libeay32_EM.0.9.8e:pk7_lib.obj
 0001:0000fcd0       _PKCS7_add_signature       10010cd0 f   libeay32_EM.0.9.8e:pk7_lib.obj
 0001:0000fd20       _PKCS7_get_signer_info     10010d20 f   libeay32_EM.0.9.8e:pk7_lib.obj
 0001:0000fd60       _PKCS7_add_recipient_info  10010d60 f   libeay32_EM.0.9.8e:pk7_lib.obj
 0001:0000fdc0       _PKCS7_RECIP_INFO_set      10010dc0 f   libeay32_EM.0.9.8e:pk7_lib.obj
 0001:0000fe70       _PKCS7_set_cipher          10010e70 f   libeay32_EM.0.9.8e:pk7_lib.obj
 0001:0000ff00       _PKCS7_content_new         10010f00 f   libeay32_EM.0.9.8e:pk7_lib.obj
 0001:0000ff50       _PKCS7_add_recipient       10010f50 f   libeay32_EM.0.9.8e:pk7_lib.obj
 0001:0000ffa0       _sk_set_cmp_func           10010fa0 f   libeay32_EM.0.9.8e:stack.obj
 0001:0000ffc0       _sk_new                    10010fc0 f   libeay32_EM.0.9.8e:stack.obj
 0001:00010030       _sk_insert                 10011030 f   libeay32_EM.0.9.8e:stack.obj
 0001:000100e0       _sk_delete                 100110e0 f   libeay32_EM.0.9.8e:stack.obj
 0001:00010130       _sk_push                   10011130 f   libeay32_EM.0.9.8e:stack.obj
 0001:00010150       _sk_shift                  10011150 f   libeay32_EM.0.9.8e:stack.obj
 0001:000101a0       _sk_pop                    100111a0 f   libeay32_EM.0.9.8e:stack.obj
 0001:000101c0       _sk_zero                   100111c0 f   libeay32_EM.0.9.8e:stack.obj
 0001:000101f0       _sk_free                   100111f0 f   libeay32_EM.0.9.8e:stack.obj
 0001:00010220       _sk_num                    10011220 f   libeay32_EM.0.9.8e:stack.obj
 0001:00010230       _sk_value                  10011230 f   libeay32_EM.0.9.8e:stack.obj
 0001:00010250       _sk_set                    10011250 f   libeay32_EM.0.9.8e:stack.obj
 0001:00010280       _sk_sort                   10011280 f   libeay32_EM.0.9.8e:stack.obj
 0001:000102b0       _sk_is_sorted              100112b0 f   libeay32_EM.0.9.8e:stack.obj
 0001:000102d0       _sk_dup                    100112d0 f   libeay32_EM.0.9.8e:stack.obj
 0001:00010360       _sk_new_null               10011360 f   libeay32_EM.0.9.8e:stack.obj
 0001:00010370       _sk_delete_ptr             10011370 f   libeay32_EM.0.9.8e:stack.obj
 0001:00010450       _sk_find                   10011450 f   libeay32_EM.0.9.8e:stack.obj
 0001:00010470       _sk_pop_free               10011470 f   libeay32_EM.0.9.8e:stack.obj
 0001:000104c0       _ASN1_OCTET_STRING_cmp     100114c0 f   libeay32_EM.0.9.8e:a_octet.obj
 0001:000104d0       _ASN1_OCTET_STRING_set     100114d0 f   libeay32_EM.0.9.8e:a_octet.obj
 0001:000104e0       _d2i_PKCS8PrivateKey_bio   100114e0 f   libeay32_EM.0.9.8e:pem_pk8.obj
 0001:000105e0       _d2i_PKCS8PrivateKey_fp    100115e0 f   libeay32_EM.0.9.8e:pem_pk8.obj
 0001:00010670       _EVP_sha1                  10011670 f   libeay32_EM.0.9.8e:m_sha1.obj
 0001:000106d0       _EVP_sha224                100116d0 f   libeay32_EM.0.9.8e:m_sha1.obj
 0001:000106e0       _EVP_sha256                100116e0 f   libeay32_EM.0.9.8e:m_sha1.obj
 0001:00010740       _EVP_sha384                10011740 f   libeay32_EM.0.9.8e:m_sha1.obj
 0001:00010750       _EVP_sha512                10011750 f   libeay32_EM.0.9.8e:m_sha1.obj
 0001:00010760       _EVP_MD_CTX_init           10011760 f   libeay32_EM.0.9.8e:digest.obj
 0001:00010780       _EVP_MD_CTX_create         10011780 f   libeay32_EM.0.9.8e:digest.obj
 0001:000107a0       _EVP_DigestInit_ex         100117a0 f   libeay32_EM.0.9.8e:digest.obj
 0001:000108c0       _EVP_DigestUpdate          100118c0 f   libeay32_EM.0.9.8e:digest.obj
 0001:000108d0       _EVP_DigestFinal_ex        100118d0 f   libeay32_EM.0.9.8e:digest.obj
 0001:00010950       _EVP_MD_CTX_cleanup        10011950 f   libeay32_EM.0.9.8e:digest.obj
 0001:000109e0       _EVP_DigestInit            100119e0 f   libeay32_EM.0.9.8e:digest.obj
 0001:00010a10       _EVP_DigestFinal           10011a10 f   libeay32_EM.0.9.8e:digest.obj
 0001:00010a40       _EVP_MD_CTX_copy_ex        10011a40 f   libeay32_EM.0.9.8e:digest.obj
 0001:00010b40       _EVP_Digest                10011b40 f   libeay32_EM.0.9.8e:digest.obj
 0001:00010bf0       _EVP_MD_CTX_destroy        10011bf0 f   libeay32_EM.0.9.8e:digest.obj
 0001:00010c10       _ERR_load_crypto_strings   10011c10 f   libeay32_EM.0.9.8e:err_all.obj
 0001:00010c90       _AUTHORITY_KEYID_it        10011c90 f   libeay32_EM.0.9.8e:v3_akeya.obj
 0001:00010ca0       _AUTHORITY_KEYID_new       10011ca0 f   libeay32_EM.0.9.8e:v3_akeya.obj
 0001:00010cb0       _AUTHORITY_KEYID_free      10011cb0 f   libeay32_EM.0.9.8e:v3_akeya.obj
 0001:00010f00       _EVP_des_ede_cbc           10011f00 f   libeay32_EM.0.9.8e:e_des3.obj
 0001:00010f10       _EVP_des_ede_cfb64         10011f10 f   libeay32_EM.0.9.8e:e_des3.obj
 0001:00010f20       _EVP_des_ede_ofb           10011f20 f   libeay32_EM.0.9.8e:e_des3.obj
 0001:00010f30       _EVP_des_ede3_cbc          10011f30 f   libeay32_EM.0.9.8e:e_des3.obj
 0001:00010f40       _EVP_des_ede3_cfb64        10011f40 f   libeay32_EM.0.9.8e:e_des3.obj
 0001:00010f50       _EVP_des_ede3_ofb          10011f50 f   libeay32_EM.0.9.8e:e_des3.obj
 0001:00011060       _EVP_des_ede               10012060 f   libeay32_EM.0.9.8e:e_des3.obj
 0001:00011070       _EVP_des_ede3              10012070 f   libeay32_EM.0.9.8e:e_des3.obj
 0001:00011080       _PEM_read_bio_X509         10012080 f   libeay32_EM.0.9.8e:pem_x509.obj
 0001:000110b0       _PEM_read_X509             100120b0 f   libeay32_EM.0.9.8e:pem_x509.obj
 0001:00011180       _EVP_aes_128_cbc           10012180 f   libeay32_EM.0.9.8e:e_aes.obj
 0001:00011190       _EVP_aes_128_cfb128        10012190 f   libeay32_EM.0.9.8e:e_aes.obj
 0001:000111a0       _EVP_aes_128_ofb           100121a0 f   libeay32_EM.0.9.8e:e_aes.obj
 0001:000111b0       _EVP_aes_128_ecb           100121b0 f   libeay32_EM.0.9.8e:e_aes.obj
 0001:00011220       _EVP_aes_192_cbc           10012220 f   libeay32_EM.0.9.8e:e_aes.obj
 0001:00011230       _EVP_aes_192_cfb128        10012230 f   libeay32_EM.0.9.8e:e_aes.obj
 0001:00011240       _EVP_aes_192_ofb           10012240 f   libeay32_EM.0.9.8e:e_aes.obj
 0001:00011250       _EVP_aes_192_ecb           10012250 f   libeay32_EM.0.9.8e:e_aes.obj
 0001:00011260       _EVP_aes_256_cbc           10012260 f   libeay32_EM.0.9.8e:e_aes.obj
 0001:00011270       _EVP_aes_256_cfb128        10012270 f   libeay32_EM.0.9.8e:e_aes.obj
 0001:00011280       _EVP_aes_256_ofb           10012280 f   libeay32_EM.0.9.8e:e_aes.obj
 0001:00011290       _EVP_aes_256_ecb           10012290 f   libeay32_EM.0.9.8e:e_aes.obj
 0001:000112a0       _EVP_aes_128_cfb1          100122a0 f   libeay32_EM.0.9.8e:e_aes.obj
 0001:000112f0       _EVP_aes_192_cfb1          100122f0 f   libeay32_EM.0.9.8e:e_aes.obj
 0001:00011300       _EVP_aes_256_cfb1          10012300 f   libeay32_EM.0.9.8e:e_aes.obj
 0001:00011310       _EVP_aes_128_cfb8          10012310 f   libeay32_EM.0.9.8e:e_aes.obj
 0001:00011320       _EVP_aes_192_cfb8          10012320 f   libeay32_EM.0.9.8e:e_aes.obj
 0001:00011370       _EVP_aes_256_cfb8          10012370 f   libeay32_EM.0.9.8e:e_aes.obj
 0001:00011400       _X509_NAME_entry_count     10012400 f   libeay32_EM.0.9.8e:x509name.obj
 0001:00011420       _X509_NAME_get_index_by_OBJ 10012420 f   libeay32_EM.0.9.8e:x509name.obj
 0001:00011480       _X509_NAME_get_entry       10012480 f   libeay32_EM.0.9.8e:x509name.obj
 0001:000114c0       _X509_NAME_delete_entry    100124c0 f   libeay32_EM.0.9.8e:x509name.obj
 0001:00011570       _X509_NAME_add_entry       10012570 f   libeay32_EM.0.9.8e:x509name.obj
 0001:000116a0       _X509_NAME_ENTRY_set_object 100126a0 f   libeay32_EM.0.9.8e:x509name.obj
 0001:000116f0       _X509_NAME_ENTRY_set_data  100126f0 f   libeay32_EM.0.9.8e:x509name.obj
 0001:000117b0       _X509_NAME_get_index_by_NID 100127b0 f   libeay32_EM.0.9.8e:x509name.obj
 0001:000117d0       _X509_NAME_ENTRY_create_by_OBJ 100127d0 f   libeay32_EM.0.9.8e:x509name.obj
 0001:00011840       _X509_NAME_ENTRY_create_by_txt 10012840 f   libeay32_EM.0.9.8e:x509name.obj
 0001:000118b0       _X509_NAME_add_entry_by_txt 100128b0 f   libeay32_EM.0.9.8e:x509name.obj
 0001:00011930       _EVP_sha                   10012930 f   libeay32_EM.0.9.8e:m_sha.obj
 0001:00011940       _X509_REQ_get_pubkey       10012940 f   libeay32_EM.0.9.8e:x509_req.obj
 0001:00011960       _EVP_CIPHER_CTX_init       10012960 f   libeay32_EM.0.9.8e:evp_enc.obj
 0001:00011980       _EVP_EncryptUpdate         10012980 f   libeay32_EM.0.9.8e:evp_enc.obj
 0001:00011ae0       _EVP_EncryptFinal_ex       10012ae0 f   libeay32_EM.0.9.8e:evp_enc.obj
 0001:00011ba0       _EVP_DecryptUpdate         10012ba0 f   libeay32_EM.0.9.8e:evp_enc.obj
 0001:00011c90       _EVP_DecryptFinal_ex       10012c90 f   libeay32_EM.0.9.8e:evp_enc.obj
 0001:00011dc0       _EVP_CIPHER_CTX_cleanup    10012dc0 f   libeay32_EM.0.9.8e:evp_enc.obj
 0001:00011e30       _EVP_CIPHER_CTX_ctrl       10012e30 f   libeay32_EM.0.9.8e:evp_enc.obj
 0001:00011ec0       _EVP_CIPHER_CTX_rand_key   10012ec0 f   libeay32_EM.0.9.8e:evp_enc.obj
 0001:00011f00       _EVP_CipherInit_ex         10012f00 f   libeay32_EM.0.9.8e:evp_enc.obj
 0001:00012170       _EVP_CipherUpdate          10013170 f   libeay32_EM.0.9.8e:evp_enc.obj
 0001:00012190       _EVP_CipherFinal_ex        10013190 f   libeay32_EM.0.9.8e:evp_enc.obj
 0001:000121b0       _EVP_EncryptInit_ex        100131b0 f   libeay32_EM.0.9.8e:evp_enc.obj
 0001:000121e0       _EVP_DecryptInit_ex        100131e0 f   libeay32_EM.0.9.8e:evp_enc.obj
 0001:00012210       _EVP_CIPHER_CTX_set_key_length 10013210 f   libeay32_EM.0.9.8e:evp_enc.obj
 0001:00012270       _BIO_set                   10013270 f   libeay32_EM.0.9.8e:bio_lib.obj
 0001:000122f0       _BIO_free                  100132f0 f   libeay32_EM.0.9.8e:bio_lib.obj
 0001:00012370       _BIO_clear_flags           10013370 f   libeay32_EM.0.9.8e:bio_lib.obj
 0001:00012380       _BIO_test_flags            10013380 f   libeay32_EM.0.9.8e:bio_lib.obj
 0001:00012390       _BIO_set_flags             10013390 f   libeay32_EM.0.9.8e:bio_lib.obj
 0001:000123a0       _BIO_get_callback          100133a0 f   libeay32_EM.0.9.8e:bio_lib.obj
 0001:000123a0       _EC_KEY_get0_group         100133a0 f   libeay32_EM.0.9.8e:ec_key.obj
 0001:000123a0       _EVP_CIPHER_block_size     100133a0 f   libeay32_EM.0.9.8e:evp_lib.obj
 0001:000123a0       _EVP_MD_pkey_type          100133a0 f   libeay32_EM.0.9.8e:evp_lib.obj
 0001:000123a0       _EC_GROUP_get0_generator   100133a0 f   libeay32_EM.0.9.8e:ec_lib.obj
 0001:000123b0       _BIO_set_callback          100133b0 f   libeay32_EM.0.9.8e:bio_lib.obj
 0001:000123c0       _BIO_set_callback_arg      100133c0 f   libeay32_EM.0.9.8e:bio_lib.obj
 0001:000123d0       _BIO_method_type           100133d0 f   libeay32_EM.0.9.8e:bio_lib.obj
 0001:000123e0       _BIO_read                  100133e0 f   libeay32_EM.0.9.8e:bio_lib.obj
 0001:000124a0       _BIO_write                 100134a0 f   libeay32_EM.0.9.8e:bio_lib.obj
 0001:00012560       _BIO_puts                  10013560 f   libeay32_EM.0.9.8e:bio_lib.obj
 0001:00012610       _BIO_gets                  10013610 f   libeay32_EM.0.9.8e:bio_lib.obj
 0001:000126c0       _BIO_ctrl                  100136c0 f   libeay32_EM.0.9.8e:bio_lib.obj
 0001:00012750       _BIO_callback_ctrl         10013750 f   libeay32_EM.0.9.8e:bio_lib.obj
 0001:000127e0       _BIO_ctrl_pending          100137e0 f   libeay32_EM.0.9.8e:bio_lib.obj
 0001:00012800       _BIO_push                  10013800 f   libeay32_EM.0.9.8e:bio_lib.obj
 0001:00012850       _BIO_pop                   10013850 f   libeay32_EM.0.9.8e:bio_lib.obj
 0001:000128a0       _BIO_find_type             100138a0 f   libeay32_EM.0.9.8e:bio_lib.obj
 0001:000128e0       _BIO_next                  100138e0 f   libeay32_EM.0.9.8e:bio_lib.obj
 0001:000128f0       _BIO_free_all              100138f0 f   libeay32_EM.0.9.8e:bio_lib.obj
 0001:00012920       _BIO_copy_next_retry       10013920 f   libeay32_EM.0.9.8e:bio_lib.obj
 0001:00012940       _BIO_new                   10013940 f   libeay32_EM.0.9.8e:bio_lib.obj
 0001:000129a0       _BIO_int_ctrl              100139a0 f   libeay32_EM.0.9.8e:bio_lib.obj
 0001:000129d0       _BIO_dup_chain             100139d0 f   libeay32_EM.0.9.8e:bio_lib.obj
 0001:00012b30       _d2i_RSAPrivateKey         10013b30 f   libeay32_EM.0.9.8e:rsa_asn1.obj
 0001:00012b50       _i2d_RSAPrivateKey         10013b50 f   libeay32_EM.0.9.8e:rsa_asn1.obj
 0001:00012b70       _d2i_RSAPublicKey          10013b70 f   libeay32_EM.0.9.8e:rsa_asn1.obj
 0001:00012b90       _RSAPublicKey_dup          10013b90 f   libeay32_EM.0.9.8e:rsa_asn1.obj
 0001:00012bb0       _RSAPrivateKey_dup         10013bb0 f   libeay32_EM.0.9.8e:rsa_asn1.obj
 0001:00012cd0       _EVP_rc2_cbc               10013cd0 f   libeay32_EM.0.9.8e:e_rc2.obj
 0001:00012ce0       _EVP_rc2_cfb64             10013ce0 f   libeay32_EM.0.9.8e:e_rc2.obj
 0001:00012cf0       _EVP_rc2_ofb               10013cf0 f   libeay32_EM.0.9.8e:e_rc2.obj
 0001:00012d00       _EVP_rc2_ecb               10013d00 f   libeay32_EM.0.9.8e:e_rc2.obj
 0001:00012d10       _EVP_rc2_64_cbc            10013d10 f   libeay32_EM.0.9.8e:e_rc2.obj
 0001:00012d20       _EVP_rc2_40_cbc            10013d20 f   libeay32_EM.0.9.8e:e_rc2.obj
 0001:00012fa0       _EVP_rc4                   10013fa0 f   libeay32_EM.0.9.8e:e_rc4.obj
 0001:00012fb0       _EVP_rc4_40                10013fb0 f   libeay32_EM.0.9.8e:e_rc4.obj
 0001:00013020       _BN_value_one              10014020 f   libeay32_EM.0.9.8e:bn_lib.obj
 0001:00013030       _BN_num_bits_word          10014030 f   libeay32_EM.0.9.8e:bn_lib.obj
 0001:00013080       _BN_num_bits               10014080 f   libeay32_EM.0.9.8e:bn_lib.obj
 0001:000130b0       _BN_clear_free             100140b0 f   libeay32_EM.0.9.8e:bn_lib.obj
 0001:00013110       _BN_free                   10014110 f   libeay32_EM.0.9.8e:bn_lib.obj
 0001:00013150       _BN_init                   10014150 f   libeay32_EM.0.9.8e:bn_lib.obj
 0001:00013170       _BN_new                    10014170 f   libeay32_EM.0.9.8e:bn_lib.obj
 0001:000132c0       _bn_expand2                100142c0 f   libeay32_EM.0.9.8e:bn_lib.obj
 0001:00013300       _BN_copy                   10014300 f   libeay32_EM.0.9.8e:bn_lib.obj
 0001:000133b0       _BN_clear                  100143b0 f   libeay32_EM.0.9.8e:bn_lib.obj
 0001:000133e0       _BN_set_word               100143e0 f   libeay32_EM.0.9.8e:bn_lib.obj
 0001:00013440       _BN_bin2bn                 10014440 f   libeay32_EM.0.9.8e:bn_lib.obj
 0001:00013540       _BN_bn2bin                 10014540 f   libeay32_EM.0.9.8e:bn_lib.obj
 0001:000135c0       _BN_ucmp                   100145c0 f   libeay32_EM.0.9.8e:bn_lib.obj
 0001:00013610       _BN_cmp                    10014610 f   libeay32_EM.0.9.8e:bn_lib.obj
 0001:000136b0       _BN_set_bit                100146b0 f   libeay32_EM.0.9.8e:bn_lib.obj
 0001:00013740       _BN_is_bit_set             10014740 f   libeay32_EM.0.9.8e:bn_lib.obj
 0001:00013790       _BN_set_negative           10014790 f   libeay32_EM.0.9.8e:bn_lib.obj
 0001:000137c0       _bn_cmp_words              100147c0 f   libeay32_EM.0.9.8e:bn_lib.obj
 0001:00013810       _bn_cmp_part_words         10014810 f   libeay32_EM.0.9.8e:bn_lib.obj
 0001:000138b0       _BN_dup                    100148b0 f   libeay32_EM.0.9.8e:bn_lib.obj
 0001:000138f0       _EVP_PKEY_bits             100148f0 f   libeay32_EM.0.9.8e:p_lib.obj
 0001:00013980       _EVP_PKEY_size             10014980 f   libeay32_EM.0.9.8e:p_lib.obj
 0001:000139d0       _EVP_PKEY_missing_parameters 100149d0 f   libeay32_EM.0.9.8e:p_lib.obj
 0001:00013a20       _EVP_PKEY_cmp_parameters   10014a20 f   libeay32_EM.0.9.8e:p_lib.obj
 0001:00013ad0       _EVP_PKEY_cmp              10014ad0 f   libeay32_EM.0.9.8e:p_lib.obj
 0001:00013bb0       _EVP_PKEY_new              10014bb0 f   libeay32_EM.0.9.8e:p_lib.obj
 0001:00013c00       _EVP_PKEY_get1_RSA         10014c00 f   libeay32_EM.0.9.8e:p_lib.obj
 0001:00013c40       _EVP_PKEY_type             10014c40 f   libeay32_EM.0.9.8e:p_lib.obj
 0001:00013da0       _EVP_PKEY_copy_parameters  10014da0 f   libeay32_EM.0.9.8e:p_lib.obj
 0001:00013f00       _EVP_PKEY_assign           10014f00 f   libeay32_EM.0.9.8e:p_lib.obj
 0001:00013f40       _EVP_PKEY_free             10014f40 f   libeay32_EM.0.9.8e:p_lib.obj
 0001:000141b0       _RAND_poll                 100151b0 f   libeay32_EM.0.9.8e:rand_win.obj
 0001:000148f0       _RAND_screen               100158f0 f   libeay32_EM.0.9.8e:rand_win.obj
 0001:00014900       _ASN1_const_check_infinite_end 10015900 f   libeay32_EM.0.9.8e:asn1_lib.obj
 0001:000149d0       _ASN1_put_eoc              100159d0 f   libeay32_EM.0.9.8e:asn1_lib.obj
 0001:000149f0       _ASN1_object_size          100159f0 f   libeay32_EM.0.9.8e:asn1_lib.obj
 0001:00014a30       _ASN1_STRING_set           10015a30 f   libeay32_EM.0.9.8e:asn1_lib.obj
 0001:00014b00       _ASN1_STRING_type_new      10015b00 f   libeay32_EM.0.9.8e:asn1_lib.obj
 0001:00014b50       _ASN1_STRING_free          10015b50 f   libeay32_EM.0.9.8e:asn1_lib.obj
 0001:00014b80       _ASN1_STRING_cmp           10015b80 f   libeay32_EM.0.9.8e:asn1_lib.obj
 0001:00014c30       _asn1_add_error            10015c30 f   libeay32_EM.0.9.8e:asn1_lib.obj
 0001:00014ca0       _ASN1_get_object           10015ca0 f   libeay32_EM.0.9.8e:asn1_lib.obj
 0001:00014dc0       _ASN1_put_object           10015dc0 f   libeay32_EM.0.9.8e:asn1_lib.obj
 0001:00014eb0       _asn1_GetSequence          10015eb0 f   libeay32_EM.0.9.8e:asn1_lib.obj
 0001:00014f40       _ASN1_STRING_dup           10015f40 f   libeay32_EM.0.9.8e:asn1_lib.obj
 0001:00014fa0       _ASN1_STRING_new           10015fa0 f   libeay32_EM.0.9.8e:asn1_lib.obj
 0001:00015030       _EVP_md4                   10016030 f   libeay32_EM.0.9.8e:m_md4.obj
 0001:00015040       _PEM_read_bio_X509_CRL     10016040 f   libeay32_EM.0.9.8e:pem_all.obj
 0001:00015070       _PEM_read_RSAPrivateKey    10016070 f   libeay32_EM.0.9.8e:pem_all.obj
 0001:000150d0       _X509v3_get_ext_count      100160d0 f   libeay32_EM.0.9.8e:x509_v3.obj
 0001:000150f0       _X509v3_get_ext_by_OBJ     100160f0 f   libeay32_EM.0.9.8e:x509_v3.obj
 0001:00015150       _X509v3_get_ext            10016150 f   libeay32_EM.0.9.8e:x509_v3.obj
 0001:00015180       _UI_get_string_type        10016180 f   libeay32_EM.0.9.8e:ui_lib.obj
 0001:00015180       _X509_EXTENSION_get_object 10016180 f   libeay32_EM.0.9.8e:x509_v3.obj
 0001:00015180       _X509_NAME_ENTRY_get_object 10016180 f   libeay32_EM.0.9.8e:x509name.obj
 0001:00015190       _X509_EXTENSION_get_critical 10016190 f   libeay32_EM.0.9.8e:x509_v3.obj
 0001:000151b0       _X509v3_get_ext_by_NID     100161b0 f   libeay32_EM.0.9.8e:x509_v3.obj
 0001:000151d0       _PEM_read_bio_PrivateKey   100161d0 f   libeay32_EM.0.9.8e:pem_pkey.obj
 0001:00015450       _PEM_read_PrivateKey       10016450 f   libeay32_EM.0.9.8e:pem_pkey.obj
 0001:000155c0       _EVP_rc5_32_12_16_cbc      100165c0 f   libeay32_EM.0.9.8e:e_rc5.obj
 0001:000155d0       _EVP_rc5_32_12_16_cfb64    100165d0 f   libeay32_EM.0.9.8e:e_rc5.obj
 0001:000155e0       _EVP_rc5_32_12_16_ofb      100165e0 f   libeay32_EM.0.9.8e:e_rc5.obj
 0001:000155f0       _EVP_rc5_32_12_16_ecb      100165f0 f   libeay32_EM.0.9.8e:e_rc5.obj
 0001:00015c60       _ERR_free_strings          10016c60 f   libeay32_EM.0.9.8e:err.obj
 0001:00015cc0       _ERR_lib_error_string      10016cc0 f   libeay32_EM.0.9.8e:err.obj
 0001:00015d40       _ERR_func_error_string     10016d40 f   libeay32_EM.0.9.8e:err.obj
 0001:00015dd0       _ERR_reason_error_string   10016dd0 f   libeay32_EM.0.9.8e:err.obj
 0001:00015ee0       _ERR_get_state             10016ee0 f   libeay32_EM.0.9.8e:err.obj
 0001:00016000       _ERR_set_error_data        10017000 f   libeay32_EM.0.9.8e:err.obj
 0001:00016090       _ERR_add_error_data        10017090 f   libeay32_EM.0.9.8e:err.obj
 0001:00016380       _ERR_load_ERR_strings      10017380 f   libeay32_EM.0.9.8e:err.obj
 0001:00016480       _ERR_load_strings          10017480 f   libeay32_EM.0.9.8e:err.obj
 0001:000164a0       _ERR_put_error             100174a0 f   libeay32_EM.0.9.8e:err.obj
 0001:000165a0       _ERR_clear_error           100175a0 f   libeay32_EM.0.9.8e:err.obj
 0001:00016620       _ERR_error_string_n        10017620 f   libeay32_EM.0.9.8e:err.obj
 0001:00016790       _ERR_error_string          10017790 f   libeay32_EM.0.9.8e:err.obj
 0001:000167c0       _ERR_get_error             100177c0 f   libeay32_EM.0.9.8e:err.obj
 0001:00016840       _ERR_get_error_line_data   10017840 f   libeay32_EM.0.9.8e:err.obj
 0001:00016930       _ERR_peek_error            10017930 f   libeay32_EM.0.9.8e:err.obj
 0001:00016960       _ERR_peek_last_error       10017960 f   libeay32_EM.0.9.8e:err.obj
 0001:00016980       _asc2uni                   10017980 f   libeay32_EM.0.9.8e:p12_utl.obj
 0001:00016fa0       _X509_time_adj             10017fa0 f   libeay32_EM.0.9.8e:x509_vfy.obj
 0001:00017030       _X509_get_pubkey_parameters 10018030 f   libeay32_EM.0.9.8e:x509_vfy.obj
 0001:00017130       _X509_STORE_CTX_get_ex_new_index 10018130 f   libeay32_EM.0.9.8e:x509_vfy.obj
 0001:00017160       _X509_STORE_CTX_set_ex_data 10018160 f   libeay32_EM.0.9.8e:x509_vfy.obj
 0001:00017170       _X509_STORE_CTX_get_error  10018170 f   libeay32_EM.0.9.8e:x509_vfy.obj
 0001:00017180       _X509_STORE_CTX_set0_crls  10018180 f   libeay32_EM.0.9.8e:x509_vfy.obj
 0001:00017180       _BN_BLINDING_set_thread_id 10018180 f   libeay32_EM.0.9.8e:bn_blind.obj
 0001:00017190       _X509_STORE_CTX_cleanup    10018190 f   libeay32_EM.0.9.8e:x509_vfy.obj
 0001:00017210       _X509_VERIFY_PARAM_set_depth 10018210 f   libeay32_EM.0.9.8e:x509_vpm.obj
 0001:00017210       _X509_STORE_CTX_set_verify_cb 10018210 f   libeay32_EM.0.9.8e:x509_vfy.obj
 0001:00017220       _X509_STORE_CTX_set_default 10018220 f   libeay32_EM.0.9.8e:x509_vfy.obj
 0001:000172b0       _X509_cmp_time             100182b0 f   libeay32_EM.0.9.8e:x509_vfy.obj
 0001:000174c0       _X509_gmtime_adj           100184c0 f   libeay32_EM.0.9.8e:x509_vfy.obj
 0001:000174e0       _X509_STORE_CTX_set_purpose 100184e0 f   libeay32_EM.0.9.8e:x509_vfy.obj
 0001:00017b90       _X509_STORE_CTX_init       10018b90 f   libeay32_EM.0.9.8e:x509_vfy.obj
 0001:00017d50       _X509_verify_cert          10018d50 f   libeay32_EM.0.9.8e:x509_vfy.obj
 0001:000181b0       _RAND_add                  100191b0 f   libeay32_EM.0.9.8e:rand_lib.obj
 0001:00018220       _RAND_bytes                10019220 f   libeay32_EM.0.9.8e:rand_lib.obj
 0001:00018280       _RAND_pseudo_bytes         10019280 f   libeay32_EM.0.9.8e:rand_lib.obj
 0001:000182e0       _RAND_status               100192e0 f   libeay32_EM.0.9.8e:rand_lib.obj
 0001:00018380       _CRYPTO_free_locked        10019380 f   libeay32_EM.0.9.8e:mem.obj
 0001:000183c0       _CRYPTO_malloc             100193c0 f   libeay32_EM.0.9.8e:mem.obj
 0001:00018440       _CRYPTO_realloc            10019440 f   libeay32_EM.0.9.8e:mem.obj
 0001:000184c0       _CRYPTO_realloc_clean      100194c0 f   libeay32_EM.0.9.8e:mem.obj
 0001:00018570       _CRYPTO_free               10019570 f   libeay32_EM.0.9.8e:mem.obj
 0001:000185b0       _BIO_s_mem                 100195b0 f   libeay32_EM.0.9.8e:bss_mem.obj
 0001:000185c0       _BIO_new_mem_buf           100195c0 f   libeay32_EM.0.9.8e:bss_mem.obj
 0001:00018a50       _X509_NAME_ENTRY_it        10019a50 f   libeay32_EM.0.9.8e:x_name.obj
 0001:00018a60       _X509_NAME_ENTRY_new       10019a60 f   libeay32_EM.0.9.8e:x_name.obj
 0001:00018a70       _X509_NAME_ENTRY_free      10019a70 f   libeay32_EM.0.9.8e:x_name.obj
 0001:00018a90       _X509_NAME_ENTRY_dup       10019a90 f   libeay32_EM.0.9.8e:x_name.obj
 0001:00018ab0       _X509_NAME_ENTRIES_it      10019ab0 f   libeay32_EM.0.9.8e:x_name.obj
 0001:00018ac0       _X509_NAME_it              10019ac0 f   libeay32_EM.0.9.8e:x_name.obj
 0001:00018ad0       _d2i_X509_NAME             10019ad0 f   libeay32_EM.0.9.8e:x_name.obj
 0001:00018af0       _i2d_X509_NAME             10019af0 f   libeay32_EM.0.9.8e:x_name.obj
 0001:00018b10       _X509_NAME_new             10019b10 f   libeay32_EM.0.9.8e:x_name.obj
 0001:00018b20       _X509_NAME_free            10019b20 f   libeay32_EM.0.9.8e:x_name.obj
 0001:00018b40       _X509_NAME_dup             10019b40 f   libeay32_EM.0.9.8e:x_name.obj
 0001:00018f20       _X509_NAME_set             10019f20 f   libeay32_EM.0.9.8e:x_name.obj
 0001:00018ff0       _EVP_md5                   10019ff0 f   libeay32_EM.0.9.8e:m_md5.obj
 0001:00019000       _X509_SIG_it               1001a000 f   libeay32_EM.0.9.8e:x_sig.obj
 0001:00019010       _d2i_X509_SIG              1001a010 f   libeay32_EM.0.9.8e:x_sig.obj
 0001:00019030       _i2d_X509_SIG              1001a030 f   libeay32_EM.0.9.8e:x_sig.obj
 0001:00019050       _X509_SIG_new              1001a050 f   libeay32_EM.0.9.8e:x_sig.obj
 0001:00019060       _X509_SIG_free             1001a060 f   libeay32_EM.0.9.8e:x_sig.obj
 0001:000193b0       _CRYPTO_cleanup_all_ex_data 1001a3b0 f   libeay32_EM.0.9.8e:ex_data.obj
 0001:00019410       _CRYPTO_get_ex_new_index   1001a410 f   libeay32_EM.0.9.8e:ex_data.obj
 0001:00019470       _CRYPTO_new_ex_data        1001a470 f   libeay32_EM.0.9.8e:ex_data.obj
 0001:000194d0       _CRYPTO_dup_ex_data        1001a4d0 f   libeay32_EM.0.9.8e:ex_data.obj
 0001:00019530       _CRYPTO_free_ex_data       1001a530 f   libeay32_EM.0.9.8e:ex_data.obj
 0001:00019590       _CRYPTO_set_ex_data        1001a590 f   libeay32_EM.0.9.8e:ex_data.obj
 0001:00019a30       _a2d_ASN1_OBJECT           1001aa30 f   libeay32_EM.0.9.8e:a_object.obj
 0001:00019e20       _i2t_ASN1_OBJECT           1001ae20 f   libeay32_EM.0.9.8e:a_object.obj
 0001:00019e40       _i2a_ASN1_OBJECT           1001ae40 f   libeay32_EM.0.9.8e:a_object.obj
 0001:00019f50       _ASN1_OBJECT_new           1001af50 f   libeay32_EM.0.9.8e:a_object.obj
 0001:00019fa0       _ASN1_OBJECT_free          1001afa0 f   libeay32_EM.0.9.8e:a_object.obj
 0001:0001a010       _c2i_ASN1_OBJECT           1001b010 f   libeay32_EM.0.9.8e:a_object.obj
 0001:0001a0f0       _d2i_ASN1_OBJECT           1001b0f0 f   libeay32_EM.0.9.8e:a_object.obj
 0001:0001a190       _OBJ_nid2obj               1001b190 f   libeay32_EM.0.9.8e:obj_dat.obj
 0001:0001a220       _OBJ_nid2sn                1001b220 f   libeay32_EM.0.9.8e:obj_dat.obj
 0001:0001a2c0       _OBJ_nid2ln                1001b2c0 f   libeay32_EM.0.9.8e:obj_dat.obj
 0001:0001a410       _OBJ_bsearch_ex            1001b410 f   libeay32_EM.0.9.8e:obj_dat.obj
 0001:0001a4c0       _OBJ_bsearch               1001b4c0 f   libeay32_EM.0.9.8e:obj_dat.obj
 0001:0001a4f0       _OBJ_obj2nid               1001b4f0 f   libeay32_EM.0.9.8e:obj_dat.obj
 0001:0001a5a0       _OBJ_obj2txt               1001b5a0 f   libeay32_EM.0.9.8e:obj_dat.obj
 0001:0001a8f0       _OBJ_ln2nid                1001b8f0 f   libeay32_EM.0.9.8e:obj_dat.obj
 0001:0001a9c0       _OBJ_sn2nid                1001b9c0 f   libeay32_EM.0.9.8e:obj_dat.obj
 0001:0001aa90       _OBJ_txt2obj               1001ba90 f   libeay32_EM.0.9.8e:obj_dat.obj
 0001:0001ae30       _asn1_ex_i2c               1001be30 f   libeay32_EM.0.9.8e:tasn_enc.obj
 0001:0001b0a0       _ASN1_item_ex_i2d          1001c0a0 f   libeay32_EM.0.9.8e:tasn_enc.obj
 0001:0001b680       _ASN1_item_i2d             1001c680 f   libeay32_EM.0.9.8e:tasn_enc.obj
 0001:0001b6a0       _ERR_print_errors_cb       1001c6a0 f   libeay32_EM.0.9.8e:err_prn.obj
 0001:0001b800       _ERR_print_errors_fp       1001c800 f   libeay32_EM.0.9.8e:err_prn.obj
 0001:0001b860       _EVP_md2                   1001c860 f   libeay32_EM.0.9.8e:m_md2.obj
 0001:0001b960       _EVP_idea_cbc              1001c960 f   libeay32_EM.0.9.8e:e_idea.obj
 0001:0001b970       _EVP_idea_cfb64            1001c970 f   libeay32_EM.0.9.8e:e_idea.obj
 0001:0001b980       _EVP_idea_ofb              1001c980 f   libeay32_EM.0.9.8e:e_idea.obj
 0001:0001b990       _EVP_idea_ecb              1001c990 f   libeay32_EM.0.9.8e:e_idea.obj
 0001:0001ba40       _PKCS12_MAC_DATA_it        1001ca40 f   libeay32_EM.0.9.8e:p12_asn.obj
 0001:0001ba60       _PKCS12_BAGS_it            1001ca60 f   libeay32_EM.0.9.8e:p12_asn.obj
 0001:0001ba80       _PKCS12_SAFEBAG_it         1001ca80 f   libeay32_EM.0.9.8e:p12_asn.obj
 0001:0001baa0       _PKCS7_it                  1001caa0 f   libeay32_EM.0.9.8e:pk7_asn1.obj
 0001:0001bab0       _i2d_PKCS7                 1001cab0 f   libeay32_EM.0.9.8e:pk7_asn1.obj
 0001:0001bad0       _PKCS7_new                 1001cad0 f   libeay32_EM.0.9.8e:pk7_asn1.obj
 0001:0001bae0       _PKCS7_free                1001cae0 f   libeay32_EM.0.9.8e:pk7_asn1.obj
 0001:0001bb00       _PKCS7_SIGNED_it           1001cb00 f   libeay32_EM.0.9.8e:pk7_asn1.obj
 0001:0001bb10       _PKCS7_SIGNED_new          1001cb10 f   libeay32_EM.0.9.8e:pk7_asn1.obj
 0001:0001bb20       _PKCS7_SIGNED_free         1001cb20 f   libeay32_EM.0.9.8e:pk7_asn1.obj
 0001:0001bb60       _PKCS7_SIGNER_INFO_it      1001cb60 f   libeay32_EM.0.9.8e:pk7_asn1.obj
 0001:0001bb70       _PKCS7_SIGNER_INFO_new     1001cb70 f   libeay32_EM.0.9.8e:pk7_asn1.obj
 0001:0001bb80       _PKCS7_SIGNER_INFO_free    1001cb80 f   libeay32_EM.0.9.8e:pk7_asn1.obj
 0001:0001bba0       _PKCS7_ISSUER_AND_SERIAL_it 1001cba0 f   libeay32_EM.0.9.8e:pk7_asn1.obj
 0001:0001bbb0       _PKCS7_ENVELOPE_it         1001cbb0 f   libeay32_EM.0.9.8e:pk7_asn1.obj
 0001:0001bbc0       _PKCS7_ENVELOPE_new        1001cbc0 f   libeay32_EM.0.9.8e:pk7_asn1.obj
 0001:0001bbf0       _PKCS7_RECIP_INFO_it       1001cbf0 f   libeay32_EM.0.9.8e:pk7_asn1.obj
 0001:0001bc00       _PKCS7_RECIP_INFO_new      1001cc00 f   libeay32_EM.0.9.8e:pk7_asn1.obj
 0001:0001bc10       _PKCS7_RECIP_INFO_free     1001cc10 f   libeay32_EM.0.9.8e:pk7_asn1.obj
 0001:0001bc30       _PKCS7_ENC_CONTENT_it      1001cc30 f   libeay32_EM.0.9.8e:pk7_asn1.obj
 0001:0001bc40       _PKCS7_SIGN_ENVELOPE_it    1001cc40 f   libeay32_EM.0.9.8e:pk7_asn1.obj
 0001:0001bc50       _PKCS7_SIGN_ENVELOPE_new   1001cc50 f   libeay32_EM.0.9.8e:pk7_asn1.obj
 0001:0001bc60       _PKCS7_ENCRYPT_it          1001cc60 f   libeay32_EM.0.9.8e:pk7_asn1.obj
 0001:0001bc70       _PKCS7_ENCRYPT_new         1001cc70 f   libeay32_EM.0.9.8e:pk7_asn1.obj
 0001:0001bc80       _PKCS7_DIGEST_it           1001cc80 f   libeay32_EM.0.9.8e:pk7_asn1.obj
 0001:0001bc90       _PKCS7_DIGEST_new          1001cc90 f   libeay32_EM.0.9.8e:pk7_asn1.obj
 0001:0001bca0       _PKCS7_ATTR_SIGN_it        1001cca0 f   libeay32_EM.0.9.8e:pk7_asn1.obj
 0001:0001bcb0       _PKCS7_ATTR_VERIFY_it      1001ccb0 f   libeay32_EM.0.9.8e:pk7_asn1.obj
 0001:0001bcc0       _RSA_sign                  1001ccc0 f   libeay32_EM.0.9.8e:rsa_sign.obj
 0001:0001bed0       _RSA_verify                1001ced0 f   libeay32_EM.0.9.8e:rsa_sign.obj
 0001:0001c320       _EVP_bf_cbc                1001d320 f   libeay32_EM.0.9.8e:e_bf.obj
 0001:0001c330       _EVP_bf_cfb64              1001d330 f   libeay32_EM.0.9.8e:e_bf.obj
 0001:0001c340       _EVP_bf_ofb                1001d340 f   libeay32_EM.0.9.8e:e_bf.obj
 0001:0001c350       _EVP_bf_ecb                1001d350 f   libeay32_EM.0.9.8e:e_bf.obj
 0001:0001c3d0       _EVP_mdc2                  1001d3d0 f   libeay32_EM.0.9.8e:m_mdc2.obj
 0001:0001c3e0       _EVP_desx_cbc              1001d3e0 f   libeay32_EM.0.9.8e:e_xcbc_d.obj
 0001:0001c580       _EVP_cast5_cbc             1001d580 f   libeay32_EM.0.9.8e:e_cast.obj
 0001:0001c590       _EVP_cast5_cfb64           1001d590 f   libeay32_EM.0.9.8e:e_cast.obj
 0001:0001c5a0       _EVP_cast5_ofb             1001d5a0 f   libeay32_EM.0.9.8e:e_cast.obj
 0001:0001c5b0       _EVP_cast5_ecb             1001d5b0 f   libeay32_EM.0.9.8e:e_cast.obj
 0001:0001c5f0       _X509_STORE_set_default_paths 1001d5f0 f   libeay32_EM.0.9.8e:x509_d2.obj
 0001:0001c650       _X509_STORE_load_locations 1001d650 f   libeay32_EM.0.9.8e:x509_d2.obj
 0001:0001c960       _ASN1_mbstring_ncopy       1001d960 f   libeay32_EM.0.9.8e:a_mbstr.obj
 0001:0001cd80       _ASN1_mbstring_copy        1001dd80 f   libeay32_EM.0.9.8e:a_mbstr.obj
 0001:0001cf90       _EVP_des_cbc               1001df90 f   libeay32_EM.0.9.8e:e_des.obj
 0001:0001cfa0       _EVP_des_cfb64             1001dfa0 f   libeay32_EM.0.9.8e:e_des.obj
 0001:0001cfb0       _EVP_des_ofb               1001dfb0 f   libeay32_EM.0.9.8e:e_des.obj
 0001:0001cfc0       _EVP_des_ecb               1001dfc0 f   libeay32_EM.0.9.8e:e_des.obj
 0001:0001cfd0       _EVP_des_cfb1              1001dfd0 f   libeay32_EM.0.9.8e:e_des.obj
 0001:0001cfe0       _EVP_des_cfb8              1001dfe0 f   libeay32_EM.0.9.8e:e_des.obj
 0001:0001d050       _X509_get_ext_count        1001e050 f   libeay32_EM.0.9.8e:x509_ext.obj
 0001:0001d070       _X509_get_ext_by_NID       1001e070 f   libeay32_EM.0.9.8e:x509_ext.obj
 0001:0001d090       _X509_get_ext              1001e090 f   libeay32_EM.0.9.8e:x509_ext.obj
 0001:0001d0b0       _X509_get_ext_d2i          1001e0b0 f   libeay32_EM.0.9.8e:x509_ext.obj
 0001:0001d0d0       _ASN1_INTEGER_cmp          1001e0d0 f   libeay32_EM.0.9.8e:a_int.obj
 0001:0001d110       _i2c_ASN1_INTEGER          1001e110 f   libeay32_EM.0.9.8e:a_int.obj
 0001:0001d240       _c2i_ASN1_INTEGER          1001e240 f   libeay32_EM.0.9.8e:a_int.obj
 0001:0001d3e0       _ASN1_INTEGER_set          1001e3e0 f   libeay32_EM.0.9.8e:a_int.obj
 0001:0001d4d0       _ASN1_INTEGER_get          1001e4d0 f   libeay32_EM.0.9.8e:a_int.obj
 0001:0001d530       _BN_to_ASN1_INTEGER        1001e530 f   libeay32_EM.0.9.8e:a_int.obj
 0001:0001d610       _ASN1_INTEGER_to_BN        1001e610 f   libeay32_EM.0.9.8e:a_int.obj
 0001:0001d670       _X509V3_get_section        1001e670 f   libeay32_EM.0.9.8e:v3_conf.obj
 0001:0001d6b0       _X509V3_section_free       1001e6b0 f   libeay32_EM.0.9.8e:v3_conf.obj
 0001:0001d900       _SMIME_crlf_copy           1001e900 f   libeay32_EM.0.9.8e:pk7_mime.obj
 0001:0001de30       _SMIME_text                1001ee30 f   libeay32_EM.0.9.8e:pk7_mime.obj
 0001:0001dfd0       _BIO_s_file                1001efd0 f   libeay32_EM.0.9.8e:bss_file.obj
 0001:0001e4a0       _BIO_new_file              1001f4a0 f   libeay32_EM.0.9.8e:bss_file.obj
 0001:0001e580       _BIO_new_fp                1001f580 f   libeay32_EM.0.9.8e:bss_file.obj
 0001:0001e5c0       _BN_bn2dec                 1001f5c0 f   libeay32_EM.0.9.8e:bn_print.obj
 0001:0001e790       _BN_hex2bn                 1001f790 f   libeay32_EM.0.9.8e:bn_print.obj
 0001:0001e930       _BN_dec2bn                 1001f930 f   libeay32_EM.0.9.8e:bn_print.obj
 0001:0001ea90       _X509_EXTENSION_it         1001fa90 f   libeay32_EM.0.9.8e:x_exten.obj
 0001:0001eaa0       _OPENSSL_add_all_algorithms_noconf 1001faa0 f   libeay32_EM.0.9.8e:c_all.obj
 0001:0001eab0       _BN_generate_prime         1001fab0 f   libeay32_EM.0.9.8e:bn_depr.obj
 0001:0001eb80       _EVP_ripemd160             1001fb80 f   libeay32_EM.0.9.8e:m_ripemd.obj
 0001:0001eb90       _X509_LOOKUP_ctrl          1001fb90 f   libeay32_EM.0.9.8e:x509_lu.obj
 0001:0001ec10       _X509_STORE_new            1001fc10 f   libeay32_EM.0.9.8e:x509_lu.obj
 0001:0001ece0       _X509_STORE_free           1001fce0 f   libeay32_EM.0.9.8e:x509_lu.obj
 0001:0001ed90       _X509_STORE_add_lookup     1001fd90 f   libeay32_EM.0.9.8e:x509_lu.obj
 0001:0001ee50       _X509_OBJECT_up_ref_count  1001fe50 f   libeay32_EM.0.9.8e:x509_lu.obj
 0001:0001eea0       _X509_OBJECT_free_contents 1001fea0 f   libeay32_EM.0.9.8e:x509_lu.obj
 0001:0001eed0       _X509_OBJECT_idx_by_subject 1001fed0 f   libeay32_EM.0.9.8e:x509_lu.obj
 0001:0001ef80       _X509_OBJECT_retrieve_match 1001ff80 f   libeay32_EM.0.9.8e:x509_lu.obj
 0001:0001f050       _X509_STORE_get_by_subject 10020050 f   libeay32_EM.0.9.8e:x509_lu.obj
 0001:0001f180       _X509_STORE_add_cert       10020180 f   libeay32_EM.0.9.8e:x509_lu.obj
 0001:0001f250       _X509_STORE_add_crl        10020250 f   libeay32_EM.0.9.8e:x509_lu.obj
 0001:0001f330       _X509_STORE_CTX_get1_issuer 10020330 f   libeay32_EM.0.9.8e:x509_lu.obj
 0001:0001f500       _X509V3_EXT_get_nid        10020500 f   libeay32_EM.0.9.8e:v3_lib.obj
 0001:0001f580       _X509V3_EXT_d2i            10020580 f   libeay32_EM.0.9.8e:v3_lib.obj
 0001:0001f600       _X509V3_get_d2i            10020600 f   libeay32_EM.0.9.8e:v3_lib.obj
 0001:0001f6f0       _EVP_add_cipher            100206f0 f   libeay32_EM.0.9.8e:names.obj
 0001:0001f730       _EVP_add_digest            10020730 f   libeay32_EM.0.9.8e:names.obj
 0001:0001f7c0       _EVP_get_cipherbyname      100207c0 f   libeay32_EM.0.9.8e:names.obj
 0001:0001f7d0       _EVP_get_digestbyname      100207d0 f   libeay32_EM.0.9.8e:names.obj
 0001:0001f7e0       _EVP_cleanup               100207e0 f   libeay32_EM.0.9.8e:names.obj
 0001:0001f800       _BIO_ACCEPT_free           10020800 f   libeay32_EM.0.9.8e:bss_acpt.obj
 0001:000202d0       _BIO_CONNECT_new           100212d0 f   libeay32_EM.0.9.8e:bss_conn.obj
 0001:00020940       _BIO_new_connect           10021940 f   libeay32_EM.0.9.8e:bss_conn.obj
 0001:00020980       _BIO_new_socket            10021980 f   libeay32_EM.0.9.8e:bss_sock.obj
 0001:00020b60       _BIO_sock_should_retry     10021b60 f   libeay32_EM.0.9.8e:bss_sock.obj
 0001:00020c90       _EVP_CIPHER_param_to_asn1  10021c90 f   libeay32_EM.0.9.8e:evp_lib.obj
 0001:00020cb0       _EVP_CIPHER_asn1_to_param  10021cb0 f   libeay32_EM.0.9.8e:evp_lib.obj
 0001:00020cd0       _EVP_Cipher                10021cd0 f   libeay32_EM.0.9.8e:evp_lib.obj
 0001:00020ce0       _EC_METHOD_get_field_type  10021ce0 f   libeay32_EM.0.9.8e:ec_lib.obj
 0001:00020ce0       _EVP_CIPHER_CTX_cipher     10021ce0 f   libeay32_EM.0.9.8e:evp_lib.obj
 0001:00020ce0       _EC_GROUP_method_of        10021ce0 f   libeay32_EM.0.9.8e:ec_lib.obj
 0001:00020ce0       _EVP_MD_type               10021ce0 f   libeay32_EM.0.9.8e:evp_lib.obj
 0001:00020ce0       _SSL_version               10021ce0 f   ssleay32_EM.0.9.8e:ssl_lib.obj
 0001:00020ce0       _EVP_MD_CTX_md             10021ce0 f   libeay32_EM.0.9.8e:evp_lib.obj
 0001:00020cf0       _EVP_CIPHER_CTX_flags      10021cf0 f   libeay32_EM.0.9.8e:evp_lib.obj
 0001:00020d00       _X509_get_issuer_name      10021d00 f   libeay32_EM.0.9.8e:x509_cmp.obj
 0001:00020d00       _EVP_CIPHER_CTX_iv_length  10021d00 f   libeay32_EM.0.9.8e:evp_lib.obj
 0001:00020d10       _EVP_CIPHER_CTX_key_length 10021d10 f   libeay32_EM.0.9.8e:evp_lib.obj
 0001:00020d20       _EVP_MD_block_size         10021d20 f   libeay32_EM.0.9.8e:evp_lib.obj
 0001:00020d30       _ENGINE_get_RSA            10021d30 f   libeay32_EM.0.9.8e:tb_rsa.obj
 0001:00020d30       _EC_KEY_get0_public_key    10021d30 f   libeay32_EM.0.9.8e:ec_key.obj
 0001:00020d30       _BIO_get_callback_arg      10021d30 f   libeay32_EM.0.9.8e:bio_lib.obj
 0001:00020d30       _EVP_CIPHER_key_length     10021d30 f   libeay32_EM.0.9.8e:evp_lib.obj
 0001:00020d30       _EVP_MD_size               10021d30 f   libeay32_EM.0.9.8e:evp_lib.obj
 0001:00020d40       _EVP_MD_CTX_set_flags      10021d40 f   libeay32_EM.0.9.8e:evp_lib.obj
 0001:00020d50       _EVP_MD_CTX_clear_flags    10021d50 f   libeay32_EM.0.9.8e:evp_lib.obj
 0001:00020d60       _EVP_MD_CTX_test_flags     10021d60 f   libeay32_EM.0.9.8e:evp_lib.obj
 0001:00020d70       _EVP_CIPHER_get_asn1_iv    10021d70 f   libeay32_EM.0.9.8e:evp_lib.obj
 0001:00020de0       _EVP_CIPHER_set_asn1_iv    10021de0 f   libeay32_EM.0.9.8e:evp_lib.obj
 0001:00020e30       _EVP_CIPHER_type           10021e30 f   libeay32_EM.0.9.8e:evp_lib.obj
 0001:00021080       _X509_verify_cert_error_string 10022080 f   libeay32_EM.0.9.8e:x509_txt.obj
 0001:00021290       _BIO_f_cipher              10022290 f   libeay32_EM.0.9.8e:bio_enc.obj
 0001:000218a0       _OPENSSL_cleanse           100228a0 f   libeay32_EM.0.9.8e:mem_clr.obj
 0001:00021900       _EVP_PKEY_decrypt          10022900 f   libeay32_EM.0.9.8e:p_dec.obj
 0001:00021950       _BIO_f_md                  10022950 f   libeay32_EM.0.9.8e:bio_md.obj
 0001:00021cd0       _BIO_f_buffer              10022cd0 f   libeay32_EM.0.9.8e:bf_buff.obj
 0001:000225f0       _RSA_PKCS1_SSLeay          100235f0 f   libeay32_EM.0.9.8e:rsa_eay.obj
 0001:00023890       _engine_unlocked_init      10024890 f   libeay32_EM.0.9.8e:eng_init.obj
 0001:000238c0       _engine_unlocked_finish    100248c0 f   libeay32_EM.0.9.8e:eng_init.obj
 0001:00023950       _ENGINE_init               10024950 f   libeay32_EM.0.9.8e:eng_init.obj
 0001:000239d0       _ENGINE_finish             100249d0 f   libeay32_EM.0.9.8e:eng_init.obj
 0001:00023ac0       _ENGINE_get_default_RSA    10024ac0 f   libeay32_EM.0.9.8e:tb_rsa.obj
 0001:00023ad0       _BN_BLINDING_free          10024ad0 f   libeay32_EM.0.9.8e:bn_blind.obj
 0001:00023b20       _BN_BLINDING_convert_ex    10024b20 f   libeay32_EM.0.9.8e:bn_blind.obj
 0001:00023ba0       _ENGINE_get_DH             10024ba0 f   libeay32_EM.0.9.8e:tb_dh.obj
 0001:00023ba0       _BN_BLINDING_get_thread_id 10024ba0 f   libeay32_EM.0.9.8e:bn_blind.obj
 0001:00023bb0       _BN_BLINDING_create_param  10024bb0 f   libeay32_EM.0.9.8e:bn_blind.obj
 0001:00023d80       _BN_BLINDING_update        10024d80 f   libeay32_EM.0.9.8e:bn_blind.obj
 0001:00023e20       _BN_BLINDING_invert_ex     10024e20 f   libeay32_EM.0.9.8e:bn_blind.obj
 0001:00023ea0       _CRYPTO_destroy_dynlockid  10024ea0 f   libeay32_EM.0.9.8e:cryptlib.obj
 0001:00023f70       _CRYPTO_get_dynlock_value  10024f70 f   libeay32_EM.0.9.8e:cryptlib.obj
 0001:00023ff0       _CRYPTO_thread_id          10024ff0 f   libeay32_EM.0.9.8e:cryptlib.obj
 0001:00024010       _OPENSSL_cpuid_setup       10025010 f   libeay32_EM.0.9.8e:cryptlib.obj
 0001:00024010       ??3@YAXPAX0@Z              10025010 f   Sgi_ConfigFile.obj
 0001:00024020       _OPENSSL_isservice         10025020 f   libeay32_EM.0.9.8e:cryptlib.obj
 0001:00024100       _OPENSSL_showfatal         10025100 f   libeay32_EM.0.9.8e:cryptlib.obj
 0001:00024220       _OpenSSLDie                10025220 f   libeay32_EM.0.9.8e:cryptlib.obj
 0001:00024250       _CRYPTO_lock               10025250 f   libeay32_EM.0.9.8e:cryptlib.obj
 0001:000242e0       _CRYPTO_add_lock           100252e0 f   libeay32_EM.0.9.8e:cryptlib.obj
 0001:00024500       _BN_CTX_new                10025500 f   libeay32_EM.0.9.8e:bn_ctx.obj
 0001:00024560       _BN_CTX_free               10025560 f   libeay32_EM.0.9.8e:bn_ctx.obj
 0001:00024590       _BN_CTX_start              10025590 f   libeay32_EM.0.9.8e:bn_ctx.obj
 0001:000245e0       _BN_CTX_end                100255e0 f   libeay32_EM.0.9.8e:bn_ctx.obj
 0001:00024620       _BN_CTX_get                10025620 f   libeay32_EM.0.9.8e:bn_ctx.obj
 0001:00024680       _BN_mod_inverse            10025680 f   libeay32_EM.0.9.8e:bn_gcd.obj
 0001:00024c20       _bn_sub_part_words         10025c20 f   libeay32_EM.0.9.8e:bn_mul.obj
 0001:00024da0       _bn_mul_normal             10025da0 f   libeay32_EM.0.9.8e:bn_mul.obj
 0001:00024ec0       _bn_mul_recursive          10025ec0 f   libeay32_EM.0.9.8e:bn_mul.obj
 0001:00025310       _bn_mul_part_recursive     10026310 f   libeay32_EM.0.9.8e:bn_mul.obj
 0001:00025780       _BN_mul                    10026780 f   libeay32_EM.0.9.8e:bn_mul.obj
 0001:00025a20       _BN_uadd                   10026a20 f   libeay32_EM.0.9.8e:bn_add.obj
 0001:00025b00       _BN_usub                   10026b00 f   libeay32_EM.0.9.8e:bn_add.obj
 0001:00025c60       _BN_sub                    10026c60 f   libeay32_EM.0.9.8e:bn_add.obj
 0001:00025d30       _BN_add                    10026d30 f   libeay32_EM.0.9.8e:bn_add.obj
 0001:00025dc0       _BIO_s_null                10026dc0 f   libeay32_EM.0.9.8e:bss_null.obj
 0001:00025e80       _EVP_PKEY_encrypt          10026e80 f   libeay32_EM.0.9.8e:p_enc.obj
 0001:00025ed0       _ASN1_INTEGER_it           10026ed0 f   libeay32_EM.0.9.8e:tasn_typ.obj
 0001:00025ee0       _d2i_ASN1_INTEGER          10026ee0 f   libeay32_EM.0.9.8e:tasn_typ.obj
 0001:00025f00       _i2d_ASN1_INTEGER          10026f00 f   libeay32_EM.0.9.8e:tasn_typ.obj
 0001:00025f20       _ASN1_INTEGER_new          10026f20 f   libeay32_EM.0.9.8e:tasn_typ.obj
 0001:00025f30       _ASN1_INTEGER_free         10026f30 f   libeay32_EM.0.9.8e:tasn_typ.obj
 0001:00025f50       _ASN1_ENUMERATED_it        10026f50 f   libeay32_EM.0.9.8e:tasn_typ.obj
 0001:00025f60       _ASN1_BIT_STRING_it        10026f60 f   libeay32_EM.0.9.8e:tasn_typ.obj
 0001:00025f70       _i2d_ASN1_BIT_STRING       10026f70 f   libeay32_EM.0.9.8e:tasn_typ.obj
 0001:00025f90       _ASN1_BIT_STRING_free      10026f90 f   libeay32_EM.0.9.8e:tasn_typ.obj
 0001:00025fb0       _ASN1_OCTET_STRING_it      10026fb0 f   libeay32_EM.0.9.8e:tasn_typ.obj
 0001:00025fc0       _d2i_ASN1_OCTET_STRING     10026fc0 f   libeay32_EM.0.9.8e:tasn_typ.obj
 0001:00025fe0       _i2d_ASN1_OCTET_STRING     10026fe0 f   libeay32_EM.0.9.8e:tasn_typ.obj
 0001:00026000       _ASN1_OCTET_STRING_new     10027000 f   libeay32_EM.0.9.8e:tasn_typ.obj
 0001:00026010       _ASN1_OCTET_STRING_free    10027010 f   libeay32_EM.0.9.8e:tasn_typ.obj
 0001:00026030       _ASN1_NULL_it              10027030 f   libeay32_EM.0.9.8e:tasn_typ.obj
 0001:00026040       _ASN1_NULL_new             10027040 f   libeay32_EM.0.9.8e:tasn_typ.obj
 0001:00026050       _ASN1_OBJECT_it            10027050 f   libeay32_EM.0.9.8e:tasn_typ.obj
 0001:00026060       _ASN1_UTF8STRING_it        10027060 f   libeay32_EM.0.9.8e:tasn_typ.obj
 0001:00026070       _ASN1_IA5STRING_it         10027070 f   libeay32_EM.0.9.8e:tasn_typ.obj
 0001:00026080       _ASN1_GENERALIZEDTIME_it   10027080 f   libeay32_EM.0.9.8e:tasn_typ.obj
 0001:00026090       _ASN1_ANY_it               10027090 f   libeay32_EM.0.9.8e:tasn_typ.obj
 0001:000260a0       _ASN1_SEQUENCE_it          100270a0 f   libeay32_EM.0.9.8e:tasn_typ.obj
 0001:000260b0       _d2i_ASN1_TYPE             100270b0 f   libeay32_EM.0.9.8e:tasn_typ.obj
 0001:000260d0       _i2d_ASN1_TYPE             100270d0 f   libeay32_EM.0.9.8e:tasn_typ.obj
 0001:000260f0       _ASN1_TYPE_new             100270f0 f   libeay32_EM.0.9.8e:tasn_typ.obj
 0001:00026100       _ASN1_TYPE_free            10027100 f   libeay32_EM.0.9.8e:tasn_typ.obj
 0001:00026120       _ASN1_PRINTABLE_it         10027120 f   libeay32_EM.0.9.8e:tasn_typ.obj
 0001:00026130       _DISPLAYTEXT_it            10027130 f   libeay32_EM.0.9.8e:tasn_typ.obj
 0001:00026140       _DIRECTORYSTRING_it        10027140 f   libeay32_EM.0.9.8e:tasn_typ.obj
 0001:00026150       _ASN1_BOOLEAN_it           10027150 f   libeay32_EM.0.9.8e:tasn_typ.obj
 0001:00026160       _ASN1_FBOOLEAN_it          10027160 f   libeay32_EM.0.9.8e:tasn_typ.obj
 0001:00026170       _ASN1_OCTET_STRING_NDEF_it 10027170 f   libeay32_EM.0.9.8e:tasn_typ.obj
 0001:00026180       _OBJ_dup                   10027180 f   libeay32_EM.0.9.8e:obj_lib.obj
 0001:000262e0       _OBJ_cmp                   100272e0 f   libeay32_EM.0.9.8e:obj_lib.obj
 0001:00026380       _X509_ATTRIBUTE_SET_it     10027380 f   libeay32_EM.0.9.8e:x_attrib.obj
 0001:00026390       _X509_ATTRIBUTE_it         10027390 f   libeay32_EM.0.9.8e:x_attrib.obj
 0001:000263a0       _X509_ATTRIBUTE_free       100273a0 f   libeay32_EM.0.9.8e:x_attrib.obj
 0001:000263c0       _X509_ATTRIBUTE_create     100273c0 f   libeay32_EM.0.9.8e:x_attrib.obj
 0001:00026450       _EVP_VerifyFinal           10027450 f   libeay32_EM.0.9.8e:p_verify.obj
 0001:00026570       _EVP_ecdsa                 10027570 f   libeay32_EM.0.9.8e:m_ecdsa.obj
 0001:00026580       _EVP_dss1                  10027580 f   libeay32_EM.0.9.8e:m_dss1.obj
 0001:00026590       _BUF_MEM_new               10027590 f   libeay32_EM.0.9.8e:buffer.obj
 0001:000265d0       _BUF_MEM_free              100275d0 f   libeay32_EM.0.9.8e:buffer.obj
 0001:00026610       _BUF_MEM_grow              10027610 f   libeay32_EM.0.9.8e:buffer.obj
 0001:000266d0       _BUF_MEM_grow_clean        100276d0 f   libeay32_EM.0.9.8e:buffer.obj
 0001:000267b0       _BUF_strlcpy               100277b0 f   libeay32_EM.0.9.8e:buffer.obj
 0001:00026800       _BUF_strlcat               10027800 f   libeay32_EM.0.9.8e:buffer.obj
 0001:00026870       _BUF_strndup               10027870 f   libeay32_EM.0.9.8e:buffer.obj
 0001:000268d0       _BUF_strdup                100278d0 f   libeay32_EM.0.9.8e:buffer.obj
 0001:00026900       _EVP_SignFinal             10027900 f   libeay32_EM.0.9.8e:p_sign.obj
 0001:00026ac0       _i2d_ASN1_SET              10027ac0 f   libeay32_EM.0.9.8e:a_set.obj
 0001:00026d10       _d2i_ASN1_SET              10027d10 f   libeay32_EM.0.9.8e:a_set.obj
 0001:00026f50       _X509_PUBKEY_it            10027f50 f   libeay32_EM.0.9.8e:x_pubkey.obj
 0001:00026f60       _X509_PUBKEY_get           10027f60 f   libeay32_EM.0.9.8e:x_pubkey.obj
 0001:000271f0       _X509_VAL_it               100281f0 f   libeay32_EM.0.9.8e:x_val.obj
 0001:00027200       _ASN1_tag2bit              10028200 f   libeay32_EM.0.9.8e:tasn_dec.obj
 0001:00027220       _asn1_ex_c2i               10028220 f   libeay32_EM.0.9.8e:tasn_dec.obj
 0001:00027e70       _ASN1_item_ex_d2i          10028e70 f   libeay32_EM.0.9.8e:tasn_dec.obj
 0001:00028830       _ASN1_item_d2i             10029830 f   libeay32_EM.0.9.8e:tasn_dec.obj
 0001:00028890       _ASN1_primitive_new        10029890 f   libeay32_EM.0.9.8e:tasn_new.obj
 0001:00028990       _asn1_primitive_clear      10029990 f   libeay32_EM.0.9.8e:tasn_new.obj
 0001:00028c70       _ASN1_item_ex_new          10029c70 f   libeay32_EM.0.9.8e:tasn_new.obj
 0001:00028c90       _ASN1_template_new         10029c90 f   libeay32_EM.0.9.8e:tasn_new.obj
 0001:00028d40       _ASN1_item_new             10029d40 f   libeay32_EM.0.9.8e:tasn_new.obj
 0001:00028d80       _ASN1_primitive_free       10029d80 f   libeay32_EM.0.9.8e:tasn_fre.obj
 0001:00029060       _ASN1_template_free        1002a060 f   libeay32_EM.0.9.8e:tasn_fre.obj
 0001:00029100       _ASN1_item_free            1002a100 f   libeay32_EM.0.9.8e:tasn_fre.obj
 0001:00029120       _ASN1_item_ex_free         1002a120 f   libeay32_EM.0.9.8e:tasn_fre.obj
 0001:00029140       _policy_cache_free         1002a140 f   libeay32_EM.0.9.8e:pcy_cache.obj
 0001:00029180       _policy_cache_find_data    1002a180 f   libeay32_EM.0.9.8e:pcy_cache.obj
 0001:00029500       _policy_cache_set          1002a500 f   libeay32_EM.0.9.8e:pcy_cache.obj
 0001:00029540       _d2i_X509_CERT_AUX         1002a540 f   libeay32_EM.0.9.8e:x_x509a.obj
 0001:00029560       _X509_CERT_AUX_free        1002a560 f   libeay32_EM.0.9.8e:x_x509a.obj
 0001:00029580       _X509_NAME_oneline         1002a580 f   libeay32_EM.0.9.8e:x509_obj.obj
 0001:000298f0       _ASN1_dup                  1002a8f0 f   libeay32_EM.0.9.8e:a_dup.obj
 0001:00029980       _ASN1_item_dup             1002a980 f   libeay32_EM.0.9.8e:a_dup.obj
 0001:00029a00       _ASN1_item_verify          1002aa00 f   libeay32_EM.0.9.8e:a_verify.obj
 0001:00029ba0       _X509_REVOKED_it           1002aba0 f   libeay32_EM.0.9.8e:x_crl.obj
 0001:00029bb0       _X509_CRL_INFO_it          1002abb0 f   libeay32_EM.0.9.8e:x_crl.obj
 0001:00029bc0       _X509_CRL_it               1002abc0 f   libeay32_EM.0.9.8e:x_crl.obj
 0001:00029bd0       _d2i_X509_CRL              1002abd0 f   libeay32_EM.0.9.8e:x_crl.obj
 0001:00029bf0       _X509_CRL_free             1002abf0 f   libeay32_EM.0.9.8e:x_crl.obj
 0001:00029c60       _NETSCAPE_SPKAC_it         1002ac60 f   libeay32_EM.0.9.8e:x_spki.obj
 0001:00029e50       _ASN1_d2i_bio              1002ae50 f   libeay32_EM.0.9.8e:a_d2i_fp.obj
 0001:00029eb0       _ASN1_item_d2i_bio         1002aeb0 f   libeay32_EM.0.9.8e:a_d2i_fp.obj
 0001:00029f20       _ASN1_item_d2i_fp          1002af20 f   libeay32_EM.0.9.8e:a_d2i_fp.obj
 0001:00029f90       _ASN1_item_i2d_bio         1002af90 f   libeay32_EM.0.9.8e:a_i2d_fp.obj
 0001:0002a050       _ASN1_item_i2d_fp          1002b050 f   libeay32_EM.0.9.8e:a_i2d_fp.obj
 0001:0002a0c0       _DSA_new_method            1002b0c0 f   libeay32_EM.0.9.8e:dsa_lib.obj
 0001:0002a220       _DSA_free                  1002b220 f   libeay32_EM.0.9.8e:dsa_lib.obj
 0001:0002a300       _DSA_size                  1002b300 f   libeay32_EM.0.9.8e:dsa_lib.obj
 0001:0002a360       _DSA_new                   1002b360 f   libeay32_EM.0.9.8e:dsa_lib.obj
 0001:0002a3b0       _d2i_DSA_SIG               1002b3b0 f   libeay32_EM.0.9.8e:dsa_asn1.obj
 0001:0002a3d0       _i2d_DSA_SIG               1002b3d0 f   libeay32_EM.0.9.8e:dsa_asn1.obj
 0001:0002a3f0       _DSA_SIG_new               1002b3f0 f   libeay32_EM.0.9.8e:dsa_asn1.obj
 0001:0002a400       _DSA_SIG_free              1002b400 f   libeay32_EM.0.9.8e:dsa_asn1.obj
 0001:0002a470       _d2i_DSAPrivateKey         1002b470 f   libeay32_EM.0.9.8e:dsa_asn1.obj
 0001:0002a490       _d2i_DSAparams             1002b490 f   libeay32_EM.0.9.8e:dsa_asn1.obj
 0001:0002a4b0       _dsa_pub_internal_it       1002b4b0 f   libeay32_EM.0.9.8e:dsa_asn1.obj
 0001:0002a4c0       _d2i_DSAPublicKey          1002b4c0 f   libeay32_EM.0.9.8e:dsa_asn1.obj
 0001:0002a4e0       _EC_KEY_new                1002b4e0 f   libeay32_EM.0.9.8e:ec_key.obj
 0001:0002a540       _EC_KEY_free               1002b540 f   libeay32_EM.0.9.8e:ec_key.obj
 0001:0002a5b0       _EC_KEY_copy               1002b5b0 f   libeay32_EM.0.9.8e:ec_key.obj
 0001:0002a710       _EC_KEY_dup                1002b710 f   libeay32_EM.0.9.8e:ec_key.obj
 0001:0002a740       _EC_KEY_up_ref             1002b740 f   libeay32_EM.0.9.8e:ec_key.obj
 0001:0002a770       _EC_KEY_generate_key       1002b770 f   libeay32_EM.0.9.8e:ec_key.obj
 0001:0002a8b0       _EC_KEY_set_group          1002b8b0 f   libeay32_EM.0.9.8e:ec_key.obj
 0001:0002a8e0       _EC_KEY_set_private_key    1002b8e0 f   libeay32_EM.0.9.8e:ec_key.obj
 0001:0002a910       _EC_KEY_set_public_key     1002b910 f   libeay32_EM.0.9.8e:ec_key.obj
 0001:0002a950       _EC_KEY_get_key_method_data 1002b950 f   libeay32_EM.0.9.8e:ec_key.obj
 0001:0002a960       _EC_KEY_insert_key_method_data 1002b960 f   libeay32_EM.0.9.8e:ec_key.obj
 0001:0002a9d0       _X9_62_PENTANOMIAL_it      1002b9d0 f   libeay32_EM.0.9.8e:ec_asn1.obj
 0001:0002a9f0       _X9_62_CHARACTERISTIC_TWO_it 1002b9f0 f   libeay32_EM.0.9.8e:ec_asn1.obj
 0001:0002aa10       _X9_62_FIELDID_it          1002ba10 f   libeay32_EM.0.9.8e:ec_asn1.obj
 0001:0002aa20       _X9_62_CURVE_it            1002ba20 f   libeay32_EM.0.9.8e:ec_asn1.obj
 0001:0002aa30       _ECPARAMETERS_it           1002ba30 f   libeay32_EM.0.9.8e:ec_asn1.obj
 0001:0002aa40       _ECPKPARAMETERS_it         1002ba40 f   libeay32_EM.0.9.8e:ec_asn1.obj
 0001:0002b1d0       _d2i_ECPKParameters        1002c1d0 f   libeay32_EM.0.9.8e:ec_asn1.obj
 0001:0002b280       _d2i_ECPrivateKey          1002c280 f   libeay32_EM.0.9.8e:ec_asn1.obj
 0001:0002b4a0       _d2i_ECParameters          1002c4a0 f   libeay32_EM.0.9.8e:ec_asn1.obj
 0001:0002b540       _o2i_ECPublicKey           1002c540 f   libeay32_EM.0.9.8e:ec_asn1.obj
 0001:0002b610       _ASN1_item_digest          1002c610 f   libeay32_EM.0.9.8e:a_digest.obj
 0001:0002b6b0       _PKCS8_PRIV_KEY_INFO_it    1002c6b0 f   libeay32_EM.0.9.8e:p8_pkey.obj
 0001:0002b6c0       _d2i_PKCS8_PRIV_KEY_INFO   1002c6c0 f   libeay32_EM.0.9.8e:p8_pkey.obj
 0001:0002b6e0       _PKCS8_PRIV_KEY_INFO_free  1002c6e0 f   libeay32_EM.0.9.8e:p8_pkey.obj
 0001:0002b700       _EVP_PKCS82PKEY            1002c700 f   libeay32_EM.0.9.8e:evp_pkey.obj
 0001:0002bd00       _d2i_PrivateKey            1002cd00 f   libeay32_EM.0.9.8e:d2i_pr.obj
 0001:0002be00       _d2i_AutoPrivateKey        1002ce00 f   libeay32_EM.0.9.8e:d2i_pr.obj
 0001:0002be80       _X509_PURPOSE_get0         1002ce80 f   libeay32_EM.0.9.8e:v3_purp.obj
 0001:0002bec0       _X509_PURPOSE_get_by_id    1002cec0 f   libeay32_EM.0.9.8e:v3_purp.obj
 0001:0002c320       _X509_check_ca             1002d320 f   libeay32_EM.0.9.8e:v3_purp.obj
 0001:0002c610       _X509_check_issued         1002d610 f   libeay32_EM.0.9.8e:v3_purp.obj
 0001:0002c740       _X509_check_purpose        1002d740 f   libeay32_EM.0.9.8e:v3_purp.obj
 0001:0002c800       _PKCS8_decrypt             1002d800 f   libeay32_EM.0.9.8e:p12_p8d.obj
 0001:0002c830       _PEM_def_callback          1002d830 f   libeay32_EM.0.9.8e:pem_lib.obj
 0001:0002c910       _PEM_ASN1_read             1002d910 f   libeay32_EM.0.9.8e:pem_lib.obj
 0001:0002cb60       _PEM_do_header             1002db60 f   libeay32_EM.0.9.8e:pem_lib.obj
 0001:0002cde0       _PEM_read_bio              1002dde0 f   libeay32_EM.0.9.8e:pem_lib.obj
 0001:0002d3e0       _PEM_get_EVP_CIPHER_INFO   1002e3e0 f   libeay32_EM.0.9.8e:pem_lib.obj
 0001:0002d590       _PEM_bytes_read_bio        1002e590 f   libeay32_EM.0.9.8e:pem_lib.obj
 0001:0002d720       _PEM_ASN1_read_bio         1002e720 f   libeay32_EM.0.9.8e:pem_oth.obj
 0001:0002d7c0       _SHA1_Update               1002e7c0 f   libeay32_EM.0.9.8e:sha1dgst.obj
 0001:0002dab0       _SHA1_Final                1002eab0 f   libeay32_EM.0.9.8e:sha1dgst.obj
 0001:0002dc40       _SHA224_Init               1002ec40 f   libeay32_EM.0.9.8e:sha256.obj
 0001:0002dca0       _SHA256_Init               1002eca0 f   libeay32_EM.0.9.8e:sha256.obj
 0001:0002f5b0       _SHA256_Update             100305b0 f   libeay32_EM.0.9.8e:sha256.obj
 0001:0002f890       _SHA256_Final              10030890 f   libeay32_EM.0.9.8e:sha256.obj
 0001:0002fc00       _SHA384_Init               10030c00 f   libeay32_EM.0.9.8e:sha512.obj
 0001:0002fca0       _SHA512_Init               10030ca0 f   libeay32_EM.0.9.8e:sha512.obj
 0001:00032da0       _SHA512_Final              10033da0 f   libeay32_EM.0.9.8e:sha512.obj
 0001:000332d0       _SHA512_Update             100342d0 f   libeay32_EM.0.9.8e:sha512.obj
 0001:000333c0       _ENGINE_get_digest_engine  100343c0 f   libeay32_EM.0.9.8e:tb_digest.obj
 0001:000333e0       _ENGINE_get_digest         100343e0 f   libeay32_EM.0.9.8e:tb_digest.obj
 0001:00033430       _ERR_load_UI_strings       10034430 f   libeay32_EM.0.9.8e:ui_err.obj
 0001:00033460       _ERR_load_OCSP_strings     10034460 f   libeay32_EM.0.9.8e:ocsp_err.obj
 0001:00033490       _ERR_load_ENGINE_strings   10034490 f   libeay32_EM.0.9.8e:eng_err.obj
 0001:000334c0       _ERR_load_DSO_strings      100344c0 f   libeay32_EM.0.9.8e:dso_err.obj
 0001:000334f0       _ERR_load_RAND_strings     100344f0 f   libeay32_EM.0.9.8e:rand_err.obj
 0001:00033520       _ERR_load_PKCS12_strings   10034520 f   libeay32_EM.0.9.8e:pk12err.obj
 0001:00033550       _ERR_load_X509V3_strings   10034550 f   libeay32_EM.0.9.8e:v3err.obj
 0001:00033580       _ERR_load_PKCS7_strings    10034580 f   libeay32_EM.0.9.8e:pkcs7err.obj
 0001:000335b0       _ERR_load_BIO_strings      100345b0 f   libeay32_EM.0.9.8e:bio_err.obj
 0001:000335e0       _ERR_load_ECDH_strings     100345e0 f   libeay32_EM.0.9.8e:ech_err.obj
 0001:00033610       _ERR_load_ECDSA_strings    10034610 f   libeay32_EM.0.9.8e:ecs_err.obj
 0001:00033640       _ERR_load_EC_strings       10034640 f   libeay32_EM.0.9.8e:ec_err.obj
 0001:00033670       _ERR_load_CRYPTO_strings   10034670 f   libeay32_EM.0.9.8e:cpt_err.obj
 0001:000336a0       _ERR_load_CONF_strings     100346a0 f   libeay32_EM.0.9.8e:conf_err.obj
 0001:000336d0       _ERR_load_ASN1_strings     100346d0 f   libeay32_EM.0.9.8e:asn1_err.obj
 0001:00033700       _ERR_load_X509_strings     10034700 f   libeay32_EM.0.9.8e:x509_err.obj
 0001:00033730       _ERR_load_DSA_strings      10034730 f   libeay32_EM.0.9.8e:dsa_err.obj
 0001:00033760       _ERR_load_PEM_strings      10034760 f   libeay32_EM.0.9.8e:pem_err.obj
 0001:00033790       _ERR_load_OBJ_strings      10034790 f   libeay32_EM.0.9.8e:obj_err.obj
 0001:000337c0       _ERR_load_BUF_strings      100347c0 f   libeay32_EM.0.9.8e:buf_err.obj
 0001:000337f0       _ERR_load_EVP_strings      100347f0 f   libeay32_EM.0.9.8e:evp_err.obj
 0001:00033820       _ERR_load_DH_strings       10034820 f   libeay32_EM.0.9.8e:dh_err.obj
 0001:00033850       _ERR_load_RSA_strings      10034850 f   libeay32_EM.0.9.8e:rsa_err.obj
 0001:00033880       _ERR_load_BN_strings       10034880 f   libeay32_EM.0.9.8e:bn_err.obj
 0001:000338b0       _OTHERNAME_it              100348b0 f   libeay32_EM.0.9.8e:v3_genn.obj
 0001:000338c0       _OTHERNAME_new             100348c0 f   libeay32_EM.0.9.8e:v3_genn.obj
 0001:000338d0       _EDIPARTYNAME_it           100348d0 f   libeay32_EM.0.9.8e:v3_genn.obj
 0001:000338e0       _GENERAL_NAME_it           100348e0 f   libeay32_EM.0.9.8e:v3_genn.obj
 0001:000338f0       _GENERAL_NAME_new          100348f0 f   libeay32_EM.0.9.8e:v3_genn.obj
 0001:00033900       _GENERAL_NAME_free         10034900 f   libeay32_EM.0.9.8e:v3_genn.obj
 0001:00033920       _GENERAL_NAMES_it          10034920 f   libeay32_EM.0.9.8e:v3_genn.obj
 0001:00033930       _GENERAL_NAMES_new         10034930 f   libeay32_EM.0.9.8e:v3_genn.obj
 0001:00033940       _GENERAL_NAMES_free        10034940 f   libeay32_EM.0.9.8e:v3_genn.obj
 0001:00033960       _DES_ecb3_encrypt          10034960 f   libeay32_EM.0.9.8e:ecb3_enc.obj
 0001:00033a50       _DES_ede3_ofb64_encrypt    10034a50 f   libeay32_EM.0.9.8e:ofb64ede.obj
 0001:00033c80       _DES_encrypt1              10034c80     libeay32_EM.0.9.8e:d_win32.obj
 0001:00034b84       _DES_encrypt2              10035b84     libeay32_EM.0.9.8e:d_win32.obj
 0001:000359ea       _DES_encrypt3              100369ea     libeay32_EM.0.9.8e:d_win32.obj
 0001:00035b14       _DES_decrypt3              10036b14     libeay32_EM.0.9.8e:d_win32.obj
 0001:00035c3e       _DES_ncbc_encrypt          10036c3e     libeay32_EM.0.9.8e:d_win32.obj
 0001:00035e80       _DES_ede3_cbc_encrypt      10036e80     libeay32_EM.0.9.8e:d_win32.obj
 0001:000360c0       _DES_ede3_cfb64_encrypt    100370c0 f   libeay32_EM.0.9.8e:cfb64ede.obj
 0001:00036300       _DES_ede3_cfb_encrypt      10037300 f   libeay32_EM.0.9.8e:cfb64ede.obj
 0001:00036aa0       _DES_set_odd_parity        10037aa0 f   libeay32_EM.0.9.8e:set_key.obj
 0001:00036b20       _DES_set_key_unchecked     10037b20 f   libeay32_EM.0.9.8e:set_key.obj
 0001:00037100       _AES_cbc_encrypt           10038100 f   libeay32_EM.0.9.8e:aes_cbc.obj
 0001:000374a0       _AES_cfb128_encrypt        100384a0 f   libeay32_EM.0.9.8e:aes_cfb.obj
 0001:00037560       _AES_cfbr_encrypt_block    10038560 f   libeay32_EM.0.9.8e:aes_cfb.obj
 0001:00037740       _AES_cfb1_encrypt          10038740 f   libeay32_EM.0.9.8e:aes_cfb.obj
 0001:00037800       _AES_cfb8_encrypt          10038800 f   libeay32_EM.0.9.8e:aes_cfb.obj
 0001:00037850       _AES_ecb_encrypt           10038850 f   libeay32_EM.0.9.8e:aes_ecb.obj
 0001:00037880       _AES_ofb128_encrypt        10038880 f   libeay32_EM.0.9.8e:aes_ofb.obj
 0001:000378e0       _AES_set_encrypt_key       100388e0 f   libeay32_EM.0.9.8e:aes_core.obj
 0001:00037de0       _AES_set_decrypt_key       10038de0 f   libeay32_EM.0.9.8e:aes_core.obj
 0001:00038030       _AES_encrypt               10039030 f   libeay32_EM.0.9.8e:aes_core.obj
 0001:000385b0       _AES_decrypt               100395b0 f   libeay32_EM.0.9.8e:aes_core.obj
 0001:00038af0       _ASN1_PRINTABLE_type       10039af0 f   libeay32_EM.0.9.8e:a_print.obj
 0001:00038bc0       _ASN1_STRING_TABLE_get     10039bc0 f   libeay32_EM.0.9.8e:a_strnid.obj
 0001:00038c30       _ASN1_STRING_set_by_NID    10039c30 f   libeay32_EM.0.9.8e:a_strnid.obj
 0001:00038cd0       _sha_block_host_order      10039cd0 f   libeay32_EM.0.9.8e:sha_dgst.obj
 0001:0003b3a0       _sha_block_data_order      1003c3a0 f   libeay32_EM.0.9.8e:sha_dgst.obj
 0001:0003dfd0       _SHA_Update                1003efd0 f   libeay32_EM.0.9.8e:sha_dgst.obj
 0001:0003e2b0       _SHA_Final                 1003f2b0 f   libeay32_EM.0.9.8e:sha_dgst.obj
 0001:0003e440       _ENGINE_get_cipher_engine  1003f440 f   libeay32_EM.0.9.8e:tb_cipher.obj
 0001:0003e460       _ENGINE_get_cipher         1003f460 f   libeay32_EM.0.9.8e:tb_cipher.obj
 0001:0003e4b0       _BIGNUM_it                 1003f4b0 f   libeay32_EM.0.9.8e:x_bignum.obj
 0001:0003e4c0       _CBIGNUM_it                1003f4c0 f   libeay32_EM.0.9.8e:x_bignum.obj
 0001:0003e600       _LONG_it                   1003f600 f   libeay32_EM.0.9.8e:x_long.obj
 0001:0003e610       _ZLONG_it                  1003f610 f   libeay32_EM.0.9.8e:x_long.obj
 0001:0003e780       _RC2_encrypt               1003f780 f   libeay32_EM.0.9.8e:rc2_cbc.obj
 0001:0003e8c0       _RC2_decrypt               1003f8c0 f   libeay32_EM.0.9.8e:rc2_cbc.obj
 0001:0003ea20       _RC2_cbc_encrypt           1003fa20 f   libeay32_EM.0.9.8e:rc2_cbc.obj
 0001:0003efa0       _RC2_cfb64_encrypt         1003ffa0 f   libeay32_EM.0.9.8e:rc2cfb64.obj
 0001:0003f1c0       _RC2_ecb_encrypt           100401c0 f   libeay32_EM.0.9.8e:rc2_ecb.obj
 0001:0003f2a0       _RC2_ofb64_encrypt         100402a0 f   libeay32_EM.0.9.8e:rc2ofb64.obj
 0001:0003f4a0       _RC2_set_key               100404a0 f   libeay32_EM.0.9.8e:rc2_skey.obj
 0001:0003f5a0       _ASN1_TYPE_set_octetstring 100405a0 f   libeay32_EM.0.9.8e:evp_asn1.obj
 0001:0003f5f0       _ASN1_TYPE_get_octetstring 100405f0 f   libeay32_EM.0.9.8e:evp_asn1.obj
 0001:0003f650       _ASN1_TYPE_set_int_octetstring 10040650 f   libeay32_EM.0.9.8e:evp_asn1.obj
 0001:0003f770       _ASN1_TYPE_get_int_octetstring 10040770 f   libeay32_EM.0.9.8e:evp_asn1.obj
 0001:0003f8f0       _RC4_set_key               100408f0 f   libeay32_EM.0.9.8e:rc4_skey.obj
 0001:0003f9f0       _RC4                       100409f0     libeay32_EM.0.9.8e:r4_win32.obj
 0001:00040c20       _BIO_vprintf               10041c20 f   libeay32_EM.0.9.8e:b_print.obj
 0001:00040d00       _BIO_printf                10041d00 f   libeay32_EM.0.9.8e:b_print.obj
 0001:00040d20       _BIO_snprintf              10041d20 f   libeay32_EM.0.9.8e:b_print.obj
 0001:00040d80       _EC_GROUP_new              10041d80 f   libeay32_EM.0.9.8e:ec_lib.obj
 0001:00040e50       _EC_GROUP_get_order        10041e50 f   libeay32_EM.0.9.8e:ec_lib.obj
 0001:00040e80       _EC_GROUP_get_cofactor     10041e80 f   libeay32_EM.0.9.8e:ec_lib.obj
 0001:00040eb0       _EC_GROUP_set_curve_name   10041eb0 f   libeay32_EM.0.9.8e:ec_lib.obj
 0001:00040ec0       _EC_GROUP_get_curve_name   10041ec0 f   libeay32_EM.0.9.8e:ec_lib.obj
 0001:00040ed0       _EC_GROUP_set_asn1_flag    10041ed0 f   libeay32_EM.0.9.8e:ec_lib.obj
 0001:00040ee0       _EC_GROUP_set_point_conversion_form 10041ee0 f   libeay32_EM.0.9.8e:ec_lib.obj
 0001:00040ef0       _EC_GROUP_set_seed         10041ef0 f   libeay32_EM.0.9.8e:ec_lib.obj
 0001:00040f60       _EC_GROUP_set_curve_GFp    10041f60 f   libeay32_EM.0.9.8e:ec_lib.obj
 0001:00040f90       _EC_GROUP_set_curve_GF2m   10041f90 f   libeay32_EM.0.9.8e:ec_lib.obj
 0001:00040fd0       _EC_GROUP_get_degree       10041fd0 f   libeay32_EM.0.9.8e:ec_lib.obj
 0001:00041010       _EC_EX_DATA_set_data       10042010 f   libeay32_EM.0.9.8e:ec_lib.obj
 0001:000410b0       _EC_EX_DATA_get_data       100420b0 f   libeay32_EM.0.9.8e:ec_lib.obj
 0001:000410f0       _EC_EX_DATA_free_data      100420f0 f   libeay32_EM.0.9.8e:ec_lib.obj
 0001:00041150       _EC_EX_DATA_free_all_data  10042150 f   libeay32_EM.0.9.8e:ec_lib.obj
 0001:00041190       _EC_EX_DATA_clear_free_all_data 10042190 f   libeay32_EM.0.9.8e:ec_lib.obj
 0001:000411d0       _EC_POINT_new              100421d0 f   libeay32_EM.0.9.8e:ec_lib.obj
 0001:00041280       _EC_POINT_free             10042280 f   libeay32_EM.0.9.8e:ec_lib.obj
 0001:000412b0       _EC_POINT_clear_free       100422b0 f   libeay32_EM.0.9.8e:ec_lib.obj
 0001:000412f0       _EC_POINT_copy             100422f0 f   libeay32_EM.0.9.8e:ec_lib.obj
 0001:00041360       _EC_POINT_dup              10042360 f   libeay32_EM.0.9.8e:ec_lib.obj
 0001:000413c0       _EC_POINT_set_to_infinity  100423c0 f   libeay32_EM.0.9.8e:ec_lib.obj
 0001:00041420       _EC_POINT_set_Jprojective_coordinates_GFp 10042420 f   libeay32_EM.0.9.8e:ec_lib.obj
 0001:00041490       _EC_POINT_set_affine_coordinates_GFp 10042490 f   libeay32_EM.0.9.8e:ec_lib.obj
 0001:00041500       _EC_POINT_set_affine_coordinates_GF2m 10042500 f   libeay32_EM.0.9.8e:ec_lib.obj
 0001:00041570       _EC_POINT_get_affine_coordinates_GFp 10042570 f   libeay32_EM.0.9.8e:ec_lib.obj
 0001:000415e0       _EC_POINT_get_affine_coordinates_GF2m 100425e0 f   libeay32_EM.0.9.8e:ec_lib.obj
 0001:00041650       _EC_POINT_set_compressed_coordinates_GFp 10042650 f   libeay32_EM.0.9.8e:ec_lib.obj
 0001:000416c0       _EC_POINT_set_compressed_coordinates_GF2m 100426c0 f   libeay32_EM.0.9.8e:ec_lib.obj
 0001:00041730       _EC_POINT_point2oct        10042730 f   libeay32_EM.0.9.8e:ec_lib.obj
 0001:000417a0       _EC_POINT_oct2point        100427a0 f   libeay32_EM.0.9.8e:ec_lib.obj
 0001:00041810       _EC_POINT_add              10042810 f   libeay32_EM.0.9.8e:ec_lib.obj
 0001:00041890       _EC_POINT_dbl              10042890 f   libeay32_EM.0.9.8e:ec_lib.obj
 0001:00041900       _EC_POINT_invert           10042900 f   libeay32_EM.0.9.8e:ec_lib.obj
 0001:00041970       _EC_POINT_is_at_infinity   10042970 f   libeay32_EM.0.9.8e:ec_lib.obj
 0001:000419d0       _EC_POINT_is_on_curve      100429d0 f   libeay32_EM.0.9.8e:ec_lib.obj
 0001:00041a30       _EC_POINT_cmp              10042a30 f   libeay32_EM.0.9.8e:ec_lib.obj
 0001:00041aa0       _EC_POINT_make_affine      10042aa0 f   libeay32_EM.0.9.8e:ec_lib.obj
 0001:00041b00       _EC_POINTs_make_affine     10042b00 f   libeay32_EM.0.9.8e:ec_lib.obj
 0001:00041b90       _EC_POINT_mul              10042b90 f   libeay32_EM.0.9.8e:ec_lib.obj
 0001:00041c10       _EC_GROUP_have_precompute_mult 10042c10 f   libeay32_EM.0.9.8e:ec_lib.obj
 0001:00041c40       _EC_GROUP_free             10042c40 f   libeay32_EM.0.9.8e:ec_lib.obj
 0001:00041cc0       _EC_GROUP_clear_free       10042cc0 f   libeay32_EM.0.9.8e:ec_lib.obj
 0001:00041d50       _EC_GROUP_copy             10042d50 f   libeay32_EM.0.9.8e:ec_lib.obj
 0001:00041f10       _EC_GROUP_dup              10042f10 f   libeay32_EM.0.9.8e:ec_lib.obj
 0001:00041f50       _EC_GROUP_set_generator    10042f50 f   libeay32_EM.0.9.8e:ec_lib.obj
 0001:00042000       _EC_GROUP_cmp              10043000 f   libeay32_EM.0.9.8e:ec_lib.obj
 0001:00042340       _ecdsa_check               10043340 f   libeay32_EM.0.9.8e:ecs_lib.obj
 0001:000423a0       _ECDSA_size                100433a0 f   libeay32_EM.0.9.8e:ecs_lib.obj
 0001:00042450       _DH_new_method             10043450 f   libeay32_EM.0.9.8e:dh_lib.obj
 0001:000425b0       _DH_free                   100435b0 f   libeay32_EM.0.9.8e:dh_lib.obj
 0001:000426a0       _DH_size                   100436a0 f   libeay32_EM.0.9.8e:dh_lib.obj
 0001:000426c0       _DH_new                    100436c0 f   libeay32_EM.0.9.8e:dh_lib.obj
 0001:000426d0       _md4_block_host_order      100436d0 f   libeay32_EM.0.9.8e:md4_dgst.obj
 0001:00042b30       _MD4_Update                10043b30 f   libeay32_EM.0.9.8e:md4_dgst.obj
 0001:00042e10       _MD4_Final                 10043e10 f   libeay32_EM.0.9.8e:md4_dgst.obj
 0001:00042ff0       _d2i_DHparams              10043ff0 f   libeay32_EM.0.9.8e:dh_asn1.obj
 0001:00043010       _i2d_DHparams              10044010 f   libeay32_EM.0.9.8e:dh_asn1.obj
 0001:00043030       _RC5_32_encrypt            10044030     libeay32_EM.0.9.8e:r5_win32.obj
 0001:000431d5       _RC5_32_decrypt            100441d5     libeay32_EM.0.9.8e:r5_win32.obj
 0001:0004337a       _RC5_32_cbc_encrypt        1004437a     libeay32_EM.0.9.8e:r5_win32.obj
 0001:000435b0       _RC5_32_cfb64_encrypt      100445b0 f   libeay32_EM.0.9.8e:rc5cfb64.obj
 0001:000437d0       _RC5_32_ecb_encrypt        100447d0 f   libeay32_EM.0.9.8e:rc5_ecb.obj
 0001:000438b0       _RC5_32_ofb64_encrypt      100448b0 f   libeay32_EM.0.9.8e:rc5ofb64.obj
 0001:00043ab0       _RC5_32_set_key            10044ab0 f   libeay32_EM.0.9.8e:rc5_skey.obj
 0001:00043ce0       _lh_free                   10044ce0 f   libeay32_EM.0.9.8e:lhash.obj
 0001:00043d90       _lh_doall                  10044d90 f   libeay32_EM.0.9.8e:lhash.obj
 0001:00043dd0       _lh_doall_arg              10044dd0 f   libeay32_EM.0.9.8e:lhash.obj
 0001:00043ff0       _lh_strhash                10044ff0 f   libeay32_EM.0.9.8e:lhash.obj
 0001:00044040       _lh_num_items              10045040 f   libeay32_EM.0.9.8e:lhash.obj
 0001:00044050       _lh_new                    10045050 f   libeay32_EM.0.9.8e:lhash.obj
 0001:00044120       _lh_insert                 10045120 f   libeay32_EM.0.9.8e:lhash.obj
 0001:000441b0       _lh_delete                 100451b0 f   libeay32_EM.0.9.8e:lhash.obj
 0001:00044220       _lh_retrieve               10045220 f   libeay32_EM.0.9.8e:lhash.obj
 0001:00044260       _CRYPTO_mem_ctrl           10045260 f   libeay32_EM.0.9.8e:mem_dbg.obj
 0001:000443a0       _CRYPTO_is_mem_check_on    100453a0 f   libeay32_EM.0.9.8e:mem_dbg.obj
 0001:000444d0       _CRYPTO_push_info_         100454d0 f   libeay32_EM.0.9.8e:mem_dbg.obj
 0001:00044670       _CRYPTO_pop_info           10045670 f   libeay32_EM.0.9.8e:mem_dbg.obj
 0001:000447a0       _ASN1_seq_unpack           100457a0 f   libeay32_EM.0.9.8e:asn_pack.obj
 0001:000447f0       _X509_TRUST_get_by_id      100457f0 f   libeay32_EM.0.9.8e:x509_trs.obj
 0001:00044930       _X509_check_trust          10045930 f   libeay32_EM.0.9.8e:x509_trs.obj
 0001:00044fa0       _X509_policy_tree_free     10045fa0 f   libeay32_EM.0.9.8e:pcy_tree.obj
 0001:000452f0       _X509_policy_check         100462f0 f   libeay32_EM.0.9.8e:pcy_tree.obj
 0001:00045440       _ASN1_TIME_it              10046440 f   libeay32_EM.0.9.8e:a_time.obj
 0001:00045450       _ASN1_TIME_set             10046450 f   libeay32_EM.0.9.8e:a_time.obj
 0001:000454e0       _ASN1_TIME_check           100464e0 f   libeay32_EM.0.9.8e:a_time.obj
 0001:00045510       _ASN1_GENERALIZEDTIME_check 10046510 f   libeay32_EM.0.9.8e:a_gentm.obj
 0001:00045690       _ASN1_GENERALIZEDTIME_set  10046690 f   libeay32_EM.0.9.8e:a_gentm.obj
 0001:00045790       _ASN1_UTCTIME_check        10046790 f   libeay32_EM.0.9.8e:a_utctm.obj
 0001:000458d0       _ASN1_UTCTIME_set          100468d0 f   libeay32_EM.0.9.8e:a_utctm.obj
 0001:000459d0       _X509_VERIFY_PARAM_new     100469d0 f   libeay32_EM.0.9.8e:x509_vpm.obj
 0001:00045a40       _X509_VERIFY_PARAM_free    10046a40 f   libeay32_EM.0.9.8e:x509_vpm.obj
 0001:00045a90       _X509_VERIFY_PARAM_set1_policies 10046a90 f   libeay32_EM.0.9.8e:x509_vpm.obj
 0001:00045b90       _X509_VERIFY_PARAM_lookup  10046b90 f   libeay32_EM.0.9.8e:x509_vpm.obj
 0001:00045bf0       _X509_VERIFY_PARAM_inherit 10046bf0 f   libeay32_EM.0.9.8e:x509_vpm.obj
 0001:00045ce0       _RAND_SSLeay               10046ce0 f   libeay32_EM.0.9.8e:md_rand.obj
 0001:00046670       _ENGINE_get_default_RAND   10047670 f   libeay32_EM.0.9.8e:tb_rand.obj
 0001:00046680       _ENGINE_get_RAND           10047680 f   libeay32_EM.0.9.8e:tb_rand.obj
 0001:00046690       _ASN1_TYPE_get             10047690 f   libeay32_EM.0.9.8e:a_type.obj
 0001:000466b0       _ASN1_TYPE_set             100476b0 f   libeay32_EM.0.9.8e:a_type.obj
 0001:00046700       _MD5_Update                10047700 f   libeay32_EM.0.9.8e:md5_dgst.obj
 0001:000469e0       _MD5_Final                 100479e0 f   libeay32_EM.0.9.8e:md5_dgst.obj
 0001:00046b40       _MD4_Init                  10047b40 f   libeay32_EM.0.9.8e:md4_dgst.obj
 0001:00046b40       _MD5_Init                  10047b40 f   libeay32_EM.0.9.8e:md5_dgst.obj
 0001:00046b70       _BN_mod_word               10047b70 f   libeay32_EM.0.9.8e:bn_word.obj
 0001:00046be0       _BN_div_word               10047be0 f   libeay32_EM.0.9.8e:bn_word.obj
 0001:00046cb0       _BN_add_word               10047cb0 f   libeay32_EM.0.9.8e:bn_word.obj
 0001:00046d70       _BN_sub_word               10047d70 f   libeay32_EM.0.9.8e:bn_word.obj
 0001:00046e40       _BN_mul_word               10047e40 f   libeay32_EM.0.9.8e:bn_word.obj
 0001:00046eb0       _BN_lshift1                10047eb0 f   libeay32_EM.0.9.8e:bn_shift.obj
 0001:00046f60       _BN_rshift1                10047f60 f   libeay32_EM.0.9.8e:bn_shift.obj
 0001:00047010       _BN_lshift                 10048010 f   libeay32_EM.0.9.8e:bn_shift.obj
 0001:00047150       _BN_rshift                 10048150 f   libeay32_EM.0.9.8e:bn_shift.obj
 0001:00047290       _i2c_ASN1_BIT_STRING       10048290 f   libeay32_EM.0.9.8e:a_bitstr.obj
 0001:00047370       _c2i_ASN1_BIT_STRING       10048370 f   libeay32_EM.0.9.8e:a_bitstr.obj
 0001:00047480       _ASN1_BIT_STRING_set_bit   10048480 f   libeay32_EM.0.9.8e:a_bitstr.obj
 0001:000475a0       _ASN1_BIT_STRING_get_bit   100485a0 f   libeay32_EM.0.9.8e:a_bitstr.obj
 0001:000475f0       _asn1_get_choice_selector  100485f0 f   libeay32_EM.0.9.8e:tasn_utl.obj
 0001:00047610       _asn1_set_choice_selector  10048610 f   libeay32_EM.0.9.8e:tasn_utl.obj
 0001:00047630       _asn1_do_lock              10048630 f   libeay32_EM.0.9.8e:tasn_utl.obj
 0001:00047680       _asn1_enc_init             10048680 f   libeay32_EM.0.9.8e:tasn_utl.obj
 0001:000476c0       _asn1_enc_free             100486c0 f   libeay32_EM.0.9.8e:tasn_utl.obj
 0001:00047710       _asn1_enc_save             10048710 f   libeay32_EM.0.9.8e:tasn_utl.obj
 0001:00047790       _asn1_enc_restore          10048790 f   libeay32_EM.0.9.8e:tasn_utl.obj
 0001:00047800       _asn1_get_field_ptr        10048800 f   libeay32_EM.0.9.8e:tasn_utl.obj
 0001:00047820       _asn1_do_adb               10048820 f   libeay32_EM.0.9.8e:tasn_utl.obj
 0001:000478c0       _MD2_Init                  100488c0 f   libeay32_EM.0.9.8e:md2_dgst.obj
 0001:00047a40       _MD2_Final                 10048a40 f   libeay32_EM.0.9.8e:md2_dgst.obj
 0001:00047ac0       _MD2_Update                10048ac0 f   libeay32_EM.0.9.8e:md2_dgst.obj
 0001:00047b80       _idea_ecb_encrypt          10048b80 f   libeay32_EM.0.9.8e:i_ecb.obj
 0001:00047c40       _idea_encrypt              10048c40 f   libeay32_EM.0.9.8e:i_cbc.obj
 0001:000484a0       _idea_cbc_encrypt          100494a0 f   libeay32_EM.0.9.8e:i_cbc.obj
 0001:00048a10       _idea_ofb64_encrypt        10049a10 f   libeay32_EM.0.9.8e:i_ofb64.obj
 0001:00048c10       _idea_cfb64_encrypt        10049c10 f   libeay32_EM.0.9.8e:i_cfb64.obj
 0001:00048e40       _idea_set_encrypt_key      10049e40 f   libeay32_EM.0.9.8e:i_skey.obj
 0001:00049030       _idea_set_decrypt_key      1004a030 f   libeay32_EM.0.9.8e:i_skey.obj
 0001:000490d0       _BF_encrypt                1004a0d0     libeay32_EM.0.9.8e:b_win32.obj
 0001:000494eb       _BF_decrypt                1004a4eb     libeay32_EM.0.9.8e:b_win32.obj
 0001:00049906       _BF_cbc_encrypt            1004a906     libeay32_EM.0.9.8e:b_win32.obj
 0001:00049b50       _BF_cfb64_encrypt          1004ab50 f   libeay32_EM.0.9.8e:bf_cfb64.obj
 0001:00049d80       _BF_ecb_encrypt            1004ad80 f   libeay32_EM.0.9.8e:bf_ecb.obj
 0001:00049e60       _BF_ofb64_encrypt          1004ae60 f   libeay32_EM.0.9.8e:bf_ofb64.obj
 0001:0004a060       _BF_set_key                1004b060 f   libeay32_EM.0.9.8e:bf_skey.obj
 0001:0004a1e0       _RSA_sign_ASN1_OCTET_STRING 1004b1e0 f   libeay32_EM.0.9.8e:rsa_saos.obj
 0001:0004a2e0       _RSA_verify_ASN1_OCTET_STRING 1004b2e0 f   libeay32_EM.0.9.8e:rsa_saos.obj
 0001:0004a480       _MDC2_Init                 1004b480 f   libeay32_EM.0.9.8e:mdc2dgst.obj
 0001:0004a690       _MDC2_Final                1004b690 f   libeay32_EM.0.9.8e:mdc2dgst.obj
 0001:0004a700       _MDC2_Update               1004b700 f   libeay32_EM.0.9.8e:mdc2dgst.obj
 0001:0004a7b0       _DES_xcbc_encrypt          1004b7b0 f   libeay32_EM.0.9.8e:xcbc_enc.obj
 0001:0004ade0       _CAST_encrypt              1004bde0     libeay32_EM.0.9.8e:c_win32.obj
 0001:0004b282       _CAST_decrypt              1004c282     libeay32_EM.0.9.8e:c_win32.obj
 0001:0004b722       _CAST_cbc_encrypt          1004c722     libeay32_EM.0.9.8e:c_win32.obj
 0001:0004b960       _CAST_cfb64_encrypt        1004c960 f   libeay32_EM.0.9.8e:c_cfb64.obj
 0001:0004bb90       _CAST_ecb_encrypt          1004cb90 f   libeay32_EM.0.9.8e:c_ecb.obj
 0001:0004bc70       _CAST_ofb64_encrypt        1004cc70 f   libeay32_EM.0.9.8e:c_ofb64.obj
 0001:0004be70       _CAST_set_key              1004ce70 f   libeay32_EM.0.9.8e:c_skey.obj
 0001:0004d180       _X509_LOOKUP_hash_dir      1004e180 f   libeay32_EM.0.9.8e:by_dir.obj
 0001:0004d790       _X509_LOOKUP_file          1004e790 f   libeay32_EM.0.9.8e:by_file.obj
 0001:0004d7a0       _X509_load_cert_file       1004e7a0 f   libeay32_EM.0.9.8e:by_file.obj
 0001:0004d940       _X509_load_crl_file        1004e940 f   libeay32_EM.0.9.8e:by_file.obj
 0001:0004dae0       _X509_load_cert_crl_file   1004eae0 f   libeay32_EM.0.9.8e:by_file.obj
 0001:0004dca0       _UTF8_getc                 1004eca0 f   libeay32_EM.0.9.8e:a_utf8.obj
 0001:0004df60       _UTF8_putc                 1004ef60 f   libeay32_EM.0.9.8e:a_utf8.obj
 0001:0004e110       _DES_ecb_encrypt           1004f110 f   libeay32_EM.0.9.8e:ecb_enc.obj
 0001:0004e1d0       _DES_ofb64_encrypt         1004f1d0 f   libeay32_EM.0.9.8e:ofb64enc.obj
 0001:0004e3d0       _DES_cfb64_encrypt         1004f3d0 f   libeay32_EM.0.9.8e:cfb64enc.obj
 0001:0004e5f0       _DES_cfb_encrypt           1004f5f0 f   libeay32_EM.0.9.8e:cfb_enc.obj
 0001:0004f730       _ASN1_generate_v3          10050730 f   libeay32_EM.0.9.8e:asn1_gen.obj
 0001:0004fb30       _NCONF_get_section         10050b30 f   libeay32_EM.0.9.8e:conf_lib.obj
 0001:0004fb90       _NCONF_get_string          10050b90 f   libeay32_EM.0.9.8e:conf_lib.obj
 0001:0004fc10       _CONF_get_section          10050c10 f   libeay32_EM.0.9.8e:conf_lib.obj
 0001:0004fc70       _CONF_get_string           10050c70 f   libeay32_EM.0.9.8e:conf_lib.obj
 0001:0004fd00       _CONF_free                 10050d00 f   libeay32_EM.0.9.8e:conf_lib.obj
 0001:0004fd40       _X509V3_add_value          10050d40 f   libeay32_EM.0.9.8e:v3_utl.obj
 0001:0004fe10       _X509V3_add_value_uchar    10050e10 f   libeay32_EM.0.9.8e:v3_utl.obj
 0001:0004fe20       _X509V3_conf_free          10050e20 f   libeay32_EM.0.9.8e:v3_utl.obj
 0001:0004fe70       _X509V3_add_value_bool     10050e70 f   libeay32_EM.0.9.8e:v3_utl.obj
 0001:0004fea0       _i2s_ASN1_ENUMERATED       10050ea0 f   libeay32_EM.0.9.8e:v3_utl.obj
 0001:0004ff00       _i2s_ASN1_INTEGER          10050f00 f   libeay32_EM.0.9.8e:v3_utl.obj
 0001:0004ff60       _s2i_ASN1_INTEGER          10050f60 f   libeay32_EM.0.9.8e:v3_utl.obj
 0001:00050070       _X509V3_add_value_int      10051070 f   libeay32_EM.0.9.8e:v3_utl.obj
 0001:000500c0       _X509V3_get_value_bool     100510c0 f   libeay32_EM.0.9.8e:v3_utl.obj
 0001:00050230       _X509V3_get_value_int      10051230 f   libeay32_EM.0.9.8e:v3_utl.obj
 0001:00050310       _hex_to_string             10051310 f   libeay32_EM.0.9.8e:v3_utl.obj
 0001:000503c0       _string_to_hex             100513c0 f   libeay32_EM.0.9.8e:v3_utl.obj
 0001:00050570       _name_cmp                  10051570 f   libeay32_EM.0.9.8e:v3_utl.obj
 0001:000506d0       _X509V3_NAME_from_section  100516d0 f   libeay32_EM.0.9.8e:v3_utl.obj
 0001:00050790       _X509V3_parse_list         10051790 f   libeay32_EM.0.9.8e:v3_utl.obj
 0001:00050b00       _a2i_ipadd                 10051b00 f   libeay32_EM.0.9.8e:v3_utl.obj
 0001:00050b40       _a2i_IPADDRESS             10051b40 f   libeay32_EM.0.9.8e:v3_utl.obj
 0001:00050bf0       _a2i_IPADDRESS_NC          10051bf0 f   libeay32_EM.0.9.8e:v3_utl.obj
 0001:00051560       _BN_nnmod                  10052560 f   libeay32_EM.0.9.8e:bn_mod.obj
 0001:000515b0       _BN_mod_add                100525b0 f   libeay32_EM.0.9.8e:bn_mod.obj
 0001:000515f0       _BN_mod_add_quick          100525f0 f   libeay32_EM.0.9.8e:bn_mod.obj
 0001:00051640       _BN_mod_sub_quick          10052640 f   libeay32_EM.0.9.8e:bn_mod.obj
 0001:00051680       _BN_mod_mul                10052680 f   libeay32_EM.0.9.8e:bn_mod.obj
 0001:00051700       _BN_mod_sqr                10052700 f   libeay32_EM.0.9.8e:bn_mod.obj
 0001:00051740       _BN_mod_lshift1_quick      10052740 f   libeay32_EM.0.9.8e:bn_mod.obj
 0001:00051790       _BN_mod_lshift_quick       10052790 f   libeay32_EM.0.9.8e:bn_mod.obj
 0001:00051860       _BN_div                    10052860 f   libeay32_EM.0.9.8e:bn_div.obj
 0001:00051c60       _BN_GENCB_call             10052c60 f   libeay32_EM.0.9.8e:bn_prime.obj
 0001:00052090       _BN_is_prime_fasttest_ex   10053090 f   libeay32_EM.0.9.8e:bn_prime.obj
 0001:00052470       _BN_generate_prime_ex      10053470 f   libeay32_EM.0.9.8e:bn_prime.obj
 0001:000531b0       _X509_NAME_print_ex        100541b0 f   libeay32_EM.0.9.8e:a_strex.obj
 0001:000531f0       _OpenSSL_add_all_digests   100541f0 f   libeay32_EM.0.9.8e:c_alld.obj
 0001:00053350       _OpenSSL_add_all_ciphers   10054350 f   libeay32_EM.0.9.8e:c_allc.obj
 0001:00053920       _ASN1_tag2str              10054920 f   libeay32_EM.0.9.8e:asn1_par.obj
 0001:00053950       _ASN1_STRING_print         10054950 f   libeay32_EM.0.9.8e:t_x509.obj
 0001:00053a20       _ASN1_GENERALIZEDTIME_print 10054a20 f   libeay32_EM.0.9.8e:t_x509.obj
 0001:00053b90       _X509_NAME_print           10054b90 f   libeay32_EM.0.9.8e:t_x509.obj
 0001:00053c80       _RIPEMD160_Update          10054c80 f   libeay32_EM.0.9.8e:rmd_dgst.obj
 0001:00053f60       _RIPEMD160_Final           10054f60 f   libeay32_EM.0.9.8e:rmd_dgst.obj
 0001:000540f0       _SHA_Init                  100550f0 f   libeay32_EM.0.9.8e:sha_dgst.obj
 0001:000540f0       _RIPEMD160_Init            100550f0 f   libeay32_EM.0.9.8e:rmd_dgst.obj
 0001:000540f0       _SHA1_Init                 100550f0 f   libeay32_EM.0.9.8e:sha1dgst.obj
 0001:00054150       _POLICY_MAPPING_it         10055150 f   libeay32_EM.0.9.8e:v3_pmaps.obj
 0001:00054160       _POLICY_MAPPINGS_it        10055160 f   libeay32_EM.0.9.8e:v3_pmaps.obj
 0001:00054170       _POLICY_MAPPING_free       10055170 f   libeay32_EM.0.9.8e:v3_pmaps.obj
 0001:000543e0       _GENERAL_SUBTREE_it        100553e0 f   libeay32_EM.0.9.8e:v3_ncons.obj
 0001:000543f0       _NAME_CONSTRAINTS_it       100553f0 f   libeay32_EM.0.9.8e:v3_ncons.obj
 0001:000552b0       _POLICY_CONSTRAINTS_it     100562b0 f   libeay32_EM.0.9.8e:v3_pcons.obj
 0001:000552c0       _POLICY_CONSTRAINTS_free   100562c0 f   libeay32_EM.0.9.8e:v3_pcons.obj
 0001:00055470       _ACCESS_DESCRIPTION_it     10056470 f   libeay32_EM.0.9.8e:v3_info.obj
 0001:00055480       _ACCESS_DESCRIPTION_free   10056480 f   libeay32_EM.0.9.8e:v3_info.obj
 0001:000554a0       _AUTHORITY_INFO_ACCESS_it  100564a0 f   libeay32_EM.0.9.8e:v3_info.obj
 0001:00055810       _EXTENDED_KEY_USAGE_it     10056810 f   libeay32_EM.0.9.8e:v3_extku.obj
 0001:00055970       _SXNETID_it                10056970 f   libeay32_EM.0.9.8e:v3_sxnet.obj
 0001:00055980       _SXNET_it                  10056980 f   libeay32_EM.0.9.8e:v3_sxnet.obj
 0001:00055a40       _SXNET_get_id_INTEGER      10056a40 f   libeay32_EM.0.9.8e:v3_sxnet.obj
 0001:00055aa0       _SXNET_add_id_INTEGER      10056aa0 f   libeay32_EM.0.9.8e:v3_sxnet.obj
 0001:00055cd0       _i2s_ASN1_ENUMERATED_TABLE 10056cd0 f   libeay32_EM.0.9.8e:v3_enum.obj
 0001:00055de0       _DIST_POINT_NAME_it        10056de0 f   libeay32_EM.0.9.8e:v3_crld.obj
 0001:00055df0       _DIST_POINT_it             10056df0 f   libeay32_EM.0.9.8e:v3_crld.obj
 0001:00055e00       _DIST_POINT_free           10056e00 f   libeay32_EM.0.9.8e:v3_crld.obj
 0001:00055e20       _CRL_DIST_POINTS_it        10056e20 f   libeay32_EM.0.9.8e:v3_crld.obj
 0001:000562a0       _CERTIFICATEPOLICIES_it    100572a0 f   libeay32_EM.0.9.8e:v3_cpols.obj
 0001:000562b0       _POLICYINFO_it             100572b0 f   libeay32_EM.0.9.8e:v3_cpols.obj
 0001:000562c0       _POLICYINFO_free           100572c0 f   libeay32_EM.0.9.8e:v3_cpols.obj
 0001:000562f0       _POLICYQUALINFO_it         100572f0 f   libeay32_EM.0.9.8e:v3_cpols.obj
 0001:00056300       _POLICYQUALINFO_free       10057300 f   libeay32_EM.0.9.8e:v3_cpols.obj
 0001:00056320       _USERNOTICE_it             10057320 f   libeay32_EM.0.9.8e:v3_cpols.obj
 0001:00056330       _NOTICEREF_it              10057330 f   libeay32_EM.0.9.8e:v3_cpols.obj
 0001:00056d50       _BASIC_CONSTRAINTS_it      10057d50 f   libeay32_EM.0.9.8e:v3_bcons.obj
 0001:00056d60       _BASIC_CONSTRAINTS_free    10057d60 f   libeay32_EM.0.9.8e:v3_bcons.obj
 0001:00056ee0       _i2v_GENERAL_NAME          10057ee0 f   libeay32_EM.0.9.8e:v3_alt.obj
 0001:00057160       _GENERAL_NAME_print        10058160 f   libeay32_EM.0.9.8e:v3_alt.obj
 0001:00057690       _i2v_GENERAL_NAMES         10058690 f   libeay32_EM.0.9.8e:v3_alt.obj
 0001:000576f0       _v2i_GENERAL_NAME_ex       100586f0 f   libeay32_EM.0.9.8e:v3_alt.obj
 0001:00057990       _v2i_GENERAL_NAME          10058990 f   libeay32_EM.0.9.8e:v3_alt.obj
 0001:00057c10       _PKEY_USAGE_PERIOD_it      10058c10 f   libeay32_EM.0.9.8e:v3_pku.obj
 0001:00057ca0       _i2v_ASN1_BIT_STRING       10058ca0 f   libeay32_EM.0.9.8e:v3_bitst.obj
 0001:00057cf0       _v2i_ASN1_BIT_STRING       10058cf0 f   libeay32_EM.0.9.8e:v3_bitst.obj
 0001:00057ea0       _i2s_ASN1_OCTET_STRING     10058ea0 f   libeay32_EM.0.9.8e:v3_skey.obj
 0001:00057ec0       _s2i_ASN1_OCTET_STRING     10058ec0 f   libeay32_EM.0.9.8e:v3_skey.obj
 0001:00058260       _OBJ_NAME_remove           10059260 f   libeay32_EM.0.9.8e:o_names.obj
 0001:00058330       _policy_node_free          10059330 f   libeay32_EM.0.9.8e:pcy_node.obj
 0001:00058340       _OBJ_NAME_cleanup          10059340 f   libeay32_EM.0.9.8e:o_names.obj
 0001:000583c0       _OBJ_NAME_init             100593c0 f   libeay32_EM.0.9.8e:o_names.obj
 0001:00058400       _OBJ_NAME_get              10059400 f   libeay32_EM.0.9.8e:o_names.obj
 0001:000584b0       _OBJ_NAME_add              100594b0 f   libeay32_EM.0.9.8e:o_names.obj
 0001:000585a0       _EVP_PBE_CipherInit        100595a0 f   libeay32_EM.0.9.8e:evp_pbe.obj
 0001:00058710       _EVP_PBE_alg_add           10059710 f   libeay32_EM.0.9.8e:evp_pbe.obj
 0001:00058790       _EVP_PBE_cleanup           10059790 f   libeay32_EM.0.9.8e:evp_pbe.obj
 0001:000587b0       _BIO_get_port              100597b0 f   libeay32_EM.0.9.8e:b_sock.obj
 0001:00058960       _BIO_sock_error            10059960 f   libeay32_EM.0.9.8e:b_sock.obj
 0001:000589a0       _BIO_sock_init             100599a0 f   libeay32_EM.0.9.8e:b_sock.obj
 0001:00058ae0       _BIO_accept                10059ae0 f   libeay32_EM.0.9.8e:b_sock.obj
 0001:00058c20       _BIO_socket_nbio           10059c20 f   libeay32_EM.0.9.8e:b_sock.obj
 0001:00058c70       _BIO_get_host_ip           10059c70 f   libeay32_EM.0.9.8e:b_sock.obj
 0001:00058d90       _BIO_get_accept_socket     10059d90 f   libeay32_EM.0.9.8e:b_sock.obj
 0001:000590f0       _BN_mod_exp_recp           1005a0f0 f   libeay32_EM.0.9.8e:bn_exp.obj
 0001:00059580       _BN_mod_exp_mont_consttime 1005a580 f   libeay32_EM.0.9.8e:bn_exp.obj
 0001:000599b0       _BN_mod_exp_mont_word      1005a9b0 f   libeay32_EM.0.9.8e:bn_exp.obj
 0001:00059d40       _BN_mod_exp_mont           1005ad40 f   libeay32_EM.0.9.8e:bn_exp.obj
 0001:0005a160       _BN_mod_exp                1005b160 f   libeay32_EM.0.9.8e:bn_exp.obj
 0001:0005a1d0       _BN_from_montgomery        1005b1d0 f   libeay32_EM.0.9.8e:bn_mont.obj
 0001:0005a450       _BN_MONT_CTX_free          1005b450 f   libeay32_EM.0.9.8e:bn_mont.obj
 0001:0005a490       _BN_MONT_CTX_set           1005b490 f   libeay32_EM.0.9.8e:bn_mont.obj
 0001:0005a620       _BN_MONT_CTX_copy          1005b620 f   libeay32_EM.0.9.8e:bn_mont.obj
 0001:0005a680       _BN_mod_mul_montgomery     1005b680 f   libeay32_EM.0.9.8e:bn_mont.obj
 0001:0005a700       _BN_MONT_CTX_new           1005b700 f   libeay32_EM.0.9.8e:bn_mont.obj
 0001:0005a750       _BN_MONT_CTX_set_locked    1005b750 f   libeay32_EM.0.9.8e:bn_mont.obj
 0001:0005a820       _RSA_padding_add_none      1005b820 f   libeay32_EM.0.9.8e:rsa_none.obj
 0001:0005a880       _RSA_padding_check_none    1005b880 f   libeay32_EM.0.9.8e:rsa_none.obj
 0001:0005a8e0       _RSA_padding_add_SSLv23    1005b8e0 f   libeay32_EM.0.9.8e:rsa_ssl.obj
 0001:0005a9a0       _RSA_padding_check_SSLv23  1005b9a0 f   libeay32_EM.0.9.8e:rsa_ssl.obj
 0001:0005aab0       _PKCS1_MGF1                1005bab0 f   libeay32_EM.0.9.8e:rsa_oaep.obj
 0001:0005abf0       _RSA_padding_add_PKCS1_OAEP 1005bbf0 f   libeay32_EM.0.9.8e:rsa_oaep.obj
 0001:0005ae10       _RSA_padding_check_PKCS1_OAEP 1005be10 f   libeay32_EM.0.9.8e:rsa_oaep.obj
 0001:0005b090       _RSA_padding_add_PKCS1_type_1 1005c090 f   libeay32_EM.0.9.8e:rsa_pk1.obj
 0001:0005b100       _RSA_padding_check_PKCS1_type_1 1005c100 f   libeay32_EM.0.9.8e:rsa_pk1.obj
 0001:0005b200       _RSA_padding_add_PKCS1_type_2 1005c200 f   libeay32_EM.0.9.8e:rsa_pk1.obj
 0001:0005b2b0       _RSA_padding_check_PKCS1_type_2 1005c2b0 f   libeay32_EM.0.9.8e:rsa_pk1.obj
 0001:0005b390       _RSA_padding_add_X931      1005c390 f   libeay32_EM.0.9.8e:rsa_x931.obj
 0001:0005b410       _RSA_padding_check_X931    1005c410 f   libeay32_EM.0.9.8e:rsa_x931.obj
 0001:0005b500       _engine_free_util          1005c500 f   libeay32_EM.0.9.8e:eng_lib.obj
 0001:0005b580       _engine_table_select       1005c580 f   libeay32_EM.0.9.8e:eng_table.obj
 0001:0005b860       _BN_rand                   1005c860 f   libeay32_EM.0.9.8e:bn_rand.obj
 0001:0005b880       _BN_pseudo_rand            1005c880 f   libeay32_EM.0.9.8e:bn_rand.obj
 0001:0005ba10       _BN_rand_range             1005ca10 f   libeay32_EM.0.9.8e:bn_rand.obj
 0001:0005ba30       _BN_pseudo_rand_range      1005ca30 f   libeay32_EM.0.9.8e:bn_rand.obj
 0001:0005ba50       _bn_mul_add_words          1005ca50     libeay32_EM.0.9.8e:bn_win32.obj
 0001:0005bc85       _bn_mul_words              1005cc85     libeay32_EM.0.9.8e:bn_win32.obj
 0001:0005be14       _bn_sqr_words              1005ce14     libeay32_EM.0.9.8e:bn_win32.obj
 0001:0005bf28       _bn_div_words              1005cf28     libeay32_EM.0.9.8e:bn_win32.obj
 0001:0005bf3f       _bn_add_words              1005cf3f     libeay32_EM.0.9.8e:bn_win32.obj
 0001:0005c12f       _bn_sub_words              1005d12f     libeay32_EM.0.9.8e:bn_win32.obj
 0001:0005c31f       _bn_mul_comba8             1005d31f     libeay32_EM.0.9.8e:bn_win32.obj
 0001:0005c82d       _bn_mul_comba4             1005d82d     libeay32_EM.0.9.8e:bn_win32.obj
 0001:0005c99b       _bn_sqr_comba8             1005d99b     libeay32_EM.0.9.8e:bn_win32.obj
 0001:0005cd7d       _bn_sqr_comba4             1005dd7d     libeay32_EM.0.9.8e:bn_win32.obj
 0001:0005cea0       _ECDSA_verify              1005dea0 f   libeay32_EM.0.9.8e:ecs_vrf.obj
 0001:0005cf40       _ECDSA_sign_ex             1005df40 f   libeay32_EM.0.9.8e:ecs_sign.obj
 0001:0005cfb0       _ECDSA_sign_setup          1005dfb0 f   libeay32_EM.0.9.8e:ecs_sign.obj
 0001:0005cff0       _ECDSA_sign                1005dff0 f   libeay32_EM.0.9.8e:ecs_sign.obj
 0001:0005d020       _DSA_verify                1005e020 f   libeay32_EM.0.9.8e:dsa_vrf.obj
 0001:0005d090       _DSA_sign                  1005e090 f   libeay32_EM.0.9.8e:dsa_sign.obj
 0001:0005d0e0       _DSA_sign_setup            1005e0e0 f   libeay32_EM.0.9.8e:dsa_sign.obj
 0001:0005d0f0       _d2i_PublicKey             1005e0f0 f   libeay32_EM.0.9.8e:d2i_pu.obj
 0001:0005d520       _EC_GROUP_new_by_curve_name 1005e520 f   libeay32_EM.0.9.8e:ec_curve.obj
 0001:0005d590       _policy_data_free          1005e590 f   libeay32_EM.0.9.8e:pcy_data.obj
 0001:0005d5d0       _policy_data_new           1005e5d0 f   libeay32_EM.0.9.8e:pcy_data.obj
 0001:0005d6a0       _policy_cache_set_mapping  1005e6a0 f   libeay32_EM.0.9.8e:pcy_map.obj
 0001:0005d8b0       _DSA_OpenSSL               1005e8b0 f   libeay32_EM.0.9.8e:dsa_ossl.obj
 0001:0005e040       _ENGINE_get_default_DSA    1005f040 f   libeay32_EM.0.9.8e:tb_dsa.obj
 0001:0005e050       _SSL_get_rbio              1005f050 f   ssleay32_EM.0.9.8e:ssl_lib.obj
 0001:0005e050       _EC_KEY_get0_private_key   1005f050 f   libeay32_EM.0.9.8e:ec_key.obj
 0001:0005e050       _ENGINE_get_DSA            1005f050 f   libeay32_EM.0.9.8e:tb_dsa.obj
 0001:0005e050       _EVP_CIPHER_iv_length      1005f050 f   libeay32_EM.0.9.8e:evp_lib.obj
 0001:0005e060       _ec_GF2m_simple_group_init 1005f060 f   libeay32_EM.0.9.8e:ec2_smpl.obj
 0001:0005e090       _ec_GF2m_simple_group_clear_finish 1005f090 f   libeay32_EM.0.9.8e:ec2_smpl.obj
 0001:0005e0d0       _ec_GF2m_simple_group_copy 1005f0d0 f   libeay32_EM.0.9.8e:ec2_smpl.obj
 0001:0005e1d0       _ec_GF2m_simple_group_set_curve 1005f1d0 f   libeay32_EM.0.9.8e:ec2_smpl.obj
 0001:0005e2f0       _ec_GF2m_simple_group_get_curve 1005f2f0 f   libeay32_EM.0.9.8e:ec2_smpl.obj
 0001:0005e360       _ec_GF2m_simple_group_get_degree 1005f360 f   libeay32_EM.0.9.8e:ec2_smpl.obj
 0001:0005e380       _ec_GF2m_simple_group_check_discriminant 1005f380 f   libeay32_EM.0.9.8e:ec2_smpl.obj
 0001:0005e420       _ec_GF2m_simple_point_init 1005f420 f   libeay32_EM.0.9.8e:ec2_smpl.obj
 0001:0005e450       _ec_GFp_simple_point_clear_finish 1005f450 f   libeay32_EM.0.9.8e:ecp_smpl.obj
 0001:0005e450       _ec_GF2m_simple_point_clear_finish 1005f450 f   libeay32_EM.0.9.8e:ec2_smpl.obj
 0001:0005e480       _ec_GF2m_simple_point_copy 1005f480 f   libeay32_EM.0.9.8e:ec2_smpl.obj
 0001:0005e480       _ec_GFp_simple_point_copy  1005f480 f   libeay32_EM.0.9.8e:ecp_smpl.obj
 0001:0005e4e0       _ec_GF2m_simple_point_set_affine_coordinates 1005f4e0 f   libeay32_EM.0.9.8e:ec2_smpl.obj
 0001:0005e580       _ec_GF2m_simple_point_get_affine_coordinates 1005f580 f   libeay32_EM.0.9.8e:ec2_smpl.obj
 0001:0005e650       _ec_GF2m_simple_set_compressed_coordinates 1005f650 f   libeay32_EM.0.9.8e:ec2_smpl.obj
 0001:0005e670       _ec_GF2m_simple_point2oct  1005f670 f   libeay32_EM.0.9.8e:ec2_smpl.obj
 0001:0005e910       _ec_GF2m_simple_oct2point  1005f910 f   libeay32_EM.0.9.8e:ec2_smpl.obj
 0001:0005ebe0       _ec_GF2m_simple_add        1005fbe0 f   libeay32_EM.0.9.8e:ec2_smpl.obj
 0001:0005ef90       _ec_GF2m_simple_dbl        1005ff90 f   libeay32_EM.0.9.8e:ec2_smpl.obj
 0001:0005efb0       _ec_GF2m_simple_invert     1005ffb0 f   libeay32_EM.0.9.8e:ec2_smpl.obj
 0001:0005f000       _ec_GF2m_simple_is_on_curve 10060000 f   libeay32_EM.0.9.8e:ec2_smpl.obj
 0001:0005f170       _ec_GF2m_simple_cmp        10060170 f   libeay32_EM.0.9.8e:ec2_smpl.obj
 0001:0005f2f0       _ec_GF2m_simple_make_affine 100602f0 f   libeay32_EM.0.9.8e:ec2_smpl.obj
 0001:0005f3f0       _ec_GF2m_simple_points_make_affine 100603f0 f   libeay32_EM.0.9.8e:ec2_smpl.obj
 0001:0005f440       _ec_GF2m_simple_field_mul  10060440 f   libeay32_EM.0.9.8e:ec2_smpl.obj
 0001:0005f470       _ec_GF2m_simple_field_sqr  10060470 f   libeay32_EM.0.9.8e:ec2_smpl.obj
 0001:0005f490       _ec_GF2m_simple_field_div  10060490 f   libeay32_EM.0.9.8e:ec2_smpl.obj
 0001:0005f4c0       _EC_GF2m_simple_method     100604c0 f   libeay32_EM.0.9.8e:ec2_smpl.obj
 0001:0005f4d0       _EC_GROUP_new_curve_GFp    100604d0 f   libeay32_EM.0.9.8e:ec_cvt.obj
 0001:0005f580       _EC_GROUP_new_curve_GF2m   10060580 f   libeay32_EM.0.9.8e:ec_cvt.obj
 0001:0005f5d0       _PROXY_POLICY_it           100605d0 f   libeay32_EM.0.9.8e:v3_pcia.obj
 0001:0005f5e0       _PROXY_POLICY_new          100605e0 f   libeay32_EM.0.9.8e:v3_pcia.obj
 0001:0005f5f0       _PROXY_POLICY_free         100605f0 f   libeay32_EM.0.9.8e:v3_pcia.obj
 0001:0005f610       _PROXY_CERT_INFO_EXTENSION_it 10060610 f   libeay32_EM.0.9.8e:v3_pcia.obj
 0001:0005f620       _PROXY_CERT_INFO_EXTENSION_new 10060620 f   libeay32_EM.0.9.8e:v3_pcia.obj
 0001:0005f630       _PROXY_CERT_INFO_EXTENSION_free 10060630 f   libeay32_EM.0.9.8e:v3_pcia.obj
 0001:0005f650       _PKCS12_pbe_crypt          10060650 f   libeay32_EM.0.9.8e:p12_decr.obj
 0001:0005f7c0       _PKCS12_item_decrypt_d2i   100607c0 f   libeay32_EM.0.9.8e:p12_decr.obj
 0001:0005f880       _EVP_get_pw_prompt         10060880 f   libeay32_EM.0.9.8e:evp_key.obj
 0001:0005f890       _EVP_read_pw_string        10060890 f   libeay32_EM.0.9.8e:evp_key.obj
 0001:0005f970       _EVP_BytesToKey            10060970 f   libeay32_EM.0.9.8e:evp_key.obj
 0001:0005fbd0       _EVP_EncodeInit            10060bd0 f   libeay32_EM.0.9.8e:encode.obj
 0001:0005fbf0       _EVP_EncodeBlock           10060bf0 f   libeay32_EM.0.9.8e:encode.obj
 0001:0005fcf0       _EVP_DecodeInit            10060cf0 f   libeay32_EM.0.9.8e:encode.obj
 0001:0005fd10       _EVP_DecodeBlock           10060d10 f   libeay32_EM.0.9.8e:encode.obj
 0001:0005fe50       _EVP_DecodeFinal           10060e50 f   libeay32_EM.0.9.8e:encode.obj
 0001:0005fea0       _EVP_EncodeUpdate          10060ea0 f   libeay32_EM.0.9.8e:encode.obj
 0001:0005ffc0       _EVP_EncodeFinal           10060fc0 f   libeay32_EM.0.9.8e:encode.obj
 0001:00060010       _EVP_DecodeUpdate          10061010 f   libeay32_EM.0.9.8e:encode.obj
 0001:00060230       _d2i_PBEPARAM              10061230 f   libeay32_EM.0.9.8e:p5_pbe.obj
 0001:00060250       _PBEPARAM_free             10061250 f   libeay32_EM.0.9.8e:p5_pbe.obj
 0001:00060270       _d2i_PBE2PARAM             10061270 f   libeay32_EM.0.9.8e:p5_pbev2.obj
 0001:00060290       _PBE2PARAM_free            10061290 f   libeay32_EM.0.9.8e:p5_pbev2.obj
 0001:000602b0       _d2i_PBKDF2PARAM           100612b0 f   libeay32_EM.0.9.8e:p5_pbev2.obj
 0001:000602d0       _PBKDF2PARAM_free          100612d0 f   libeay32_EM.0.9.8e:p5_pbev2.obj
 0001:000602f0       _sha1_block_asm_data_order 100612f0     libeay32_EM.0.9.8e:s1_win32.obj
 0001:0006129b       _sha1_block_asm_host_order 1006229b     libeay32_EM.0.9.8e:s1_win32.obj
 0001:00061340       _i2d_ASN1_bytes            10062340 f   libeay32_EM.0.9.8e:a_bytes.obj
 0001:00061680       _ec_wNAF_mul               10062680 f   libeay32_EM.0.9.8e:ec_mult.obj
 0001:00062050       _ec_wNAF_precompute_mult   10063050 f   libeay32_EM.0.9.8e:ec_mult.obj
 0001:000624e0       _ec_wNAF_have_precompute_mult 100634e0 f   libeay32_EM.0.9.8e:ec_mult.obj
 0001:00062510       _ECDSA_OpenSSL             10063510 f   libeay32_EM.0.9.8e:ecs_ossl.obj
 0001:00062e40       _ENGINE_get_default_ECDSA  10063e40 f   libeay32_EM.0.9.8e:tb_ecdsa.obj
 0001:00062e50       _ENGINE_get_ECDSA          10063e50 f   libeay32_EM.0.9.8e:tb_ecdsa.obj
 0001:00062e50       _BIO_get_retry_reason      10063e50 f   libeay32_EM.0.9.8e:bio_lib.obj
 0001:00062e60       _DH_generate_key           10063e60 f   libeay32_EM.0.9.8e:dh_key.obj
 0001:00062e70       _DH_compute_key            10063e70 f   libeay32_EM.0.9.8e:dh_key.obj
 0001:00062e80       _DH_OpenSSL                10063e80 f   libeay32_EM.0.9.8e:dh_key.obj
 0001:00063200       _ENGINE_get_default_DH     10064200 f   libeay32_EM.0.9.8e:tb_dh.obj
 0001:00063240       _policy_node_cmp_new       10064240 f   libeay32_EM.0.9.8e:pcy_node.obj
 0001:00063250       _tree_find_sk              10064250 f   libeay32_EM.0.9.8e:pcy_node.obj
 0001:000632a0       _level_find_node           100642a0 f   libeay32_EM.0.9.8e:pcy_node.obj
 0001:000632f0       _level_add_node            100642f0 f   libeay32_EM.0.9.8e:pcy_node.obj
 0001:000633c0       _X509_policy_tree_get0_user_policies 100643c0 f   libeay32_EM.0.9.8e:pcy_lib.obj
 0001:000633e0       _OPENSSL_gmtime            100643e0 f   libeay32_EM.0.9.8e:o_time.obj
 0001:00063410       _md5_block_asm_host_order  10064410     libeay32_EM.0.9.8e:m5_win32.obj
 0001:00063ac0       _X509_get_default_cert_dir 10064ac0 f   libeay32_EM.0.9.8e:x509_def.obj
 0001:00063ad0       _X509_get_default_cert_file 10064ad0 f   libeay32_EM.0.9.8e:x509_def.obj
 0001:00063ae0       _X509_get_default_cert_dir_env 10064ae0 f   libeay32_EM.0.9.8e:x509_def.obj
 0001:00063af0       _X509_get_default_cert_file_env 10064af0 f   libeay32_EM.0.9.8e:x509_def.obj
 0001:00063b00       _PEM_read_bio_X509_AUX     10064b00 f   libeay32_EM.0.9.8e:pem_xaux.obj
 0001:00063b30       _X509_INFO_new             10064b30 f   libeay32_EM.0.9.8e:x_info.obj
 0001:00063b80       _X509_INFO_free            10064b80 f   libeay32_EM.0.9.8e:x_info.obj
 0001:00063bf0       _PEM_X509_INFO_read_bio    10064bf0 f   libeay32_EM.0.9.8e:pem_info.obj
 0001:000640d0       _CONF_parse_list           100650d0 f   libeay32_EM.0.9.8e:conf_mod.obj
 0001:000641a0       _NCONF_default             100651a0 f   libeay32_EM.0.9.8e:conf_def.obj
 0001:00064f10       __CONF_get_section         10065f10 f   libeay32_EM.0.9.8e:conf_api.obj
 0001:00064f50       __CONF_get_section_values  10065f50 f   libeay32_EM.0.9.8e:conf_api.obj
 0001:00064fa0       __CONF_add_string          10065fa0 f   libeay32_EM.0.9.8e:conf_api.obj
 0001:00065010       __CONF_get_string          10066010 f   libeay32_EM.0.9.8e:conf_api.obj
 0001:000651f0       __CONF_new_section         100661f0 f   libeay32_EM.0.9.8e:conf_api.obj
 0001:000652d0       __CONF_new_data            100662d0 f   libeay32_EM.0.9.8e:conf_api.obj
 0001:00065310       __CONF_free_data           10066310 f   libeay32_EM.0.9.8e:conf_api.obj
 0001:00065360       _ASN1_ENUMERATED_get       10066360 f   libeay32_EM.0.9.8e:a_enum.obj
 0001:000653c0       _ASN1_ENUMERATED_to_BN     100663c0 f   libeay32_EM.0.9.8e:a_enum.obj
 0001:00065420       _bn_sqr_normal             10066420 f   libeay32_EM.0.9.8e:bn_sqr.obj
 0001:000654e0       _bn_sqr_recursive          100664e0 f   libeay32_EM.0.9.8e:bn_sqr.obj
 0001:00065680       _BN_sqr                    10066680 f   libeay32_EM.0.9.8e:bn_sqr.obj
 0001:00065840       _HMAC_Init_ex              10066840 f   libeay32_EM.0.9.8e:hmac.obj
 0001:00065a00       _HMAC_Update               10066a00 f   libeay32_EM.0.9.8e:hmac.obj
 0001:00065a10       _HMAC_Final                10066a10 f   libeay32_EM.0.9.8e:hmac.obj
 0001:00065a90       _HMAC_CTX_init             10066a90 f   libeay32_EM.0.9.8e:hmac.obj
 0001:00065ac0       _HMAC_CTX_cleanup          10066ac0 f   libeay32_EM.0.9.8e:hmac.obj
 0001:00065b00       _HMAC                      10066b00 f   libeay32_EM.0.9.8e:hmac.obj
 0001:00065c10       _PKCS12_key_gen_uni        10066c10 f   libeay32_EM.0.9.8e:p12_key.obj
 0001:00065fd0       _PKCS12_key_gen_asc        10066fd0 f   libeay32_EM.0.9.8e:p12_key.obj
 0001:00066080       _EVP_dss                   10067080 f   libeay32_EM.0.9.8e:m_dss.obj
 0001:00066090       _PKCS5_PBE_keyivgen        10067090 f   libeay32_EM.0.9.8e:p5_crpt.obj
 0001:00066370       _PKCS5_PBE_add             10067370 f   libeay32_EM.0.9.8e:p5_crpt.obj
 0001:00066430       _PKCS12_PBE_keyivgen       10067430 f   libeay32_EM.0.9.8e:p12_crpt.obj
 0001:00066610       _PKCS12_PBE_add            10067610 f   libeay32_EM.0.9.8e:p12_crpt.obj
 0001:00066760       _EVP_camellia_128_cbc      10067760 f   libeay32_EM.0.9.8e:e_camellia.obj
 0001:00066770       _EVP_camellia_128_cfb128   10067770 f   libeay32_EM.0.9.8e:e_camellia.obj
 0001:00066780       _EVP_camellia_128_ofb      10067780 f   libeay32_EM.0.9.8e:e_camellia.obj
 0001:00066790       _EVP_camellia_128_ecb      10067790 f   libeay32_EM.0.9.8e:e_camellia.obj
 0001:000667e0       _EVP_camellia_192_cbc      100677e0 f   libeay32_EM.0.9.8e:e_camellia.obj
 0001:000667f0       _EVP_camellia_192_cfb128   100677f0 f   libeay32_EM.0.9.8e:e_camellia.obj
 0001:00066800       _EVP_camellia_192_ofb      10067800 f   libeay32_EM.0.9.8e:e_camellia.obj
 0001:00066810       _EVP_camellia_192_ecb      10067810 f   libeay32_EM.0.9.8e:e_camellia.obj
 0001:00066850       _EVP_camellia_256_cbc      10067850 f   libeay32_EM.0.9.8e:e_camellia.obj
 0001:00066860       _EVP_camellia_256_cfb128   10067860 f   libeay32_EM.0.9.8e:e_camellia.obj
 0001:00066870       _EVP_camellia_256_ofb      10067870 f   libeay32_EM.0.9.8e:e_camellia.obj
 0001:00066880       _EVP_camellia_256_ecb      10067880 f   libeay32_EM.0.9.8e:e_camellia.obj
 0001:00066890       _EVP_camellia_128_cfb1     10067890 f   libeay32_EM.0.9.8e:e_camellia.obj
 0001:000668a0       _EVP_camellia_192_cfb1     100678a0 f   libeay32_EM.0.9.8e:e_camellia.obj
 0001:000668f0       _EVP_camellia_256_cfb1     100678f0 f   libeay32_EM.0.9.8e:e_camellia.obj
 0001:00066900       _EVP_camellia_128_cfb8     10067900 f   libeay32_EM.0.9.8e:e_camellia.obj
 0001:00066950       _EVP_camellia_192_cfb8     10067950 f   libeay32_EM.0.9.8e:e_camellia.obj
 0001:00066960       _EVP_camellia_256_cfb8     10067960 f   libeay32_EM.0.9.8e:e_camellia.obj
 0001:000669c0       _ripemd160_block_asm_host_order 100679c0     libeay32_EM.0.9.8e:rm_win32.obj
 0001:00067ec0       _i2a_ASN1_INTEGER          10068ec0 f   libeay32_EM.0.9.8e:f_int.obj
 0001:00067fc0       _OCSP_SIGNATURE_it         10068fc0 f   libeay32_EM.0.9.8e:ocsp_asn.obj
 0001:00067fd0       _OCSP_CERTID_it            10068fd0 f   libeay32_EM.0.9.8e:ocsp_asn.obj
 0001:00067fe0       _OCSP_ONEREQ_it            10068fe0 f   libeay32_EM.0.9.8e:ocsp_asn.obj
 0001:00067ff0       _OCSP_REQINFO_it           10068ff0 f   libeay32_EM.0.9.8e:ocsp_asn.obj
 0001:00068000       _OCSP_RESPBYTES_it         10069000 f   libeay32_EM.0.9.8e:ocsp_asn.obj
 0001:00068010       _OCSP_RESPID_it            10069010 f   libeay32_EM.0.9.8e:ocsp_asn.obj
 0001:00068020       _OCSP_REVOKEDINFO_it       10069020 f   libeay32_EM.0.9.8e:ocsp_asn.obj
 0001:00068030       _OCSP_CERTSTATUS_it        10069030 f   libeay32_EM.0.9.8e:ocsp_asn.obj
 0001:00068040       _OCSP_SINGLERESP_it        10069040 f   libeay32_EM.0.9.8e:ocsp_asn.obj
 0001:00068050       _OCSP_RESPDATA_it          10069050 f   libeay32_EM.0.9.8e:ocsp_asn.obj
 0001:00068060       _OCSP_CRLID_it             10069060 f   libeay32_EM.0.9.8e:ocsp_asn.obj
 0001:00068070       _OCSP_SERVICELOC_it        10069070 f   libeay32_EM.0.9.8e:ocsp_asn.obj
 0001:00068080       _i2a_ASN1_STRING           10069080 f   libeay32_EM.0.9.8e:f_string.obj
 0001:00068160       _BN_RECP_CTX_init          10069160 f   libeay32_EM.0.9.8e:bn_recp.obj
 0001:00068190       _BN_RECP_CTX_free          10069190 f   libeay32_EM.0.9.8e:bn_recp.obj
 0001:000681c0       _BN_RECP_CTX_set           100691c0 f   libeay32_EM.0.9.8e:bn_recp.obj
 0001:00068210       _BN_reciprocal             10069210 f   libeay32_EM.0.9.8e:bn_recp.obj
 0001:00068270       _BN_div_recp               10069270 f   libeay32_EM.0.9.8e:bn_recp.obj
 0001:000684c0       _BN_mod_mul_reciprocal     100694c0 f   libeay32_EM.0.9.8e:bn_recp.obj
 0001:00068540       _d2i_ECDSA_SIG             10069540 f   libeay32_EM.0.9.8e:ecs_asn1.obj
 0001:00068560       _i2d_ECDSA_SIG             10069560 f   libeay32_EM.0.9.8e:ecs_asn1.obj
 0001:00068580       _ECDSA_SIG_new             10069580 f   libeay32_EM.0.9.8e:ecs_asn1.obj
 0001:00068590       _ECDSA_SIG_free            10069590 f   libeay32_EM.0.9.8e:ecs_asn1.obj
 0001:000685b0       _BN_mod_exp2_mont          100695b0 f   libeay32_EM.0.9.8e:bn_exp2.obj
 0001:00069400       _ec_GF2m_simple_mul        1006a400 f   libeay32_EM.0.9.8e:ec2_mult.obj
 0001:000695c0       _ec_GF2m_precompute_mult   1006a5c0 f   libeay32_EM.0.9.8e:ec2_mult.obj
 0001:000695d0       _ec_GF2m_have_precompute_mult 1006a5d0 f   libeay32_EM.0.9.8e:ec2_mult.obj
 0001:00069770       _BN_GF2m_add               1006a770 f   libeay32_EM.0.9.8e:bn_gf2m.obj
 0001:00069810       _BN_GF2m_mod_arr           1006a810 f   libeay32_EM.0.9.8e:bn_gf2m.obj
 0001:00069a40       _BN_GF2m_mod_sqr_arr       1006aa40 f   libeay32_EM.0.9.8e:bn_gf2m.obj
 0001:00069ba0       _BN_GF2m_poly2arr          1006aba0 f   libeay32_EM.0.9.8e:bn_gf2m.obj
 0001:00069cb0       _BN_GF2m_mod               1006acb0 f   libeay32_EM.0.9.8e:bn_gf2m.obj
 0001:00069d50       _BN_GF2m_mod_mul_arr       1006ad50 f   libeay32_EM.0.9.8e:bn_gf2m.obj
 0001:00069fb0       _BN_GF2m_mod_mul           1006afb0 f   libeay32_EM.0.9.8e:bn_gf2m.obj
 0001:0006a060       _BN_GF2m_mod_inv           1006b060 f   libeay32_EM.0.9.8e:bn_gf2m.obj
 0001:0006a210       _BN_GF2m_mod_div           1006b210 f   libeay32_EM.0.9.8e:bn_gf2m.obj
 0001:0006a280       _ec_GFp_mont_group_init    1006b280 f   libeay32_EM.0.9.8e:ecp_mont.obj
 0001:0006a2a0       _ec_GFp_mont_group_finish  1006b2a0 f   libeay32_EM.0.9.8e:ecp_mont.obj
 0001:0006a2f0       _ec_GFp_mont_group_clear_finish 1006b2f0 f   libeay32_EM.0.9.8e:ecp_mont.obj
 0001:0006a340       _ec_GFp_mont_group_copy    1006b340 f   libeay32_EM.0.9.8e:ecp_mont.obj
 0001:0006a410       _ec_GFp_mont_group_set_curve 1006b410 f   libeay32_EM.0.9.8e:ecp_mont.obj
 0001:0006a570       _ec_GFp_mont_field_mul     1006b570 f   libeay32_EM.0.9.8e:ecp_mont.obj
 0001:0006a5c0       _ec_GFp_mont_field_sqr     1006b5c0 f   libeay32_EM.0.9.8e:ecp_mont.obj
 0001:0006a610       _ec_GFp_mont_field_encode  1006b610 f   libeay32_EM.0.9.8e:ecp_mont.obj
 0001:0006a660       _ec_GFp_mont_field_decode  1006b660 f   libeay32_EM.0.9.8e:ecp_mont.obj
 0001:0006a6b0       _ec_GFp_mont_field_set_to_one 1006b6b0 f   libeay32_EM.0.9.8e:ecp_mont.obj
 0001:0006a700       _EC_GFp_mont_method        1006b700 f   libeay32_EM.0.9.8e:ecp_mont.obj
 0001:0006a710       _ec_GFp_nist_group_copy    1006b710 f   libeay32_EM.0.9.8e:ecp_nist.obj
 0001:0006a740       _ec_GFp_nist_group_set_curve 1006b740 f   libeay32_EM.0.9.8e:ecp_nist.obj
 0001:0006a880       _ec_GFp_nist_field_mul     1006b880 f   libeay32_EM.0.9.8e:ecp_nist.obj
 0001:0006a950       _ec_GFp_nist_field_sqr     1006b950 f   libeay32_EM.0.9.8e:ecp_nist.obj
 0001:0006aa10       _EC_GFp_nist_method        1006ba10 f   libeay32_EM.0.9.8e:ecp_nist.obj
 0001:0006aa70       _UI_free                   1006ba70 f   libeay32_EM.0.9.8e:ui_lib.obj
 0001:0006abb0       _UI_add_input_string       1006bbb0 f   libeay32_EM.0.9.8e:ui_lib.obj
 0001:0006abf0       _UI_add_verify_string      1006bbf0 f   libeay32_EM.0.9.8e:ui_lib.obj
 0001:0006aca0       _UI_process                1006bca0 f   libeay32_EM.0.9.8e:ui_lib.obj
 0001:0006adc0       _UI_get_input_flags        1006bdc0 f   libeay32_EM.0.9.8e:ui_lib.obj
 0001:0006add0       _UI_get0_output_string     1006bdd0 f   libeay32_EM.0.9.8e:ui_lib.obj
 0001:0006add0       _X509_NAME_ENTRY_get_data  1006bdd0 f   libeay32_EM.0.9.8e:x509name.obj
 0001:0006ade0       _UI_get0_action_string     1006bde0 f   libeay32_EM.0.9.8e:ui_lib.obj
 0001:0006ae00       _UI_get0_result_string     1006be00 f   libeay32_EM.0.9.8e:ui_lib.obj
 0001:0006ae20       _UI_get0_test_string       1006be20 f   libeay32_EM.0.9.8e:ui_lib.obj
 0001:0006ae40       _UI_set_result             1006be40 f   libeay32_EM.0.9.8e:ui_lib.obj
 0001:0006b040       _UI_new                    1006c040 f   libeay32_EM.0.9.8e:ui_lib.obj
 0001:0006b0b0       _DH_check_pub_key          1006c0b0 f   libeay32_EM.0.9.8e:dh_check.obj
 0001:0006b130       _X509_PKEY_new             1006c130 f   libeay32_EM.0.9.8e:x_pkey.obj
 0001:0006b1b0       _X509_PKEY_free            1006c1b0 f   libeay32_EM.0.9.8e:x_pkey.obj
 0001:0006b230       _DSO_convert_filename      1006c230 f   libeay32_EM.0.9.8e:dso_lib.obj
 0001:0006b310       _PKCS5_PBKDF2_HMAC_SHA1    1006c310 f   libeay32_EM.0.9.8e:p5_crpt2.obj
 0001:0006b4f0       _PKCS5_v2_PBE_keyivgen     1006c4f0 f   libeay32_EM.0.9.8e:p5_crpt2.obj
 0001:0006b7d0       _Camellia_cbc_encrypt      1006c7d0 f   libeay32_EM.0.9.8e:cmll_cbc.obj
 0001:0006c9d0       _Camellia_cfb128_encrypt   1006d9d0 f   libeay32_EM.0.9.8e:cmll_cfb.obj
 0001:0006ca90       _Camellia_cfbr_encrypt_block 1006da90 f   libeay32_EM.0.9.8e:cmll_cfb.obj
 0001:0006cc70       _Camellia_cfb1_encrypt     1006dc70 f   libeay32_EM.0.9.8e:cmll_cfb.obj
 0001:0006cd30       _Camellia_cfb8_encrypt     1006dd30 f   libeay32_EM.0.9.8e:cmll_cfb.obj
 0001:0006cd80       _Camellia_ecb_encrypt      1006dd80 f   libeay32_EM.0.9.8e:cmll_ecb.obj
 0001:0006cdb0       _Camellia_ofb128_encrypt   1006ddb0 f   libeay32_EM.0.9.8e:cmll_ofb.obj
 0001:0006ce10       _Camellia_set_key          1006de10 f   libeay32_EM.0.9.8e:cmll_misc.obj
 0001:0006ced0       _Camellia_encrypt          1006ded0 f   libeay32_EM.0.9.8e:cmll_misc.obj
 0001:0006cff0       _Camellia_decrypt          1006dff0 f   libeay32_EM.0.9.8e:cmll_misc.obj
 0001:0006d110       _ec_GFp_simple_group_init  1006e110 f   libeay32_EM.0.9.8e:ecp_smpl.obj
 0001:0006d150       _ec_GFp_simple_group_finish 1006e150 f   libeay32_EM.0.9.8e:ecp_smpl.obj
 0001:0006d150       _ec_GF2m_simple_group_finish 1006e150 f   libeay32_EM.0.9.8e:ec2_smpl.obj
 0001:0006d180       _ec_GFp_simple_group_clear_finish 1006e180 f   libeay32_EM.0.9.8e:ecp_smpl.obj
 0001:0006d1b0       _ec_GFp_simple_group_copy  1006e1b0 f   libeay32_EM.0.9.8e:ecp_smpl.obj
 0001:0006d220       _ec_GFp_simple_group_set_curve 1006e220 f   libeay32_EM.0.9.8e:ecp_smpl.obj
 0001:0006d3c0       _ec_GFp_simple_group_get_curve 1006e3c0 f   libeay32_EM.0.9.8e:ecp_smpl.obj
 0001:0006d4d0       _ec_GFp_simple_group_get_degree 1006e4d0 f   libeay32_EM.0.9.8e:ecp_smpl.obj
 0001:0006d4e0       _ec_GFp_simple_group_check_discriminant 1006e4e0 f   libeay32_EM.0.9.8e:ecp_smpl.obj
 0001:0006d6c0       _ec_GFp_simple_point_init  1006e6c0 f   libeay32_EM.0.9.8e:ecp_smpl.obj
 0001:0006d700       _ec_GF2m_simple_point_finish 1006e700 f   libeay32_EM.0.9.8e:ec2_smpl.obj
 0001:0006d700       _ec_GFp_simple_point_finish 1006e700 f   libeay32_EM.0.9.8e:ecp_smpl.obj
 0001:0006d730       _ec_GF2m_simple_point_set_to_infinity 1006e730 f   libeay32_EM.0.9.8e:ec2_smpl.obj
 0001:0006d730       _ec_GFp_simple_point_set_to_infinity 1006e730 f   libeay32_EM.0.9.8e:ecp_smpl.obj
 0001:0006d750       _ec_GFp_simple_set_Jprojective_coordinates_GFp 1006e750 f   libeay32_EM.0.9.8e:ecp_smpl.obj
 0001:0006d8a0       _ec_GFp_simple_get_Jprojective_coordinates_GFp 1006e8a0 f   libeay32_EM.0.9.8e:ecp_smpl.obj
 0001:0006d9c0       _ec_GFp_simple_point_set_affine_coordinates 1006e9c0 f   libeay32_EM.0.9.8e:ecp_smpl.obj
 0001:0006da20       _ec_GFp_simple_point_get_affine_coordinates 1006ea20 f   libeay32_EM.0.9.8e:ecp_smpl.obj
 0001:0006dcc0       _ec_GFp_simple_set_compressed_coordinates 1006ecc0 f   libeay32_EM.0.9.8e:ecp_smpl.obj
 0001:0006e050       _ec_GFp_simple_point2oct   1006f050 f   libeay32_EM.0.9.8e:ecp_smpl.obj
 0001:0006e320       _ec_GFp_simple_oct2point   1006f320 f   libeay32_EM.0.9.8e:ecp_smpl.obj
 0001:0006e5c0       _ec_GFp_simple_add         1006f5c0 f   libeay32_EM.0.9.8e:ecp_smpl.obj
 0001:0006eb10       _ec_GFp_simple_dbl         1006fb10 f   libeay32_EM.0.9.8e:ecp_smpl.obj
 0001:0006ef30       _ec_GFp_simple_invert      1006ff30 f   libeay32_EM.0.9.8e:ecp_smpl.obj
 0001:0006ef70       _ec_GFp_simple_is_at_infinity 1006ff70 f   libeay32_EM.0.9.8e:ecp_smpl.obj
 0001:0006ef70       _ec_GF2m_simple_is_at_infinity 1006ff70 f   libeay32_EM.0.9.8e:ec2_smpl.obj
 0001:0006ef80       _ec_GFp_simple_is_on_curve 1006ff80 f   libeay32_EM.0.9.8e:ecp_smpl.obj
 0001:0006f1f0       _ec_GFp_simple_cmp         100701f0 f   libeay32_EM.0.9.8e:ecp_smpl.obj
 0001:0006f490       _ec_GFp_simple_make_affine 10070490 f   libeay32_EM.0.9.8e:ecp_smpl.obj
 0001:0006f590       _ec_GFp_simple_points_make_affine 10070590 f   libeay32_EM.0.9.8e:ecp_smpl.obj
 0001:0006f9c0       _ec_GFp_simple_field_mul   100709c0 f   libeay32_EM.0.9.8e:ecp_smpl.obj
 0001:0006f9f0       _ec_GFp_simple_field_sqr   100709f0 f   libeay32_EM.0.9.8e:ecp_smpl.obj
 0001:0006fa10       _BN_get0_nist_prime_192    10070a10 f   libeay32_EM.0.9.8e:bn_nist.obj
 0001:0006fa20       _BN_get0_nist_prime_224    10070a20 f   libeay32_EM.0.9.8e:bn_nist.obj
 0001:0006fa30       _BN_get0_nist_prime_256    10070a30 f   libeay32_EM.0.9.8e:bn_nist.obj
 0001:0006fa40       _BN_get0_nist_prime_384    10070a40 f   libeay32_EM.0.9.8e:bn_nist.obj
 0001:0006fa50       _BN_get0_nist_prime_521    10070a50 f   libeay32_EM.0.9.8e:bn_nist.obj
 0001:0006fa90       _BN_nist_mod_192           10070a90 f   libeay32_EM.0.9.8e:bn_nist.obj
 0001:0006fcc0       _BN_nist_mod_224           10070cc0 f   libeay32_EM.0.9.8e:bn_nist.obj
 0001:0006ffd0       _BN_nist_mod_256           10070fd0 f   libeay32_EM.0.9.8e:bn_nist.obj
 0001:000704d0       _BN_nist_mod_384           100714d0 f   libeay32_EM.0.9.8e:bn_nist.obj
 0001:00070a00       _BN_nist_mod_521           10071a00 f   libeay32_EM.0.9.8e:bn_nist.obj
 0001:00070b70       _UI_OpenSSL                10071b70 f   libeay32_EM.0.9.8e:ui_openssl.obj
 0001:000710f0       _camellia_setup128         100720f0 f   libeay32_EM.0.9.8e:camellia.obj
 0001:00071db0       _camellia_setup256         10072db0 f   libeay32_EM.0.9.8e:camellia.obj
 0001:00073130       _camellia_setup192         10074130 f   libeay32_EM.0.9.8e:camellia.obj
 0001:000731b0       _camellia_encrypt128       100741b0 f   libeay32_EM.0.9.8e:camellia.obj
 0001:00073d70       _camellia_decrypt128       10074d70 f   libeay32_EM.0.9.8e:camellia.obj
 0001:00074930       _camellia_encrypt256       10075930 f   libeay32_EM.0.9.8e:camellia.obj
 0001:000758f0       _camellia_decrypt256       100768f0 f   libeay32_EM.0.9.8e:camellia.obj
 0001:000768b0       _BN_kronecker              100778b0 f   libeay32_EM.0.9.8e:bn_kron.obj
 0001:00076b20       _BN_mod_sqrt               10077b20 f   libeay32_EM.0.9.8e:bn_sqrt.obj
 0001:00077cf0       _SSL_load_error_strings    10078cf0 f   ssleay32_EM.0.9.8e:ssl_err2.obj
 0001:00077d00       _SSL_library_init          10078d00 f   ssleay32_EM.0.9.8e:ssl_algs.obj
 0001:00077e50       _SSL_has_matching_session_id 10078e50 f   ssleay32_EM.0.9.8e:ssl_lib.obj
 0001:00077f40       _SSL_set_bio               10078f40 f   ssleay32_EM.0.9.8e:ssl_lib.obj
 0001:00077fb0       _SSL_get_default_timeout   10078fb0 f   ssleay32_EM.0.9.8e:ssl_lib.obj
 0001:00077fc0       _SSL_read                  10078fc0 f   ssleay32_EM.0.9.8e:ssl_lib.obj
 0001:00078010       _SSL_write                 10079010 f   ssleay32_EM.0.9.8e:ssl_lib.obj
 0001:00078080       _SSL_CTX_ctrl              10079080 f   ssleay32_EM.0.9.8e:ssl_lib.obj
 0001:00078250       _ssl_cipher_id_cmp         10079250 f   ssleay32_EM.0.9.8e:ssl_lib.obj
 0001:00078270       _ssl_cipher_ptr_id_cmp     10079270 f   ssleay32_EM.0.9.8e:ssl_lib.obj
 0001:000782a0       _SSL_get_ciphers           100792a0 f   ssleay32_EM.0.9.8e:ssl_lib.obj
 0001:000782d0       _ssl_get_ciphers_by_id     100792d0 f   ssleay32_EM.0.9.8e:ssl_lib.obj
 0001:00078300       _ssl_cipher_list_to_bytes  10079300 f   ssleay32_EM.0.9.8e:ssl_lib.obj
 0001:00078370       _ssl_bytes_to_cipher_list  10079370 f   ssleay32_EM.0.9.8e:ssl_lib.obj
 0001:00078470       _SSL_SESSION_cmp           10079470 f   ssleay32_EM.0.9.8e:ssl_lib.obj
 0001:00078550       _SSL_CTX_free              10079550 f   ssleay32_EM.0.9.8e:ssl_lib.obj
 0001:00078650       _SSL_CTX_set_default_passwd_cb 10079650 f   ssleay32_EM.0.9.8e:ssl_lib.obj
 0001:00078660       _SSL_CTX_set_verify        10079660 f   ssleay32_EM.0.9.8e:ssl_lib.obj
 0001:00078680       _SSL_CTX_set_verify_depth  10079680 f   ssleay32_EM.0.9.8e:ssl_lib.obj
 0001:000786a0       _ssl_set_cert_masks        100796a0 f   ssleay32_EM.0.9.8e:ssl_lib.obj
 0001:00078a00       _check_srvr_ecc_cert_and_alg 10079a00 f   ssleay32_EM.0.9.8e:ssl_lib.obj
 0001:00078ad0       _ssl_get_server_send_cert  10079ad0 f   ssleay32_EM.0.9.8e:ssl_lib.obj
 0001:00078b90       _ssl_get_sign_pkey         10079b90 f   ssleay32_EM.0.9.8e:ssl_lib.obj
 0001:00078bf0       _ssl_update_cache          10079bf0 f   ssleay32_EM.0.9.8e:ssl_lib.obj
 0001:00078ce0       _ssl_undefined_function    10079ce0 f   ssleay32_EM.0.9.8e:ssl_lib.obj
 0001:00078d00       _ssl_undefined_void_function 10079d00 f   ssleay32_EM.0.9.8e:ssl_lib.obj
 0001:00078d20       _ssl_bad_method            10079d20 f   ssleay32_EM.0.9.8e:ssl_lib.obj
 0001:00078d40       _ssl_clear_cipher_ctx      10079d40 f   ssleay32_EM.0.9.8e:ssl_lib.obj
 0001:00078dc0       _ssl_init_wbio_buffer      10079dc0 f   ssleay32_EM.0.9.8e:ssl_lib.obj
 0001:00078e80       _ssl_free_wbio_buffer      10079e80 f   ssleay32_EM.0.9.8e:ssl_lib.obj
 0001:00078ec0       _SSL_CTX_set_default_verify_paths 10079ec0 f   ssleay32_EM.0.9.8e:ssl_lib.obj
 0001:00078ed0       _SSL_CTX_load_verify_locations 10079ed0 f   ssleay32_EM.0.9.8e:ssl_lib.obj
 0001:00078ee0       _SSL_state                 10079ee0 f   ssleay32_EM.0.9.8e:ssl_lib.obj
 0001:00078ef0       _SSL_clear                 10079ef0 f   ssleay32_EM.0.9.8e:ssl_lib.obj
 0001:00079020       _SSL_new                   1007a020 f   ssleay32_EM.0.9.8e:ssl_lib.obj
 0001:00079260       _SSL_free                  1007a260 f   ssleay32_EM.0.9.8e:ssl_lib.obj
 0001:000793c0       _SSL_get_fd                1007a3c0 f   ssleay32_EM.0.9.8e:ssl_lib.obj
 0001:00079410       _SSL_shutdown              1007a410 f   ssleay32_EM.0.9.8e:ssl_lib.obj
 0001:00079460       _SSL_ctrl                  1007a460 f   ssleay32_EM.0.9.8e:ssl_lib.obj
 0001:00079580       _SSL_CTX_new               1007a580 f   ssleay32_EM.0.9.8e:ssl_lib.obj
 0001:00079830       _SSL_get_error             1007a830 f   ssleay32_EM.0.9.8e:ssl_lib.obj
 0001:00079950       _SSL_connect               1007a950 f   ssleay32_EM.0.9.8e:ssl_lib.obj
 0001:00079a80       _SSL_use_PrivateKey        1007aa80 f   ssleay32_EM.0.9.8e:ssl_rsa.obj
 0001:00079c10       _SSL_CTX_use_PrivateKey    1007ac10 f   ssleay32_EM.0.9.8e:ssl_rsa.obj
 0001:00079c80       _SSL_CTX_use_PrivateKey_file 1007ac80 f   ssleay32_EM.0.9.8e:ssl_rsa.obj
 0001:00079db0       _SSL_use_certificate       1007adb0 f   ssleay32_EM.0.9.8e:ssl_rsa.obj
 0001:00079e20       _SSL_CTX_use_certificate   1007ae20 f   ssleay32_EM.0.9.8e:ssl_rsa.obj
 0001:00079e90       _SSL_CTX_use_certificate_file 1007ae90 f   ssleay32_EM.0.9.8e:ssl_rsa.obj
 0001:0007a000       _SSLv3_method              1007b000 f   ssleay32_EM.0.9.8e:s3_meth.obj
 0001:0007a010       _ERR_load_SSL_strings      1007b010 f   ssleay32_EM.0.9.8e:ssl_err.obj
 0001:0007a040       _ssl_load_ciphers          1007b040 f   ssleay32_EM.0.9.8e:ssl_ciph.obj
 0001:0007a1f0       _ssl_cipher_get_evp        1007b1f0 f   ssleay32_EM.0.9.8e:ssl_ciph.obj
 0001:0007a400       _ssl_cipher_get_disabled   1007b400 f   ssleay32_EM.0.9.8e:ssl_ciph.obj
 0001:0007ac50       _ssl_create_cipher_list    1007bc50 f   ssleay32_EM.0.9.8e:ssl_ciph.obj
 0001:0007aeb0       _ssl3_comp_find            1007beb0 f   ssleay32_EM.0.9.8e:ssl_ciph.obj
 0001:0007af00       _SSL_COMP_get_compression_methods 1007bf00 f   ssleay32_EM.0.9.8e:ssl_ciph.obj
 0001:0007af10       _SSL_get_ex_data_X509_STORE_CTX_idx 1007bf10 f   ssleay32_EM.0.9.8e:ssl_cert.obj
 0001:0007afc0       _ssl_cert_new              1007bfc0 f   ssleay32_EM.0.9.8e:ssl_cert.obj
 0001:0007b020       _ssl_cert_dup              1007c020 f   ssleay32_EM.0.9.8e:ssl_cert.obj
 0001:0007b290       _ssl_cert_free             1007c290 f   ssleay32_EM.0.9.8e:ssl_cert.obj
 0001:0007b330       _ssl_cert_inst             1007c330 f   ssleay32_EM.0.9.8e:ssl_cert.obj
 0001:0007b390       _ssl_sess_cert_new         1007c390 f   ssleay32_EM.0.9.8e:ssl_cert.obj
 0001:0007b3f0       _ssl_sess_cert_free        1007c3f0 f   ssleay32_EM.0.9.8e:ssl_cert.obj
 0001:0007b4a0       _ssl_verify_cert_chain     1007c4a0 f   ssleay32_EM.0.9.8e:ssl_cert.obj
 0001:0007b5e0       _SSL_get_client_CA_list    1007c5e0 f   ssleay32_EM.0.9.8e:ssl_cert.obj
 0001:0007b630       _SSL_SESSION_new           1007c630 f   ssleay32_EM.0.9.8e:ssl_sess.obj
 0001:0007b740       _SSL_SESSION_free          1007c740 f   ssleay32_EM.0.9.8e:ssl_sess.obj
 0001:0007b8f0       _ssl_get_new_session       1007c8f0 f   ssleay32_EM.0.9.8e:ssl_sess.obj
 0001:0007bc10       _SSL_CTX_flush_sessions    1007cc10 f   ssleay32_EM.0.9.8e:ssl_sess.obj
 0001:0007bc90       _SSL_CTX_add_session       1007cc90 f   ssleay32_EM.0.9.8e:ssl_sess.obj
 0001:0007bde0       _SSL_CTX_remove_session    1007cde0 f   ssleay32_EM.0.9.8e:ssl_sess.obj
 0001:0007be00       _ssl_clear_bad_session     1007ce00 f   ssleay32_EM.0.9.8e:ssl_sess.obj
 0001:0007be60       _ssl_get_prev_session      1007ce60 f   ssleay32_EM.0.9.8e:ssl_sess.obj
 0001:0007c1b0       _ssl3_do_write             1007d1b0 f   ssleay32_EM.0.9.8e:s3_both.obj
 0001:0007c240       _ssl3_send_finished        1007d240 f   ssleay32_EM.0.9.8e:s3_both.obj
 0001:0007c2f0       _ssl3_get_finished         1007d2f0 f   ssleay32_EM.0.9.8e:s3_both.obj
 0001:0007c440       _ssl3_send_change_cipher_spec 1007d440 f   ssleay32_EM.0.9.8e:s3_both.obj
 0001:0007c480       _ssl3_output_cert_chain    1007d480 f   ssleay32_EM.0.9.8e:s3_both.obj
 0001:0007c7a0       _ssl3_get_message          1007d7a0 f   ssleay32_EM.0.9.8e:s3_both.obj
 0001:0007ca50       _ssl_cert_type             1007da50 f   ssleay32_EM.0.9.8e:s3_both.obj
 0001:0007cab0       _ssl_verify_alarm_type     1007dab0 f   ssleay32_EM.0.9.8e:s3_both.obj
 0001:0007cb60       _ssl3_setup_buffers        1007db60 f   ssleay32_EM.0.9.8e:s3_both.obj
 0001:0007cc20       _ssl3_default_timeout      1007dc20 f   ssleay32_EM.0.9.8e:s3_lib.obj
 0001:0007cc30       _ssl3_num_ciphers          1007dc30 f   ssleay32_EM.0.9.8e:s3_lib.obj
 0001:0007cc40       _ssl3_get_cipher           1007dc40 f   ssleay32_EM.0.9.8e:s3_lib.obj
 0001:0007cc60       _ssl3_pending              1007dc60 f   ssleay32_EM.0.9.8e:s3_lib.obj
 0001:0007cc90       _ssl3_new                  1007dc90 f   ssleay32_EM.0.9.8e:s3_lib.obj
 0001:0007ccf0       _ssl3_free                 1007dcf0 f   ssleay32_EM.0.9.8e:s3_lib.obj
 0001:0007cdd0       _ssl3_clear                1007ddd0 f   ssleay32_EM.0.9.8e:s3_lib.obj
 0001:0007cf10       _ssl3_ctrl                 1007df10 f   ssleay32_EM.0.9.8e:s3_lib.obj
 0001:0007d210       _ssl3_callback_ctrl        1007e210 f   ssleay32_EM.0.9.8e:s3_lib.obj
 0001:0007d2a0       _ssl3_ctx_ctrl             1007e2a0 f   ssleay32_EM.0.9.8e:s3_lib.obj
 0001:0007d500       _ssl3_ctx_callback_ctrl    1007e500 f   ssleay32_EM.0.9.8e:s3_lib.obj
 0001:0007d550       _ssl3_get_cipher_by_char   1007e550 f   ssleay32_EM.0.9.8e:s3_lib.obj
 0001:0007d5a0       _ssl3_put_cipher_by_char   1007e5a0 f   ssleay32_EM.0.9.8e:s3_lib.obj
 0001:0007d5e0       _ssl3_choose_cipher        1007e5e0 f   ssleay32_EM.0.9.8e:s3_lib.obj
 0001:0007d6a0       _ssl3_get_req_cert_type    1007e6a0 f   ssleay32_EM.0.9.8e:s3_lib.obj
 0001:0007d720       _ssl3_shutdown             1007e720 f   ssleay32_EM.0.9.8e:s3_lib.obj
 0001:0007d7b0       _ssl3_renegotiate          1007e7b0 f   ssleay32_EM.0.9.8e:s3_lib.obj
 0001:0007d7e0       _ssl3_renegotiate_check    1007e7e0 f   ssleay32_EM.0.9.8e:s3_lib.obj
 0001:0007d850       _ssl3_write                1007e850 f   ssleay32_EM.0.9.8e:s3_lib.obj
 0001:0007d990       _ssl3_read                 1007e990 f   ssleay32_EM.0.9.8e:s3_lib.obj
 0001:0007d9b0       _ssl3_peek                 1007e9b0 f   ssleay32_EM.0.9.8e:s3_lib.obj
 0001:0007d9e0       _ssl3_read_n               1007e9e0 f   ssleay32_EM.0.9.8e:s3_pkt.obj
 0001:0007db80       _ssl3_do_uncompress        1007eb80 f   ssleay32_EM.0.9.8e:s3_pkt.obj
 0001:0007dbd0       _ssl3_do_compress          1007ebd0 f   ssleay32_EM.0.9.8e:s3_pkt.obj
 0001:0007dc20       _ssl3_write_pending        1007ec20 f   ssleay32_EM.0.9.8e:s3_pkt.obj
 0001:0007dd20       _ssl3_do_change_cipher_spec 1007ed20 f   ssleay32_EM.0.9.8e:s3_pkt.obj
 0001:0007ddf0       _ssl3_send_alert           1007edf0 f   ssleay32_EM.0.9.8e:s3_pkt.obj
 0001:0007e550       _ssl3_read_bytes           1007f550 f   ssleay32_EM.0.9.8e:s3_pkt.obj
 0001:0007ed00       _ssl3_dispatch_alert       1007fd00 f   ssleay32_EM.0.9.8e:s3_pkt.obj
 0001:0007efa0       _ssl3_write_bytes          1007ffa0 f   ssleay32_EM.0.9.8e:s3_pkt.obj
 0001:0007f340       _ssl3_client_hello         10080340 f   ssleay32_EM.0.9.8e:s3_clnt.obj
 0001:0007f560       _ssl3_get_server_hello     10080560 f   ssleay32_EM.0.9.8e:s3_clnt.obj
 0001:0007fa00       _ssl3_get_server_certificate 10080a00 f   ssleay32_EM.0.9.8e:s3_clnt.obj
 0001:0007fe30       _ssl3_get_server_done      10080e30 f   ssleay32_EM.0.9.8e:s3_clnt.obj
 0001:0007fea0       _ssl3_send_client_key_exchange 10080ea0 f   ssleay32_EM.0.9.8e:s3_clnt.obj
 0001:00080450       _ssl3_send_client_verify   10081450 f   ssleay32_EM.0.9.8e:s3_clnt.obj
 0001:00080640       _ssl3_send_client_certificate 10081640 f   ssleay32_EM.0.9.8e:s3_clnt.obj
 0001:000807e0       _ssl3_check_cert_and_algorithm 100817e0 f   ssleay32_EM.0.9.8e:s3_clnt.obj
 0001:00080ab0       _ssl3_get_key_exchange     10081ab0 f   ssleay32_EM.0.9.8e:s3_clnt.obj
 0001:00081510       _ssl3_get_certificate_request 10082510 f   ssleay32_EM.0.9.8e:s3_clnt.obj
 0001:00081830       _ssl3_connect              10082830 f   ssleay32_EM.0.9.8e:s3_clnt.obj
 0001:00081fa0       _ssl3_send_hello_request   10082fa0 f   ssleay32_EM.0.9.8e:s3_srvr.obj
 0001:00081ff0       _ssl3_check_client_hello   10082ff0 f   ssleay32_EM.0.9.8e:s3_srvr.obj
 0001:00082070       _ssl3_get_client_hello     10083070 f   ssleay32_EM.0.9.8e:s3_srvr.obj
 0001:000826e0       _ssl3_send_server_hello    100836e0 f   ssleay32_EM.0.9.8e:s3_srvr.obj
 0001:00082860       _ssl3_send_server_done     10083860 f   ssleay32_EM.0.9.8e:s3_srvr.obj
 0001:000828b0       _ssl3_send_certificate_request 100838b0 f   ssleay32_EM.0.9.8e:s3_srvr.obj
 0001:00082af0       _ssl3_get_client_key_exchange 10083af0 f   ssleay32_EM.0.9.8e:s3_srvr.obj
 0001:00083080       _ssl3_get_cert_verify      10084080 f   ssleay32_EM.0.9.8e:s3_srvr.obj
 0001:000833a0       _ssl3_get_client_certificate 100843a0 f   ssleay32_EM.0.9.8e:s3_srvr.obj
 0001:00083800       _ssl3_send_server_certificate 10084800 f   ssleay32_EM.0.9.8e:s3_srvr.obj
 0001:000839c0       _ssl3_send_server_key_exchange 100849c0 f   ssleay32_EM.0.9.8e:s3_srvr.obj
 0001:00084380       _ssl3_accept               10085380 f   ssleay32_EM.0.9.8e:s3_srvr.obj
 0001:00084e20       _ssl3_change_cipher_state  10085e20 f   ssleay32_EM.0.9.8e:s3_enc.obj
 0001:000852a0       _ssl3_cleanup_key_block    100862a0 f   ssleay32_EM.0.9.8e:s3_enc.obj
 0001:00085300       _ssl3_enc                  10086300 f   ssleay32_EM.0.9.8e:s3_enc.obj
 0001:00085440       _ssl3_init_finished_mac    10086440 f   ssleay32_EM.0.9.8e:s3_enc.obj
 0001:00085490       _ssl3_finish_mac           10086490 f   ssleay32_EM.0.9.8e:s3_enc.obj
 0001:00085610       _ssl3_generate_master_secret 10086610 f   ssleay32_EM.0.9.8e:s3_enc.obj
 0001:00085780       _ssl3_alert_code           10086780 f   ssleay32_EM.0.9.8e:s3_enc.obj
 0001:00085880       _ssl3_setup_key_block      10086880 f   ssleay32_EM.0.9.8e:s3_enc.obj
 0001:00085a20       _ssl3_cert_verify_mac      10086a20 f   ssleay32_EM.0.9.8e:s3_enc.obj
 0001:00085a40       _ssl3_final_finish_mac     10086a40 f   ssleay32_EM.0.9.8e:s3_enc.obj
 0001:00085a80       _ssl3_mac                  10086a80 f   ssleay32_EM.0.9.8e:s3_enc.obj
 0001:00085c08       _ntohl@4                   10086c08 f   WSock32:WSOCK32.dll
 0001:00085c0e       _ntohs@4                   10086c0e f   WSock32:WSOCK32.dll
 0001:00085c14       _htons@4                   10086c14 f   WSock32:WSOCK32.dll
 0001:00085c1a       _htonl@4                   10086c1a f   WSock32:WSOCK32.dll
 0001:00085c20       ___WSAFDIsSet@8            10086c20 f   WSock32:WSOCK32.dll
 0001:00085c26       _setsockopt@20             10086c26 f   WSock32:WSOCK32.dll
 0001:00085c2c       _closesocket@4             10086c2c f   WSock32:WSOCK32.dll
 0001:00085c32       _shutdown@8                10086c32 f   WSock32:WSOCK32.dll
 0001:00085c38       _connect@12                10086c38 f   WSock32:WSOCK32.dll
 0001:00085c3e       _WSAGetLastError@0         10086c3e f   WSock32:WSOCK32.dll
 0001:00085c44       _socket@12                 10086c44 f   WSock32:WSOCK32.dll
 0001:00085c4a       _recv@16                   10086c4a f   WSock32:WSOCK32.dll
 0001:00085c50       _WSASetLastError@4         10086c50 f   WSock32:WSOCK32.dll
 0001:00085c56       _send@16                   10086c56 f   WSock32:WSOCK32.dll
 0001:00085c5c       _getservbyname@8           10086c5c f   WSock32:WSOCK32.dll
 0001:00085c62       _getsockopt@20             10086c62 f   WSock32:WSOCK32.dll
 0001:00085c68       _gethostbyname@4           10086c68 f   WSock32:WSOCK32.dll
 0001:00085c6e       _WSAStartup@8              10086c6e f   WSock32:WSOCK32.dll
 0001:00085c74       _ioctlsocket@12            10086c74 f   WSock32:WSOCK32.dll
 0001:00085c7a       _accept@12                 10086c7a f   WSock32:WSOCK32.dll
 0001:00085c80       _listen@8                  10086c80 f   WSock32:WSOCK32.dll
 0001:00085c86       _bind@12                   10086c86 f   WSock32:WSOCK32.dll
 0001:00085c8c       ??_U@YAPAXI@Z              10086c8c f   msvcprt:newaop_s.obj
 0001:00085c92       ??3@YAXPAX@Z               10086c92 f   MSVCRT:MSVCR80.dll
 0001:00085c98       ??2@YAPAXI@Z               10086c98 f   MSVCRT:MSVCR80.dll
 0001:00085c9e       @__security_check_cookie@4 10086c9e f   MSVCRT:secchk.obj
 0001:00085cad       ??_Etype_info@@UAEPAXI@Z   10086cad f i MSVCRT:ti_inst.obj
 0001:00085cf6       ??0exception@std@@QAE@ABV01@@Z 10086cf6 f   MSVCRT:MSVCR80.dll
 0001:00085cfc       ??_V@YAXPAX@Z              10086cfc f   MSVCRT:MSVCR80.dll
 0001:00085d02       ?__ArrayUnwind@@YGXPAXIHP6EX0@Z@Z 10086d02 f   MSVCRT:ehvecdtr.obj
 0001:00085d60       ??_M@YGXPAXIHP6EX0@Z@Z     10086d60 f   MSVCRT:ehvecdtr.obj
 0001:00085dc3       ??_L@YGXPAXIHP6EX0@Z1@Z    10086dc3 f   MSVCRT:ehvecctr.obj
 0001:00085e28       __purecall                 10086e28 f   MSVCRT:MSVCR80.dll
 0001:00085e7b       __CRT_INIT@12              10086e7b f   MSVCRT:crtdll.obj
 0001:00086154       __DllMainCRTStartup@12     10087154 f   MSVCRT:crtdll.obj
 0001:00086180       __alloca_probe             10087180     MSVCRT:chkstk.obj
 0001:00086180       __chkstk                   10087180 f   MSVCRT:chkstk.obj
 0001:000861b0       _memcpy                    100871b0 f   MSVCRT:MSVCR80.dll
 0001:000861b6       _memset                    100871b6 f   MSVCRT:MSVCR80.dll
 0001:000861bc       _free                      100871bc f   MSVCRT:MSVCR80.dll
 0001:000861c2       _realloc                   100871c2 f   MSVCRT:MSVCR80.dll
 0001:000861c8       _malloc                    100871c8 f   MSVCRT:MSVCR80.dll
 0001:000861d0       __alloca_probe_16          100871d0 f   MSVCRT:alloca16.obj
 0001:000861e6       __alloca_probe_8           100871e6     MSVCRT:alloca16.obj
 0001:00086200       __aullshr                  10087200 f   MSVCRT:ullshr.obj
 0001:00086220       __ftol2_sse                10087220 f   MSVCRT:ftol2.obj
 0001:00086229       __ftol2_pentium4           10087229 f   MSVCRT:ftol2.obj
 0001:0008623c       __ftol2_sse_excpt          1008723c f   MSVCRT:ftol2.obj
 0001:00086256       __ftol2                    10087256 f   MSVCRT:ftol2.obj
 0001:000862d0       __aulldvrm                 100872d0 f   MSVCRT:ulldvrm.obj
 0001:00086366       _strcmp                    10087366 f   MSVCRT:MSVCR80.dll
 0001:00086370       __aullrem                  10087370 f   MSVCRT:ullrem.obj
 0001:000863f0       __allmul                   100873f0 f   MSVCRT:llmul.obj
 0001:00086430       __aulldiv                  10087430 f   MSVCRT:ulldiv.obj
 0001:00086498       ___report_gsfailure        10087498 f   MSVCRT:gs_report.obj
 0001:0008659c       ?terminate@@YAXXZ          1008759c f   MSVCRT:MSVCR80.dll
 0001:000865a4       __SEH_prolog4              100875a4 f   MSVCRT:sehprolg4.obj
 0001:000865e9       __SEH_epilog4              100875e9 f   MSVCRT:sehprolg4.obj
 0001:000865fd       __except_handler4          100875fd f   MSVCRT:chandler4gs.obj
 0001:00086620       ___clean_type_info_names   10087620 f   MSVCRT:tncleanup.obj
 0001:0008662c       __onexit                   1008762c f   MSVCRT:atonexit.obj
 0001:000866d1       _atexit                    100876d1 f   MSVCRT:atonexit.obj
 0001:000866e3       __RTC_Initialize           100876e3 f   MSVCRT:initsect.obj
 0001:00086707       __RTC_Terminate            10087707 f   MSVCRT:initsect.obj
 0001:00086730       __ValidateImageBase        10087730 f   MSVCRT:pesect.obj
 0001:00086760       __FindPESection            10087760 f   MSVCRT:pesect.obj
 0001:000867b0       __IsNonwritableInCurrentImage 100877b0 f   MSVCRT:pesect.obj
 0001:0008686c       __initterm                 1008786c f   MSVCRT:MSVCR80.dll
 0001:00086872       __initterm_e               10087872 f   MSVCRT:MSVCR80.dll
 0001:00086878       __amsg_exit                10087878 f   MSVCRT:MSVCR80.dll
 0001:0008687e       ___CppXcptFilter           1008787e f   MSVCRT:MSVCR80.dll
 0001:00086884       ___security_init_cookie    10087884 f   MSVCRT:gs_support.obj
 0001:00086968       __get_sse2_info            10087968 f   MSVCRT:cpu_disp.obj
 0001:000869c8       ___sse2_available_init     100879c8 f   MSVCRT:cpu_disp.obj
 0001:000869d6       __crt_debugger_hook        100879d6 f   MSVCRT:MSVCR80.dll
 0001:000869dc       ?_type_info_dtor_internal_method@type_info@@QAEXXZ 100879dc f   MSVCRT:MSVCR80.dll
 0001:000869dc       ??1type_info@@UAE@XZ       100879dc f   MSVCRT:MSVCR80.dll
 0001:000869e2       __except_handler4_common   100879e2 f   MSVCRT:MSVCR80.dll
 0001:000869e8       ___clean_type_info_names_internal 100879e8 f   MSVCRT:MSVCR80.dll
 0001:000869ee       __unlock                   100879ee f   MSVCRT:MSVCR80.dll
 0001:000869f4       ___dllonexit               100879f4 f   MSVCRT:MSVCR80.dll
 0001:000869fa       __lock                     100879fa f   MSVCRT:MSVCR80.dll
 0001:00086a00       _COMP_CTX_new              10087a00 f   libeay32_EM.0.9.8e:comp_lib.obj
 0001:00086a60       _COMP_CTX_free             10087a60 f   libeay32_EM.0.9.8e:comp_lib.obj
 0001:00086a90       _COMP_compress_block       10087a90 f   libeay32_EM.0.9.8e:comp_lib.obj
 0001:00086ad0       _COMP_expand_block         10087ad0 f   libeay32_EM.0.9.8e:comp_lib.obj
 0001:00086b10       _COMP_zlib                 10087b10 f   libeay32_EM.0.9.8e:c_zlib.obj
 0001:00086b20       _EVP_enc_null              10087b20 f   libeay32_EM.0.9.8e:e_null.obj
 0001:00086b60       _ECDH_compute_key          10087b60 f   libeay32_EM.0.9.8e:ech_key.obj
 0001:00086ba0       _X509_certificate_type     10087ba0 f   libeay32_EM.0.9.8e:x509type.obj
 0001:00086d90       _ecdh_check                10087d90 f   libeay32_EM.0.9.8e:ech_lib.obj
 0001:00086df0       _ECDH_OpenSSL              10087df0 f   libeay32_EM.0.9.8e:ech_ossl.obj
 0001:000870c0       _ENGINE_get_default_ECDH   100880c0 f   libeay32_EM.0.9.8e:tb_ecdh.obj
 0001:000870d0       _ENGINE_get_ECDH           100880d0 f   libeay32_EM.0.9.8e:tb_ecdh.obj
 0001:000870d0       _X509_STORE_CTX_get0_param 100880d0 f   libeay32_EM.0.9.8e:x509_vfy.obj
 0001:000870d8       ___CxxFrameHandler3        100880d8 f   MSVCRT:MSVCR80.dll
 0001:000870de       __CxxThrowException@8      100880de f   MSVCRT:MSVCR80.dll
 0002:00000000       __imp__RegisterEventSourceA@8 10089000     advapi32:ADVAPI32.dll
 0002:00000004       __imp__DeregisterEventSource@4 10089004     advapi32:ADVAPI32.dll
 0002:00000008       __imp__ReportEventA@36     10089008     advapi32:ADVAPI32.dll
 0002:0000000c       \177ADVAPI32_NULL_THUNK_DATA 1008900c     advapi32:ADVAPI32.dll
 0002:00000010       __imp__GetObjectA@12       10089010     gdi32:GDI32.dll
 0002:00000014       __imp__SelectObject@8      10089014     gdi32:GDI32.dll
 0002:00000018       __imp__CreateCompatibleBitmap@12 10089018     gdi32:GDI32.dll
 0002:0000001c       __imp__BitBlt@36           1008901c     gdi32:GDI32.dll
 0002:00000020       __imp__CreateCompatibleDC@4 10089020     gdi32:GDI32.dll
 0002:00000024       __imp__CreateDCA@16        10089024     gdi32:GDI32.dll
 0002:00000028       __imp__GetBitmapBits@12    10089028     gdi32:GDI32.dll
 0002:0000002c       __imp__DeleteObject@4      1008902c     gdi32:GDI32.dll
 0002:00000030       __imp__DeleteDC@4          10089030     gdi32:GDI32.dll
 0002:00000034       __imp__GetDeviceCaps@8     10089034     gdi32:GDI32.dll
 0002:00000038       \177GDI32_NULL_THUNK_DATA  10089038     gdi32:GDI32.dll
 0002:0000003c       __imp__InterlockedExchange@8 1008903c     kernel32:KERNEL32.dll
 0002:00000040       __imp__Sleep@4             10089040     kernel32:KERNEL32.dll
 0002:00000044       __imp__InterlockedCompareExchange@12 10089044     kernel32:KERNEL32.dll
 0002:00000048       __imp__CloseHandle@4       10089048     kernel32:KERNEL32.dll
 0002:0000004c       __imp__ReleaseMutex@4      1008904c     kernel32:KERNEL32.dll
 0002:00000050       __imp__CreateMutexW@12     10089050     kernel32:KERNEL32.dll
 0002:00000054       __imp__WaitForSingleObject@8 10089054     kernel32:KERNEL32.dll
 0002:00000058       __imp__DisableThreadLibraryCalls@4 10089058     kernel32:KERNEL32.dll
 0002:0000005c       __imp__GetSystemTimeAsFileTime@4 1008905c     kernel32:KERNEL32.dll
 0002:00000060       __imp__IsDebuggerPresent@0 10089060     kernel32:KERNEL32.dll
 0002:00000064       __imp__SetUnhandledExceptionFilter@4 10089064     kernel32:KERNEL32.dll
 0002:00000068       __imp__UnhandledExceptionFilter@4 10089068     kernel32:KERNEL32.dll
 0002:0000006c       __imp__GetCurrentProcess@0 1008906c     kernel32:KERNEL32.dll
 0002:00000070       __imp__SetLastError@4      10089070     kernel32:KERNEL32.dll
 0002:00000074       __imp__FlushConsoleInputBuffer@4 10089074     kernel32:KERNEL32.dll
 0002:00000078       __imp__GetStdHandle@4      10089078     kernel32:KERNEL32.dll
 0002:0000007c       __imp__GetFileType@4       1008907c     kernel32:KERNEL32.dll
 0002:00000080       __imp__GetCurrentThreadId@0 10089080     kernel32:KERNEL32.dll
 0002:00000084       __imp__GetLastError@0      10089084     kernel32:KERNEL32.dll
 0002:00000088       __imp__GetVersionExA@4     10089088     kernel32:KERNEL32.dll
 0002:0000008c       __imp__LoadLibraryA@4      1008908c     kernel32:KERNEL32.dll
 0002:00000090       __imp__GetProcAddress@8    10089090     kernel32:KERNEL32.dll
 0002:00000094       __imp__FreeLibrary@4       10089094     kernel32:KERNEL32.dll
 0002:00000098       __imp__GlobalMemoryStatus@4 10089098     kernel32:KERNEL32.dll
 0002:0000009c       __imp__GetCurrentProcessId@0 1008909c     kernel32:KERNEL32.dll
 0002:000000a0       __imp__GetVersion@0        100890a0     kernel32:KERNEL32.dll
 0002:000000a4       __imp__QueryPerformanceCounter@4 100890a4     kernel32:KERNEL32.dll
 0002:000000a8       __imp__GetTickCount@0      100890a8     kernel32:KERNEL32.dll
 0002:000000ac       __imp__TerminateProcess@8  100890ac     kernel32:KERNEL32.dll
 0002:000000b0       \177KERNEL32_NULL_THUNK_DATA 100890b0     kernel32:KERNEL32.dll
 0002:000000b4       __imp_??0?$basic_ifstream@DU?$char_traits@D@std@@@std@@QAE@PBDHH@Z 100890b4     msvcprt:MSVCP80.dll
 0002:000000b8       __imp_?read@?$basic_istream@DU?$char_traits@D@std@@@std@@QAEAAV12@PADH@Z 100890b8     msvcprt:MSVCP80.dll
 0002:000000bc       __imp_?_Lock@?$basic_streambuf@DU?$char_traits@D@std@@@std@@QAEXXZ 100890bc     msvcprt:MSVCP80.dll
 0002:000000c0       __imp_?_Osfx@?$basic_ostream@DU?$char_traits@D@std@@@std@@QAEXXZ 100890c0     msvcprt:MSVCP80.dll
 0002:000000c4       __imp_?_Unlock@?$basic_streambuf@DU?$char_traits@D@std@@@std@@QAEXXZ 100890c4     msvcprt:MSVCP80.dll
 0002:000000c8       __imp_?sputc@?$basic_streambuf@DU?$char_traits@D@std@@@std@@QAEHD@Z 100890c8     msvcprt:MSVCP80.dll
 0002:000000cc       __imp_?flush@?$basic_ostream@DU?$char_traits@D@std@@@std@@QAEAAV12@XZ 100890cc     msvcprt:MSVCP80.dll
 0002:000000d0       __imp_?close@?$basic_fstream@DU?$char_traits@D@std@@@std@@QAEXXZ 100890d0     msvcprt:MSVCP80.dll
 0002:000000d4       __imp_??6?$basic_ostream@DU?$char_traits@D@std@@@std@@QAEAAV01@H@Z 100890d4     msvcprt:MSVCP80.dll
 0002:000000d8       __imp_??0?$basic_fstream@DU?$char_traits@D@std@@@std@@QAE@PBDHH@Z 100890d8     msvcprt:MSVCP80.dll
 0002:000000dc       __imp_?sputn@?$basic_streambuf@DU?$char_traits@D@std@@@std@@QAEHPBDH@Z 100890dc     msvcprt:MSVCP80.dll
 0002:000000e0       __imp_?uncaught_exception@std@@YA_NXZ 100890e0     msvcprt:MSVCP80.dll
 0002:000000e4       __imp_?setstate@?$basic_ios@DU?$char_traits@D@std@@@std@@QAEXH_N@Z 100890e4     msvcprt:MSVCP80.dll
 0002:000000e8       __imp_??$?MDU?$char_traits@D@std@@V?$allocator@D@1@@std@@YA_NABV?$basic_string@DU?$char_traits@D@std@@V?$allocator@D@2@@0@0@Z 100890e8     msvcprt:MSVCP80.dll
 0002:000000ec       __imp_??$?8DU?$char_traits@D@std@@V?$allocator@D@1@@std@@YA_NABV?$basic_string@DU?$char_traits@D@std@@V?$allocator@D@2@@0@0@Z 100890ec     msvcprt:MSVCP80.dll
 0002:000000f0       __imp_??$?9DU?$char_traits@D@std@@V?$allocator@D@1@@std@@YA_NABV?$basic_string@DU?$char_traits@D@std@@V?$allocator@D@2@@0@0@Z 100890f0     msvcprt:MSVCP80.dll
 0002:000000f4       __imp_??$?9DU?$char_traits@D@std@@V?$allocator@D@1@@std@@YA_NABV?$basic_string@DU?$char_traits@D@std@@V?$allocator@D@2@@0@PBD@Z 100890f4     msvcprt:MSVCP80.dll
 0002:000000f8       __imp_?npos@?$basic_string@DU?$char_traits@D@std@@V?$allocator@D@2@@std@@2IB 100890f8     msvcprt:MSVCP80.dll
 0002:000000fc       __imp_?peek@?$basic_istream@DU?$char_traits@D@std@@@std@@QAEHXZ 100890fc     msvcprt:MSVCP80.dll
 0002:00000100       __imp_?substr@?$basic_string@DU?$char_traits@D@std@@V?$allocator@D@2@@std@@QBE?AV12@II@Z 10089100     msvcprt:MSVCP80.dll
 0002:00000104       __imp_?ignore@?$basic_istream@DU?$char_traits@D@std@@@std@@QAEAAV12@HH@Z 10089104     msvcprt:MSVCP80.dll
 0002:00000108       __imp_?find@?$basic_string@DU?$char_traits@D@std@@V?$allocator@D@2@@std@@QBEIDI@Z 10089108     msvcprt:MSVCP80.dll
 0002:0000010c       __imp_?getline@?$basic_istream@DU?$char_traits@D@std@@@std@@QAEAAV12@PADH@Z 1008910c     msvcprt:MSVCP80.dll
 0002:00000110       __imp_?find@?$basic_string@DU?$char_traits@D@std@@V?$allocator@D@2@@std@@QBEIABV12@I@Z 10089110     msvcprt:MSVCP80.dll
 0002:00000114       __imp_?append@?$basic_string@DU?$char_traits@D@std@@V?$allocator@D@2@@std@@QAEAAV12@ABV12@II@Z 10089114     msvcprt:MSVCP80.dll
 0002:00000118       __imp_?write@?$basic_ostream@DU?$char_traits@D@std@@@std@@QAEAAV12@PBDH@Z 10089118     msvcprt:MSVCP80.dll
 0002:0000011c       __imp_?open@?$basic_fstream@DU?$char_traits@D@std@@@std@@QAEXPBDHH@Z 1008911c     msvcprt:MSVCP80.dll
 0002:00000120       __imp_??0?$basic_fstream@DU?$char_traits@D@std@@@std@@QAE@XZ 10089120     msvcprt:MSVCP80.dll
 0002:00000124       __imp_?clear@?$basic_ios@DU?$char_traits@D@std@@@std@@QAEXH_N@Z 10089124     msvcprt:MSVCP80.dll
 0002:00000128       __imp_?assign@?$basic_string@DU?$char_traits@D@std@@V?$allocator@D@2@@std@@QAEAAV12@PBDI@Z 10089128     msvcprt:MSVCP80.dll
 0002:0000012c       __imp_??4?$basic_string@DU?$char_traits@D@std@@V?$allocator@D@2@@std@@QAEAAV01@PBD@Z 1008912c     msvcprt:MSVCP80.dll
 0002:00000130       __imp_??_D?$basic_fstream@DU?$char_traits@D@std@@@std@@QAEXXZ 10089130     msvcprt:MSVCP80.dll
 0002:00000134       __imp_??4?$basic_string@DU?$char_traits@D@std@@V?$allocator@D@2@@std@@QAEAAV01@ABV01@@Z 10089134     msvcprt:MSVCP80.dll
 0002:00000138       __imp_??1?$basic_string@DU?$char_traits@D@std@@V?$allocator@D@2@@std@@QAE@XZ 10089138     msvcprt:MSVCP80.dll
 0002:0000013c       __imp_??0?$basic_string@DU?$char_traits@D@std@@V?$allocator@D@2@@std@@QAE@ABV01@@Z 1008913c     msvcprt:MSVCP80.dll
 0002:00000140       __imp_?close@?$basic_ifstream@DU?$char_traits@D@std@@@std@@QAEXXZ 10089140     msvcprt:MSVCP80.dll
 0002:00000144       __imp_??0?$basic_string@DU?$char_traits@D@std@@V?$allocator@D@2@@std@@QAE@PBD@Z 10089144     msvcprt:MSVCP80.dll
 0002:00000148       __imp_??0?$basic_string@DU?$char_traits@D@std@@V?$allocator@D@2@@std@@QAE@XZ 10089148     msvcprt:MSVCP80.dll
 0002:0000014c       __imp_??$?HDU?$char_traits@D@std@@V?$allocator@D@1@@std@@YA?AV?$basic_string@DU?$char_traits@D@std@@V?$allocator@D@2@@0@ABV10@0@Z 1008914c     msvcprt:MSVCP80.dll
 0002:00000150       __imp_?find@?$basic_string@DU?$char_traits@D@std@@V?$allocator@D@2@@std@@QBEIPBDI@Z 10089150     msvcprt:MSVCP80.dll
 0002:00000154       __imp_??_D?$basic_ifstream@DU?$char_traits@D@std@@@std@@QAEXXZ 10089154     msvcprt:MSVCP80.dll
 0002:00000158       __imp_?insert@?$basic_string@DU?$char_traits@D@std@@V?$allocator@D@2@@std@@QAEAAV12@IPBD@Z 10089158     msvcprt:MSVCP80.dll
 0002:0000015c       \177MSVCP80_NULL_THUNK_DATA 1008915c     msvcprt:MSVCP80.dll
 0002:00000160       __imp__strncpy             10089160     MSVCRT:MSVCR80.dll
 0002:00000164       __imp__fread               10089164     MSVCRT:MSVCR80.dll
 0002:00000168       __imp__fseek               10089168     MSVCRT:MSVCR80.dll
 0002:0000016c       __imp__strncmp             1008916c     MSVCRT:MSVCR80.dll
 0002:00000170       __imp__fopen               10089170     MSVCRT:MSVCR80.dll
 0002:00000174       __imp__fclose              10089174     MSVCRT:MSVCR80.dll
 0002:00000178       __imp___sleep              10089178     MSVCRT:MSVCR80.dll
 0002:0000017c       __imp___purecall           1008917c     MSVCRT:MSVCR80.dll
 0002:00000180       __imp__vsprintf            10089180     MSVCRT:MSVCR80.dll
 0002:00000184       __imp___fileno             10089184     MSVCRT:MSVCR80.dll
 0002:00000184       __imp__fileno              10089184     MSVCRT:MSVCR80.dll
 0002:00000188       __imp__strncat             10089188     MSVCRT:MSVCR80.dll
 0002:0000018c       __imp__memcpy              1008918c     MSVCRT:MSVCR80.dll
 0002:00000190       __imp__tolower             10089190     MSVCRT:MSVCR80.dll
 0002:00000194       __imp__isspace             10089194     MSVCRT:MSVCR80.dll
 0002:00000198       __imp__memset              10089198     MSVCRT:MSVCR80.dll
 0002:0000019c       __imp__qsort               1008919c     MSVCRT:MSVCR80.dll
 0002:000001a0       __imp__strerror            100891a0     MSVCRT:MSVCR80.dll
 0002:000001a4       __imp__strchr              100891a4     MSVCRT:MSVCR80.dll
 0002:000001a8       __imp__getenv              100891a8     MSVCRT:MSVCR80.dll
 0002:000001ac       __imp__free                100891ac     MSVCRT:MSVCR80.dll
 0002:000001b0       __imp__realloc             100891b0     MSVCRT:MSVCR80.dll
 0002:000001b4       __imp__malloc              100891b4     MSVCRT:MSVCR80.dll
 0002:000001b8       __imp__isdigit             100891b8     MSVCRT:MSVCR80.dll
 0002:000001bc       __imp__fprintf             100891bc     MSVCRT:MSVCR80.dll
 0002:000001c0       __imp__isupper             100891c0     MSVCRT:MSVCR80.dll
 0002:000001c4       __imp__ferror              100891c4     MSVCRT:MSVCR80.dll
 0002:000001c8       __imp__fwrite              100891c8     MSVCRT:MSVCR80.dll
 0002:000001cc       __imp__fflush              100891cc     MSVCRT:MSVCR80.dll
 0002:000001d0       __imp___setmode            100891d0     MSVCRT:MSVCR80.dll
 0002:000001d4       __imp__ftell               100891d4     MSVCRT:MSVCR80.dll
 0002:000001d8       __imp__feof                100891d8     MSVCRT:MSVCR80.dll
 0002:000001dc       __imp__fgets               100891dc     MSVCRT:MSVCR80.dll
 0002:000001e0       __imp__isxdigit            100891e0     MSVCRT:MSVCR80.dll
 0002:000001e4       __imp__memchr              100891e4     MSVCRT:MSVCR80.dll
 0002:000001e8       __imp__wcsstr              100891e8     MSVCRT:MSVCR80.dll
 0002:000001ec       __imp___vsnprintf          100891ec     MSVCRT:MSVCR80.dll
 0002:000001f0       __imp__vfprintf            100891f0     MSVCRT:MSVCR80.dll
 0002:000001f4       __imp__abort               100891f4     MSVCRT:MSVCR80.dll
 0002:000001f8       __imp__memmove             100891f8     MSVCRT:MSVCR80.dll
 0002:000001fc       __imp__strtoul             100891fc     MSVCRT:MSVCR80.dll
 0002:00000200       __imp__strcmp              10089200     MSVCRT:MSVCR80.dll
 0002:00000204       __imp__sscanf              10089204     MSVCRT:MSVCR80.dll
 0002:00000208       __imp__fputs               10089208     MSVCRT:MSVCR80.dll
 0002:0000020c       __imp__signal              1008920c     MSVCRT:MSVCR80.dll
 0002:00000210       __imp__strstr              10089210     MSVCRT:MSVCR80.dll
 0002:00000214       __imp_?terminate@@YAXXZ    10089214     MSVCRT:MSVCR80.dll
 0002:00000218       __imp___encode_pointer     10089218     MSVCRT:MSVCR80.dll
 0002:0000021c       __imp___malloc_crt         1008921c     MSVCRT:MSVCR80.dll
 0002:00000220       __imp___encoded_null       10089220     MSVCRT:MSVCR80.dll
 0002:00000224       __imp___decode_pointer     10089224     MSVCRT:MSVCR80.dll
 0002:00000228       __imp___initterm           10089228     MSVCRT:MSVCR80.dll
 0002:0000022c       __imp___initterm_e         1008922c     MSVCRT:MSVCR80.dll
 0002:00000230       __imp___amsg_exit          10089230     MSVCRT:MSVCR80.dll
 0002:00000234       __imp___adjust_fdiv        10089234     MSVCRT:MSVCR80.dll
 0002:00000238       __imp____CppXcptFilter     10089238     MSVCRT:MSVCR80.dll
 0002:0000023c       __imp___crt_debugger_hook  1008923c     MSVCRT:MSVCR80.dll
 0002:00000240       __imp_?_type_info_dtor_internal_method@type_info@@QAEXXZ 10089240     MSVCRT:MSVCR80.dll
 0002:00000244       __imp___except_handler4_common 10089244     MSVCRT:MSVCR80.dll
 0002:00000248       __imp____clean_type_info_names_internal 10089248     MSVCRT:MSVCR80.dll
 0002:0000024c       __imp___unlock             1008924c     MSVCRT:MSVCR80.dll
 0002:00000250       __imp____dllonexit         10089250     MSVCRT:MSVCR80.dll
 0002:00000254       __imp___lock               10089254     MSVCRT:MSVCR80.dll
 0002:00000258       __imp___onexit             10089258     MSVCRT:MSVCR80.dll
 0002:0000025c       __imp___localtime64        1008925c     MSVCRT:MSVCR80.dll
 0002:00000260       __imp___mktime64           10089260     MSVCRT:MSVCR80.dll
 0002:00000264       __imp___time64             10089264     MSVCRT:MSVCR80.dll
 0002:00000268       __imp___gmtime64           10089268     MSVCRT:MSVCR80.dll
 0002:0000026c       __imp___stat64i32          1008926c     MSVCRT:MSVCR80.dll
 0002:00000270       __imp__sprintf             10089270     MSVCRT:MSVCR80.dll
 0002:00000274       __imp__atoi                10089274     MSVCRT:MSVCR80.dll
 0002:00000278       __imp_??_V@YAXPAX@Z        10089278     MSVCRT:MSVCR80.dll
 0002:0000027c       __imp___invalid_parameter_noinfo 1008927c     MSVCRT:MSVCR80.dll
 0002:00000280       __imp_??0exception@std@@QAE@XZ 10089280     MSVCRT:MSVCR80.dll
 0002:00000284       __imp_??1exception@std@@UAE@XZ 10089284     MSVCRT:MSVCR80.dll
 0002:00000288       __imp___errno              10089288     MSVCRT:MSVCR80.dll
 0002:0000028c       __imp_??2@YAPAXI@Z         1008928c     MSVCRT:MSVCR80.dll
 0002:00000290       __imp_??3@YAXPAX@Z         10089290     MSVCRT:MSVCR80.dll
 0002:00000294       __imp____iob_func          10089294     MSVCRT:MSVCR80.dll
 0002:00000298       __imp__getpid              10089298     MSVCRT:MSVCR80.dll
 0002:00000298       __imp___getpid             10089298     MSVCRT:MSVCR80.dll
 0002:0000029c       __imp__getch               1008929c     MSVCRT:MSVCR80.dll
 0002:0000029c       __imp___getch              1008929c     MSVCRT:MSVCR80.dll
 0002:000002a0       __imp____CxxFrameHandler3  100892a0     MSVCRT:MSVCR80.dll
 0002:000002a4       __imp_??0exception@std@@QAE@ABV01@@Z 100892a4     MSVCRT:MSVCR80.dll
 0002:000002a8       __imp___CxxThrowException@8 100892a8     MSVCRT:MSVCR80.dll
 0002:000002ac       \177MSVCR80_NULL_THUNK_DATA 100892ac     MSVCRT:MSVCR80.dll
 0002:000002b0       __imp__MessageBoxA@16      100892b0     user32:USER32.dll
 0002:000002b4       __imp__GetDesktopWindow@0  100892b4     user32:USER32.dll
 0002:000002b8       __imp__GetProcessWindowStation@0 100892b8     user32:USER32.dll
 0002:000002bc       __imp__GetUserObjectInformationW@20 100892bc     user32:USER32.dll
 0002:000002c0       \177USER32_NULL_THUNK_DATA 100892c0     user32:USER32.dll
 0002:000002c4       __imp__listen@8            100892c4     WSock32:WSOCK32.dll
 0002:000002c8       __imp__bind@12             100892c8     WSock32:WSOCK32.dll
 0002:000002cc       __imp__accept@12           100892cc     WSock32:WSOCK32.dll
 0002:000002d0       __imp__ioctlsocket@12      100892d0     WSock32:WSOCK32.dll
 0002:000002d4       __imp__WSAStartup@8        100892d4     WSock32:WSOCK32.dll
 0002:000002d8       __imp__gethostbyname@4     100892d8     WSock32:WSOCK32.dll
 0002:000002dc       __imp__getsockopt@20       100892dc     WSock32:WSOCK32.dll
 0002:000002e0       __imp__getservbyname@8     100892e0     WSock32:WSOCK32.dll
 0002:000002e4       __imp__send@16             100892e4     WSock32:WSOCK32.dll
 0002:000002e8       __imp__WSASetLastError@4   100892e8     WSock32:WSOCK32.dll
 0002:000002ec       __imp__recv@16             100892ec     WSock32:WSOCK32.dll
 0002:000002f0       __imp__socket@12           100892f0     WSock32:WSOCK32.dll
 0002:000002f4       __imp__WSAGetLastError@0   100892f4     WSock32:WSOCK32.dll
 0002:000002f8       __imp__connect@12          100892f8     WSock32:WSOCK32.dll
 0002:000002fc       __imp__shutdown@8          100892fc     WSock32:WSOCK32.dll
 0002:00000300       __imp__closesocket@4       10089300     WSock32:WSOCK32.dll
 0002:00000304       __imp__setsockopt@20       10089304     WSock32:WSOCK32.dll
 0002:00000308       __imp____WSAFDIsSet@8      10089308     WSock32:WSOCK32.dll
 0002:0000030c       __imp__select@20           1008930c     WSock32:WSOCK32.dll
 0002:00000310       __imp__htonl@4             10089310     WSock32:WSOCK32.dll
 0002:00000314       __imp__htons@4             10089314     WSock32:WSOCK32.dll
 0002:00000318       __imp__ntohs@4             10089318     WSock32:WSOCK32.dll
 0002:0000031c       __imp__ntohl@4             1008931c     WSock32:WSOCK32.dll
 0002:00000320       \177WSOCK32_NULL_THUNK_DATA 10089320     WSock32:WSOCK32.dll
 0002:00000324       ___xc_a                    10089324     MSVCRT:cinitexe.obj
 0002:00000328       ___xc_z                    10089328     MSVCRT:cinitexe.obj
 0002:0000032c       ___xi_a                    1008932c     MSVCRT:cinitexe.obj
 0002:00000338       ___xi_z                    10089338     MSVCRT:cinitexe.obj
 0002:00000340       _RSA_version               10089340     libeay32_EM.0.9.8e:rsa_lib.obj
 0002:00000368       ??_C@_0BH@MECNDGAA@?4?2crypto?2rsa?2rsa_lib?4c?$AA@ 10089368     libeay32_EM.0.9.8e:rsa_lib.obj
 0002:00000380       ??_C@_0BK@LMEFMLFD@?4?2crypto?2pkcs7?2pk7_doit?4c?$AA@ 10089380     libeay32_EM.0.9.8e:pk7_doit.obj
 0002:0000039c       ??_C@_0BK@DKHHBKED@?4?2crypto?2pkcs7?2pk7_attr?4c?$AA@ 1008939c     libeay32_EM.0.9.8e:pk7_attr.obj
 0002:000003b8       ??_C@_0BL@EEIGAKG@?4?2crypto?2pkcs7?2pk7_smime?4c?$AA@ 100893b8     libeay32_EM.0.9.8e:pk7_smime.obj
 0002:000003d4       ??_C@_04NMKEOMFB@X509?$AA@ 100893d4     libeay32_EM.0.9.8e:x_x509.obj
 0002:000003dc       ??_C@_07OBHFIHGJ@sig_alg?$AA@ 100893dc     libeay32_EM.0.9.8e:x_x509.obj
 0002:000003e4       ??_C@_09NKDPGBBA@cert_info?$AA@ 100893e4     libeay32_EM.0.9.8e:x_x509.obj
 0002:000003f0       ??_C@_09LCJGKABB@X509_CINF?$AA@ 100893f0     libeay32_EM.0.9.8e:x_x509.obj
 0002:000003fc       ??_C@_0L@ICCCPLKC@extensions?$AA@ 100893fc     libeay32_EM.0.9.8e:x_x509.obj
 0002:00000408       ??_C@_0L@JMFHLKAL@subjectUID?$AA@ 10089408     libeay32_EM.0.9.8e:x_x509.obj
 0002:00000414       ??_C@_09KIIAMAEE@issuerUID?$AA@ 10089414     libeay32_EM.0.9.8e:x_x509.obj
 0002:00000420       ??_C@_03ICHNJLJF@key?$AA@  10089420     libeay32_EM.0.9.8e:x_x509.obj
 0002:00000424       ??_C@_07JNNGEGGO@subject?$AA@ 10089424     libeay32_EM.0.9.8e:x_x509.obj
 0002:0000042c       ??_C@_08GCHKOCBP@validity?$AA@ 1008942c     libeay32_EM.0.9.8e:x_x509.obj
 0002:00000438       ??_C@_06EAINIONG@issuer?$AA@ 10089438     libeay32_EM.0.9.8e:x_x509.obj
 0002:00000440       ??_C@_09CMIIOJHF@signature?$AA@ 10089440     libeay32_EM.0.9.8e:x_x509.obj
 0002:0000044c       ??_C@_0N@OMOHFKCJ@serialNumber?$AA@ 1008944c     libeay32_EM.0.9.8e:x_x509.obj
 0002:0000045c       ??_C@_07CPCPJPKL@version?$AA@ 1008945c     libeay32_EM.0.9.8e:x_x509.obj
 0002:000005bc       ??_C@_08JIPBBKBM@X509_REQ?$AA@ 100895bc     libeay32_EM.0.9.8e:x_req.obj
 0002:000005c8       ??_C@_08JILJKJG@req_info?$AA@ 100895c8     libeay32_EM.0.9.8e:x_req.obj
 0002:000005d4       ??_C@_0O@EHCMNJCB@X509_REQ_INFO?$AA@ 100895d4     libeay32_EM.0.9.8e:x_req.obj
 0002:000005e4       ??_C@_0L@HNMJPKNA@attributes?$AA@ 100895e4     libeay32_EM.0.9.8e:x_req.obj
 0002:000005f0       ??_C@_06GKCAPDID@pubkey?$AA@ 100895f0     libeay32_EM.0.9.8e:x_req.obj
 0002:000006ec       ??_C@_0BJ@KHABNHFN@?4?2crypto?2x509?2x509_cmp?4c?$AA@ 100896ec     libeay32_EM.0.9.8e:x509_cmp.obj
 0002:00000708       ??_C@_0L@BFHONDPK@X509_ALGOR?$AA@ 10089708     libeay32_EM.0.9.8e:x_algor.obj
 0002:00000714       ??_C@_09DAGAJHIH@parameter?$AA@ 10089714     libeay32_EM.0.9.8e:x_algor.obj
 0002:00000720       ??_C@_09JPNFBOJG@algorithm?$AA@ 10089720     libeay32_EM.0.9.8e:x_algor.obj
 0002:00000770       ??_C@_0BJ@GHBNBDLB@?4?2crypto?2pkcs7?2pk7_lib?4c?$AA@ 10089770     libeay32_EM.0.9.8e:pk7_lib.obj
 0002:0000078c       _STACK_version             1008978c     libeay32_EM.0.9.8e:stack.obj
 0002:000007b8       ??_C@_0BH@GBDCJGGB@?4?2crypto?2stack?2stack?4c?$AA@ 100897b8     libeay32_EM.0.9.8e:stack.obj
 0002:000007d0       ??_C@_0BH@BCEPEGOE@?4?2crypto?2pem?2pem_pk8?4c?$AA@ 100897d0     libeay32_EM.0.9.8e:pem_pk8.obj
 0002:000007e8       ??_C@_0BG@OLFPLKDJ@ENCRYPTED?5PRIVATE?5KEY?$AA@ 100897e8     libeay32_EM.0.9.8e:pem_pk8.obj
 0002:00000800       ??_C@_0M@GKANOOJ@PRIVATE?5KEY?$AA@ 10089800     libeay32_EM.0.9.8e:pem_pk8.obj
 0002:00000978       ??_C@_0BG@COGMIJJG@?4?2crypto?2evp?2digest?4c?$AA@ 10089978     libeay32_EM.0.9.8e:digest.obj
 0002:00000990       ??_C@_0CI@KPJFNDOF@ctx?9?$DOdigest?9?$DOmd_size?5?$DM?$DN?5EVP_MAX_@ 10089990     libeay32_EM.0.9.8e:digest.obj
 0002:000009b8       ??_C@_0BA@OPHCNPAP@AUTHORITY_KEYID?$AA@ 100899b8     libeay32_EM.0.9.8e:v3_akeya.obj
 0002:000009c8       ??_C@_06KCELPKEE@serial?$AA@ 100899c8     libeay32_EM.0.9.8e:v3_akeya.obj
 0002:000009d0       ??_C@_05CNHMOIOC@keyid?$AA@ 100899d0     libeay32_EM.0.9.8e:v3_akeya.obj
 0002:00000c38       ??_C@_0M@BFIJENPO@CERTIFICATE?$AA@ 10089c38     libeay32_EM.0.9.8e:pem_x509.obj
 0002:00000fec       ??_C@_0BF@PJIDMOFK@?4?2crypto?2evp?2e_aes?4c?$AA@ 10089fec     libeay32_EM.0.9.8e:e_aes.obj
 0002:00001004       ??_C@_0BJ@IDBKHPBN@?4?2crypto?2x509?2x509name?4c?$AA@ 1008a004     libeay32_EM.0.9.8e:x509name.obj
 0002:00001020       ??_C@_05DFCJAACA@name?$DN?$AA@ 1008a020     libeay32_EM.0.9.8e:x509name.obj
 0002:00001070       _EVP_version               1008a070     libeay32_EM.0.9.8e:evp_enc.obj
 0002:00001098       ??_C@_0BH@FPKHLGPK@?4?2crypto?2evp?2evp_enc?4c?$AA@ 1008a098     libeay32_EM.0.9.8e:evp_enc.obj
 0002:000010b0       ??_C@_0BM@NOPGEACO@bl?5?$DM?$DN?5?$CIint?$CJsizeof?$CIctx?9?$DObuf?$CJ?$AA@ 1008a0b0     libeay32_EM.0.9.8e:evp_enc.obj
 0002:000010cc       ??_C@_07MHPILDBK@inl?5?$DO?50?$AA@ 1008a0cc     libeay32_EM.0.9.8e:evp_enc.obj
 0002:000010d4       ??_C@_0BF@NLHGELBH@b?5?$DM?$DN?5sizeof?5ctx?9?$DObuf?$AA@ 1008a0d4     libeay32_EM.0.9.8e:evp_enc.obj
 0002:000010ec       ??_C@_0BH@JPOFFCDO@b?5?$DM?$DN?5sizeof?5ctx?9?$DOfinal?$AA@ 1008a0ec     libeay32_EM.0.9.8e:evp_enc.obj
 0002:00001104       ??_C@_0DG@IKOHIL@EVP_CIPHER_CTX_iv_length?$CIctx?$CJ?5?$DM?$DN@ 1008a104     libeay32_EM.0.9.8e:evp_enc.obj
 0002:00001140       ??_C@_0FO@KIBMBINE@ctx?9?$DOcipher?9?$DOblock_size?5?$DN?$DN?51?5?$HM?$HM?5@ 1008a140     libeay32_EM.0.9.8e:evp_enc.obj
 0002:000011a0       ??_C@_0BH@MODMECLL@?4?2crypto?2bio?2bio_lib?4c?$AA@ 1008a1a0     libeay32_EM.0.9.8e:bio_lib.obj
 0002:000011b8       ??_C@_01CLKCMJKC@?5?$AA@   1008a1b8     libeay32_EM.0.9.8e:bio_lib.obj
 0002:000011bc       ??_C@_03DICHAJGH@RSA?$AA@  1008a1bc     libeay32_EM.0.9.8e:rsa_asn1.obj
 0002:000011c0       ??_C@_04BBEMPLKC@iqmp?$AA@ 1008a1c0     libeay32_EM.0.9.8e:rsa_asn1.obj
 0002:000011c8       ??_C@_04PENPDGE@dmq1?$AA@  1008a1c8     libeay32_EM.0.9.8e:rsa_asn1.obj
 0002:000011d0       ??_C@_04OIPJJFD@dmp1?$AA@  1008a1d0     libeay32_EM.0.9.8e:rsa_asn1.obj
 0002:000011d8       ??_C@_01IIACKFLH@q?$AA@    1008a1d8     libeay32_EM.0.9.8e:rsa_asn1.obj
 0002:000011dc       ??_C@_01JBBJJEPG@p?$AA@    1008a1dc     libeay32_EM.0.9.8e:rsa_asn1.obj
 0002:000011e0       ??_C@_01LPLHEDKD@d?$AA@    1008a1e0     libeay32_EM.0.9.8e:rsa_asn1.obj
 0002:000011e4       ??_C@_01KGKMHCOC@e?$AA@    1008a1e4     libeay32_EM.0.9.8e:rsa_asn1.obj
 0002:000011e8       ??_C@_01EFFIKLCJ@n?$AA@    1008a1e8     libeay32_EM.0.9.8e:rsa_asn1.obj
 0002:0000146c       ??_C@_0BF@NACJHEJH@?4?2crypto?2evp?2e_rc2?4c?$AA@ 1008a46c     libeay32_EM.0.9.8e:e_rc2.obj
 0002:00001484       ??_C@_0BA@GLOHCMJJ@l?5?$DM?$DN?5sizeof?$CIiv?$CJ?$AA@ 1008a484     libeay32_EM.0.9.8e:e_rc2.obj
 0002:00001500       _BN_version                1008a500     libeay32_EM.0.9.8e:bn_lib.obj
 0002:00001630       ??_C@_0BF@OGBNCIDG@?4?2crypto?2bn?2bn_lib?4c?$AA@ 1008a630     libeay32_EM.0.9.8e:bn_lib.obj
 0002:00001648       ??_C@_0BF@FMBDDPDA@?4?2crypto?2evp?2p_lib?4c?$AA@ 1008a648     libeay32_EM.0.9.8e:p_lib.obj
 0002:00001660       ??_C@_0BJ@OIDOBJG@?4?2crypto?2rand?2rand_win?4c?$AA@ 1008a660     libeay32_EM.0.9.8e:rand_win.obj
 0002:0000167c       ??_C@_07JPHDIPNG@DISPLAY?$AA@ 1008a67c     libeay32_EM.0.9.8e:rand_win.obj
 0002:00001688       __real@4018000000000000    1008a688     libeay32_EM.0.9.8e:rand_win.obj
 0002:00001690       __real@4022000000000000    1008a690     libeay32_EM.0.9.8e:rand_win.obj
 0002:00001698       __real@4014000000000000    1008a698     libeay32_EM.0.9.8e:rand_win.obj
 0002:000016a0       __real@4008000000000000    1008a6a0     libeay32_EM.0.9.8e:rand_win.obj
 0002:000016a8       ??_C@_0N@KIGOLBLC@Module32Next?$AA@ 1008a6a8     libeay32_EM.0.9.8e:rand_win.obj
 0002:000016b8       ??_C@_0O@CNMFJJGO@Module32First?$AA@ 1008a6b8     libeay32_EM.0.9.8e:rand_win.obj
 0002:000016c8       ??_C@_0N@LDGMJMKG@Thread32Next?$AA@ 1008a6c8     libeay32_EM.0.9.8e:rand_win.obj
 0002:000016d8       ??_C@_0O@DHAEEPDO@Thread32First?$AA@ 1008a6d8     libeay32_EM.0.9.8e:rand_win.obj
 0002:000016e8       ??_C@_0O@LGJLFMBH@Process32Next?$AA@ 1008a6e8     libeay32_EM.0.9.8e:rand_win.obj
 0002:000016f8       ??_C@_0P@ILGHDLOE@Process32First?$AA@ 1008a6f8     libeay32_EM.0.9.8e:rand_win.obj
 0002:00001708       ??_C@_0P@EPDKPNHA@Heap32ListNext?$AA@ 1008a708     libeay32_EM.0.9.8e:rand_win.obj
 0002:00001718       ??_C@_0BA@FIEIGOLO@Heap32ListFirst?$AA@ 1008a718     libeay32_EM.0.9.8e:rand_win.obj
 0002:00001728       ??_C@_0L@CMGAAJA@Heap32Next?$AA@ 1008a728     libeay32_EM.0.9.8e:rand_win.obj
 0002:00001734       ??_C@_0M@PIAPHADL@Heap32First?$AA@ 1008a734     libeay32_EM.0.9.8e:rand_win.obj
 0002:00001740       ??_C@_0BI@GJJDGJIM@CloseToolhelp32Snapshot?$AA@ 1008a740     libeay32_EM.0.9.8e:rand_win.obj
 0002:00001758       ??_C@_0BJ@JEFKDHMD@CreateToolhelp32Snapshot?$AA@ 1008a758     libeay32_EM.0.9.8e:rand_win.obj
 0002:00001778       __real@4000000000000000    1008a778     libeay32_EM.0.9.8e:rand_win.obj
 0002:00001780       ??_C@_0P@KCBGCFMP@GetQueueStatus?$AA@ 1008a780     libeay32_EM.0.9.8e:rand_win.obj
 0002:00001790       ??_C@_0O@IGNBKOOJ@GetCursorInfo?$AA@ 1008a790     libeay32_EM.0.9.8e:rand_win.obj
 0002:000017a0       ??_C@_0BE@IIKKNMMA@GetForegroundWindow?$AA@ 1008a7a0     libeay32_EM.0.9.8e:rand_win.obj
 0002:000017b4       ??_C@_0L@NDEGIDAG@USER32?4DLL?$AA@ 1008a7b4     libeay32_EM.0.9.8e:rand_win.obj
 0002:000017c0       __real@4050000000000000    1008a7c0     libeay32_EM.0.9.8e:rand_win.obj
 0002:000017c8       ??_C@_1FM@ELACHIDN@?$AAI?$AAn?$AAt?$AAe?$AAl?$AA?5?$AAH?$AAa?$AAr?$AAd?$AAw?$AAa?$AAr?$AAe?$AA?5?$AAC?$AAr?$AAy?$AAp?$AAt?$AAo?$AAg?$AAr?$AAa?$AAp?$AAh?$AAi?$AAc?$AA?5?$AAS?$AAe?$AAr@ 1008a7c8     libeay32_EM.0.9.8e:rand_win.obj
 0002:00001824       ??_C@_0BE@FBIJLPPP@CryptReleaseContext?$AA@ 1008a824     libeay32_EM.0.9.8e:rand_win.obj
 0002:00001838       ??_C@_0P@HGPEDCEI@CryptGenRandom?$AA@ 1008a838     libeay32_EM.0.9.8e:rand_win.obj
 0002:00001848       ??_C@_0BF@JHHBLAOM@CryptAcquireContextW?$AA@ 1008a848     libeay32_EM.0.9.8e:rand_win.obj
 0002:00001860       __real@4031000000000000    1008a860     libeay32_EM.0.9.8e:rand_win.obj
 0002:00001868       ??_C@_1BK@FJCAAMNP@?$AAL?$AAa?$AAn?$AAm?$AAa?$AAn?$AAS?$AAe?$AAr?$AAv?$AAe?$AAr?$AA?$AA@ 1008a868     libeay32_EM.0.9.8e:rand_win.obj
 0002:00001888       __real@4046800000000000    1008a888     libeay32_EM.0.9.8e:rand_win.obj
 0002:00001890       ??_C@_1CE@MINGJEKI@?$AAL?$AAa?$AAn?$AAm?$AAa?$AAn?$AAW?$AAo?$AAr?$AAk?$AAs?$AAt?$AAa?$AAt?$AAi?$AAo?$AAn?$AA?$AA@ 1008a890     libeay32_EM.0.9.8e:rand_win.obj
 0002:000018b4       ??_C@_0BB@EODNGDFL@NetApiBufferFree?$AA@ 1008a8b4     libeay32_EM.0.9.8e:rand_win.obj
 0002:000018c8       ??_C@_0BB@NIBHPBJM@NetStatisticsGet?$AA@ 1008a8c8     libeay32_EM.0.9.8e:rand_win.obj
 0002:000018dc       ??_C@_0N@HNENINMF@NETAPI32?4DLL?$AA@ 1008a8dc     libeay32_EM.0.9.8e:rand_win.obj
 0002:000018ec       ??_C@_0N@NHGLKGEC@KERNEL32?4DLL?$AA@ 1008a8ec     libeay32_EM.0.9.8e:rand_win.obj
 0002:000018fc       ??_C@_0N@JJPEKNFO@ADVAPI32?4DLL?$AA@ 1008a8fc     libeay32_EM.0.9.8e:rand_win.obj
 0002:0000190c       _ASN1_version              1008a90c     libeay32_EM.0.9.8e:asn1_lib.obj
 0002:00001938       ??_C@_0BJ@BDGDICBL@?4?2crypto?2asn1?2asn1_lib?4c?$AA@ 1008a938     libeay32_EM.0.9.8e:asn1_lib.obj
 0002:00001954       ??_C@_08CLFLHNDD@address?$DN?$AA@ 1008a954     libeay32_EM.0.9.8e:asn1_lib.obj
 0002:00001960       ??_C@_08CPJNFLGB@?5offset?$DN?$AA@ 1008a960     libeay32_EM.0.9.8e:asn1_lib.obj
 0002:0000196c       ??_C@_03FKNCMABI@?$CFlu?$AA@ 1008a96c     libeay32_EM.0.9.8e:asn1_lib.obj
 0002:000019b8       ??_C@_0BE@PGIFFILK@CERTIFICATE?5REQUEST?$AA@ 1008a9b8     libeay32_EM.0.9.8e:pem_all.obj
 0002:000019cc       ??_C@_0BI@BBDALNCF@NEW?5CERTIFICATE?5REQUEST?$AA@ 1008a9cc     libeay32_EM.0.9.8e:pem_all.obj
 0002:000019e4       ??_C@_08ONNDIEBB@X509?5CRL?$AA@ 1008a9e4     libeay32_EM.0.9.8e:pem_all.obj
 0002:000019f0       ??_C@_05BKMMPIPN@PKCS7?$AA@ 1008a9f0     libeay32_EM.0.9.8e:pem_all.obj
 0002:000019f8       ??_C@_0BA@COBLGNON@RSA?5PRIVATE?5KEY?$AA@ 1008a9f8     libeay32_EM.0.9.8e:pem_all.obj
 0002:00001a08       ??_C@_0BA@JLKNDKJH@DSA?5PRIVATE?5KEY?$AA@ 1008aa08     libeay32_EM.0.9.8e:pem_all.obj
 0002:00001a18       ??_C@_0P@NNHMEHEI@EC?5PRIVATE?5KEY?$AA@ 1008aa18     libeay32_EM.0.9.8e:pem_all.obj
 0002:00001a28       ??_C@_0BI@HLOHDLB@?4?2crypto?2pem?2pem_pkey?4c?$AA@ 1008aa28     libeay32_EM.0.9.8e:pem_pkey.obj
 0002:00001a40       ??_C@_0BA@MHDCIJI@ANY?5PRIVATE?5KEY?$AA@ 1008aa40     libeay32_EM.0.9.8e:pem_pkey.obj
 0002:00001b20       ??_C@_0BF@ENPOEMCO@?4?2crypto?2evp?2e_rc5?4c?$AA@ 1008ab20     libeay32_EM.0.9.8e:e_rc5.obj
 0002:00001b38       ??_C@_0DE@JBNNAKOP@called?5a?5function?5that?5was?5disab@ 1008ab38     libeay32_EM.0.9.8e:err.obj
 0002:00001b6c       ??_C@_0P@LPIEGNHB@internal?5error?$AA@ 1008ab6c     libeay32_EM.0.9.8e:err.obj
 0002:00001b7c       ??_C@_0BI@MMHLKOF@passed?5a?5null?5parameter?$AA@ 1008ab7c     libeay32_EM.0.9.8e:err.obj
 0002:00001b94       ??_C@_0CG@JFIACAPA@called?5a?5function?5you?5should?5not@ 1008ab94     libeay32_EM.0.9.8e:err.obj
 0002:00001bbc       ??_C@_0P@BOLAOBGL@malloc?5failure?$AA@ 1008abbc     libeay32_EM.0.9.8e:err.obj
 0002:00001bcc       ??_C@_05FAMCFOJB@fatal?$AA@ 1008abcc     libeay32_EM.0.9.8e:err.obj
 0002:00001bd4       ??_C@_0BB@LLCBNOLO@missing?5asn1?5eos?$AA@ 1008abd4     libeay32_EM.0.9.8e:err.obj
 0002:00001be8       ??_C@_0BF@JKEELALH@asn1?5length?5mismatch?$AA@ 1008abe8     libeay32_EM.0.9.8e:err.obj
 0002:00001c00       ??_C@_0BL@PKJJDDDF@expecting?5an?5asn1?5sequence?$AA@ 1008ac00     libeay32_EM.0.9.8e:err.obj
 0002:00001c1c       ??_C@_0BJ@KHBMOGBI@bad?5get?5asn1?5object?5call?$AA@ 1008ac1c     libeay32_EM.0.9.8e:err.obj
 0002:00001c38       ??_C@_0BH@LJENPHMF@bad?5asn1?5object?5header?$AA@ 1008ac38     libeay32_EM.0.9.8e:err.obj
 0002:00001c50       ??_C@_0BC@JPACPGKL@nested?5asn1?5error?$AA@ 1008ac50     libeay32_EM.0.9.8e:err.obj
 0002:00001c64       ??_C@_08BIAIHGB@OCSP?5lib?$AA@ 1008ac64     libeay32_EM.0.9.8e:err.obj
 0002:00001c70       ??_C@_0L@NEGIHAGL@ENGINE?5lib?$AA@ 1008ac70     libeay32_EM.0.9.8e:err.obj
 0002:00001c7c       ??_C@_07HLMFDJCH@DSO?5lib?$AA@ 1008ac7c     libeay32_EM.0.9.8e:err.obj
 0002:00001c84       ??_C@_08IAGEJILJ@RAND?5lib?$AA@ 1008ac84     libeay32_EM.0.9.8e:err.obj
 0002:00001c90       ??_C@_0L@FBHADCPC@PKCS12?5lib?$AA@ 1008ac90     libeay32_EM.0.9.8e:err.obj
 0002:00001c9c       ??_C@_0L@OHLIEDB@X509V3?5lib?$AA@ 1008ac9c     libeay32_EM.0.9.8e:err.obj
 0002:00001ca8       ??_C@_09PFAKBDBP@PKCS7?5lib?$AA@ 1008aca8     libeay32_EM.0.9.8e:err.obj
 0002:00001cb4       ??_C@_07HOAEPDCA@BIO?5lib?$AA@ 1008acb4     libeay32_EM.0.9.8e:err.obj
 0002:00001cbc       ??_C@_07ILCPHDLL@SSL?5lib?$AA@ 1008acbc     libeay32_EM.0.9.8e:err.obj
 0002:00001cc4       ??_C@_06FNJAJMKI@EC?5lib?$AA@ 1008acc4     libeay32_EM.0.9.8e:err.obj
 0002:00001ccc       ??_C@_0L@GEIMIIEL@CRYPTO?5lib?$AA@ 1008accc     libeay32_EM.0.9.8e:err.obj
 0002:00001cd8       ??_C@_08GDJNHNLC@CONF?5lib?$AA@ 1008acd8     libeay32_EM.0.9.8e:err.obj
 0002:00001ce4       ??_C@_08HAFIEMCJ@ASN1?5lib?$AA@ 1008ace4     libeay32_EM.0.9.8e:err.obj
 0002:00001cf0       ??_C@_08DGLLDICE@X509?5lib?$AA@ 1008acf0     libeay32_EM.0.9.8e:err.obj
 0002:00001cfc       ??_C@_07EBMPFIFH@DSA?5lib?$AA@ 1008acfc     libeay32_EM.0.9.8e:err.obj
 0002:00001d04       ??_C@_07MKPCAOAJ@PEM?5lib?$AA@ 1008ad04     libeay32_EM.0.9.8e:err.obj
 0002:00001d0c       ??_C@_07LHMLCDLI@OBJ?5lib?$AA@ 1008ad0c     libeay32_EM.0.9.8e:err.obj
 0002:00001d14       ??_C@_07PJHFFEFC@BUF?5lib?$AA@ 1008ad14     libeay32_EM.0.9.8e:err.obj
 0002:00001d1c       ??_C@_07BHNHKGFA@EVP?5lib?$AA@ 1008ad1c     libeay32_EM.0.9.8e:err.obj
 0002:00001d24       ??_C@_06JBCAGHNP@DH?5lib?$AA@ 1008ad24     libeay32_EM.0.9.8e:err.obj
 0002:00001d2c       ??_C@_07PLBLGAPL@RSA?5lib?$AA@ 1008ad2c     libeay32_EM.0.9.8e:err.obj
 0002:00001d34       ??_C@_06CEKJLBPI@BN?5lib?$AA@ 1008ad34     libeay32_EM.0.9.8e:err.obj
 0002:00001d3c       ??_C@_0L@NFMIFFDK@system?5lib?$AA@ 1008ad3c     libeay32_EM.0.9.8e:err.obj
 0002:00001d48       ??_C@_05FHPOAJDB@fread?$AA@ 1008ad48     libeay32_EM.0.9.8e:err.obj
 0002:00001d50       ??_C@_07OPAOJOOA@opendir?$AA@ 1008ad50     libeay32_EM.0.9.8e:err.obj
 0002:00001d58       ??_C@_0L@LNCNEFCG@WSAstartup?$AA@ 1008ad58     libeay32_EM.0.9.8e:err.obj
 0002:00001d64       ??_C@_06MPKMECK@accept?$AA@ 1008ad64     libeay32_EM.0.9.8e:err.obj
 0002:00001d6c       ??_C@_06OODDLKLE@listen?$AA@ 1008ad6c     libeay32_EM.0.9.8e:err.obj
 0002:00001d74       ??_C@_04NPNJNMMP@bind?$AA@ 1008ad74     libeay32_EM.0.9.8e:err.obj
 0002:00001d7c       ??_C@_0M@PBPOCKDG@ioctlsocket?$AA@ 1008ad7c     libeay32_EM.0.9.8e:err.obj
 0002:00001d88       ??_C@_06HBELJPBO@socket?$AA@ 1008ad88     libeay32_EM.0.9.8e:err.obj
 0002:00001d90       ??_C@_0O@NKLJGHIL@getservbyname?$AA@ 1008ad90     libeay32_EM.0.9.8e:err.obj
 0002:00001da0       ??_C@_07KAIBNCHO@connect?$AA@ 1008ada0     libeay32_EM.0.9.8e:err.obj
 0002:00001da8       ??_C@_05FFKPLNPJ@fopen?$AA@ 1008ada8     libeay32_EM.0.9.8e:err.obj
 0002:00001db0       ??_C@_0O@LJIADBLP@OCSP?5routines?$AA@ 1008adb0     libeay32_EM.0.9.8e:err.obj
 0002:00001dc0       ??_C@_0BA@MMHCJFKD@engine?5routines?$AA@ 1008adc0     libeay32_EM.0.9.8e:err.obj
 0002:00001dd0       ??_C@_0BF@BDHLAIEM@DSO?5support?5routines?$AA@ 1008add0     libeay32_EM.0.9.8e:err.obj
 0002:00001de8       ??_C@_0BI@GMPKPCPG@random?5number?5generator?$AA@ 1008ade8     libeay32_EM.0.9.8e:err.obj
 0002:00001e00       ??_C@_0BA@KPFPMFD@PKCS12?5routines?$AA@ 1008ae00     libeay32_EM.0.9.8e:err.obj
 0002:00001e10       ??_C@_0BB@LKDEPKLM@X509?5V3?5routines?$AA@ 1008ae10     libeay32_EM.0.9.8e:err.obj
 0002:00001e24       ??_C@_0P@FBDCKDAN@PKCS7?5routines?$AA@ 1008ae24     libeay32_EM.0.9.8e:err.obj
 0002:00001e34       ??_C@_0N@HGNFKBOI@BIO?5routines?$AA@ 1008ae34     libeay32_EM.0.9.8e:err.obj
 0002:00001e44       ??_C@_0N@GAIJLNCL@SSL?5routines?$AA@ 1008ae44     libeay32_EM.0.9.8e:err.obj
 0002:00001e54       ??_C@_0BI@NNCFPCDI@elliptic?5curve?5routines?$AA@ 1008ae54     libeay32_EM.0.9.8e:err.obj
 0002:00001e6c       ??_C@_0BK@GOIAPJCF@common?5libcrypto?5routines?$AA@ 1008ae6c     libeay32_EM.0.9.8e:err.obj
 0002:00001e88       ??_C@_0BM@FNIFPKKP@configuration?5file?5routines?$AA@ 1008ae88     libeay32_EM.0.9.8e:err.obj
 0002:00001ea4       ??_C@_0BH@OKMDKJBH@asn1?5encoding?5routines?$AA@ 1008aea4     libeay32_EM.0.9.8e:err.obj
 0002:00001ebc       ??_C@_0BK@MLDIFNOG@x509?5certificate?5routines?$AA@ 1008aebc     libeay32_EM.0.9.8e:err.obj
 0002:00001ed8       ??_C@_0N@EPLKEPHE@dsa?5routines?$AA@ 1008aed8     libeay32_EM.0.9.8e:err.obj
 0002:00001ee8       ??_C@_0N@PPOIEGDJ@PEM?5routines?$AA@ 1008aee8     libeay32_EM.0.9.8e:err.obj
 0002:00001ef8       ??_C@_0BL@GAJLDLEG@object?5identifier?5routines?$AA@ 1008aef8     libeay32_EM.0.9.8e:err.obj
 0002:00001f14       ??_C@_0BH@GHBGFOKA@memory?5buffer?5routines?$AA@ 1008af14     libeay32_EM.0.9.8e:err.obj
 0002:00001f2c       ??_C@_0BK@KCBHLAIJ@digital?5envelope?5routines?$AA@ 1008af2c     libeay32_EM.0.9.8e:err.obj
 0002:00001f48       ??_C@_0BI@BELEOFAM@Diffie?9Hellman?5routines?$AA@ 1008af48     libeay32_EM.0.9.8e:err.obj
 0002:00001f60       ??_C@_0N@FLFIDGHD@rsa?5routines?$AA@ 1008af60     libeay32_EM.0.9.8e:err.obj
 0002:00001f70       ??_C@_0BA@BALAMMCD@bignum?5routines?$AA@ 1008af70     libeay32_EM.0.9.8e:err.obj
 0002:00001f80       ??_C@_0P@KJHLNCML@system?5library?$AA@ 1008af80     libeay32_EM.0.9.8e:err.obj
 0002:00001f90       ??_C@_0BA@JLJAKIKL@unknown?5library?$AA@ 1008af90     libeay32_EM.0.9.8e:err.obj
 0002:00001fcc       ??_C@_0BD@CKILGKAI@?4?2crypto?2err?2err?4c?$AA@ 1008afcc     libeay32_EM.0.9.8e:err.obj
 0002:00001fe0       ??_C@_07CIFAGBMG@unknown?$AA@ 1008afe0     libeay32_EM.0.9.8e:err.obj
 0002:00001fe8       ??_C@_0BE@CGMKPIME@int_err_get?5?$CIerr?4c?$CJ?$AA@ 1008afe8     libeay32_EM.0.9.8e:err.obj
 0002:00001ffc       ??_C@_0BH@KBGLDIDO@int_thread_get?5?$CIerr?4c?$CJ?$AA@ 1008affc     libeay32_EM.0.9.8e:err.obj
 0002:00002014       ??_C@_02JDNIPIGD@NA?$AA@   1008b014     libeay32_EM.0.9.8e:err.obj
 0002:00002018       ??_C@_0BF@IKLBHEFA@error?3?$CF08lX?3?$CFs?3?$CFs?3?$CFs?$AA@ 1008b018     libeay32_EM.0.9.8e:err.obj
 0002:00002030       ??_C@_0M@MNMDFDLE@reason?$CI?$CFlu?$CJ?$AA@ 1008b030     libeay32_EM.0.9.8e:err.obj
 0002:0000203c       ??_C@_09IANFNLBB@func?$CI?$CFlu?$CJ?$AA@ 1008b03c     libeay32_EM.0.9.8e:err.obj
 0002:00002048       ??_C@_08PFHOCFHJ@lib?$CI?$CFlu?$CJ?$AA@ 1008b048     libeay32_EM.0.9.8e:err.obj
 0002:00002054       ??_C@_0BK@LDALPMGB@?4?2crypto?2pkcs12?2p12_utl?4c?$AA@ 1008b054     libeay32_EM.0.9.8e:p12_utl.obj
 0002:00002070       _X509_version              1008b070     libeay32_EM.0.9.8e:x509_vfy.obj
 0002:0000209c       ??_C@_0BJ@POMCDKOO@?4?2crypto?2x509?2x509_vfy?4c?$AA@ 1008b09c     libeay32_EM.0.9.8e:x509_vfy.obj
 0002:000020b8       ??_C@_0BK@PIJCOFLE@OPENSSL_ALLOW_PROXY_CERTS?$AA@ 1008b0b8     libeay32_EM.0.9.8e:x509_vfy.obj
 0002:000020d4       ??_C@_07DLHCIBDH@default?$AA@ 1008b0d4     libeay32_EM.0.9.8e:x509_vfy.obj
 0002:000020dc       ??_C@_0O@DIEIKEFB@memory?5buffer?$AA@ 1008b0dc     libeay32_EM.0.9.8e:bss_mem.obj
 0002:000020ec       ??_C@_0BH@IKAJIAMC@?4?2crypto?2bio?2bss_mem?4c?$AA@ 1008b0ec     libeay32_EM.0.9.8e:bss_mem.obj
 0002:00002104       ??_C@_09KGNJKBNF@X509_NAME?$AA@ 1008b104     libeay32_EM.0.9.8e:x_name.obj
 0002:00002110       ??_C@_0BD@FDNDONGH@X509_NAME_INTERNAL?$AA@ 1008b110     libeay32_EM.0.9.8e:x_name.obj
 0002:00002124       ??_C@_04FABLJDN@Name?$AA@  1008b124     libeay32_EM.0.9.8e:x_name.obj
 0002:0000212c       ??_C@_0BC@GJMCELDI@X509_NAME_ENTRIES?$AA@ 1008b12c     libeay32_EM.0.9.8e:x_name.obj
 0002:00002140       ??_C@_04IEOKPFHO@RDNS?$AA@ 1008b140     libeay32_EM.0.9.8e:x_name.obj
 0002:00002148       ??_C@_0BA@KEPIIMOE@X509_NAME_ENTRY?$AA@ 1008b148     libeay32_EM.0.9.8e:x_name.obj
 0002:00002158       ??_C@_05MFEJDJP@value?$AA@ 1008b158     libeay32_EM.0.9.8e:x_name.obj
 0002:00002160       ??_C@_06IEOJBDIK@object?$AA@ 1008b160     libeay32_EM.0.9.8e:x_name.obj
 0002:0000220c       _x509_name_ff              1008b20c     libeay32_EM.0.9.8e:x_name.obj
 0002:00002240       ??_C@_0BH@KOHBKEEJ@?4?2crypto?2asn1?2x_name?4c?$AA@ 1008b240     libeay32_EM.0.9.8e:x_name.obj
 0002:000022a0       ??_C@_08DFMPDBMK@X509_SIG?$AA@ 1008b2a0     libeay32_EM.0.9.8e:x_sig.obj
 0002:000022ac       ??_C@_06IJPNAHC@digest?$AA@ 1008b2ac     libeay32_EM.0.9.8e:x_sig.obj
 0002:000022b4       ??_C@_05CJCEEADM@algor?$AA@ 1008b2b4     libeay32_EM.0.9.8e:x_sig.obj
 0002:00002300       ??_C@_0BD@BACHDDOD@?4?2crypto?2ex_data?4c?$AA@ 1008b300     libeay32_EM.0.9.8e:ex_data.obj
 0002:00002314       ??_C@_0BJ@GIEGEKPM@?4?2crypto?2asn1?2a_object?4c?$AA@ 1008b314     libeay32_EM.0.9.8e:a_object.obj
 0002:00002330       ??_C@_04HIBGFPH@NULL?$AA@  1008b330     libeay32_EM.0.9.8e:a_object.obj
 0002:00002338       ??_C@_09OJNEAJGG@?$DMINVALID?$DO?$AA@ 1008b338     libeay32_EM.0.9.8e:a_object.obj
 0002:00002344       ??_C@_0BK@EMNEMCDI@X509v3?5Certificate?5Issuer?$AA@ 1008b344     libeay32_EM.0.9.8e:obj_dat.obj
 0002:00002360       ??_C@_0BC@NAJGKAHO@certificateIssuer?$AA@ 1008b360     libeay32_EM.0.9.8e:obj_dat.obj
 0002:00002374       ??_C@_0CC@MMIACGNM@X509v3?5Issuing?5Distrubution?5Poin@ 1008b374     libeay32_EM.0.9.8e:obj_dat.obj
 0002:00002398       ??_C@_0BJ@OAOPOBMH@issuingDistributionPoint?$AA@ 1008b398     libeay32_EM.0.9.8e:obj_dat.obj
 0002:000023b4       ??_C@_0CE@OGGDDHCK@X509v3?5Subject?5Directory?5Attribu@ 1008b3b4     libeay32_EM.0.9.8e:obj_dat.obj
 0002:000023d8       ??_C@_0BL@GAJEKNCJ@subjectDirectoryAttributes?$AA@ 1008b3d8     libeay32_EM.0.9.8e:obj_dat.obj
 0002:000023f4       ??_C@_0BB@EGAOKAEM@camellia?9256?9ofb?$AA@ 1008b3f4     libeay32_EM.0.9.8e:obj_dat.obj
 0002:00002408       ??_C@_0BB@FFEGHOPL@CAMELLIA?9256?9OFB?$AA@ 1008b408     libeay32_EM.0.9.8e:obj_dat.obj
 0002:0000241c       ??_C@_0BB@JELAIPMN@camellia?9192?9ofb?$AA@ 1008b41c     libeay32_EM.0.9.8e:obj_dat.obj
 0002:00002430       ??_C@_0BB@IHPIFBHK@CAMELLIA?9192?9OFB?$AA@ 1008b430     libeay32_EM.0.9.8e:obj_dat.obj
 0002:00002444       ??_C@_0BB@DHCMPIFB@camellia?9128?9ofb?$AA@ 1008b444     libeay32_EM.0.9.8e:obj_dat.obj
 0002:00002458       ??_C@_0BB@CEGECGOG@CAMELLIA?9128?9OFB?$AA@ 1008b458     libeay32_EM.0.9.8e:obj_dat.obj
 0002:0000246c       ??_C@_0BC@KNEDFCOB@camellia?9256?9cfb8?$AA@ 1008b46c     libeay32_EM.0.9.8e:obj_dat.obj
 0002:00002480       ??_C@_0BC@PIFFDMBA@CAMELLIA?9256?9CFB8?$AA@ 1008b480     libeay32_EM.0.9.8e:obj_dat.obj
 0002:00002494       ??_C@_0BC@DHCOFPHI@camellia?9192?9cfb8?$AA@ 1008b494     libeay32_EM.0.9.8e:obj_dat.obj
 0002:000024a8       ??_C@_0BC@GCDIDBIJ@CAMELLIA?9192?9CFB8?$AA@ 1008b4a8     libeay32_EM.0.9.8e:obj_dat.obj
 0002:000024bc       ??_C@_0BC@MODEBMGA@camellia?9128?9cfb8?$AA@ 1008b4bc     libeay32_EM.0.9.8e:obj_dat.obj
 0002:000024d0       ??_C@_0BC@JLCCHCJB@CAMELLIA?9128?9CFB8?$AA@ 1008b4d0     libeay32_EM.0.9.8e:obj_dat.obj
 0002:000024e4       ??_C@_0BC@HMIBOJKI@camellia?9256?9cfb1?$AA@ 1008b4e4     libeay32_EM.0.9.8e:obj_dat.obj
 0002:000024f8       ??_C@_0BC@CJJHIHFJ@CAMELLIA?9256?9CFB1?$AA@ 1008b4f8     libeay32_EM.0.9.8e:obj_dat.obj
 0002:0000250c       ??_C@_0BC@OGOMOEDB@camellia?9192?9cfb1?$AA@ 1008b50c     libeay32_EM.0.9.8e:obj_dat.obj
 0002:00002520       ??_C@_0BC@LDPKIKMA@CAMELLIA?9192?9CFB1?$AA@ 1008b520     libeay32_EM.0.9.8e:obj_dat.obj
 0002:00002534       ??_C@_0BC@BPPGKHCJ@camellia?9128?9cfb1?$AA@ 1008b534     libeay32_EM.0.9.8e:obj_dat.obj
 0002:00002548       ??_C@_0BC@EKOAMJNI@CAMELLIA?9128?9CFB1?$AA@ 1008b548     libeay32_EM.0.9.8e:obj_dat.obj
 0002:0000255c       ??_C@_0BB@MNIBPPE@camellia?9256?9cfb?$AA@ 1008b55c     libeay32_EM.0.9.8e:obj_dat.obj
 0002:00002570       ??_C@_0BB@BPJAMBED@CAMELLIA?9256?9CFB?$AA@ 1008b570     libeay32_EM.0.9.8e:obj_dat.obj
 0002:00002584       ??_C@_0BB@NOGGDAHF@camellia?9192?9cfb?$AA@ 1008b584     libeay32_EM.0.9.8e:obj_dat.obj
 0002:00002598       ??_C@_0BB@MNCOOOMC@CAMELLIA?9192?9CFB?$AA@ 1008b598     libeay32_EM.0.9.8e:obj_dat.obj
 0002:000025ac       ??_C@_0BB@HNPKEHOJ@camellia?9128?9cfb?$AA@ 1008b5ac     libeay32_EM.0.9.8e:obj_dat.obj
 0002:000025c0       ??_C@_0BB@GOLCJJFO@CAMELLIA?9128?9CFB?$AA@ 1008b5c0     libeay32_EM.0.9.8e:obj_dat.obj
 0002:000025d4       ??_C@_0BB@CPHIICMD@camellia?9256?9ecb?$AA@ 1008b5d4     libeay32_EM.0.9.8e:obj_dat.obj
 0002:000025e8       ??_C@_0BB@DMDAFMHE@CAMELLIA?9256?9ECB?$AA@ 1008b5e8     libeay32_EM.0.9.8e:obj_dat.obj
 0002:000025fc       ??_C@_0BB@PNMGKNEC@camellia?9192?9ecb?$AA@ 1008b5fc     libeay32_EM.0.9.8e:obj_dat.obj
 0002:00002610       ??_C@_0BB@OOIOHDPF@CAMELLIA?9192?9ECB?$AA@ 1008b610     libeay32_EM.0.9.8e:obj_dat.obj
 0002:00002624       ??_C@_0BB@FOFKNKNO@camellia?9128?9ecb?$AA@ 1008b624     libeay32_EM.0.9.8e:obj_dat.obj
 0002:00002638       ??_C@_0BB@ENBCAEGJ@CAMELLIA?9128?9ECB?$AA@ 1008b638     libeay32_EM.0.9.8e:obj_dat.obj
 0002:0000264c       ??_C@_0BB@BCMKIGGJ@camellia?9256?9cbc?$AA@ 1008b64c     libeay32_EM.0.9.8e:obj_dat.obj
 0002:00002660       ??_C@_0BB@BICFINO@CAMELLIA?9256?9CBC?$AA@ 1008b660     libeay32_EM.0.9.8e:obj_dat.obj
 0002:00002674       ??_C@_0BB@MAHEKJOI@camellia?9192?9cbc?$AA@ 1008b674     libeay32_EM.0.9.8e:obj_dat.obj
 0002:00002688       ??_C@_0BB@NDDMHHFP@CAMELLIA?9192?9CBC?$AA@ 1008b688     libeay32_EM.0.9.8e:obj_dat.obj
 0002:0000269c       ??_C@_0BB@GDOINOHE@camellia?9128?9cbc?$AA@ 1008b69c     libeay32_EM.0.9.8e:obj_dat.obj
 0002:000026b0       ??_C@_0BB@HAKAAAMD@CAMELLIA?9128?9CBC?$AA@ 1008b6b0     libeay32_EM.0.9.8e:obj_dat.obj
 0002:000026c4       ??_C@_06DEKODPNG@ipsec4?$AA@ 1008b6c4     libeay32_EM.0.9.8e:obj_dat.obj
 0002:000026cc       ??_C@_0O@FENFAHJA@Oakley?9EC2N?94?$AA@ 1008b6cc     libeay32_EM.0.9.8e:obj_dat.obj
 0002:000026dc       ??_C@_06HLOPKJBB@ipsec3?$AA@ 1008b6dc     libeay32_EM.0.9.8e:obj_dat.obj
 0002:000026e4       ??_C@_0O@BLJEJBFH@Oakley?9EC2N?93?$AA@ 1008b6e4     libeay32_EM.0.9.8e:obj_dat.obj
 0002:000026f4       ??_C@_0BK@FPAAFIAO@X509v3?5Inhibit?5Any?5Policy?$AA@ 1008b6f4     libeay32_EM.0.9.8e:obj_dat.obj
 0002:00002710       ??_C@_0BB@CFCCDKGF@inhibitAnyPolicy?$AA@ 1008b710     libeay32_EM.0.9.8e:obj_dat.obj
 0002:00002724       ??_C@_0BH@NJBPACCN@X509v3?5Policy?5Mappings?$AA@ 1008b724     libeay32_EM.0.9.8e:obj_dat.obj
 0002:0000273c       ??_C@_0P@MEGGINDP@policyMappings?$AA@ 1008b73c     libeay32_EM.0.9.8e:obj_dat.obj
 0002:0000274c       ??_C@_0BC@CEEMIAHF@X509v3?5Any?5Policy?$AA@ 1008b74c     libeay32_EM.0.9.8e:obj_dat.obj
 0002:00002760       ??_C@_09HBBJOJHB@anyPolicy?$AA@ 1008b760     libeay32_EM.0.9.8e:obj_dat.obj
 0002:0000276c       ??_C@_0BI@MNOLKEAO@wap?9wsg?9idm?9ecid?9wtls12?$AA@ 1008b76c     libeay32_EM.0.9.8e:obj_dat.obj
 0002:00002784       ??_C@_0BI@OGMGPHMN@wap?9wsg?9idm?9ecid?9wtls11?$AA@ 1008b784     libeay32_EM.0.9.8e:obj_dat.obj
 0002:0000279c       ??_C@_0BI@PPNNMGIM@wap?9wsg?9idm?9ecid?9wtls10?$AA@ 1008b79c     libeay32_EM.0.9.8e:obj_dat.obj
 0002:000027b4       ??_C@_0BH@DMKMEGHN@wap?9wsg?9idm?9ecid?9wtls9?$AA@ 1008b7b4     libeay32_EM.0.9.8e:obj_dat.obj
 0002:000027cc       ??_C@_0BH@CFLHHHDM@wap?9wsg?9idm?9ecid?9wtls8?$AA@ 1008b7cc     libeay32_EM.0.9.8e:obj_dat.obj
 0002:000027e4       ??_C@_0BH@KCCPGLPD@wap?9wsg?9idm?9ecid?9wtls7?$AA@ 1008b7e4     libeay32_EM.0.9.8e:obj_dat.obj
 0002:000027fc       ??_C@_0BH@LLDEFKLC@wap?9wsg?9idm?9ecid?9wtls6?$AA@ 1008b7fc     libeay32_EM.0.9.8e:obj_dat.obj
 0002:00002814       ??_C@_0BH@JABJAJHB@wap?9wsg?9idm?9ecid?9wtls5?$AA@ 1008b814     libeay32_EM.0.9.8e:obj_dat.obj
 0002:0000282c       ??_C@_0BH@IJACDIDA@wap?9wsg?9idm?9ecid?9wtls4?$AA@ 1008b82c     libeay32_EM.0.9.8e:obj_dat.obj
 0002:00002844       ??_C@_0BH@MGEDKOPH@wap?9wsg?9idm?9ecid?9wtls3?$AA@ 1008b844     libeay32_EM.0.9.8e:obj_dat.obj
 0002:0000285c       ??_C@_0BH@PEHFMMHF@wap?9wsg?9idm?9ecid?9wtls1?$AA@ 1008b85c     libeay32_EM.0.9.8e:obj_dat.obj
 0002:00002874       ??_C@_09MPLFOIFJ@sect571r1?$AA@ 1008b874     libeay32_EM.0.9.8e:obj_dat.obj
 0002:00002880       ??_C@_09NMECHAKG@sect571k1?$AA@ 1008b880     libeay32_EM.0.9.8e:obj_dat.obj
 0002:0000288c       ??_C@_09HDHNMPAD@sect409r1?$AA@ 1008b88c     libeay32_EM.0.9.8e:obj_dat.obj
 0002:00002898       ??_C@_09GAIKFHPM@sect409k1?$AA@ 1008b898     libeay32_EM.0.9.8e:obj_dat.obj
 0002:000028a4       ??_C@_09PKOJIHLL@sect283r1?$AA@ 1008b8a4     libeay32_EM.0.9.8e:obj_dat.obj
 0002:000028b0       ??_C@_09OJBOBPEE@sect283k1?$AA@ 1008b8b0     libeay32_EM.0.9.8e:obj_dat.obj
 0002:000028bc       ??_C@_09PBHDMODB@sect239k1?$AA@ 1008b8bc     libeay32_EM.0.9.8e:obj_dat.obj
 0002:000028c8       ??_C@_09INDJLGKK@sect233r1?$AA@ 1008b8c8     libeay32_EM.0.9.8e:obj_dat.obj
 0002:000028d4       ??_C@_09JOMOCOFF@sect233k1?$AA@ 1008b8d4     libeay32_EM.0.9.8e:obj_dat.obj
 0002:000028e0       ??_C@_09GKDAIPGG@sect193r2?$AA@ 1008b8e0     libeay32_EM.0.9.8e:obj_dat.obj
 0002:000028ec       ??_C@_09EBBNNMKF@sect193r1?$AA@ 1008b8ec     libeay32_EM.0.9.8e:obj_dat.obj
 0002:000028f8       ??_C@_09OIGABILH@sect163r2?$AA@ 1008b8f8     libeay32_EM.0.9.8e:obj_dat.obj
 0002:00002904       ??_C@_09MDENELHE@sect163r1?$AA@ 1008b904     libeay32_EM.0.9.8e:obj_dat.obj
 0002:00002910       ??_C@_09NALKNDIL@sect163k1?$AA@ 1008b910     libeay32_EM.0.9.8e:obj_dat.obj
 0002:0000291c       ??_C@_09IKIJFPEM@sect131r2?$AA@ 1008b91c     libeay32_EM.0.9.8e:obj_dat.obj
 0002:00002928       ??_C@_09KBKEAMIP@sect131r1?$AA@ 1008b928     libeay32_EM.0.9.8e:obj_dat.obj
 0002:00002934       ??_C@_09FKEAMEKH@sect113r2?$AA@ 1008b934     libeay32_EM.0.9.8e:obj_dat.obj
 0002:00002940       ??_C@_09HBGNJHGE@sect113r1?$AA@ 1008b940     libeay32_EM.0.9.8e:obj_dat.obj
 0002:0000294c       ??_C@_09PDBKEDDK@secp521r1?$AA@ 1008b94c     libeay32_EM.0.9.8e:obj_dat.obj
 0002:00002958       ??_C@_09FICNEILE@secp384r1?$AA@ 1008b958     libeay32_EM.0.9.8e:obj_dat.obj
 0002:00002964       ??_C@_09NCBPAPNE@secp256k1?$AA@ 1008b964     libeay32_EM.0.9.8e:obj_dat.obj
 0002:00002970       ??_C@_09NJMBIDLA@secp224r1?$AA@ 1008b970     libeay32_EM.0.9.8e:obj_dat.obj
 0002:0000297c       ??_C@_09MKDGBLEP@secp224k1?$AA@ 1008b97c     libeay32_EM.0.9.8e:obj_dat.obj
 0002:00002988       ??_C@_09BOBJAHCM@secp192k1?$AA@ 1008b988     libeay32_EM.0.9.8e:obj_dat.obj
 0002:00002994       ??_C@_09OJKJDEK@secp160r2?$AA@ 1008b994     libeay32_EM.0.9.8e:obj_dat.obj
 0002:000029a0       ??_C@_09CFLHMAIJ@secp160r1?$AA@ 1008b9a0     libeay32_EM.0.9.8e:obj_dat.obj
 0002:000029ac       ??_C@_09DGEAFIHG@secp160k1?$AA@ 1008b9ac     libeay32_EM.0.9.8e:obj_dat.obj
 0002:000029b8       ??_C@_09DOKOBNGF@secp128r2?$AA@ 1008b9b8     libeay32_EM.0.9.8e:obj_dat.obj
 0002:000029c4       ??_C@_09BFIDEOKG@secp128r1?$AA@ 1008b9c4     libeay32_EM.0.9.8e:obj_dat.obj
 0002:000029d0       ??_C@_09BGLDIHNB@secp112r2?$AA@ 1008b9d0     libeay32_EM.0.9.8e:obj_dat.obj
 0002:000029dc       ??_C@_09DNJONEBC@secp112r1?$AA@ 1008b9dc     libeay32_EM.0.9.8e:obj_dat.obj
 0002:000029e8       ??_C@_0L@OFJKDCBG@c2tnb431r1?$AA@ 1008b9e8     libeay32_EM.0.9.8e:obj_dat.obj
 0002:000029f4       ??_C@_0L@BGFAFBLD@c2pnb368w1?$AA@ 1008b9f4     libeay32_EM.0.9.8e:obj_dat.obj
 0002:00002a00       ??_C@_0L@LFGCHHDN@c2tnb359v1?$AA@ 1008ba00     libeay32_EM.0.9.8e:obj_dat.obj
 0002:00002a0c       ??_C@_0L@NDMGBLKL@c2pnb304w1?$AA@ 1008ba0c     libeay32_EM.0.9.8e:obj_dat.obj
 0002:00002a18       ??_C@_0L@IPNBELMC@c2pnb272w1?$AA@ 1008ba18     libeay32_EM.0.9.8e:obj_dat.obj
 0002:00002a24       ??_C@_0L@LLIHEIJA@c2onb239v5?$AA@ 1008ba24     libeay32_EM.0.9.8e:obj_dat.obj
 0002:00002a30       ??_C@_0L@KCJMHJNB@c2onb239v4?$AA@ 1008ba30     libeay32_EM.0.9.8e:obj_dat.obj
 0002:00002a3c       ??_C@_0L@MDEIDDLK@c2tnb239v3?$AA@ 1008ba3c     libeay32_EM.0.9.8e:obj_dat.obj
 0002:00002a48       ??_C@_0L@NKFDACPL@c2tnb239v2?$AA@ 1008ba48     libeay32_EM.0.9.8e:obj_dat.obj
 0002:00002a54       ??_C@_0L@PBHOFBDI@c2tnb239v1?$AA@ 1008ba54     libeay32_EM.0.9.8e:obj_dat.obj
 0002:00002a60       ??_C@_0L@FCEMHHLG@c2pnb208w1?$AA@ 1008ba60     libeay32_EM.0.9.8e:obj_dat.obj
 0002:00002a6c       ??_C@_0L@LCBHAKHA@c2onb191v5?$AA@ 1008ba6c     libeay32_EM.0.9.8e:obj_dat.obj
 0002:00002a78       ??_C@_0L@KLAMDLDB@c2onb191v4?$AA@ 1008ba78     libeay32_EM.0.9.8e:obj_dat.obj
 0002:00002a84       ??_C@_0L@MKNIHBFK@c2tnb191v3?$AA@ 1008ba84     libeay32_EM.0.9.8e:obj_dat.obj
 0002:00002a90       ??_C@_0L@NDMDEABL@c2tnb191v2?$AA@ 1008ba90     libeay32_EM.0.9.8e:obj_dat.obj
 0002:00002a9c       ??_C@_0L@PIOOBDNI@c2tnb191v1?$AA@ 1008ba9c     libeay32_EM.0.9.8e:obj_dat.obj
 0002:00002aa8       ??_C@_0L@IHOFMEAM@c2pnb176v1?$AA@ 1008baa8     libeay32_EM.0.9.8e:obj_dat.obj
 0002:00002ab4       ??_C@_0L@LPGNHPAM@c2pnb163v3?$AA@ 1008bab4     libeay32_EM.0.9.8e:obj_dat.obj
 0002:00002ac0       ??_C@_0L@KGHGEOEN@c2pnb163v2?$AA@ 1008bac0     libeay32_EM.0.9.8e:obj_dat.obj
 0002:00002acc       ??_C@_0L@INFLBNIO@c2pnb163v1?$AA@ 1008bacc     libeay32_EM.0.9.8e:obj_dat.obj
 0002:00002ad8       ??_C@_07GLJEBFP@ppBasis?$AA@ 1008bad8     libeay32_EM.0.9.8e:obj_dat.obj
 0002:00002ae0       ??_C@_07ICPDEPKF@tpBasis?$AA@ 1008bae0     libeay32_EM.0.9.8e:obj_dat.obj
 0002:00002ae8       ??_C@_07JEMDIFEL@onBasis?$AA@ 1008bae8     libeay32_EM.0.9.8e:obj_dat.obj
 0002:00002af0       ??_C@_0BM@PPOCDOAJ@id?9characteristic?9two?9basis?$AA@ 1008baf0     libeay32_EM.0.9.8e:obj_dat.obj
 0002:00002b0c       ??_C@_07KJBJKKHG@wap?9wsg?$AA@ 1008bb0c     libeay32_EM.0.9.8e:obj_dat.obj
 0002:00002b14       ??_C@_03EOHJGACH@wap?$AA@  1008bb14     libeay32_EM.0.9.8e:obj_dat.obj
 0002:00002b18       ??_C@_0N@GOPBJFID@certicom?9arc?$AA@ 1008bb18     libeay32_EM.0.9.8e:obj_dat.obj
 0002:00002b28       ??_C@_0BI@NDBFOMIA@identified?9organization?$AA@ 1008bb28     libeay32_EM.0.9.8e:obj_dat.obj
 0002:00002b40       ??_C@_06DJABMLNO@sha224?$AA@ 1008bb40     libeay32_EM.0.9.8e:obj_dat.obj
 0002:00002b48       ??_C@_06DANBNIHA@SHA224?$AA@ 1008bb48     libeay32_EM.0.9.8e:obj_dat.obj
 0002:00002b50       ??_C@_06PAMKOKLI@sha512?$AA@ 1008bb50     libeay32_EM.0.9.8e:obj_dat.obj
 0002:00002b58       ??_C@_06PJBKPJBG@SHA512?$AA@ 1008bb58     libeay32_EM.0.9.8e:obj_dat.obj
 0002:00002b60       ??_C@_06IMCKCJGN@sha384?$AA@ 1008bb60     libeay32_EM.0.9.8e:obj_dat.obj
 0002:00002b68       ??_C@_06IFPKDKMD@SHA384?$AA@ 1008bb68     libeay32_EM.0.9.8e:obj_dat.obj
 0002:00002b70       ??_C@_06OHILPNJ@sha256?$AA@ 1008bb70     libeay32_EM.0.9.8e:obj_dat.obj
 0002:00002b78       ??_C@_06HKIKMHH@SHA256?$AA@ 1008bb78     libeay32_EM.0.9.8e:obj_dat.obj
 0002:00002b80       ??_C@_0BI@HODNLFBE@sha224WithRSAEncryption?$AA@ 1008bb80     libeay32_EM.0.9.8e:obj_dat.obj
 0002:00002b98       ??_C@_0L@BPFBIPIP@RSA?9SHA224?$AA@ 1008bb98     libeay32_EM.0.9.8e:obj_dat.obj
 0002:00002ba4       ??_C@_0BI@CFKPHFJF@sha512WithRSAEncryption?$AA@ 1008bba4     libeay32_EM.0.9.8e:obj_dat.obj
 0002:00002bbc       ??_C@_0L@NGJKKOOJ@RSA?9SHA512?$AA@ 1008bbbc     libeay32_EM.0.9.8e:obj_dat.obj
 0002:00002bc8       ??_C@_0BI@LGPCJGLE@sha384WithRSAEncryption?$AA@ 1008bbc8     libeay32_EM.0.9.8e:obj_dat.obj
 0002:00002be0       ??_C@_0L@KKHKGNDM@RSA?9SHA384?$AA@ 1008bbe0     libeay32_EM.0.9.8e:obj_dat.obj
 0002:00002bec       ??_C@_0BI@OLMNBFHG@sha256WithRSAEncryption?$AA@ 1008bbec     libeay32_EM.0.9.8e:obj_dat.obj
 0002:00002c04       ??_C@_0L@CICIPLII@RSA?9SHA256?$AA@ 1008bc04     libeay32_EM.0.9.8e:obj_dat.obj
 0002:00002c10       ??_C@_0M@MLMKHJLC@Independent?$AA@ 1008bc10     libeay32_EM.0.9.8e:obj_dat.obj
 0002:00002c1c       ??_C@_0BD@JMNHHICP@id?9ppl?9independent?$AA@ 1008bc1c     libeay32_EM.0.9.8e:obj_dat.obj
 0002:00002c30       ??_C@_0BI@MLJLAGL@X509v3?5Name?5Constraints?$AA@ 1008bc30     libeay32_EM.0.9.8e:obj_dat.obj
 0002:00002c48       ??_C@_0BA@NDBMPGLN@nameConstraints?$AA@ 1008bc48     libeay32_EM.0.9.8e:obj_dat.obj
 0002:00002c58       ??_C@_0M@FFLAPACB@Inherit?5all?$AA@ 1008bc58     libeay32_EM.0.9.8e:obj_dat.obj
 0002:00002c64       ??_C@_0BC@PCEJIIF@id?9ppl?9inheritAll?$AA@ 1008bc64     libeay32_EM.0.9.8e:obj_dat.obj
 0002:00002c78       ??_C@_0N@BEBFEGLC@Any?5language?$AA@ 1008bc78     libeay32_EM.0.9.8e:obj_dat.obj
 0002:00002c88       ??_C@_0BD@HNCKDFAM@id?9ppl?9anyLanguage?$AA@ 1008bc88     libeay32_EM.0.9.8e:obj_dat.obj
 0002:00002c9c       ??_C@_0BO@CCHFGBDO@Proxy?5Certificate?5Information?$AA@ 1008bc9c     libeay32_EM.0.9.8e:obj_dat.obj
 0002:00002cbc       ??_C@_0O@LOINHHBF@proxyCertInfo?$AA@ 1008bcbc     libeay32_EM.0.9.8e:obj_dat.obj
 0002:00002ccc       ??_C@_06CAAPGDCJ@id?9ppl?$AA@ 1008bccc     libeay32_EM.0.9.8e:obj_dat.obj
 0002:00002cd4       ??_C@_0L@NCDHJCMF@postalCode?$AA@ 1008bcd4     libeay32_EM.0.9.8e:obj_dat.obj
 0002:00002ce0       ??_C@_0O@GFJANBCD@streetAddress?$AA@ 1008bce0     libeay32_EM.0.9.8e:obj_dat.obj
 0002:00002cf0       ??_C@_0O@KGNFGAAA@des?9ede3?9cfb8?$AA@ 1008bcf0     libeay32_EM.0.9.8e:obj_dat.obj
 0002:00002d00       ??_C@_0O@KNJKKNCK@DES?9EDE3?9CFB8?$AA@ 1008bd00     libeay32_EM.0.9.8e:obj_dat.obj
 0002:00002d10       ??_C@_0O@HHBHNLEJ@des?9ede3?9cfb1?$AA@ 1008bd10     libeay32_EM.0.9.8e:obj_dat.obj
 0002:00002d20       ??_C@_0O@HMFIBGGD@DES?9EDE3?9CFB1?$AA@ 1008bd20     libeay32_EM.0.9.8e:obj_dat.obj
 0002:00002d30       ??_C@_08HKNDEPIP@des?9cfb8?$AA@ 1008bd30     libeay32_EM.0.9.8e:obj_dat.obj
 0002:00002d3c       ??_C@_08JHFHFADM@DES?9CFB8?$AA@ 1008bd3c     libeay32_EM.0.9.8e:obj_dat.obj
 0002:00002d48       ??_C@_08KLBBPEMG@des?9cfb1?$AA@ 1008bd48     libeay32_EM.0.9.8e:obj_dat.obj
 0002:00002d54       ??_C@_08EGJFOLHF@DES?9CFB1?$AA@ 1008bd54     libeay32_EM.0.9.8e:obj_dat.obj
 0002:00002d60       ??_C@_0N@GPAECIBG@aes?9256?9cfb8?$AA@ 1008bd60     libeay32_EM.0.9.8e:obj_dat.obj
 0002:00002d70       ??_C@_0N@BLGJPBBG@AES?9256?9CFB8?$AA@ 1008bd70     libeay32_EM.0.9.8e:obj_dat.obj
 0002:00002d80       ??_C@_0N@PFGJCFIP@aes?9192?9cfb8?$AA@ 1008bd80     libeay32_EM.0.9.8e:obj_dat.obj
 0002:00002d90       ??_C@_0N@IBAEPMIP@AES?9192?9CFB8?$AA@ 1008bd90     libeay32_EM.0.9.8e:obj_dat.obj
 0002:00002da0       ??_C@_0N@MHDGGJH@aes?9128?9cfb8?$AA@ 1008bda0     libeay32_EM.0.9.8e:obj_dat.obj
 0002:00002db0       ??_C@_0N@HIBOLPJH@AES?9128?9CFB8?$AA@ 1008bdb0     libeay32_EM.0.9.8e:obj_dat.obj
 0002:00002dc0       ??_C@_0N@LOMGJDFP@aes?9256?9cfb1?$AA@ 1008bdc0     libeay32_EM.0.9.8e:obj_dat.obj
 0002:00002dd0       ??_C@_0N@MKKLEKFP@AES?9256?9CFB1?$AA@ 1008bdd0     libeay32_EM.0.9.8e:obj_dat.obj
 0002:00002de0       ??_C@_0N@CEKLJOMG@aes?9192?9cfb1?$AA@ 1008bde0     libeay32_EM.0.9.8e:obj_dat.obj
 0002:00002df0       ??_C@_0N@FAMGEHMG@AES?9192?9CFB1?$AA@ 1008bdf0     libeay32_EM.0.9.8e:obj_dat.obj
 0002:00002e00       ??_C@_0N@NNLBNNNO@aes?9128?9cfb1?$AA@ 1008be00     libeay32_EM.0.9.8e:obj_dat.obj
 0002:00002e10       ??_C@_0N@KJNMAENO@AES?9128?9CFB1?$AA@ 1008be10     libeay32_EM.0.9.8e:obj_dat.obj
 0002:00002e20       ??_C@_0CD@POJHJMFG@Microsoft?5Universal?5Principal?5Na@ 1008be20     libeay32_EM.0.9.8e:obj_dat.obj
 0002:00002e44       ??_C@_05LKLAGLGM@msUPN?$AA@ 1008be44     libeay32_EM.0.9.8e:obj_dat.obj
 0002:00002e4c       ??_C@_0BJ@BHLLFCI@Microsoft?5Smartcardlogin?$AA@ 1008be4c     libeay32_EM.0.9.8e:obj_dat.obj
 0002:00002e68       ??_C@_0BB@MJPMDGHF@msSmartcardLogin?$AA@ 1008be68     libeay32_EM.0.9.8e:obj_dat.obj
 0002:00002e7c       ??_C@_0BM@PGMBEIHL@International?5Organizations?$AA@ 1008be7c     libeay32_EM.0.9.8e:obj_dat.obj
 0002:00002e98       ??_C@_0BM@PBBEOBAP@international?9organizations?$AA@ 1008be98     libeay32_EM.0.9.8e:obj_dat.obj
 0002:00002eb4       ??_C@_0BA@DDCJMADA@joint?9iso?9itu?9t?$AA@ 1008beb4     libeay32_EM.0.9.8e:obj_dat.obj
 0002:00002ec4       ??_C@_0BA@NPJCPIN@JOINT?9ISO?9ITU?9T?$AA@ 1008bec4     libeay32_EM.0.9.8e:obj_dat.obj
 0002:00002ed4       ??_C@_05EKLDHPCO@itu?9t?$AA@ 1008bed4     libeay32_EM.0.9.8e:obj_dat.obj
 0002:00002edc       ??_C@_05LJGINOIA@ITU?9T?$AA@ 1008bedc     libeay32_EM.0.9.8e:obj_dat.obj
 0002:00002ee4       ??_C@_0BF@EIIDBKMM@rsaOAEPEncryptionSET?$AA@ 1008bee4     libeay32_EM.0.9.8e:obj_dat.obj
 0002:00002efc       ??_C@_08PPLOLAOD@des?9cdmf?$AA@ 1008befc     libeay32_EM.0.9.8e:obj_dat.obj
 0002:00002f08       ??_C@_08IHLOILPC@DES?9CDMF?$AA@ 1008bf08     libeay32_EM.0.9.8e:obj_dat.obj
 0002:00002f14       ??_C@_0BA@JHOGHBHC@set?9brand?9Novus?$AA@ 1008bf14     libeay32_EM.0.9.8e:obj_dat.obj
 0002:00002f24       ??_C@_0BF@EKCBHCKG@set?9brand?9MasterCard?$AA@ 1008bf24     libeay32_EM.0.9.8e:obj_dat.obj
 0002:00002f3c       ??_C@_0P@KADKEMKM@set?9brand?9Visa?$AA@ 1008bf3c     libeay32_EM.0.9.8e:obj_dat.obj
 0002:00002f4c       ??_C@_0O@ODFDKJIN@set?9brand?9JCB?$AA@ 1008bf4c     libeay32_EM.0.9.8e:obj_dat.obj
 0002:00002f5c       ??_C@_0BK@NGHCPIFJ@set?9brand?9AmericanExpress?$AA@ 1008bf5c     libeay32_EM.0.9.8e:obj_dat.obj
 0002:00002f78       ??_C@_0BB@MJOMIBOM@set?9brand?9Diners?$AA@ 1008bf78     libeay32_EM.0.9.8e:obj_dat.obj
 0002:00002f8c       ??_C@_0BD@EBDAHFCK@set?9brand?9IATA?9ATA?$AA@ 1008bf8c     libeay32_EM.0.9.8e:obj_dat.obj
 0002:00002fa0       ??_C@_0BI@BMDLNIII@secure?5device?5signature?$AA@ 1008bfa0     libeay32_EM.0.9.8e:obj_dat.obj
 0002:00002fb8       ??_C@_0BC@HILPEDHB@setAttr?9SecDevSig?$AA@ 1008bfb8     libeay32_EM.0.9.8e:obj_dat.obj
 0002:00002fcc       ??_C@_0BH@FLMFBHA@ICC?5or?5token?5signature?$AA@ 1008bfcc     libeay32_EM.0.9.8e:obj_dat.obj
 0002:00002fe4       ??_C@_0BC@KFHJNGAA@setAttr?9TokICCsig?$AA@ 1008bfe4     libeay32_EM.0.9.8e:obj_dat.obj
 0002:00002ff8       ??_C@_0BC@EEELFHMJ@cleartext?5track?52?$AA@ 1008bff8     libeay32_EM.0.9.8e:obj_dat.obj
 0002:0000300c       ??_C@_0BD@GDDCOMNC@setAttr?9T2cleartxt?$AA@ 1008c00c     libeay32_EM.0.9.8e:obj_dat.obj
 0002:00003020       ??_C@_0BC@MCHFBPJF@encrypted?5track?52?$AA@ 1008c020     libeay32_EM.0.9.8e:obj_dat.obj
 0002:00003034       ??_C@_0O@GFEDKLID@setAttr?9T2Enc?$AA@ 1008c034     libeay32_EM.0.9.8e:obj_dat.obj
 0002:00003044       ??_C@_0BE@BANBLNDJ@generate?5cryptogram?$AA@ 1008c044     libeay32_EM.0.9.8e:obj_dat.obj
 0002:00003058       ??_C@_0BE@FJCINFHM@setAttr?9GenCryptgrm?$AA@ 1008c058     libeay32_EM.0.9.8e:obj_dat.obj
 0002:0000306c       ??_C@_0BD@DMNGIJGO@setAttr?9IssCap?9Sig?$AA@ 1008c06c     libeay32_EM.0.9.8e:obj_dat.obj
 0002:00003080       ??_C@_0BC@FKLLNJMF@setAttr?9IssCap?9T2?$AA@ 1008c080     libeay32_EM.0.9.8e:obj_dat.obj
 0002:00003094       ??_C@_0BD@CMJDLAHE@setAttr?9IssCap?9CVM?$AA@ 1008c094     libeay32_EM.0.9.8e:obj_dat.obj
 0002:000030a8       ??_C@_0BG@ICNBHDJ@setAttr?9Token?9B0Prime?$AA@ 1008c0a8     libeay32_EM.0.9.8e:obj_dat.obj
 0002:000030c0       ??_C@_0BC@BMANBENP@setAttr?9Token?9EMV?$AA@ 1008c0c0     libeay32_EM.0.9.8e:obj_dat.obj
 0002:000030d4       ??_C@_0O@NOCONBCM@set?9addPolicy?$AA@ 1008c0d4     libeay32_EM.0.9.8e:obj_dat.obj
 0002:000030e4       ??_C@_0BB@MADMNAKK@set?9rootKeyThumb?$AA@ 1008c0e4     libeay32_EM.0.9.8e:obj_dat.obj
 0002:000030f8       ??_C@_0BE@HBDPGKCG@issuer?5capabilities?$AA@ 1008c0f8     libeay32_EM.0.9.8e:obj_dat.obj
 0002:0000310c       ??_C@_0P@OGFLCCKL@setAttr?9IssCap?$AA@ 1008c10c     libeay32_EM.0.9.8e:obj_dat.obj
 0002:0000311c       ??_C@_0BC@IKOKMCIL@setAttr?9TokenType?$AA@ 1008c11c     libeay32_EM.0.9.8e:obj_dat.obj
 0002:00003130       ??_C@_0BN@HEFBDPEB@payment?5gateway?5capabilities?$AA@ 1008c130     libeay32_EM.0.9.8e:obj_dat.obj
 0002:00003150       ??_C@_0BA@FAIFDKDK@setAttr?9PGWYcap?$AA@ 1008c150     libeay32_EM.0.9.8e:obj_dat.obj
 0002:00003160       ??_C@_0N@DCNKAAPN@setAttr?9Cert?$AA@ 1008c160     libeay32_EM.0.9.8e:obj_dat.obj
 0002:00003170       ??_C@_0BL@OLCLGJDA@setCext?9IssuerCapabilities?$AA@ 1008c170     libeay32_EM.0.9.8e:obj_dat.obj
 0002:0000318c       ??_C@_0BC@KMFGLCBL@setCext?9TokenType?$AA@ 1008c18c     libeay32_EM.0.9.8e:obj_dat.obj
 0002:000031a0       ??_C@_0BD@FHFLAKJD@setCext?9Track2Data?$AA@ 1008c1a0     libeay32_EM.0.9.8e:obj_dat.obj
 0002:000031b4       ??_C@_0BI@FIIEHNL@setCext?9TokenIdentifier?$AA@ 1008c1b4     libeay32_EM.0.9.8e:obj_dat.obj
 0002:000031cc       ??_C@_0BJ@CNLNHONG@setCext?9PGWYcapabilities?$AA@ 1008c1cc     libeay32_EM.0.9.8e:obj_dat.obj
 0002:000031e8       ??_C@_0BB@HIAOOOIO@setCext?9setQualf?$AA@ 1008c1e8     libeay32_EM.0.9.8e:obj_dat.obj
 0002:000031fc       ??_C@_0P@DFHCPLJG@setCext?9setExt?$AA@ 1008c1fc     libeay32_EM.0.9.8e:obj_dat.obj
 0002:0000320c       ??_C@_0BC@BPADJLFJ@setCext?9tunneling?$AA@ 1008c20c     libeay32_EM.0.9.8e:obj_dat.obj
 0002:00003220       ??_C@_0BG@CMNKGOHO@setCext?9cCertRequired?$AA@ 1008c220     libeay32_EM.0.9.8e:obj_dat.obj
 0002:00003238       ??_C@_0BC@ONMLOIHK@setCext?9merchData?$AA@ 1008c238     libeay32_EM.0.9.8e:obj_dat.obj
 0002:0000324c       ??_C@_0BB@LHGCHNFD@setCext?9certType?$AA@ 1008c24c     libeay32_EM.0.9.8e:obj_dat.obj
 0002:00003260       ??_C@_0BD@MELPLACB@setCext?9hashedRoot?$AA@ 1008c260     libeay32_EM.0.9.8e:obj_dat.obj
 0002:00003274       ??_C@_0BA@DLJGCPKK@set?9policy?9root?$AA@ 1008c274     libeay32_EM.0.9.8e:obj_dat.obj
 0002:00003284       ??_C@_0BI@MFPOFNGC@additional?5verification?$AA@ 1008c284     libeay32_EM.0.9.8e:obj_dat.obj
 0002:0000329c       ??_C@_09GMOEIEJI@setext?9cv?$AA@ 1008c29c     libeay32_EM.0.9.8e:obj_dat.obj
 0002:000032a8       ??_C@_0O@PNAFPHHK@setext?9track2?$AA@ 1008c2a8     libeay32_EM.0.9.8e:obj_dat.obj
 0002:000032b8       ??_C@_0O@PNHGIFHA@setext?9pinAny?$AA@ 1008c2b8     libeay32_EM.0.9.8e:obj_dat.obj
 0002:000032c8       ??_C@_0BB@IKLFBNP@setext?9pinSecure?$AA@ 1008c2c8     libeay32_EM.0.9.8e:obj_dat.obj
 0002:000032dc       ??_C@_0BI@IMGNFPLI@merchant?5initiated?5auth?$AA@ 1008c2dc     libeay32_EM.0.9.8e:obj_dat.obj
 0002:000032f4       ??_C@_0O@IFMPKKOL@setext?9miAuth?$AA@ 1008c2f4     libeay32_EM.0.9.8e:obj_dat.obj
 0002:00003304       ??_C@_0BD@IMJHIOH@generic?5cryptogram?$AA@ 1008c304     libeay32_EM.0.9.8e:obj_dat.obj
 0002:00003318       ??_C@_0BA@NKJJMGPC@setext?9genCrypt?$AA@ 1008c318     libeay32_EM.0.9.8e:obj_dat.obj
 0002:00003328       ??_C@_0BJ@BPGLEKIJ@setct?9BCIDistributionTBS?$AA@ 1008c328     libeay32_EM.0.9.8e:obj_dat.obj
 0002:00003344       ??_C@_0BM@GINBKIMJ@setct?9CRLNotificationResTBS?$AA@ 1008c344     libeay32_EM.0.9.8e:obj_dat.obj
 0002:00003360       ??_C@_0BJ@KMIJGANO@setct?9CRLNotificationTBS?$AA@ 1008c360     libeay32_EM.0.9.8e:obj_dat.obj
 0002:0000337c       ??_C@_0BB@KEDMFAIN@setct?9CertResTBE?$AA@ 1008c37c     libeay32_EM.0.9.8e:obj_dat.obj
 0002:00003390       ??_C@_0BC@KMAHLFJK@setct?9CertReqTBEX?$AA@ 1008c390     libeay32_EM.0.9.8e:obj_dat.obj
 0002:000033a4       ??_C@_0BB@NOPMADON@setct?9CertReqTBE?$AA@ 1008c3a4     libeay32_EM.0.9.8e:obj_dat.obj
 0002:000033b8       ??_C@_0BE@MIADHNEP@setct?9RegFormReqTBE?$AA@ 1008c3b8     libeay32_EM.0.9.8e:obj_dat.obj
 0002:000033cc       ??_C@_0BH@PFFPEIML@setct?9BatchAdminResTBE?$AA@ 1008c3cc     libeay32_EM.0.9.8e:obj_dat.obj
 0002:000033e4       ??_C@_0BH@IPJPBLKL@setct?9BatchAdminReqTBE?$AA@ 1008c3e4     libeay32_EM.0.9.8e:obj_dat.obj
 0002:000033fc       ??_C@_0BE@MGLMPAHD@setct?9CredRevResTBE?$AA@ 1008c3fc     libeay32_EM.0.9.8e:obj_dat.obj
 0002:00003410       ??_C@_0BF@PGGAOKCB@setct?9CredRevReqTBEX?$AA@ 1008c410     libeay32_EM.0.9.8e:obj_dat.obj
 0002:00003428       ??_C@_0BE@LMHMKDBD@setct?9CredRevReqTBE?$AA@ 1008c428     libeay32_EM.0.9.8e:obj_dat.obj
 0002:0000343c       ??_C@_0BB@NFFENEIP@setct?9CredResTBE?$AA@ 1008c43c     libeay32_EM.0.9.8e:obj_dat.obj
 0002:00003450       ??_C@_0BC@ECHILMDC@setct?9CredReqTBEX?$AA@ 1008c450     libeay32_EM.0.9.8e:obj_dat.obj
 0002:00003464       ??_C@_0BB@KPJEIHOP@setct?9CredReqTBE?$AA@ 1008c464     libeay32_EM.0.9.8e:obj_dat.obj
 0002:00003478       ??_C@_0BD@GIBDNMDG@setct?9CapRevResTBE?$AA@ 1008c478     libeay32_EM.0.9.8e:obj_dat.obj
 0002:0000348c       ??_C@_0BE@PAHIPABC@setct?9CapRevReqTBEX?$AA@ 1008c48c     libeay32_EM.0.9.8e:obj_dat.obj
 0002:000034a0       ??_C@_0BD@BCNDIPFG@setct?9CapRevReqTBE?$AA@ 1008c4a0     libeay32_EM.0.9.8e:obj_dat.obj
 0002:000034b4       ??_C@_0BA@MEFGIEBL@setct?9CapResTBE?$AA@ 1008c4b4     libeay32_EM.0.9.8e:obj_dat.obj
 0002:000034c4       ??_C@_0BB@LFALOJDP@setct?9CapReqTBEX?$AA@ 1008c4c4     libeay32_EM.0.9.8e:obj_dat.obj
 0002:000034d8       ??_C@_0BA@LOJGNHHL@setct?9CapReqTBE?$AA@ 1008c4d8     libeay32_EM.0.9.8e:obj_dat.obj
 0002:000034e8       ??_C@_0BF@KKFFJIHO@setct?9AuthRevResTBEB?$AA@ 1008c4e8     libeay32_EM.0.9.8e:obj_dat.obj
 0002:00003500       ??_C@_0BE@MHAGABNC@setct?9AuthRevResTBE?$AA@ 1008c500     libeay32_EM.0.9.8e:obj_dat.obj
 0002:00003514       ??_C@_0BE@LNMGFCLC@setct?9AuthRevReqTBE?$AA@ 1008c514     libeay32_EM.0.9.8e:obj_dat.obj
 0002:00003528       ??_C@_0BI@PALCIALL@setct?9AcqCardCodeMsgTBE?$AA@ 1008c528     libeay32_EM.0.9.8e:obj_dat.obj
 0002:00003540       ??_C@_0BD@OMCOOIME@setct?9CapTokenTBEX?$AA@ 1008c540     libeay32_EM.0.9.8e:obj_dat.obj
 0002:00003554       ??_C@_0BC@CIKKDLAH@setct?9CapTokenTBE?$AA@ 1008c554     libeay32_EM.0.9.8e:obj_dat.obj
 0002:00003568       ??_C@_0BD@DHGMJDKO@setct?9AuthTokenTBE?$AA@ 1008c568     libeay32_EM.0.9.8e:obj_dat.obj
 0002:0000357c       ??_C@_0BC@OEOIIPOH@setct?9AuthResTBEX?$AA@ 1008c57c     libeay32_EM.0.9.8e:obj_dat.obj
 0002:00003590       ??_C@_0BB@IDPADFEK@setct?9AuthResTBE?$AA@ 1008c590     libeay32_EM.0.9.8e:obj_dat.obj
 0002:000035a4       ??_C@_0BB@PJDAGGCK@setct?9AuthReqTBE?$AA@ 1008c5a4     libeay32_EM.0.9.8e:obj_dat.obj
 0002:000035b8       ??_C@_0BE@IBOAPLDD@setct?9PIUnsignedTBE?$AA@ 1008c5b8     libeay32_EM.0.9.8e:obj_dat.obj
 0002:000035cc       ??_C@_0BG@JDDNBPAG@setct?9PIDualSignedTBE?$AA@ 1008c5cc     libeay32_EM.0.9.8e:obj_dat.obj
 0002:000035e4       ??_C@_0P@DLHKHMDJ@setct?9ErrorTBS?$AA@ 1008c5e4     libeay32_EM.0.9.8e:obj_dat.obj
 0002:000035f4       ??_C@_0BE@OIDIJLCF@setct?9CertInqReqTBS?$AA@ 1008c5f4     libeay32_EM.0.9.8e:obj_dat.obj
 0002:00003608       ??_C@_0BC@BIIFIBNO@setct?9CertResData?$AA@ 1008c608     libeay32_EM.0.9.8e:obj_dat.obj
 0002:0000361c       ??_C@_0BB@MCGELGDK@setct?9CertReqTBS?$AA@ 1008c61c     libeay32_EM.0.9.8e:obj_dat.obj
 0002:00003630       ??_C@_0BC@FFENCANF@setct?9CertReqData?$AA@ 1008c630     libeay32_EM.0.9.8e:obj_dat.obj
 0002:00003644       ??_C@_0BE@KOFLJLPI@setct?9RegFormResTBS?$AA@ 1008c644     libeay32_EM.0.9.8e:obj_dat.obj
 0002:00003658       ??_C@_0BG@DIBJJIJB@setct?9MeAqCInitResTBS?$AA@ 1008c658     libeay32_EM.0.9.8e:obj_dat.obj
 0002:00003670       ??_C@_0BG@OMHIHPPP@setct?9CardCInitResTBS?$AA@ 1008c670     libeay32_EM.0.9.8e:obj_dat.obj
 0002:00003688       ??_C@_0BI@IHGLAGGD@setct?9BatchAdminResData?$AA@ 1008c688     libeay32_EM.0.9.8e:obj_dat.obj
 0002:000036a0       ??_C@_0BI@MKKDKHGI@setct?9BatchAdminReqData?$AA@ 1008c6a0     libeay32_EM.0.9.8e:obj_dat.obj
 0002:000036b8       ??_C@_0BC@CFHCKIIA@setct?9PCertResTBS?$AA@ 1008c6b8     libeay32_EM.0.9.8e:obj_dat.obj
 0002:000036cc       ??_C@_0BD@DDNGMNFC@setct?9PCertReqData?$AA@ 1008c6cc     libeay32_EM.0.9.8e:obj_dat.obj
 0002:000036e0       ??_C@_0BF@ECOCNOGF@setct?9CredRevResData?$AA@ 1008c6e0     libeay32_EM.0.9.8e:obj_dat.obj
 0002:000036f8       ??_C@_0BF@OOMLDFOD@setct?9CredRevReqTBSX?$AA@ 1008c6f8     libeay32_EM.0.9.8e:obj_dat.obj
 0002:00003710       ??_C@_0BE@KAOEBGME@setct?9CredRevReqTBS?$AA@ 1008c710     libeay32_EM.0.9.8e:obj_dat.obj
 0002:00003724       ??_C@_0BC@PGPKIIHG@setct?9CredResData?$AA@ 1008c724     libeay32_EM.0.9.8e:obj_dat.obj
 0002:00003738       ??_C@_0BC@FKNDGDPA@setct?9CredReqTBSX?$AA@ 1008c738     libeay32_EM.0.9.8e:obj_dat.obj
 0002:0000374c       ??_C@_0BB@LDAMDCDI@setct?9CredReqTBS?$AA@ 1008c74c     libeay32_EM.0.9.8e:obj_dat.obj
 0002:00003760       ??_C@_0BE@EEPKMEFG@setct?9CapRevResData?$AA@ 1008c760     libeay32_EM.0.9.8e:obj_dat.obj
 0002:00003774       ??_C@_0BE@OINDCPNA@setct?9CapRevReqTBSX?$AA@ 1008c774     libeay32_EM.0.9.8e:obj_dat.obj
 0002:00003788       ??_C@_0BD@OELDKIB@setct?9CapRevReqTBS?$AA@ 1008c788     libeay32_EM.0.9.8e:obj_dat.obj
 0002:0000379c       ??_C@_0BB@BIJNNHL@setct?9CapResData?$AA@ 1008c79c     libeay32_EM.0.9.8e:obj_dat.obj
 0002:000037b0       ??_C@_0BB@KNKADGPN@setct?9CapReqTBSX?$AA@ 1008c7b0     libeay32_EM.0.9.8e:obj_dat.obj
 0002:000037c4       ??_C@_0BA@KCAOGCKM@setct?9CapReqTBS?$AA@ 1008c7c4     libeay32_EM.0.9.8e:obj_dat.obj
 0002:000037d4       ??_C@_0BE@NLJOLEAF@setct?9AuthRevResTBS?$AA@ 1008c7d4     libeay32_EM.0.9.8e:obj_dat.obj
 0002:000037e8       ??_C@_0BF@ODDCPHOK@setct?9AuthRevResData?$AA@ 1008c7e8     libeay32_EM.0.9.8e:obj_dat.obj
 0002:00003800       ??_C@_0BE@KBFOOHGF@setct?9AuthRevReqTBS?$AA@ 1008c800     libeay32_EM.0.9.8e:obj_dat.obj
 0002:00003814       ??_C@_0BF@LAOAGKEH@setct?9AcqCardCodeMsg?$AA@ 1008c814     libeay32_EM.0.9.8e:obj_dat.obj
 0002:0000382c       ??_C@_0BC@DEDCIONA@setct?9CapTokenTBS?$AA@ 1008c82c     libeay32_EM.0.9.8e:obj_dat.obj
 0002:00003840       ??_C@_0BD@BFGEHNIL@setct?9CapTokenData?$AA@ 1008c840     libeay32_EM.0.9.8e:obj_dat.obj
 0002:00003854       ??_C@_0BD@CLPECGHJ@setct?9AuthTokenTBS?$AA@ 1008c854     libeay32_EM.0.9.8e:obj_dat.obj
 0002:00003868       ??_C@_0BC@PMEDFACF@setct?9AuthResTBSX?$AA@ 1008c868     libeay32_EM.0.9.8e:obj_dat.obj
 0002:0000387c       ??_C@_0BB@JPGIIAJN@setct?9AuthResTBS?$AA@ 1008c87c     libeay32_EM.0.9.8e:obj_dat.obj
 0002:00003890       ??_C@_0BB@OFKINDPN@setct?9AuthReqTBS?$AA@ 1008c890     libeay32_EM.0.9.8e:obj_dat.obj
 0002:000038a4       ??_C@_0P@NGDEPBBH@setct?9PResData?$AA@ 1008c8a4     libeay32_EM.0.9.8e:obj_dat.obj
 0002:000038b4       ??_C@_0N@GIGHFPBJ@setct?9PI?9TBS?$AA@ 1008c8b4     libeay32_EM.0.9.8e:obj_dat.obj
 0002:000038c4       ??_C@_0BD@GIEGHJGD@setct?9PInitResData?$AA@ 1008c8c4     libeay32_EM.0.9.8e:obj_dat.obj
 0002:000038d8       ??_C@_0BC@DDFFKACM@setct?9CapTokenSeq?$AA@ 1008c8d8     libeay32_EM.0.9.8e:obj_dat.obj
 0002:000038ec       ??_C@_0BI@CNLKCNFM@setct?9AuthRevResBaggage?$AA@ 1008c8ec     libeay32_EM.0.9.8e:obj_dat.obj
 0002:00003904       ??_C@_0BI@DEMAFNK@setct?9AuthRevReqBaggage?$AA@ 1008c904     libeay32_EM.0.9.8e:obj_dat.obj
 0002:0000391c       ??_C@_0BF@EFHLGKOJ@setct?9AuthResBaggage?$AA@ 1008c91c     libeay32_EM.0.9.8e:obj_dat.obj
 0002:00003934       ??_C@_0P@LPBKKIBL@setct?9HODInput?$AA@ 1008c934     libeay32_EM.0.9.8e:obj_dat.obj
 0002:00003944       ??_C@_0BF@BDFGFMFJ@setct?9PIDataUnsigned?$AA@ 1008c944     libeay32_EM.0.9.8e:obj_dat.obj
 0002:0000395c       ??_C@_0N@PGCGIPOF@setct?9PIData?$AA@ 1008c95c     libeay32_EM.0.9.8e:obj_dat.obj
 0002:0000396c       ??_C@_08MNJJNIEC@setct?9PI?$AA@ 1008c96c     libeay32_EM.0.9.8e:obj_dat.obj
 0002:00003978       ??_C@_0N@GHLAGDMC@setct?9OIData?$AA@ 1008c978     libeay32_EM.0.9.8e:obj_dat.obj
 0002:00003988       ??_C@_0O@PFJCCKAL@setct?9PANOnly?$AA@ 1008c988     libeay32_EM.0.9.8e:obj_dat.obj
 0002:00003998       ??_C@_0P@LAMDLEMO@setct?9PANToken?$AA@ 1008c998     libeay32_EM.0.9.8e:obj_dat.obj
 0002:000039a8       ??_C@_0O@EKAPGBNN@setct?9PANData?$AA@ 1008c9a8     libeay32_EM.0.9.8e:obj_dat.obj
 0002:000039b8       ??_C@_09JHODGPNO@set?9brand?$AA@ 1008c9b8     libeay32_EM.0.9.8e:obj_dat.obj
 0002:000039c4       ??_C@_0BH@PDPIEGPA@certificate?5extensions?$AA@ 1008c9c4     libeay32_EM.0.9.8e:obj_dat.obj
 0002:000039dc       ??_C@_0M@KEIBDDC@set?9certExt?$AA@ 1008c9dc     libeay32_EM.0.9.8e:obj_dat.obj
 0002:000039e8       ??_C@_0L@LAAAKICM@set?9policy?$AA@ 1008c9e8     libeay32_EM.0.9.8e:obj_dat.obj
 0002:000039f4       ??_C@_08OFDIOKIA@set?9attr?$AA@ 1008c9f4     libeay32_EM.0.9.8e:obj_dat.obj
 0002:00003a00       ??_C@_0BD@LEIDLLNO@message?5extensions?$AA@ 1008ca00     libeay32_EM.0.9.8e:obj_dat.obj
 0002:00003a14       ??_C@_0L@PKPEIEIJ@set?9msgExt?$AA@ 1008ca14     libeay32_EM.0.9.8e:obj_dat.obj
 0002:00003a20       ??_C@_0O@HJGLMADJ@content?5types?$AA@ 1008ca20     libeay32_EM.0.9.8e:obj_dat.obj
 0002:00003a30       ??_C@_09EJPBIJJA@set?9ctype?$AA@ 1008ca30     libeay32_EM.0.9.8e:obj_dat.obj
 0002:00003a3c       ??_C@_0BP@KEIHJPNF@Secure?5Electronic?5Transactions?$AA@ 1008ca3c     libeay32_EM.0.9.8e:obj_dat.obj
 0002:00003a5c       ??_C@_06KKEMDFAF@id?9set?$AA@ 1008ca5c     libeay32_EM.0.9.8e:obj_dat.obj
 0002:00003a64       ??_C@_09NNMENHIH@pseudonym?$AA@ 1008ca64     libeay32_EM.0.9.8e:obj_dat.obj
 0002:00003a70       ??_C@_0BE@DAEHFOO@generationQualifier?$AA@ 1008ca70     libeay32_EM.0.9.8e:obj_dat.obj
 0002:00003a84       ??_C@_0BJ@KCNAIDP@id?9hex?9multipart?9message?$AA@ 1008ca84     libeay32_EM.0.9.8e:obj_dat.obj
 0002:00003aa0       ??_C@_0BH@ILCJEHBB@id?9hex?9partial?9message?$AA@ 1008caa0     libeay32_EM.0.9.8e:obj_dat.obj
 0002:00003ab8       ??_C@_0BA@MOFCNIEE@mime?9mhs?9bodies?$AA@ 1008cab8     libeay32_EM.0.9.8e:obj_dat.obj
 0002:00003ac8       ??_C@_0BC@NIFMCBEJ@mime?9mhs?9headings?$AA@ 1008cac8     libeay32_EM.0.9.8e:obj_dat.obj
 0002:00003adc       ??_C@_08DNBACEKK@MIME?5MHS?$AA@ 1008cadc     libeay32_EM.0.9.8e:obj_dat.obj
 0002:00003ae8       ??_C@_08HLONPBDI@mime?9mhs?$AA@ 1008cae8     libeay32_EM.0.9.8e:obj_dat.obj
 0002:00003af4       ??_C@_0BF@EFCCADKK@x500UniqueIdentifier?$AA@ 1008caf4     libeay32_EM.0.9.8e:obj_dat.obj
 0002:00003b0c       ??_C@_0BC@KCCHJGGO@documentPublisher?$AA@ 1008cb0c     libeay32_EM.0.9.8e:obj_dat.obj
 0002:00003b20       ??_C@_05KNIAAKIP@audio?$AA@ 1008cb20     libeay32_EM.0.9.8e:obj_dat.obj
 0002:00003b28       ??_C@_0M@KIABODOB@dITRedirect?$AA@ 1008cb28     libeay32_EM.0.9.8e:obj_dat.obj
 0002:00003b34       ??_C@_0BC@CBOFINFC@personalSignature?$AA@ 1008cb34     libeay32_EM.0.9.8e:obj_dat.obj
 0002:00003b48       ??_C@_0BG@FLFPEGPE@subtreeMaximumQuality?$AA@ 1008cb48     libeay32_EM.0.9.8e:obj_dat.obj
 0002:00003b60       ??_C@_0BG@HMOECBMF@subtreeMinimumQuality?$AA@ 1008cb60     libeay32_EM.0.9.8e:obj_dat.obj
 0002:00003b78       ??_C@_0BD@EHDOPADK@singleLevelQuality?$AA@ 1008cb78     libeay32_EM.0.9.8e:obj_dat.obj
 0002:00003b8c       ??_C@_0L@LMCCHBHL@dSAQuality?$AA@ 1008cb8c     libeay32_EM.0.9.8e:obj_dat.obj
 0002:00003b98       ??_C@_0N@POAALOHC@buildingName?$AA@ 1008cb98     libeay32_EM.0.9.8e:obj_dat.obj
 0002:00003ba8       ??_C@_0BF@OFOHKDCI@mailPreferenceOption?$AA@ 1008cba8     libeay32_EM.0.9.8e:obj_dat.obj
 0002:00003bc0       ??_C@_0N@DGNBNBGJ@janetMailbox?$AA@ 1008cbc0     libeay32_EM.0.9.8e:obj_dat.obj
 0002:00003bd0       ??_C@_0BF@IANLBJMF@organizationalStatus?$AA@ 1008cbd0     libeay32_EM.0.9.8e:obj_dat.obj
 0002:00003be8       ??_C@_0BE@MGDAFGCM@friendlyCountryName?$AA@ 1008cbe8     libeay32_EM.0.9.8e:obj_dat.obj
 0002:00003bfc       ??_C@_0BF@JICDDEFM@pagerTelephoneNumber?$AA@ 1008cbfc     libeay32_EM.0.9.8e:obj_dat.obj
 0002:00003c14       ??_C@_0BG@DCPABLLG@mobileTelephoneNumber?$AA@ 1008cc14     libeay32_EM.0.9.8e:obj_dat.obj
 0002:00003c2c       ??_C@_0O@CCHLDBGG@personalTitle?$AA@ 1008cc2c     libeay32_EM.0.9.8e:obj_dat.obj
 0002:00003c3c       ??_C@_0BC@NPJKACJF@homePostalAddress?$AA@ 1008cc3c     libeay32_EM.0.9.8e:obj_dat.obj
 0002:00003c50       ??_C@_0P@OJOOFNGB@associatedName?$AA@ 1008cc50     libeay32_EM.0.9.8e:obj_dat.obj
 0002:00003c60       ??_C@_0BB@MEFMIBKO@associatedDomain?$AA@ 1008cc60     libeay32_EM.0.9.8e:obj_dat.obj
 0002:00003c74       ??_C@_0M@GHEAGPOE@cNAMERecord?$AA@ 1008cc74     libeay32_EM.0.9.8e:obj_dat.obj
 0002:00003c80       ??_C@_09OCFHDJJF@sOARecord?$AA@ 1008cc80     libeay32_EM.0.9.8e:obj_dat.obj
 0002:00003c8c       ??_C@_08FBLONLGA@nSRecord?$AA@ 1008cc8c     libeay32_EM.0.9.8e:obj_dat.obj
 0002:00003c98       ??_C@_08DFFJPLPD@mXRecord?$AA@ 1008cc98     libeay32_EM.0.9.8e:obj_dat.obj
 0002:00003ca4       ??_C@_0BF@MIIMJDJB@pilotAttributeType27?$AA@ 1008cca4     libeay32_EM.0.9.8e:obj_dat.obj
 0002:00003cbc       ??_C@_07IBNMBOJB@aRecord?$AA@ 1008ccbc     libeay32_EM.0.9.8e:obj_dat.obj
 0002:00003cc4       ??_C@_0P@ECLEJAJJ@lastModifiedBy?$AA@ 1008ccc4     libeay32_EM.0.9.8e:obj_dat.obj
 0002:00003cd4       ??_C@_0BB@LHLABCIP@lastModifiedTime?$AA@ 1008ccd4     libeay32_EM.0.9.8e:obj_dat.obj
 0002:00003ce8       ??_C@_0N@CEOKELFP@otherMailbox?$AA@ 1008cce8     libeay32_EM.0.9.8e:obj_dat.obj
 0002:00003cf8       ??_C@_09EMBFDNKC@secretary?$AA@ 1008ccf8     libeay32_EM.0.9.8e:obj_dat.obj
 0002:00003d04       ??_C@_0BE@CPLAKLNE@homeTelephoneNumber?$AA@ 1008cd04     libeay32_EM.0.9.8e:obj_dat.obj
 0002:00003d18       ??_C@_0BB@COFKDFJ@documentLocation?$AA@ 1008cd18     libeay32_EM.0.9.8e:obj_dat.obj
 0002:00003d2c       ??_C@_0P@DABDJKFB@documentAuthor?$AA@ 1008cd2c     libeay32_EM.0.9.8e:obj_dat.obj
 0002:00003d3c       ??_C@_0BA@GHOLKFM@documentVersion?$AA@ 1008cd3c     libeay32_EM.0.9.8e:obj_dat.obj
 0002:00003d4c       ??_C@_0O@BDIDABAC@documentTitle?$AA@ 1008cd4c     libeay32_EM.0.9.8e:obj_dat.obj
 0002:00003d5c       ??_C@_0BD@MEPJGCEO@documentIdentifier?$AA@ 1008cd5c     libeay32_EM.0.9.8e:obj_dat.obj
 0002:00003d70       ??_C@_07JPLKDPHP@manager?$AA@ 1008cd70     libeay32_EM.0.9.8e:obj_dat.obj
 0002:00003d78       ??_C@_04OODOLJMA@host?$AA@ 1008cd78     libeay32_EM.0.9.8e:obj_dat.obj
 0002:00003d80       ??_C@_09CCPGMHEM@userClass?$AA@ 1008cd80     libeay32_EM.0.9.8e:obj_dat.obj
 0002:00003d8c       ??_C@_05DOIFDPKA@photo?$AA@ 1008cd8c     libeay32_EM.0.9.8e:obj_dat.obj
 0002:00003d94       ??_C@_0L@DGKNANFO@roomNumber?$AA@ 1008cd94     libeay32_EM.0.9.8e:obj_dat.obj
 0002:00003da0       ??_C@_0P@PAMFCEKP@favouriteDrink?$AA@ 1008cda0     libeay32_EM.0.9.8e:obj_dat.obj
 0002:00003db0       ??_C@_04NIDJFNBE@info?$AA@ 1008cdb0     libeay32_EM.0.9.8e:obj_dat.obj
 0002:00003db8       ??_C@_0O@PDNFEOHL@rfc822Mailbox?$AA@ 1008cdb8     libeay32_EM.0.9.8e:obj_dat.obj
 0002:00003dc8       ??_C@_04FFKLPPHM@mail?$AA@ 1008cdc8     libeay32_EM.0.9.8e:obj_dat.obj
 0002:00003dd0       ??_C@_0BF@HDIIKJDI@textEncodedORAddress?$AA@ 1008cdd0     libeay32_EM.0.9.8e:obj_dat.obj
 0002:00003de8       ??_C@_06LPELCIKE@userId?$AA@ 1008cde8     libeay32_EM.0.9.8e:obj_dat.obj
 0002:00003df0       ??_C@_03MJDGODDN@UID?$AA@  1008cdf0     libeay32_EM.0.9.8e:obj_dat.obj
 0002:00003df4       ??_C@_0BE@DDFOMMI@qualityLabelledData?$AA@ 1008cdf4     libeay32_EM.0.9.8e:obj_dat.obj
 0002:00003e08       ??_C@_08MPJGPMC@pilotDSA?$AA@ 1008ce08     libeay32_EM.0.9.8e:obj_dat.obj
 0002:00003e14       ??_C@_0BC@PLDKCMI@pilotOrganization?$AA@ 1008ce14     libeay32_EM.0.9.8e:obj_dat.obj
 0002:00003e28       ??_C@_0BF@CONLNHDI@simpleSecurityObject?$AA@ 1008ce28     libeay32_EM.0.9.8e:obj_dat.obj
 0002:00003e40       ??_C@_0BA@LKHIAMBK@friendlyCountry?$AA@ 1008ce40     libeay32_EM.0.9.8e:obj_dat.obj
 0002:00003e50       ??_C@_0BE@OPAPHNCO@domainRelatedObject?$AA@ 1008ce50     libeay32_EM.0.9.8e:obj_dat.obj
 0002:00003e64       ??_C@_09BOCGGGMK@dNSDomain?$AA@ 1008ce64     libeay32_EM.0.9.8e:obj_dat.obj
 0002:00003e70       ??_C@_0BA@KIAIOBLD@rFC822localPart?$AA@ 1008ce70     libeay32_EM.0.9.8e:obj_dat.obj
 0002:00003e80       ??_C@_0P@OAPEDDHP@documentSeries?$AA@ 1008ce80     libeay32_EM.0.9.8e:obj_dat.obj
 0002:00003e90       ??_C@_04EKFCMFOP@room?$AA@ 1008ce90     libeay32_EM.0.9.8e:obj_dat.obj
 0002:00003e98       ??_C@_08JEEDKNPB@document?$AA@ 1008ce98     libeay32_EM.0.9.8e:obj_dat.obj
 0002:00003ea4       ??_C@_07PMDLEBNF@account?$AA@ 1008cea4     libeay32_EM.0.9.8e:obj_dat.obj
 0002:00003eac       ??_C@_0M@NCGDCEIP@pilotPerson?$AA@ 1008ceac     libeay32_EM.0.9.8e:obj_dat.obj
 0002:00003eb8       ??_C@_0M@MCCFCPKP@pilotObject?$AA@ 1008ceb8     libeay32_EM.0.9.8e:obj_dat.obj
 0002:00003ec4       ??_C@_0BK@LELMGJGD@caseIgnoreIA5StringSyntax?$AA@ 1008cec4     libeay32_EM.0.9.8e:obj_dat.obj
 0002:00003ee0       ??_C@_0BA@KPIIGILK@iA5StringSyntax?$AA@ 1008cee0     libeay32_EM.0.9.8e:obj_dat.obj
 0002:00003ef0       ??_C@_0M@DLMEDAFC@pilotGroups?$AA@ 1008cef0     libeay32_EM.0.9.8e:obj_dat.obj
 0002:00003efc       ??_C@_0BB@MJFNAIDM@pilotObjectClass?$AA@ 1008cefc     libeay32_EM.0.9.8e:obj_dat.obj
 0002:00003f10       ??_C@_0BF@CDEFHHCF@pilotAttributeSyntax?$AA@ 1008cf10     libeay32_EM.0.9.8e:obj_dat.obj
 0002:00003f28       ??_C@_0BD@NEGIHOAI@pilotAttributeType?$AA@ 1008cf28     libeay32_EM.0.9.8e:obj_dat.obj
 0002:00003f3c       ??_C@_05KIBFDOPF@pilot?$AA@ 1008cf3c     libeay32_EM.0.9.8e:obj_dat.obj
 0002:00003f44       ??_C@_03BIDCBJP@ucl?$AA@   1008cf44     libeay32_EM.0.9.8e:obj_dat.obj
 0002:00003f48       ??_C@_03OHCBHMED@pss?$AA@  1008cf48     libeay32_EM.0.9.8e:obj_dat.obj
 0002:00003f4c       ??_C@_04PJOLNDGD@data?$AA@ 1008cf4c     libeay32_EM.0.9.8e:obj_dat.obj
 0002:00003f54       ??_C@_0BI@EEABHGCD@Hold?5Instruction?5Reject?$AA@ 1008cf54     libeay32_EM.0.9.8e:obj_dat.obj
 0002:00003f6c       ??_C@_0BG@BDAACIJE@holdInstructionReject?$AA@ 1008cf6c     libeay32_EM.0.9.8e:obj_dat.obj
 0002:00003f84       ??_C@_0BN@IJKNPIFC@Hold?5Instruction?5Call?5Issuer?$AA@ 1008cf84     libeay32_EM.0.9.8e:obj_dat.obj
 0002:00003fa4       ??_C@_0BK@ENEKHHMB@holdInstructionCallIssuer?$AA@ 1008cfa4     libeay32_EM.0.9.8e:obj_dat.obj
 0002:00003fc0       ??_C@_0BG@ECBIHNGK@Hold?5Instruction?5None?$AA@ 1008cfc0     libeay32_EM.0.9.8e:obj_dat.obj
 0002:00003fd8       ??_C@_0BE@KPEIPHPJ@holdInstructionNone?$AA@ 1008cfd8     libeay32_EM.0.9.8e:obj_dat.obj
 0002:00003fec       ??_C@_0BG@LHBPDMAN@Hold?5Instruction?5Code?$AA@ 1008cfec     libeay32_EM.0.9.8e:obj_dat.obj
 0002:00004004       ??_C@_0BE@FKEPLGJO@holdInstructionCode?$AA@ 1008d004     libeay32_EM.0.9.8e:obj_dat.obj
 0002:00004018       ??_C@_0M@JMFNEPEI@aes?9256?9cfb?$AA@ 1008d018     libeay32_EM.0.9.8e:obj_dat.obj
 0002:00004024       ??_C@_0M@EAFGNFML@AES?9256?9CFB?$AA@ 1008d024     libeay32_EM.0.9.8e:obj_dat.obj
 0002:00004030       ??_C@_0M@NGILPAPA@aes?9256?9ofb?$AA@ 1008d030     libeay32_EM.0.9.8e:obj_dat.obj
 0002:0000403c       ??_C@_0M@KIAGKHD@AES?9256?9OFB?$AA@ 1008d03c     libeay32_EM.0.9.8e:obj_dat.obj
 0002:00004048       ??_C@_0M@ICEPNGNF@aes?9256?9cbc?$AA@ 1008d048     libeay32_EM.0.9.8e:obj_dat.obj
 0002:00004054       ??_C@_0M@FOEEEMFG@AES?9256?9CBC?$AA@ 1008d054     libeay32_EM.0.9.8e:obj_dat.obj
 0002:00004060       ??_C@_0M@LPPNNCHP@aes?9256?9ecb?$AA@ 1008d060     libeay32_EM.0.9.8e:obj_dat.obj
 0002:0000406c       ??_C@_0M@GDPGEIPM@AES?9256?9ECB?$AA@ 1008d06c     libeay32_EM.0.9.8e:obj_dat.obj
 0002:00004078       ??_C@_0M@EOODGAMJ@aes?9192?9cfb?$AA@ 1008d078     libeay32_EM.0.9.8e:obj_dat.obj
 0002:00004084       ??_C@_0M@JCOIPKEK@AES?9192?9CFB?$AA@ 1008d084     libeay32_EM.0.9.8e:obj_dat.obj
 0002:00004090       ??_C@_0M@EDFNPHB@aes?9192?9ofb?$AA@ 1008d090     libeay32_EM.0.9.8e:obj_dat.obj
 0002:0000409c       ??_C@_0M@NIDOEFPC@AES?9192?9OFB?$AA@ 1008d09c     libeay32_EM.0.9.8e:obj_dat.obj
 0002:000040a8       ??_C@_0M@FAPBPJFE@aes?9192?9cbc?$AA@ 1008d0a8     libeay32_EM.0.9.8e:obj_dat.obj
 0002:000040b4       ??_C@_0M@IMPKGDNH@AES?9192?9CBC?$AA@ 1008d0b4     libeay32_EM.0.9.8e:obj_dat.obj
 0002:000040c0       ??_C@_0M@GNEDPNPO@aes?9192?9ecb?$AA@ 1008d0c0     libeay32_EM.0.9.8e:obj_dat.obj
 0002:000040cc       ??_C@_0M@LBEIGHHN@AES?9192?9ECB?$AA@ 1008d0cc     libeay32_EM.0.9.8e:obj_dat.obj
 0002:000040d8       ??_C@_0M@ONHPBHFF@aes?9128?9cfb?$AA@ 1008d0d8     libeay32_EM.0.9.8e:obj_dat.obj
 0002:000040e4       ??_C@_0M@DBHEINNG@AES?9128?9CFB?$AA@ 1008d0e4     libeay32_EM.0.9.8e:obj_dat.obj
 0002:000040f0       ??_C@_0M@KHKJKION@aes?9128?9ofb?$AA@ 1008d0f0     libeay32_EM.0.9.8e:obj_dat.obj
 0002:000040fc       ??_C@_0M@HLKCDCGO@AES?9128?9OFB?$AA@ 1008d0fc     libeay32_EM.0.9.8e:obj_dat.obj
 0002:00004108       ??_C@_0M@PDGNIOMI@aes?9128?9cbc?$AA@ 1008d108     libeay32_EM.0.9.8e:obj_dat.obj
 0002:00004114       ??_C@_0M@CPGGBEEL@AES?9128?9CBC?$AA@ 1008d114     libeay32_EM.0.9.8e:obj_dat.obj
 0002:00004120       ??_C@_0M@MONPIKGC@aes?9128?9ecb?$AA@ 1008d120     libeay32_EM.0.9.8e:obj_dat.obj
 0002:0000412c       ??_C@_0M@BCNEBAOB@AES?9128?9ECB?$AA@ 1008d12c     libeay32_EM.0.9.8e:obj_dat.obj
 0002:00004138       ??_C@_0BD@HDEEGCLB@Microsoft?5CSP?5Name?$AA@ 1008d138     libeay32_EM.0.9.8e:obj_dat.obj
 0002:0000414c       ??_C@_07BPKAKPJK@CSPName?$AA@ 1008d14c     libeay32_EM.0.9.8e:obj_dat.obj
 0002:00004154       ??_C@_0BA@DGJNDOPM@ecdsa?9with?9SHA1?$AA@ 1008d154     libeay32_EM.0.9.8e:obj_dat.obj
 0002:00004164       ??_C@_0L@JJFEINOP@prime256v1?$AA@ 1008d164     libeay32_EM.0.9.8e:obj_dat.obj
 0002:00004170       ??_C@_0L@HMEBAKJL@prime239v3?$AA@ 1008d170     libeay32_EM.0.9.8e:obj_dat.obj
 0002:0000417c       ??_C@_0L@GFFKDLNK@prime239v2?$AA@ 1008d17c     libeay32_EM.0.9.8e:obj_dat.obj
 0002:00004188       ??_C@_0L@EOHHGIBJ@prime239v1?$AA@ 1008d188     libeay32_EM.0.9.8e:obj_dat.obj
 0002:00004194       ??_C@_0L@GHGEOHJF@prime192v3?$AA@ 1008d194     libeay32_EM.0.9.8e:obj_dat.obj
 0002:000041a0       ??_C@_0L@HOHPNGNE@prime192v2?$AA@ 1008d1a0     libeay32_EM.0.9.8e:obj_dat.obj
 0002:000041ac       ??_C@_0L@FFFCIFBH@prime192v1?$AA@ 1008d1ac     libeay32_EM.0.9.8e:obj_dat.obj
 0002:000041b8       ??_C@_0P@NEOBKIMO@id?9ecPublicKey?$AA@ 1008d1b8     libeay32_EM.0.9.8e:obj_dat.obj
 0002:000041c8       ??_C@_0BJ@HECCMKCN@characteristic?9two?9field?$AA@ 1008d1c8     libeay32_EM.0.9.8e:obj_dat.obj
 0002:000041e4       ??_C@_0M@LGLKIODB@prime?9field?$AA@ 1008d1e4     libeay32_EM.0.9.8e:obj_dat.obj
 0002:000041f0       ??_C@_0L@HAOKGHPF@ANSI?5X9?462?$AA@ 1008d1f0     libeay32_EM.0.9.8e:obj_dat.obj
 0002:000041fc       ??_C@_0L@LBMOMFCJ@ansi?9X9?962?$AA@ 1008d1fc     libeay32_EM.0.9.8e:obj_dat.obj
 0002:00004208       ??_C@_0BP@DEKFNCEH@X509v3?5No?5Revocation?5Available?$AA@ 1008d208     libeay32_EM.0.9.8e:obj_dat.obj
 0002:00004228       ??_C@_0L@ECGDAGCK@noRevAvail?$AA@ 1008d228     libeay32_EM.0.9.8e:obj_dat.obj
 0002:00004234       ??_C@_0BE@IECCFFCH@X509v3?5AC?5Targeting?$AA@ 1008d234     libeay32_EM.0.9.8e:obj_dat.obj
 0002:00004248       ??_C@_0BC@JINDJNPM@targetInformation?$AA@ 1008d248     libeay32_EM.0.9.8e:obj_dat.obj
 0002:0000425c       ??_C@_0BK@DNMBLGM@X509v3?5Policy?5Constraints?$AA@ 1008d25c     libeay32_EM.0.9.8e:obj_dat.obj
 0002:00004278       ??_C@_0BC@IJLMCBHD@policyConstraints?$AA@ 1008d278     libeay32_EM.0.9.8e:obj_dat.obj
 0002:0000428c       ??_C@_04IAMNPBLO@role?$AA@ 1008d28c     libeay32_EM.0.9.8e:obj_dat.obj
 0002:00004294       ??_C@_0BA@PEFFHNFH@id?9aca?9encAttrs?$AA@ 1008d294     libeay32_EM.0.9.8e:obj_dat.obj
 0002:000042a4       ??_C@_0BL@OMFIOBLF@Subject?5Information?5Access?$AA@ 1008d2a4     libeay32_EM.0.9.8e:obj_dat.obj
 0002:000042c0       ??_C@_0BC@IEIBIKBA@subjectInfoAccess?$AA@ 1008d2c0     libeay32_EM.0.9.8e:obj_dat.obj
 0002:000042d4       ??_C@_0M@BKAIKGEL@ac?9proxying?$AA@ 1008d2d4     libeay32_EM.0.9.8e:obj_dat.obj
 0002:000042e0       ??_C@_0BF@JDOFKNPK@md4WithRSAEncryption?$AA@ 1008d2e0     libeay32_EM.0.9.8e:obj_dat.obj
 0002:000042f8       ??_C@_07MHHBEDHA@RSA?9MD4?$AA@ 1008d2f8     libeay32_EM.0.9.8e:obj_dat.obj
 0002:00004300       ??_C@_09ECGCCLFI@clearance?$AA@ 1008d300     libeay32_EM.0.9.8e:obj_dat.obj
 0002:0000430c       ??_C@_0BJ@MAOJIBHF@Selected?5Attribute?5Types?$AA@ 1008d30c     libeay32_EM.0.9.8e:obj_dat.obj
 0002:00004328       ??_C@_0BJ@BDDNHDDA@selected?9attribute?9types?$AA@ 1008d328     libeay32_EM.0.9.8e:obj_dat.obj
 0002:00004344       ??_C@_06HFDFFJHI@Domain?$AA@ 1008d344     libeay32_EM.0.9.8e:obj_dat.obj
 0002:0000434c       ??_C@_06LKIIGAOE@domain?$AA@ 1008d34c     libeay32_EM.0.9.8e:obj_dat.obj
 0002:00004354       ??_C@_0BA@DMAKFKAH@domainComponent?$AA@ 1008d354     libeay32_EM.0.9.8e:obj_dat.obj
 0002:00004364       ??_C@_02KMHJBPDH@DC?$AA@   1008d364     libeay32_EM.0.9.8e:obj_dat.obj
 0002:00004368       ??_C@_08GPNKJGDG@dcObject?$AA@ 1008d368     libeay32_EM.0.9.8e:obj_dat.obj
 0002:00004374       ??_C@_08KAGHKPKK@dcobject?$AA@ 1008d374     libeay32_EM.0.9.8e:obj_dat.obj
 0002:00004380       ??_C@_0M@CEEPHGPL@Enterprises?$AA@ 1008d380     libeay32_EM.0.9.8e:obj_dat.obj
 0002:0000438c       ??_C@_0M@DMHOKNAD@enterprises?$AA@ 1008d38c     libeay32_EM.0.9.8e:obj_dat.obj
 0002:00004398       ??_C@_04JEGKNAHI@Mail?$AA@ 1008d398     libeay32_EM.0.9.8e:obj_dat.obj
 0002:000043a0       ??_C@_06JDJOGLHO@SNMPv2?$AA@ 1008d3a0     libeay32_EM.0.9.8e:obj_dat.obj
 0002:000043a8       ??_C@_06DKHMNHOO@snmpv2?$AA@ 1008d3a8     libeay32_EM.0.9.8e:obj_dat.obj
 0002:000043b0       ??_C@_08EDKKPLCC@Security?$AA@ 1008d3b0     libeay32_EM.0.9.8e:obj_dat.obj
 0002:000043bc       ??_C@_08MBFLHJIB@security?$AA@ 1008d3bc     libeay32_EM.0.9.8e:obj_dat.obj
 0002:000043c8       ??_C@_07CFINJGKH@Private?$AA@ 1008d3c8     libeay32_EM.0.9.8e:obj_dat.obj
 0002:000043d0       ??_C@_07NMPLPEPB@private?$AA@ 1008d3d0     libeay32_EM.0.9.8e:obj_dat.obj
 0002:000043d8       ??_C@_0N@FKCIGJFM@Experimental?$AA@ 1008d3d8     libeay32_EM.0.9.8e:obj_dat.obj
 0002:000043e8       ??_C@_0N@OJFGCCKJ@experimental?$AA@ 1008d3e8     libeay32_EM.0.9.8e:obj_dat.obj
 0002:000043f8       ??_C@_0L@ENAJINDB@Management?$AA@ 1008d3f8     libeay32_EM.0.9.8e:obj_dat.obj
 0002:00004404       ??_C@_04PFNCJACF@mgmt?$AA@ 1008d404     libeay32_EM.0.9.8e:obj_dat.obj
 0002:0000440c       ??_C@_09EOAFACM@Directory?$AA@ 1008d40c     libeay32_EM.0.9.8e:obj_dat.obj
 0002:00004418       ??_C@_09ELLNFDPM@directory?$AA@ 1008d418     libeay32_EM.0.9.8e:obj_dat.obj
 0002:00004424       ??_C@_04BAMKDBHE@iana?$AA@ 1008d424     libeay32_EM.0.9.8e:obj_dat.obj
 0002:0000442c       ??_C@_04NMPANDAM@IANA?$AA@ 1008d42c     libeay32_EM.0.9.8e:obj_dat.obj
 0002:00004434       ??_C@_03CIOFGCAJ@dod?$AA@  1008d434     libeay32_EM.0.9.8e:obj_dat.obj
 0002:00004438       ??_C@_03CFBOKPHF@DOD?$AA@  1008d438     libeay32_EM.0.9.8e:obj_dat.obj
 0002:0000443c       ??_C@_03MADHIGOI@org?$AA@  1008d43c     libeay32_EM.0.9.8e:obj_dat.obj
 0002:00004440       ??_C@_03MNMMELJE@ORG?$AA@  1008d440     libeay32_EM.0.9.8e:obj_dat.obj
 0002:00004444       ??_C@_0CA@FIOIBJEO@directory?5services?5?9?5algorithms?$AA@ 1008d444     libeay32_EM.0.9.8e:obj_dat.obj
 0002:00004464       ??_C@_0P@NMIAKCBG@X500algorithms?$AA@ 1008d464     libeay32_EM.0.9.8e:obj_dat.obj
 0002:00004474       ??_C@_0N@JHANBHGC@rsaSignature?$AA@ 1008d474     libeay32_EM.0.9.8e:obj_dat.obj
 0002:00004484       ??_C@_0L@INBPOG@Trust?5Root?$AA@ 1008d484     libeay32_EM.0.9.8e:obj_dat.obj
 0002:00004490       ??_C@_09LNEPAILM@trustRoot?$AA@ 1008d490     libeay32_EM.0.9.8e:obj_dat.obj
 0002:0000449c       ??_C@_04LNEJFJGI@path?$AA@ 1008d49c     libeay32_EM.0.9.8e:obj_dat.obj
 0002:000044a4       ??_C@_05HDPIMK@valid?$AA@  1008d4a4     libeay32_EM.0.9.8e:obj_dat.obj
 0002:000044ac       ??_C@_0BF@MPEDLKDP@Extended?5OCSP?5Status?$AA@ 1008d4ac     libeay32_EM.0.9.8e:obj_dat.obj
 0002:000044c4       ??_C@_0P@EGENIBNC@extendedStatus?$AA@ 1008d4c4     libeay32_EM.0.9.8e:obj_dat.obj
 0002:000044d4       ??_C@_0BF@CEIKAD@OCSP?5Service?5Locator?$AA@ 1008d4d4     libeay32_EM.0.9.8e:obj_dat.obj
 0002:000044ec       ??_C@_0P@LCDAPLHC@serviceLocator?$AA@ 1008d4ec     libeay32_EM.0.9.8e:obj_dat.obj
 0002:000044fc       ??_C@_0BE@JAFPABJB@OCSP?5Archive?5Cutoff?$AA@ 1008d4fc     libeay32_EM.0.9.8e:obj_dat.obj
 0002:00004510       ??_C@_0O@FIEDPKGI@archiveCutoff?$AA@ 1008d510     libeay32_EM.0.9.8e:obj_dat.obj
 0002:00004520       ??_C@_0O@HFOALJCG@OCSP?5No?5Check?$AA@ 1008d520     libeay32_EM.0.9.8e:obj_dat.obj
 0002:00004530       ??_C@_07MCKMCKHJ@noCheck?$AA@ 1008d530     libeay32_EM.0.9.8e:obj_dat.obj
 0002:00004538       ??_C@_0BK@JKKLNLEI@Acceptable?5OCSP?5Responses?$AA@ 1008d538     libeay32_EM.0.9.8e:obj_dat.obj
 0002:00004554       ??_C@_0BE@FBPDIHIK@acceptableResponses?$AA@ 1008d554     libeay32_EM.0.9.8e:obj_dat.obj
 0002:00004568       ??_C@_0M@LCLKJALE@OCSP?5CRL?5ID?$AA@ 1008d568     libeay32_EM.0.9.8e:obj_dat.obj
 0002:00004574       ??_C@_05NOENOBME@CrlID?$AA@ 1008d574     libeay32_EM.0.9.8e:obj_dat.obj
 0002:0000457c       ??_C@_0L@NCNDEJFL@OCSP?5Nonce?$AA@ 1008d57c     libeay32_EM.0.9.8e:obj_dat.obj
 0002:00004588       ??_C@_05OJOPLPHH@Nonce?$AA@ 1008d588     libeay32_EM.0.9.8e:obj_dat.obj
 0002:00004590       ??_C@_0BE@ONEEPEOL@Basic?5OCSP?5Response?$AA@ 1008d590     libeay32_EM.0.9.8e:obj_dat.obj
 0002:000045a4       ??_C@_0BC@KFAFMFFF@basicOCSPResponse?$AA@ 1008d5a4     libeay32_EM.0.9.8e:obj_dat.obj
 0002:000045b8       ??_C@_07JCKMJMPC@ad?5dvcs?$AA@ 1008d5b8     libeay32_EM.0.9.8e:obj_dat.obj
 0002:000045c0       ??_C@_07JCCJJKFE@AD_DVCS?$AA@ 1008d5c0     libeay32_EM.0.9.8e:obj_dat.obj
 0002:000045c8       ??_C@_0BB@NMPPBOGK@AD?5Time?5Stamping?$AA@ 1008d5c8     libeay32_EM.0.9.8e:obj_dat.obj
 0002:000045dc       ??_C@_0BA@PBBONLHE@ad_timestamping?$AA@ 1008d5dc     libeay32_EM.0.9.8e:obj_dat.obj
 0002:000045ec       ??_C@_0BD@DDALHPCH@id?9cct?9PKIResponse?$AA@ 1008d5ec     libeay32_EM.0.9.8e:obj_dat.obj
 0002:00004600       ??_C@_0P@FNCPPGJO@id?9cct?9PKIData?$AA@ 1008d600     libeay32_EM.0.9.8e:obj_dat.obj
 0002:00004610       ??_C@_0L@CDHPLMPE@id?9cct?9crs?$AA@ 1008d610     libeay32_EM.0.9.8e:obj_dat.obj
 0002:0000461c       ??_C@_0BH@DJONLBHI@id?9qcs?9pkixQCSyntax?9v1?$AA@ 1008d61c     libeay32_EM.0.9.8e:obj_dat.obj
 0002:00004634       ??_C@_0M@FBOAJIIJ@id?9aca?9role?$AA@ 1008d634     libeay32_EM.0.9.8e:obj_dat.obj
 0002:00004640       ??_C@_0N@HOPCGOGP@id?9aca?9group?$AA@ 1008d640     libeay32_EM.0.9.8e:obj_dat.obj
 0002:00004650       ??_C@_0BI@IDHFJBKH@id?9aca?9chargingIdentity?$AA@ 1008d650     libeay32_EM.0.9.8e:obj_dat.obj
 0002:00004668       ??_C@_0BG@GFJCFEAI@id?9aca?9accessIdentity?$AA@ 1008d668     libeay32_EM.0.9.8e:obj_dat.obj
 0002:00004680       ??_C@_0BK@OFEDAOCA@id?9aca?9authenticationInfo?$AA@ 1008d680     libeay32_EM.0.9.8e:obj_dat.obj
 0002:0000469c       ??_C@_0BK@BJMNIGCJ@id?9pda?9countryOfResidence?$AA@ 1008d69c     libeay32_EM.0.9.8e:obj_dat.obj
 0002:000046b8       ??_C@_0BM@KMGEGNAB@id?9pda?9countryOfCitizenship?$AA@ 1008d6b8     libeay32_EM.0.9.8e:obj_dat.obj
 0002:000046d4       ??_C@_0O@JMCFNPFD@id?9pda?9gender?$AA@ 1008d6d4     libeay32_EM.0.9.8e:obj_dat.obj
 0002:000046e4       ??_C@_0BE@NIFFDBPJ@id?9pda?9placeOfBirth?$AA@ 1008d6e4     libeay32_EM.0.9.8e:obj_dat.obj
 0002:000046f8       ??_C@_0BD@BADJMIPF@id?9pda?9dateOfBirth?$AA@ 1008d6f8     libeay32_EM.0.9.8e:obj_dat.obj
 0002:0000470c       ??_C@_0BD@IGLADCFL@id?9on?9personalData?$AA@ 1008d70c     libeay32_EM.0.9.8e:obj_dat.obj
 0002:00004720       ??_C@_0BN@MIGHDJON@id?9cmc?9confirmCertAcceptance?$AA@ 1008d720     libeay32_EM.0.9.8e:obj_dat.obj
 0002:00004740       ??_C@_0BG@EEIJMDPB@id?9cmc?9popLinkWitness?$AA@ 1008d740     libeay32_EM.0.9.8e:obj_dat.obj
 0002:00004758       ??_C@_0BF@GGLCNKGO@id?9cmc?9popLinkRandom?$AA@ 1008d758     libeay32_EM.0.9.8e:obj_dat.obj
 0002:00004770       ??_C@_0BE@JKLJLIIH@id?9cmc?9queryPending?$AA@ 1008d770     libeay32_EM.0.9.8e:obj_dat.obj
 0002:00004784       ??_C@_0BE@CKMFMMDP@id?9cmc?9responseInfo?$AA@ 1008d784     libeay32_EM.0.9.8e:obj_dat.obj
 0002:00004798       ??_C@_0P@PCIOIKNC@id?9cmc?9regInfo?$AA@ 1008d798     libeay32_EM.0.9.8e:obj_dat.obj
 0002:000047a8       ??_C@_0BF@BOEAJJNI@id?9cmc?9revokeRequest?$AA@ 1008d7a8     libeay32_EM.0.9.8e:obj_dat.obj
 0002:000047c0       ??_C@_0O@OIGIOBJ@id?9cmc?9getCRL?$AA@ 1008d7c0     libeay32_EM.0.9.8e:obj_dat.obj
 0002:000047d0       ??_C@_0P@GMDPJKDO@id?9cmc?9getCert?$AA@ 1008d7d0     libeay32_EM.0.9.8e:obj_dat.obj
 0002:000047e0       ??_C@_0BF@BMODAINP@id?9cmc?9lraPOPWitness?$AA@ 1008d7e0     libeay32_EM.0.9.8e:obj_dat.obj
 0002:000047f8       ??_C@_0BE@KBIPLENG@id?9cmc?9decryptedPOP?$AA@ 1008d7f8     libeay32_EM.0.9.8e:obj_dat.obj
 0002:0000480c       ??_C@_0BE@NILMJFN@id?9cmc?9encryptedPOP?$AA@ 1008d80c     libeay32_EM.0.9.8e:obj_dat.obj
 0002:00004820       ??_C@_0BF@HLOCACJF@id?9cmc?9addExtensions?$AA@ 1008d820     libeay32_EM.0.9.8e:obj_dat.obj
 0002:00004838       ??_C@_0BG@JLHHNNCH@id?9cmc?9recipientNonce?$AA@ 1008d838     libeay32_EM.0.9.8e:obj_dat.obj
 0002:00004850       ??_C@_0BD@BCMJDDMP@id?9cmc?9senderNonce?$AA@ 1008d850     libeay32_EM.0.9.8e:obj_dat.obj
 0002:00004864       ??_C@_0BF@GEJAHBF@id?9cmc?9transactionId?$AA@ 1008d864     libeay32_EM.0.9.8e:obj_dat.obj
 0002:0000487c       ??_C@_0BC@LLJKCHEN@id?9cmc?9dataReturn?$AA@ 1008d87c     libeay32_EM.0.9.8e:obj_dat.obj
 0002:00004890       ??_C@_0BF@IDAHNDCK@id?9cmc?9identityProof?$AA@ 1008d890     libeay32_EM.0.9.8e:obj_dat.obj
 0002:000048a8       ??_C@_0BG@PPIINOMK@id?9cmc?9identification?$AA@ 1008d8a8     libeay32_EM.0.9.8e:obj_dat.obj
 0002:000048c0       ??_C@_0BC@CMNEPEAI@id?9cmc?9statusInfo?$AA@ 1008d8c0     libeay32_EM.0.9.8e:obj_dat.obj
 0002:000048d4       ??_C@_0O@OBGPPBGA@id?9alg?9dh?9pop?$AA@ 1008d8d4     libeay32_EM.0.9.8e:obj_dat.obj
 0002:000048e4       ??_C@_0BI@KIODNBCM@id?9alg?9dh?9sig?9hmac?9sha1?$AA@ 1008d8e4     libeay32_EM.0.9.8e:obj_dat.obj
 0002:000048fc       ??_C@_0BD@LAAJOBHI@id?9alg?9noSignature?$AA@ 1008d8fc     libeay32_EM.0.9.8e:obj_dat.obj
 0002:00004910       ??_C@_0N@KIJONBNA@id?9alg?9des40?$AA@ 1008d910     libeay32_EM.0.9.8e:obj_dat.obj
 0002:00004920       ??_C@_0BD@EEAPBNJJ@id?9regInfo?9certReq?$AA@ 1008d920     libeay32_EM.0.9.8e:obj_dat.obj
 0002:00004934       ??_C@_0BF@FHFGHAHE@id?9regInfo?9utf8Pairs?$AA@ 1008d934     libeay32_EM.0.9.8e:obj_dat.obj
 0002:0000494c       ??_C@_0BL@GHBPLPHM@id?9regCtrl?9protocolEncrKey?$AA@ 1008d94c     libeay32_EM.0.9.8e:obj_dat.obj
 0002:00004968       ??_C@_0BF@GFJPNJIG@id?9regCtrl?9oldCertID?$AA@ 1008d968     libeay32_EM.0.9.8e:obj_dat.obj
 0002:00004980       ??_C@_0BN@ONKHMAOP@id?9regCtrl?9pkiArchiveOptions?$AA@ 1008d980     libeay32_EM.0.9.8e:obj_dat.obj
 0002:000049a0       ??_C@_0BO@GJKPPLPL@id?9regCtrl?9pkiPublicationInfo?$AA@ 1008d9a0     libeay32_EM.0.9.8e:obj_dat.obj
 0002:000049c0       ??_C@_0BJ@FBKKLLKP@id?9regCtrl?9authenticator?$AA@ 1008d9c0     libeay32_EM.0.9.8e:obj_dat.obj
 0002:000049dc       ??_C@_0BE@JDMKCIPE@id?9regCtrl?9regToken?$AA@ 1008d9dc     libeay32_EM.0.9.8e:obj_dat.obj
 0002:000049f0       ??_C@_0L@BGHMJHOP@id?9regInfo?$AA@ 1008d9f0     libeay32_EM.0.9.8e:obj_dat.obj
 0002:000049fc       ??_C@_0L@FDGKGANK@id?9regCtrl?$AA@ 1008d9fc     libeay32_EM.0.9.8e:obj_dat.obj
 0002:00004a08       ??_C@_0BF@CLCJJGFI@id?9it?9origPKIMessage?$AA@ 1008da08     libeay32_EM.0.9.8e:obj_dat.obj
 0002:00004a20       ??_C@_0BG@KCBHNMIK@id?9it?9confirmWaitTime?$AA@ 1008da20     libeay32_EM.0.9.8e:obj_dat.obj
 0002:00004a38       ??_C@_0BG@MKDHCJKF@id?9it?9implicitConfirm?$AA@ 1008da38     libeay32_EM.0.9.8e:obj_dat.obj
 0002:00004a50       ??_C@_0BE@FOOOCPMH@id?9it?9revPassphrase?$AA@ 1008da50     libeay32_EM.0.9.8e:obj_dat.obj
 0002:00004a64       ??_C@_0BG@KPIIFBLH@id?9it?9keyPairParamRep?$AA@ 1008da64     libeay32_EM.0.9.8e:obj_dat.obj
 0002:00004a7c       ??_C@_0BG@LGJDGAPG@id?9it?9keyPairParamReq?$AA@ 1008da7c     libeay32_EM.0.9.8e:obj_dat.obj
 0002:00004a94       ??_C@_0BL@HBPHBFLO@id?9it?9subscriptionResponse?$AA@ 1008da94     libeay32_EM.0.9.8e:obj_dat.obj
 0002:00004ab0       ??_C@_0BK@MKGCMKGI@id?9it?9subscriptionRequest?$AA@ 1008dab0     libeay32_EM.0.9.8e:obj_dat.obj
 0002:00004acc       ??_C@_0BG@BPLKDJPD@id?9it?9unsupportedOIDs?$AA@ 1008dacc     libeay32_EM.0.9.8e:obj_dat.obj
 0002:00004ae4       ??_C@_0BB@NHKBGJFG@id?9it?9currentCRL?$AA@ 1008dae4     libeay32_EM.0.9.8e:obj_dat.obj
 0002:00004af8       ??_C@_0BG@OAKEHPLC@id?9it?9caKeyUpdateInfo?$AA@ 1008daf8     libeay32_EM.0.9.8e:obj_dat.obj
 0002:00004b10       ??_C@_0BH@JFBOPDCH@id?9it?9preferredSymmAlg?$AA@ 1008db10     libeay32_EM.0.9.8e:obj_dat.obj
 0002:00004b28       ??_C@_0BG@FKIDIODL@id?9it?9encKeyPairTypes?$AA@ 1008db28     libeay32_EM.0.9.8e:obj_dat.obj
 0002:00004b40       ??_C@_0BH@POCENFBA@id?9it?9signKeyPairTypes?$AA@ 1008db40     libeay32_EM.0.9.8e:obj_dat.obj
 0002:00004b58       ??_C@_0BE@GJACIPND@id?9it?9caProtEncCert?$AA@ 1008db58     libeay32_EM.0.9.8e:obj_dat.obj
 0002:00004b6c       ??_C@_04FFLIHJGD@dvcs?$AA@ 1008db6c     libeay32_EM.0.9.8e:obj_dat.obj
 0002:00004b74       ??_C@_04JJICJLBL@DVCS?$AA@ 1008db74     libeay32_EM.0.9.8e:obj_dat.obj
 0002:00004b7c       ??_C@_0L@DECDDCGF@IPSec?5User?$AA@ 1008db7c     libeay32_EM.0.9.8e:obj_dat.obj
 0002:00004b88       ??_C@_09GOHJKOFF@ipsecUser?$AA@ 1008db88     libeay32_EM.0.9.8e:obj_dat.obj
 0002:00004b94       ??_C@_0N@EKDIOGLO@IPSec?5Tunnel?$AA@ 1008db94     libeay32_EM.0.9.8e:obj_dat.obj
 0002:00004ba4       ??_C@_0M@GMMHFFHI@ipsecTunnel?$AA@ 1008dba4     libeay32_EM.0.9.8e:obj_dat.obj
 0002:00004bb0       ??_C@_0BB@JEJDAICO@IPSec?5End?5System?$AA@ 1008dbb0     libeay32_EM.0.9.8e:obj_dat.obj
 0002:00004bc4       ??_C@_0P@MKBFMAPP@ipsecEndSystem?$AA@ 1008dbc4     libeay32_EM.0.9.8e:obj_dat.obj
 0002:00004bd4       ??_C@_0L@HLNNPJEH@textNotice?$AA@ 1008dbd4     libeay32_EM.0.9.8e:obj_dat.obj
 0002:00004be0       ??_C@_0BG@JCJJBMAI@sbgp?9routerIdentifier?$AA@ 1008dbe0     libeay32_EM.0.9.8e:obj_dat.obj
 0002:00004bf8       ??_C@_0BG@OJEHJDKA@sbgp?9autonomousSysNum?$AA@ 1008dbf8     libeay32_EM.0.9.8e:obj_dat.obj
 0002:00004c10       ??_C@_0BB@NNCKCHBC@sbgp?9ipAddrBlock?$AA@ 1008dc10     libeay32_EM.0.9.8e:obj_dat.obj
 0002:00004c24       ??_C@_0L@DLGBNBJE@aaControls?$AA@ 1008dc24     libeay32_EM.0.9.8e:obj_dat.obj
 0002:00004c30       ??_C@_0N@FPEEOJCI@ac?9targeting?$AA@ 1008dc30     libeay32_EM.0.9.8e:obj_dat.obj
 0002:00004c40       ??_C@_0P@CIOHPJGC@ac?9auditEntity?$AA@ 1008dc40     libeay32_EM.0.9.8e:obj_dat.obj
 0002:00004c50       ??_C@_0N@FPMNLLM@qcStatements?$AA@ 1008dc50     libeay32_EM.0.9.8e:obj_dat.obj
 0002:00004c60       ??_C@_0P@KFKDECPH@Biometric?5Info?$AA@ 1008dc60     libeay32_EM.0.9.8e:obj_dat.obj
 0002:00004c70       ??_C@_0O@MPIIPAHM@biometricInfo?$AA@ 1008dc70     libeay32_EM.0.9.8e:obj_dat.obj
 0002:00004c80       ??_C@_0P@MMOAAMFD@id?9mod?9cmp2000?$AA@ 1008dc80     libeay32_EM.0.9.8e:obj_dat.obj
 0002:00004c90       ??_C@_0M@GHDGNJKI@id?9mod?9dvcs?$AA@ 1008dc90     libeay32_EM.0.9.8e:obj_dat.obj
 0002:00004c9c       ??_C@_0M@EACKLPKH@id?9mod?9ocsp?$AA@ 1008dc9c     libeay32_EM.0.9.8e:obj_dat.obj
 0002:00004ca8       ??_C@_0BK@GAJOODEK@id?9mod?9timestamp?9protocol?$AA@ 1008dca8     libeay32_EM.0.9.8e:obj_dat.obj
 0002:00004cc4       ??_C@_0BG@EPPFBJNH@id?9mod?9attribute?9cert?$AA@ 1008dcc4     libeay32_EM.0.9.8e:obj_dat.obj
 0002:00004cdc       ??_C@_0BJ@IGODAJIK@id?9mod?9qualified?9cert?993?$AA@ 1008dcdc     libeay32_EM.0.9.8e:obj_dat.obj
 0002:00004cf8       ??_C@_0BJ@GENFLKHG@id?9mod?9qualified?9cert?988?$AA@ 1008dcf8     libeay32_EM.0.9.8e:obj_dat.obj
 0002:00004d14       ??_C@_0L@MONEHBKH@id?9mod?9cmp?$AA@ 1008dd14     libeay32_EM.0.9.8e:obj_dat.obj
 0002:00004d20       ??_C@_0BG@NAFGGBFM@id?9mod?9kea?9profile?993?$AA@ 1008dd20     libeay32_EM.0.9.8e:obj_dat.obj
 0002:00004d38       ??_C@_0BG@DCGANCKA@id?9mod?9kea?9profile?988?$AA@ 1008dd38     libeay32_EM.0.9.8e:obj_dat.obj
 0002:00004d50       ??_C@_0L@KPDLDADF@id?9mod?9cmc?$AA@ 1008dd50     libeay32_EM.0.9.8e:obj_dat.obj
 0002:00004d5c       ??_C@_0M@GHFPFJPB@id?9mod?9crmf?$AA@ 1008dd5c     libeay32_EM.0.9.8e:obj_dat.obj
 0002:00004d68       ??_C@_0BF@EOKAKKIK@id?9pkix1?9implicit?993?$AA@ 1008dd68     libeay32_EM.0.9.8e:obj_dat.obj
 0002:00004d80       ??_C@_0BF@JEALIPIC@id?9pkix1?9explicit?993?$AA@ 1008dd80     libeay32_EM.0.9.8e:obj_dat.obj
 0002:00004d98       ??_C@_0BF@KMJGBJHG@id?9pkix1?9implicit?988?$AA@ 1008dd98     libeay32_EM.0.9.8e:obj_dat.obj
 0002:00004db0       ??_C@_0BF@HGDNDMHO@id?9pkix1?9explicit?988?$AA@ 1008ddb0     libeay32_EM.0.9.8e:obj_dat.obj
 0002:00004dc8       ??_C@_06PONIBOCI@id?9cct?$AA@ 1008ddc8     libeay32_EM.0.9.8e:obj_dat.obj
 0002:00004dd0       ??_C@_06ELIJBHPL@id?9qcs?$AA@ 1008ddd0     libeay32_EM.0.9.8e:obj_dat.obj
 0002:00004dd8       ??_C@_06GDGEDALH@id?9aca?$AA@ 1008ddd8     libeay32_EM.0.9.8e:obj_dat.obj
 0002:00004de0       ??_C@_06IOIOBGMI@id?9pda?$AA@ 1008dde0     libeay32_EM.0.9.8e:obj_dat.obj
 0002:00004de8       ??_C@_05OHNJGMJE@id?9on?$AA@ 1008dde8     libeay32_EM.0.9.8e:obj_dat.obj
 0002:00004df0       ??_C@_06PBMFLHLE@id?9cmc?$AA@ 1008ddf0     libeay32_EM.0.9.8e:obj_dat.obj
 0002:00004df8       ??_C@_06DOGCNAAM@id?9alg?$AA@ 1008ddf8     libeay32_EM.0.9.8e:obj_dat.obj
 0002:00004e00       ??_C@_07OMHOPMIM@id?9pkip?$AA@ 1008de00     libeay32_EM.0.9.8e:obj_dat.obj
 0002:00004e08       ??_C@_05FDHJOKPN@id?9it?$AA@ 1008de08     libeay32_EM.0.9.8e:obj_dat.obj
 0002:00004e10       ??_C@_05EBEMBIDF@id?9qt?$AA@ 1008de10     libeay32_EM.0.9.8e:obj_dat.obj
 0002:00004e18       ??_C@_0M@FNAFBNKE@id?9pkix?9mod?$AA@ 1008de18     libeay32_EM.0.9.8e:obj_dat.obj
 0002:00004e24       ??_C@_03ODADJPDG@md4?$AA@  1008de24     libeay32_EM.0.9.8e:obj_dat.obj
 0002:00004e28       ??_C@_03HLHMHGOI@MD4?$AA@  1008de28     libeay32_EM.0.9.8e:obj_dat.obj
 0002:00004e2c       ??_C@_0CB@MICJDGGH@id?9smime?9cti?9ets?9proofOfCreation@ 1008de2c     libeay32_EM.0.9.8e:obj_dat.obj
 0002:00004e50       ??_C@_0CB@DDLMHEBC@id?9smime?9cti?9ets?9proofOfApproval@ 1008de50     libeay32_EM.0.9.8e:obj_dat.obj
 0002:00004e74       ??_C@_0BP@ODCAFFCM@id?9smime?9cti?9ets?9proofOfSender?$AA@ 1008de74     libeay32_EM.0.9.8e:obj_dat.obj
 0002:00004e94       ??_C@_0CB@ICJGPMEP@id?9smime?9cti?9ets?9proofOfDelivery@ 1008de94     libeay32_EM.0.9.8e:obj_dat.obj
 0002:00004eb8       ??_C@_0CA@HNGOKBGC@id?9smime?9cti?9ets?9proofOfReceipt?$AA@ 1008deb8     libeay32_EM.0.9.8e:obj_dat.obj
 0002:00004ed8       ??_C@_0BP@BCHFEGHC@id?9smime?9cti?9ets?9proofOfOrigin?$AA@ 1008ded8     libeay32_EM.0.9.8e:obj_dat.obj
 0002:00004ef8       ??_C@_0BN@GPAAHNOH@id?9smime?9spq?9ets?9sqt?9unotice?$AA@ 1008def8     libeay32_EM.0.9.8e:obj_dat.obj
 0002:00004f18       ??_C@_0BJ@IMNKDGEG@id?9smime?9spq?9ets?9sqt?9uri?$AA@ 1008df18     libeay32_EM.0.9.8e:obj_dat.obj
 0002:00004f34       ??_C@_0BB@BMOBKAGE@id?9smime?9cd?9ldap?$AA@ 1008df34     libeay32_EM.0.9.8e:obj_dat.obj
 0002:00004f48       ??_C@_0BI@FIFDKKFJ@id?9smime?9alg?9CMSRC2wrap?$AA@ 1008df48     libeay32_EM.0.9.8e:obj_dat.obj
 0002:00004f60       ??_C@_0BJ@FOFHEIDB@id?9smime?9alg?9CMS3DESwrap?$AA@ 1008df60     libeay32_EM.0.9.8e:obj_dat.obj
 0002:00004f7c       ??_C@_0BC@COOODKPD@id?9smime?9alg?9ESDH?$AA@ 1008df7c     libeay32_EM.0.9.8e:obj_dat.obj
 0002:00004f90       ??_C@_0BF@JNCPAJCA@id?9smime?9alg?9RC2wrap?$AA@ 1008df90     libeay32_EM.0.9.8e:obj_dat.obj
 0002:00004fa8       ??_C@_0BG@HHELPNAK@id?9smime?9alg?93DESwrap?$AA@ 1008dfa8     libeay32_EM.0.9.8e:obj_dat.obj
 0002:00004fc0       ??_C@_0BJ@FIJMOHBJ@id?9smime?9alg?9ESDHwithRC2?$AA@ 1008dfc0     libeay32_EM.0.9.8e:obj_dat.obj
 0002:00004fdc       ??_C@_0BK@JNJOCCCB@id?9smime?9alg?9ESDHwith3DES?$AA@ 1008dfdc     libeay32_EM.0.9.8e:obj_dat.obj
 0002:00004ff8       ??_C@_0BF@KEMAMBKF@id?9smime?9aa?9dvcs?9dvc?$AA@ 1008dff8     libeay32_EM.0.9.8e:obj_dat.obj
 0002:00005010       ??_C@_0BK@HDBIPLFI@id?9smime?9aa?9signatureType?$AA@ 1008e010     libeay32_EM.0.9.8e:obj_dat.obj
 0002:0000502c       ??_C@_0CB@BEMKNJGO@id?9smime?9aa?9ets?9archiveTimeStamp@ 1008e02c     libeay32_EM.0.9.8e:obj_dat.obj
 0002:00005050       ??_C@_0CB@CJNBPJE@id?9smime?9aa?9ets?9certCRLTimestamp@ 1008e050     libeay32_EM.0.9.8e:obj_dat.obj
 0002:00005074       ??_C@_0BN@HGLOGOFI@id?9smime?9aa?9ets?9escTimeStamp?$AA@ 1008e074     libeay32_EM.0.9.8e:obj_dat.obj
 0002:00005094       ??_C@_0CB@GOCEFPFO@id?9smime?9aa?9ets?9revocationValues@ 1008e094     libeay32_EM.0.9.8e:obj_dat.obj
 0002:000050b8       ??_C@_0BL@IFKOLDIG@id?9smime?9aa?9ets?9certValues?$AA@ 1008e0b8     libeay32_EM.0.9.8e:obj_dat.obj
 0002:000050d4       ??_C@_0BP@BCHJHNFO@id?9smime?9aa?9ets?9RevocationRefs?$AA@ 1008e0d4     libeay32_EM.0.9.8e:obj_dat.obj
 0002:000050f4       ??_C@_0CA@NKIOCHLG@id?9smime?9aa?9ets?9CertificateRefs?$AA@ 1008e0f4     libeay32_EM.0.9.8e:obj_dat.obj
 0002:00005114       ??_C@_0CB@GHKINGOH@id?9smime?9aa?9ets?9contentTimestamp@ 1008e114     libeay32_EM.0.9.8e:obj_dat.obj
 0002:00005138       ??_C@_0BN@JFIFOPBH@id?9smime?9aa?9ets?9otherSigCert?$AA@ 1008e138     libeay32_EM.0.9.8e:obj_dat.obj
 0002:00005158       ??_C@_0BL@KDJDAGDC@id?9smime?9aa?9ets?9signerAttr?$AA@ 1008e158     libeay32_EM.0.9.8e:obj_dat.obj
 0002:00005174       ??_C@_0BP@EODAELPO@id?9smime?9aa?9ets?9signerLocation?$AA@ 1008e174     libeay32_EM.0.9.8e:obj_dat.obj
 0002:00005194       ??_C@_0BP@OLIFPEIM@id?9smime?9aa?9ets?9commitmentType?$AA@ 1008e194     libeay32_EM.0.9.8e:obj_dat.obj
 0002:000051b4       ??_C@_0BM@GKFMJCFL@id?9smime?9aa?9ets?9sigPolicyId?$AA@ 1008e1b4     libeay32_EM.0.9.8e:obj_dat.obj
 0002:000051d0       ??_C@_0BL@DHJOIJNE@id?9smime?9aa?9timeStampToken?$AA@ 1008e1d0     libeay32_EM.0.9.8e:obj_dat.obj
 0002:000051ec       ??_C@_0BO@CEEOANBD@id?9smime?9aa?9smimeEncryptCerts?$AA@ 1008e1ec     libeay32_EM.0.9.8e:obj_dat.obj
 0002:0000520c       ??_C@_0BP@LHGJLGIB@id?9smime?9aa?9signingCertificate?$AA@ 1008e20c     libeay32_EM.0.9.8e:obj_dat.obj
 0002:0000522c       ??_C@_0BK@LAPEFMP@id?9smime?9aa?9encrypKeyPref?$AA@ 1008e22c     libeay32_EM.0.9.8e:obj_dat.obj
 0002:00005248       ??_C@_0BN@LEFAEFL@id?9smime?9aa?9contentReference?$AA@ 1008e248     libeay32_EM.0.9.8e:obj_dat.obj
 0002:00005268       ??_C@_0BN@NFAAOKEA@id?9smime?9aa?9equivalentLabels?$AA@ 1008e268     libeay32_EM.0.9.8e:obj_dat.obj
 0002:00005288       ??_C@_0BF@CFNHFPDB@id?9smime?9aa?9macValue?$AA@ 1008e288     libeay32_EM.0.9.8e:obj_dat.obj
 0002:000052a0       ??_C@_0BO@KMJGIAMK@id?9smime?9aa?9contentIdentifier?$AA@ 1008e2a0     libeay32_EM.0.9.8e:obj_dat.obj
 0002:000052c0       ??_C@_0BN@GCCNOJCG@id?9smime?9aa?9encapContentType?$AA@ 1008e2c0     libeay32_EM.0.9.8e:obj_dat.obj
 0002:000052e0       ??_C@_0BJ@LJLDKMDH@id?9smime?9aa?9msgSigDigest?$AA@ 1008e2e0     libeay32_EM.0.9.8e:obj_dat.obj
 0002:000052fc       ??_C@_0BI@EMGPJFHB@id?9smime?9aa?9contentHint?$AA@ 1008e2fc     libeay32_EM.0.9.8e:obj_dat.obj
 0002:00005314       ??_C@_0BM@OEKGBMLE@id?9smime?9aa?9mlExpandHistory?$AA@ 1008e314     libeay32_EM.0.9.8e:obj_dat.obj
 0002:00005330       ??_C@_0BK@DNJNJILO@id?9smime?9aa?9securityLabel?$AA@ 1008e330     libeay32_EM.0.9.8e:obj_dat.obj
 0002:0000534c       ??_C@_0BL@LMGNMPFD@id?9smime?9aa?9receiptRequest?$AA@ 1008e34c     libeay32_EM.0.9.8e:obj_dat.obj
 0002:00005368       ??_C@_0BN@POKJLKJJ@id?9smime?9ct?9DVCSResponseData?$AA@ 1008e368     libeay32_EM.0.9.8e:obj_dat.obj
 0002:00005388       ??_C@_0BM@MFKPCEGN@id?9smime?9ct?9DVCSRequestData?$AA@ 1008e388     libeay32_EM.0.9.8e:obj_dat.obj
 0002:000053a4       ??_C@_0BI@BGKPNMK@id?9smime?9ct?9contentInfo?$AA@ 1008e3a4     libeay32_EM.0.9.8e:obj_dat.obj
 0002:000053bc       ??_C@_0BE@FKPPBHI@id?9smime?9ct?9TDTInfo?$AA@ 1008e3bc     libeay32_EM.0.9.8e:obj_dat.obj
 0002:000053d0       ??_C@_0BE@KHNGFDDI@id?9smime?9ct?9TSTInfo?$AA@ 1008e3d0     libeay32_EM.0.9.8e:obj_dat.obj
 0002:000053e4       ??_C@_0BI@DBILCLFJ@id?9smime?9ct?9publishCert?$AA@ 1008e3e4     libeay32_EM.0.9.8e:obj_dat.obj
 0002:000053fc       ??_C@_0BF@KGEHGOF@id?9smime?9ct?9authData?$AA@ 1008e3fc     libeay32_EM.0.9.8e:obj_dat.obj
 0002:00005414       ??_C@_0BE@GCHIHBHA@id?9smime?9ct?9receipt?$AA@ 1008e414     libeay32_EM.0.9.8e:obj_dat.obj
 0002:00005428       ??_C@_0BP@CCCOHHAI@id?9smime?9mod?9ets?9eSigPolicy?997?$AA@ 1008e428     libeay32_EM.0.9.8e:obj_dat.obj
 0002:00005448       ??_C@_0BP@KEHEABPA@id?9smime?9mod?9ets?9eSigPolicy?988?$AA@ 1008e448     libeay32_EM.0.9.8e:obj_dat.obj
 0002:00005468       ??_C@_0BP@POGMGJII@id?9smime?9mod?9ets?9eSignature?997?$AA@ 1008e468     libeay32_EM.0.9.8e:obj_dat.obj
 0002:00005488       ??_C@_0BP@HIDGBPHA@id?9smime?9mod?9ets?9eSignature?988?$AA@ 1008e488     libeay32_EM.0.9.8e:obj_dat.obj
 0002:000054a8       ??_C@_0BE@PEENABNJ@id?9smime?9mod?9msg?9v3?$AA@ 1008e4a8     libeay32_EM.0.9.8e:obj_dat.obj
 0002:000054bc       ??_C@_0BB@LBBEMNBN@id?9smime?9mod?9oid?$AA@ 1008e4bc     libeay32_EM.0.9.8e:obj_dat.obj
 0002:000054d0       ??_C@_0BB@MKJLIPEJ@id?9smime?9mod?9ess?$AA@ 1008e4d0     libeay32_EM.0.9.8e:obj_dat.obj
 0002:000054e4       ??_C@_0BB@PJEIFOOP@id?9smime?9mod?9cms?$AA@ 1008e4e4     libeay32_EM.0.9.8e:obj_dat.obj
 0002:000054f8       ??_C@_0N@CFBKAPGC@id?9smime?9cti?$AA@ 1008e4f8     libeay32_EM.0.9.8e:obj_dat.obj
 0002:00005508       ??_C@_0N@PABBGIHI@id?9smime?9spq?$AA@ 1008e508     libeay32_EM.0.9.8e:obj_dat.obj
 0002:00005518       ??_C@_0M@LHBAJBP@id?9smime?9cd?$AA@ 1008e518     libeay32_EM.0.9.8e:obj_dat.obj
 0002:00005524       ??_C@_0N@DKFBIKP@id?9smime?9alg?$AA@ 1008e524     libeay32_EM.0.9.8e:obj_dat.obj
 0002:00005534       ??_C@_0M@HFICCJDE@id?9smime?9aa?$AA@ 1008e534     libeay32_EM.0.9.8e:obj_dat.obj
 0002:00005540       ??_C@_0M@EBLDBLEO@id?9smime?9ct?$AA@ 1008e540     libeay32_EM.0.9.8e:obj_dat.obj
 0002:0000554c       ??_C@_0N@GABIEKIN@id?9smime?9mod?$AA@ 1008e54c     libeay32_EM.0.9.8e:obj_dat.obj
 0002:0000555c       ??_C@_06DFGHEKNE@S?1MIME?$AA@ 1008e55c     libeay32_EM.0.9.8e:obj_dat.obj
 0002:00005564       ??_C@_05HHBEAKJJ@SMIME?$AA@ 1008e564     libeay32_EM.0.9.8e:obj_dat.obj
 0002:0000556c       ??_C@_05HGOIFJJD@pkcs5?$AA@ 1008e56c     libeay32_EM.0.9.8e:obj_dat.obj
 0002:00005574       ??_C@_05BCIEJMJH@pkcs1?$AA@ 1008e574     libeay32_EM.0.9.8e:obj_dat.obj
 0002:0000557c       ??_C@_0L@DJCLIPOH@X9?457?5CM?5?$DP?$AA@ 1008e57c     libeay32_EM.0.9.8e:obj_dat.obj
 0002:00005588       ??_C@_04CGFPFLFA@X9cm?$AA@ 1008e588     libeay32_EM.0.9.8e:obj_dat.obj
 0002:00005590       ??_C@_05PAJLFBHD@X9?457?$AA@ 1008e590     libeay32_EM.0.9.8e:obj_dat.obj
 0002:00005598       ??_C@_05OCCOPOJN@X9?957?$AA@ 1008e598     libeay32_EM.0.9.8e:obj_dat.obj
 0002:000055a0       ??_C@_0BD@NMCDOJHL@ISO?5US?5Member?5Body?$AA@ 1008e5a0     libeay32_EM.0.9.8e:obj_dat.obj
 0002:000055b4       ??_C@_06EKAADAMF@ISO?9US?$AA@ 1008e5b4     libeay32_EM.0.9.8e:obj_dat.obj
 0002:000055bc       ??_C@_0BA@BGDAEHGF@ISO?5Member?5Body?$AA@ 1008e5bc     libeay32_EM.0.9.8e:obj_dat.obj
 0002:000055cc       ??_C@_0M@CMICFDOA@member?9body?$AA@ 1008e5cc     libeay32_EM.0.9.8e:obj_dat.obj
 0002:000055d8       ??_C@_03CMEHDJAL@iso?$AA@  1008e5d8     libeay32_EM.0.9.8e:obj_dat.obj
 0002:000055dc       ??_C@_03CBLMPEHH@ISO?$AA@  1008e5dc     libeay32_EM.0.9.8e:obj_dat.obj
 0002:000055e0       ??_C@_0N@CPJNIPDD@OCSP?5Signing?$AA@ 1008e5e0     libeay32_EM.0.9.8e:obj_dat.obj
 0002:000055f0       ??_C@_0M@HBKJLKNM@OCSPSigning?$AA@ 1008e5f0     libeay32_EM.0.9.8e:obj_dat.obj
 0002:000055fc       ??_C@_0L@CABCENFK@CA?5Issuers?$AA@ 1008e5fc     libeay32_EM.0.9.8e:obj_dat.obj
 0002:00005608       ??_C@_09GFPECPIH@caIssuers?$AA@ 1008e608     libeay32_EM.0.9.8e:obj_dat.obj
 0002:00005614       ??_C@_04LOJOPNBE@OCSP?$AA@ 1008e614     libeay32_EM.0.9.8e:obj_dat.obj
 0002:0000561c       ??_C@_0BN@EILCOJAN@Authority?5Information?5Access?$AA@ 1008e61c     libeay32_EM.0.9.8e:obj_dat.obj
 0002:0000563c       ??_C@_0BE@PLCGCINM@authorityInfoAccess?$AA@ 1008e63c     libeay32_EM.0.9.8e:obj_dat.obj
 0002:00005650       ??_C@_05BHKIKJBE@id?9ad?$AA@ 1008e650     libeay32_EM.0.9.8e:obj_dat.obj
 0002:00005658       ??_C@_05BDFHFBBC@id?9pe?$AA@ 1008e658     libeay32_EM.0.9.8e:obj_dat.obj
 0002:00005660       ??_C@_0M@DNNLEIMI@dnQualifier?$AA@ 1008e660     libeay32_EM.0.9.8e:obj_dat.obj
 0002:0000566c       ??_C@_04MEMAJGDJ@name?$AA@ 1008e66c     libeay32_EM.0.9.8e:obj_dat.obj
 0002:00005674       ??_C@_0BC@GLHEKHCC@Extension?5Request?$AA@ 1008e674     libeay32_EM.0.9.8e:obj_dat.obj
 0002:00005688       ??_C@_06EJACAMDF@extReq?$AA@ 1008e688     libeay32_EM.0.9.8e:obj_dat.obj
 0002:00005690       ??_C@_0BM@MEJAMAEO@Microsoft?5Extension?5Request?$AA@ 1008e690     libeay32_EM.0.9.8e:obj_dat.obj
 0002:000056ac       ??_C@_08HCCJAOPJ@msExtReq?$AA@ 1008e6ac     libeay32_EM.0.9.8e:obj_dat.obj
 0002:000056b8       ??_C@_0BG@JLHBEJLP@pbeWithSHA1AndDES?9CBC?$AA@ 1008e6b8     libeay32_EM.0.9.8e:obj_dat.obj
 0002:000056d0       ??_C@_0N@GOPIPBOD@PBE?9SHA1?9DES?$AA@ 1008e6d0     libeay32_EM.0.9.8e:obj_dat.obj
 0002:000056e0       ??_C@_0BF@CKDLCJKD@pbeWithMD5AndRC2?9CBC?$AA@ 1008e6e0     libeay32_EM.0.9.8e:obj_dat.obj
 0002:000056f8       ??_C@_0P@IDPFKEHM@PBE?9MD5?9RC2?964?$AA@ 1008e6f8     libeay32_EM.0.9.8e:obj_dat.obj
 0002:00005708       ??_C@_0BF@FOKDMACM@pbeWithMD2AndRC2?9CBC?$AA@ 1008e708     libeay32_EM.0.9.8e:obj_dat.obj
 0002:00005720       ??_C@_0P@OHJEMJLF@PBE?9MD2?9RC2?964?$AA@ 1008e720     libeay32_EM.0.9.8e:obj_dat.obj
 0002:00005730       ??_C@_0BE@CEEFMCAI@S?1MIME?5Capabilities?$AA@ 1008e730     libeay32_EM.0.9.8e:obj_dat.obj
 0002:00005744       ??_C@_0L@LCBJGKJG@SMIME?9CAPS?$AA@ 1008e744     libeay32_EM.0.9.8e:obj_dat.obj
 0002:00005750       ??_C@_0L@CLELMECA@rc2?964?9cbc?$AA@ 1008e750     libeay32_EM.0.9.8e:obj_dat.obj
 0002:0000575c       ??_C@_0L@OPHBIFFL@RC2?964?9CBC?$AA@ 1008e75c     libeay32_EM.0.9.8e:obj_dat.obj
 0002:00005768       ??_C@_0BN@KPMBKEE@Policy?5Qualifier?5User?5Notice?$AA@ 1008e768     libeay32_EM.0.9.8e:obj_dat.obj
 0002:00005788       ??_C@_0O@CJFHFAHE@id?9qt?9unotice?$AA@ 1008e788     libeay32_EM.0.9.8e:obj_dat.obj
 0002:00005798       ??_C@_0BF@HPKIKKPI@Policy?5Qualifier?5CPS?$AA@ 1008e798     libeay32_EM.0.9.8e:obj_dat.obj
 0002:000057b0       ??_C@_09MIPGHKGJ@id?9qt?9cps?$AA@ 1008e7b0     libeay32_EM.0.9.8e:obj_dat.obj
 0002:000057bc       ??_C@_0N@KANOAIP@hmacWithSHA1?$AA@ 1008e7bc     libeay32_EM.0.9.8e:obj_dat.obj
 0002:000057cc       ??_C@_06DEJMPFNK@PBMAC1?$AA@ 1008e7cc     libeay32_EM.0.9.8e:obj_dat.obj
 0002:000057d4       ??_C@_05EPMADBBF@PBES2?$AA@ 1008e7d4     libeay32_EM.0.9.8e:obj_dat.obj
 0002:000057dc       ??_C@_07KAOEJCFK@x509Crl?$AA@ 1008e7dc     libeay32_EM.0.9.8e:obj_dat.obj
 0002:000057e4       ??_C@_0BA@BFAOBDKH@sdsiCertificate?$AA@ 1008e7e4     libeay32_EM.0.9.8e:obj_dat.obj
 0002:000057f4       ??_C@_0BA@EMOFOCJL@x509Certificate?$AA@ 1008e7f4     libeay32_EM.0.9.8e:obj_dat.obj
 0002:00005804       ??_C@_0L@BCMHPPAO@localKeyID?$AA@ 1008e804     libeay32_EM.0.9.8e:obj_dat.obj
 0002:00005810       ??_C@_0N@BGFMPLCM@friendlyName?$AA@ 1008e810     libeay32_EM.0.9.8e:obj_dat.obj
 0002:00005820       ??_C@_0BA@KAKLKBBC@safeContentsBag?$AA@ 1008e820     libeay32_EM.0.9.8e:obj_dat.obj
 0002:00005830       ??_C@_09DELDBPIE@secretBag?$AA@ 1008e830     libeay32_EM.0.9.8e:obj_dat.obj
 0002:0000583c       ??_C@_06JAFBIMLO@crlBag?$AA@ 1008e83c     libeay32_EM.0.9.8e:obj_dat.obj
 0002:00005844       ??_C@_07FDLMCII@certBag?$AA@ 1008e844     libeay32_EM.0.9.8e:obj_dat.obj
 0002:0000584c       ??_C@_0BE@ELJKIANF@pkcs8ShroudedKeyBag?$AA@ 1008e84c     libeay32_EM.0.9.8e:obj_dat.obj
 0002:00005860       ??_C@_06BFGNOIAI@keyBag?$AA@ 1008e860     libeay32_EM.0.9.8e:obj_dat.obj
 0002:00005868       ??_C@_0BL@CKNKIMON@pbeWithSHA1And40BitRC2?9CBC?$AA@ 1008e868     libeay32_EM.0.9.8e:obj_dat.obj
 0002:00005884       ??_C@_0BA@MNBMNMAN@PBE?9SHA1?9RC2?940?$AA@ 1008e884     libeay32_EM.0.9.8e:obj_dat.obj
 0002:00005894       ??_C@_0BM@DOLDINME@pbeWithSHA1And128BitRC2?9CBC?$AA@ 1008e894     libeay32_EM.0.9.8e:obj_dat.obj
 0002:000058b0       ??_C@_0BB@FNLJPIMG@PBE?9SHA1?9RC2?9128?$AA@ 1008e8b0     libeay32_EM.0.9.8e:obj_dat.obj
 0002:000058c4       ??_C@_0CB@NCMPKEGH@pbeWithSHA1And2?9KeyTripleDES?9CBC@ 1008e8c4     libeay32_EM.0.9.8e:obj_dat.obj
 0002:000058e8       ??_C@_0O@HOHOOIGM@PBE?9SHA1?92DES?$AA@ 1008e8e8     libeay32_EM.0.9.8e:obj_dat.obj
 0002:000058f8       ??_C@_0CB@FCNCEDP@pbeWithSHA1And3?9KeyTripleDES?9CBC@ 1008e8f8     libeay32_EM.0.9.8e:obj_dat.obj
 0002:0000591c       ??_C@_0O@EDBOMBNM@PBE?9SHA1?93DES?$AA@ 1008e91c     libeay32_EM.0.9.8e:obj_dat.obj
 0002:0000592c       ??_C@_0BH@OCAEJMIL@pbeWithSHA1And40BitRC4?$AA@ 1008e92c     libeay32_EM.0.9.8e:obj_dat.obj
 0002:00005944       ??_C@_0BA@ECFMCJKN@PBE?9SHA1?9RC4?940?$AA@ 1008e944     libeay32_EM.0.9.8e:obj_dat.obj
 0002:00005954       ??_C@_0BI@LBIFCLPB@pbeWithSHA1And128BitRC4?$AA@ 1008e954     libeay32_EM.0.9.8e:obj_dat.obj
 0002:0000596c       ??_C@_0BB@ILOABLNL@PBE?9SHA1?9RC4?9128?$AA@ 1008e96c     libeay32_EM.0.9.8e:obj_dat.obj
 0002:00005980       ??_C@_0BD@PNDCMCDK@Strong?5Extranet?5ID?$AA@ 1008e980     libeay32_EM.0.9.8e:obj_dat.obj
 0002:00005994       ??_C@_07DKMNOLMH@SXNetID?$AA@ 1008e994     libeay32_EM.0.9.8e:obj_dat.obj
 0002:0000599c       ??_C@_0BA@JDBEMONE@Invalidity?5Date?$AA@ 1008e99c     libeay32_EM.0.9.8e:obj_dat.obj
 0002:000059ac       ??_C@_0P@BKEGCOMO@invalidityDate?$AA@ 1008e9ac     libeay32_EM.0.9.8e:obj_dat.obj
 0002:000059bc       ??_C@_0BH@GODIEFKG@X509v3?5CRL?5Reason?5Code?$AA@ 1008e9bc     libeay32_EM.0.9.8e:obj_dat.obj
 0002:000059d4       ??_C@_09MCDAGILE@CRLReason?$AA@ 1008e9d4     libeay32_EM.0.9.8e:obj_dat.obj
 0002:000059e0       ??_C@_0BL@HLNLPBHP@X509v3?5Delta?5CRL?5Indicator?$AA@ 1008e9e0     libeay32_EM.0.9.8e:obj_dat.obj
 0002:000059fc       ??_C@_08ECNAKPJJ@deltaCRL?$AA@ 1008e9fc     libeay32_EM.0.9.8e:obj_dat.obj
 0002:00005a08       ??_C@_0BN@MDNLHLBL@Netscape?5Server?5Gated?5Crypto?$AA@ 1008ea08     libeay32_EM.0.9.8e:obj_dat.obj
 0002:00005a28       ??_C@_05LFIIINKG@nsSGC?$AA@ 1008ea28     libeay32_EM.0.9.8e:obj_dat.obj
 0002:00005a30       ??_C@_0CA@IJODBCMB@Microsoft?5Encrypted?5File?5System?$AA@ 1008ea30     libeay32_EM.0.9.8e:obj_dat.obj
 0002:00005a50       ??_C@_05NGOIPCN@msEFS?$AA@ 1008ea50     libeay32_EM.0.9.8e:obj_dat.obj
 0002:00005a58       ??_C@_0BO@FBDDCLK@Microsoft?5Server?5Gated?5Crypto?$AA@ 1008ea58     libeay32_EM.0.9.8e:obj_dat.obj
 0002:00005a78       ??_C@_05DDBMPPAI@msSGC?$AA@ 1008ea78     libeay32_EM.0.9.8e:obj_dat.obj
 0002:00005a80       ??_C@_0BN@GNMCHNOI@Microsoft?5Trust?5List?5Signing?$AA@ 1008ea80     libeay32_EM.0.9.8e:obj_dat.obj
 0002:00005aa0       ??_C@_09HGCLLDPK@msCTLSign?$AA@ 1008eaa0     libeay32_EM.0.9.8e:obj_dat.obj
 0002:00005aac       ??_C@_0CC@GKFNEBFA@Microsoft?5Commercial?5Code?5Signin@ 1008eaac     libeay32_EM.0.9.8e:obj_dat.obj
 0002:00005ad0       ??_C@_09PDGAMFAO@msCodeCom?$AA@ 1008ead0     libeay32_EM.0.9.8e:obj_dat.obj
 0002:00005adc       ??_C@_0CC@NDDHKAMP@Microsoft?5Individual?5Code?5Signin@ 1008eadc     libeay32_EM.0.9.8e:obj_dat.obj
 0002:00005b00       ??_C@_09EMNNPEBE@msCodeInd?$AA@ 1008eb00     libeay32_EM.0.9.8e:obj_dat.obj
 0002:00005b0c       ??_C@_0O@GMMBLMEE@Time?5Stamping?$AA@ 1008eb0c     libeay32_EM.0.9.8e:obj_dat.obj
 0002:00005b1c       ??_C@_0N@LONEBHPN@timeStamping?$AA@ 1008eb1c     libeay32_EM.0.9.8e:obj_dat.obj
 0002:00005b2c       ??_C@_0BC@BLBGFKKG@E?9mail?5Protection?$AA@ 1008eb2c     libeay32_EM.0.9.8e:obj_dat.obj
 0002:00005b40       ??_C@_0BA@NPCFDPCO@emailProtection?$AA@ 1008eb40     libeay32_EM.0.9.8e:obj_dat.obj
 0002:00005b50       ??_C@_0N@CHJHLHFC@Code?5Signing?$AA@ 1008eb50     libeay32_EM.0.9.8e:obj_dat.obj
 0002:00005b60       ??_C@_0M@OJNCNGJ@codeSigning?$AA@ 1008eb60     libeay32_EM.0.9.8e:obj_dat.obj
 0002:00005b6c       ??_C@_0BO@FEMCBEOF@TLS?5Web?5Client?5Authentication?$AA@ 1008eb6c     libeay32_EM.0.9.8e:obj_dat.obj
 0002:00005b8c       ??_C@_0L@HCMKLLOP@clientAuth?$AA@ 1008eb8c     libeay32_EM.0.9.8e:obj_dat.obj
 0002:00005b98       ??_C@_0BO@HPFOJNNE@TLS?5Web?5Server?5Authentication?$AA@ 1008eb98     libeay32_EM.0.9.8e:obj_dat.obj
 0002:00005bb8       ??_C@_0L@CINGAJGN@serverAuth?$AA@ 1008ebb8     libeay32_EM.0.9.8e:obj_dat.obj
 0002:00005bc4       ??_C@_05DEJBPLJH@id?9kp?$AA@ 1008ebc4     libeay32_EM.0.9.8e:obj_dat.obj
 0002:00005bcc       ??_C@_04EAPCHJAG@PKIX?$AA@ 1008ebcc     libeay32_EM.0.9.8e:obj_dat.obj
 0002:00005bd4       ??_C@_0BK@KFMGFBEG@X509v3?5Extended?5Key?5Usage?$AA@ 1008ebd4     libeay32_EM.0.9.8e:obj_dat.obj
 0002:00005bf0       ??_C@_0BB@KGNEOBKL@zlib?5compression?$AA@ 1008ebf0     libeay32_EM.0.9.8e:obj_dat.obj
 0002:00005c04       ??_C@_04CHLIKDMF@ZLIB?$AA@ 1008ec04     libeay32_EM.0.9.8e:obj_dat.obj
 0002:00005c0c       ??_C@_0BH@CAEIMNHD@run?5length?5compression?$AA@ 1008ec0c     libeay32_EM.0.9.8e:obj_dat.obj
 0002:00005c24       ??_C@_03ELDBCICO@RLE?$AA@  1008ec24     libeay32_EM.0.9.8e:obj_dat.obj
 0002:00005c28       ??_C@_07NLMEMEEK@rc5?9ofb?$AA@ 1008ec28     libeay32_EM.0.9.8e:obj_dat.obj
 0002:00005c30       ??_C@_07OAPEFCPM@RC5?9OFB?$AA@ 1008ec30     libeay32_EM.0.9.8e:obj_dat.obj
 0002:00005c38       ??_C@_07JBBCHLPC@rc5?9cfb?$AA@ 1008ec38     libeay32_EM.0.9.8e:obj_dat.obj
 0002:00005c40       ??_C@_07KKCCONEE@RC5?9CFB?$AA@ 1008ec40     libeay32_EM.0.9.8e:obj_dat.obj
 0002:00005c48       ??_C@_07LCLCOGMF@rc5?9ecb?$AA@ 1008ec48     libeay32_EM.0.9.8e:obj_dat.obj
 0002:00005c50       ??_C@_07IJICHAHD@RC5?9ECB?$AA@ 1008ec50     libeay32_EM.0.9.8e:obj_dat.obj
 0002:00005c58       ??_C@_07IPAAOCGP@rc5?9cbc?$AA@ 1008ec58     libeay32_EM.0.9.8e:obj_dat.obj
 0002:00005c60       ??_C@_07LEDAHENJ@RC5?9CBC?$AA@ 1008ec60     libeay32_EM.0.9.8e:obj_dat.obj
 0002:00005c68       ??_C@_0BB@DCJDAKFH@ripemd160WithRSA?$AA@ 1008ec68     libeay32_EM.0.9.8e:obj_dat.obj
 0002:00005c7c       ??_C@_0O@JPOIHGOH@RSA?9RIPEMD160?$AA@ 1008ec7c     libeay32_EM.0.9.8e:obj_dat.obj
 0002:00005c8c       ??_C@_09EDIPKBN@ripemd160?$AA@ 1008ec8c     libeay32_EM.0.9.8e:obj_dat.obj
 0002:00005c98       ??_C@_09DJDCAKJG@RIPEMD160?$AA@ 1008ec98     libeay32_EM.0.9.8e:obj_dat.obj
 0002:00005ca4       ??_C@_0O@GMANLAEO@dsaEncryption?$AA@ 1008eca4     libeay32_EM.0.9.8e:obj_dat.obj
 0002:00005cb4       ??_C@_03ENFFABCE@DSA?$AA@  1008ecb4     libeay32_EM.0.9.8e:obj_dat.obj
 0002:00005cb8       ??_C@_0M@KECGAPAA@sha1WithRSA?$AA@ 1008ecb8     libeay32_EM.0.9.8e:obj_dat.obj
 0002:00005cc4       ??_C@_0L@EMMEGDKK@RSA?9SHA1?92?$AA@ 1008ecc4     libeay32_EM.0.9.8e:obj_dat.obj
 0002:00005cd0       ??_C@_08GOLKFMKI@md5?9sha1?$AA@ 1008ecd0     libeay32_EM.0.9.8e:obj_dat.obj
 0002:00005cdc       ??_C@_08EMIDHKIH@MD5?9SHA1?$AA@ 1008ecdc     libeay32_EM.0.9.8e:obj_dat.obj
 0002:00005ce8       ??_C@_0M@EFJKPOPH@dsaWithSHA1?$AA@ 1008ece8     libeay32_EM.0.9.8e:obj_dat.obj
 0002:00005cf4       ??_C@_08IOHJAANG@DSA?9SHA1?$AA@ 1008ecf4     libeay32_EM.0.9.8e:obj_dat.obj
 0002:00005d00       ??_C@_0BG@JCFINJGL@pbeWithMD5AndCast5CBC?$AA@ 1008ed00     libeay32_EM.0.9.8e:obj_dat.obj
 0002:00005d18       ??_C@_09ECHHPLBP@cast5?9ofb?$AA@ 1008ed18     libeay32_EM.0.9.8e:obj_dat.obj
 0002:00005d24       ??_C@_09LEOLOMNK@CAST5?9OFB?$AA@ 1008ed24     libeay32_EM.0.9.8e:obj_dat.obj
 0002:00005d30       ??_C@_09IKBEEKH@cast5?9cfb?$AA@ 1008ed30     libeay32_EM.0.9.8e:obj_dat.obj
 0002:00005d3c       ??_C@_09PODNFDGC@CAST5?9CFB?$AA@ 1008ed3c     libeay32_EM.0.9.8e:obj_dat.obj
 0002:00005d48       ??_C@_09CLABNJJA@cast5?9ecb?$AA@ 1008ed48     libeay32_EM.0.9.8e:obj_dat.obj
 0002:00005d54       ??_C@_09NNJNMOFF@CAST5?9ECB?$AA@ 1008ed54     libeay32_EM.0.9.8e:obj_dat.obj
 0002:00005d60       ??_C@_09BGLDNNDK@cast5?9cbc?$AA@ 1008ed60     libeay32_EM.0.9.8e:obj_dat.obj
 0002:00005d6c       ??_C@_09OACPMKPP@CAST5?9CBC?$AA@ 1008ed6c     libeay32_EM.0.9.8e:obj_dat.obj
 0002:00005d78       ??_C@_0M@PPJNHBMP@description?$AA@ 1008ed78     libeay32_EM.0.9.8e:obj_dat.obj
 0002:00005d84       ??_C@_05PHLGJONK@title?$AA@ 1008ed84     libeay32_EM.0.9.8e:obj_dat.obj
 0002:00005d8c       ??_C@_0L@CNDCBNIN@md5WithRSA?$AA@ 1008ed8c     libeay32_EM.0.9.8e:obj_dat.obj
 0002:00005d98       ??_C@_0L@NACEPNFC@RSA?9NP?9MD5?$AA@ 1008ed98     libeay32_EM.0.9.8e:obj_dat.obj
 0002:00005da4       ??_C@_0BP@EGHJGANM@X509v3?5CRL?5Distribution?5Points?$AA@ 1008eda4     libeay32_EM.0.9.8e:obj_dat.obj
 0002:00005dc4       ??_C@_0BG@CCHGOEBE@crlDistributionPoints?$AA@ 1008edc4     libeay32_EM.0.9.8e:obj_dat.obj
 0002:00005ddc       ??_C@_08PAKNLFON@initials?$AA@ 1008eddc     libeay32_EM.0.9.8e:obj_dat.obj
 0002:00005de8       ??_C@_07LNKFHLHI@surname?$AA@ 1008ede8     libeay32_EM.0.9.8e:obj_dat.obj
 0002:00005df0       ??_C@_02LONEIP@SN?$AA@     1008edf0     libeay32_EM.0.9.8e:obj_dat.obj
 0002:00005df4       ??_C@_09GCBNJLNP@givenName?$AA@ 1008edf4     libeay32_EM.0.9.8e:obj_dat.obj
 0002:00005e00       ??_C@_02BLJBNPCD@GN?$AA@   1008ee00     libeay32_EM.0.9.8e:obj_dat.obj
 0002:00005e04       ??_C@_0L@CHEFJHBP@rc2?940?9cbc?$AA@ 1008ee04     libeay32_EM.0.9.8e:obj_dat.obj
 0002:00005e10       ??_C@_0L@ODHPNGGE@RC2?940?9CBC?$AA@ 1008ee10     libeay32_EM.0.9.8e:obj_dat.obj
 0002:00005e1c       ??_C@_06GNNJIOGN@rc4?940?$AA@ 1008ee1c     libeay32_EM.0.9.8e:obj_dat.obj
 0002:00005e24       ??_C@_06KFMILCMH@RC4?940?$AA@ 1008ee24     libeay32_EM.0.9.8e:obj_dat.obj
 0002:00005e2c       ??_C@_0M@HGGNEPNN@mdc2WithRSA?$AA@ 1008ee2c     libeay32_EM.0.9.8e:obj_dat.obj
 0002:00005e38       ??_C@_08OMAMCKNL@RSA?9MDC2?$AA@ 1008ee38     libeay32_EM.0.9.8e:obj_dat.obj
 0002:00005e44       ??_C@_04ELNKPKEC@mdc2?$AA@ 1008ee44     libeay32_EM.0.9.8e:obj_dat.obj
 0002:00005e4c       ??_C@_04BCGEDMJI@MDC2?$AA@ 1008ee4c     libeay32_EM.0.9.8e:obj_dat.obj
 0002:00005e54       ??_C@_06OBJCCDFN@bf?9ofb?$AA@ 1008ee54     libeay32_EM.0.9.8e:obj_dat.obj
 0002:00005e5c       ??_C@_06CEHINCIL@BF?9OFB?$AA@ 1008ee5c     libeay32_EM.0.9.8e:obj_dat.obj
 0002:00005e64       ??_C@_06KLEEJMOF@bf?9cfb?$AA@ 1008ee64     libeay32_EM.0.9.8e:obj_dat.obj
 0002:00005e6c       ??_C@_06GOKOGNDD@BF?9CFB?$AA@ 1008ee6c     libeay32_EM.0.9.8e:obj_dat.obj
 0002:00005e74       ??_C@_06IIOEABNC@bf?9ecb?$AA@ 1008ee74     libeay32_EM.0.9.8e:obj_dat.obj
 0002:00005e7c       ??_C@_06ENAOPAAE@BF?9ECB?$AA@ 1008ee7c     libeay32_EM.0.9.8e:obj_dat.obj
 0002:00005e84       ??_C@_06LFFGAFHI@bf?9cbc?$AA@ 1008ee84     libeay32_EM.0.9.8e:obj_dat.obj
 0002:00005e8c       ??_C@_06HALMPEKO@BF?9CBC?$AA@ 1008ee8c     libeay32_EM.0.9.8e:obj_dat.obj
 0002:00005e94       ??_C@_0CA@GODCHEHD@X509v3?5Authority?5Key?5Identifier?$AA@ 1008ee94     libeay32_EM.0.9.8e:obj_dat.obj
 0002:00005eb4       ??_C@_0BH@ICHFALGD@authorityKeyIdentifier?$AA@ 1008eeb4     libeay32_EM.0.9.8e:obj_dat.obj
 0002:00005ecc       ??_C@_0BM@OOFGKLPK@X509v3?5Certificate?5Policies?$AA@ 1008eecc     libeay32_EM.0.9.8e:obj_dat.obj
 0002:00005ee8       ??_C@_0BE@OLMJNPEP@certificatePolicies?$AA@ 1008eee8     libeay32_EM.0.9.8e:obj_dat.obj
 0002:00005efc       ??_C@_0BC@PCPNBDDJ@X509v3?5CRL?5Number?$AA@ 1008eefc     libeay32_EM.0.9.8e:obj_dat.obj
 0002:00005f10       ??_C@_09JDPHHKMA@crlNumber?$AA@ 1008ef10     libeay32_EM.0.9.8e:obj_dat.obj
 0002:00005f1c       ??_C@_0BJ@FBHDAJML@X509v3?5Basic?5Constraints?$AA@ 1008ef1c     libeay32_EM.0.9.8e:obj_dat.obj
 0002:00005f38       ??_C@_0BP@FMJCGPCG@X509v3?5Issuer?5Alternative?5Name?$AA@ 1008ef38     libeay32_EM.0.9.8e:obj_dat.obj
 0002:00005f58       ??_C@_0O@DLIFHFCD@issuerAltName?$AA@ 1008ef58     libeay32_EM.0.9.8e:obj_dat.obj
 0002:00005f68       ??_C@_0CA@OPCJJLNF@X509v3?5Subject?5Alternative?5Name?$AA@ 1008ef68     libeay32_EM.0.9.8e:obj_dat.obj
 0002:00005f88       ??_C@_0P@EOFJHHKD@subjectAltName?$AA@ 1008ef88     libeay32_EM.0.9.8e:obj_dat.obj
 0002:00005f98       ??_C@_0CA@CLGHAMIP@X509v3?5Private?5Key?5Usage?5Period?$AA@ 1008ef98     libeay32_EM.0.9.8e:obj_dat.obj
 0002:00005fb8       ??_C@_0BG@JOIAJOMN@privateKeyUsagePeriod?$AA@ 1008efb8     libeay32_EM.0.9.8e:obj_dat.obj
 0002:00005fd0       ??_C@_0BB@BPPOKNBO@X509v3?5Key?5Usage?$AA@ 1008efd0     libeay32_EM.0.9.8e:obj_dat.obj
 0002:00005fe4       ??_C@_0BO@ILPNOINJ@X509v3?5Subject?5Key?5Identifier?$AA@ 1008efe4     libeay32_EM.0.9.8e:obj_dat.obj
 0002:00006004       ??_C@_0BF@MOEDIMBI@subjectKeyIdentifier?$AA@ 1008f004     libeay32_EM.0.9.8e:obj_dat.obj
 0002:0000601c       ??_C@_05NDHEMDL@id?9ce?$AA@ 1008f01c     libeay32_EM.0.9.8e:obj_dat.obj
 0002:00006024       ??_C@_08KPMCEEEO@desx?9cbc?$AA@ 1008f024     libeay32_EM.0.9.8e:obj_dat.obj
 0002:00006030       ??_C@_08BBKPFFGN@DESX?9CBC?$AA@ 1008f030     libeay32_EM.0.9.8e:obj_dat.obj
 0002:0000603c       ??_C@_0BO@KKKBMKBD@Netscape?5Certificate?5Sequence?$AA@ 1008f03c     libeay32_EM.0.9.8e:obj_dat.obj
 0002:0000605c       ??_C@_0P@OCCBBJKK@nsCertSequence?$AA@ 1008f05c     libeay32_EM.0.9.8e:obj_dat.obj
 0002:0000606c       ??_C@_0BB@DCFBGIOA@Netscape?5Comment?$AA@ 1008f06c     libeay32_EM.0.9.8e:obj_dat.obj
 0002:00006080       ??_C@_09BALDFHMJ@nsComment?$AA@ 1008f080     libeay32_EM.0.9.8e:obj_dat.obj
 0002:0000608c       ??_C@_0BJ@GMBLEMAL@Netscape?5SSL?5Server?5Name?$AA@ 1008f08c     libeay32_EM.0.9.8e:obj_dat.obj
 0002:000060a8       ??_C@_0BA@KNOKNJNE@nsSslServerName?$AA@ 1008f0a8     libeay32_EM.0.9.8e:obj_dat.obj
 0002:000060b8       ??_C@_0BH@EMEFHLC@Netscape?5CA?5Policy?5Url?$AA@ 1008f0b8     libeay32_EM.0.9.8e:obj_dat.obj
 0002:000060d0       ??_C@_0O@DHDIMJD@nsCaPolicyUrl?$AA@ 1008f0d0     libeay32_EM.0.9.8e:obj_dat.obj
 0002:000060e0       ??_C@_0BF@FKENIIHB@Netscape?5Renewal?5Url?$AA@ 1008f0e0     libeay32_EM.0.9.8e:obj_dat.obj
 0002:000060f8       ??_C@_0N@JILHKMLM@nsRenewalUrl?$AA@ 1008f0f8     libeay32_EM.0.9.8e:obj_dat.obj
 0002:00006108       ??_C@_0BL@EMOMOFDB@Netscape?5CA?5Revocation?5Url?$AA@ 1008f108     libeay32_EM.0.9.8e:obj_dat.obj
 0002:00006124       ??_C@_0BC@IKAPCMGG@nsCaRevocationUrl?$AA@ 1008f124     libeay32_EM.0.9.8e:obj_dat.obj
 0002:00006138       ??_C@_0BI@BCDINENC@Netscape?5Revocation?5Url?$AA@ 1008f138     libeay32_EM.0.9.8e:obj_dat.obj
 0002:00006150       ??_C@_0BA@DKPGPAKK@nsRevocationUrl?$AA@ 1008f150     libeay32_EM.0.9.8e:obj_dat.obj
 0002:00006160       ??_C@_0BC@DIHCABP@Netscape?5Base?5Url?$AA@ 1008f160     libeay32_EM.0.9.8e:obj_dat.obj
 0002:00006174       ??_C@_09OCIGDOMM@nsBaseUrl?$AA@ 1008f174     libeay32_EM.0.9.8e:obj_dat.obj
 0002:00006180       ??_C@_0BD@NFPBEMEE@Netscape?5Cert?5Type?$AA@ 1008f180     libeay32_EM.0.9.8e:obj_dat.obj
 0002:00006194       ??_C@_0BA@DDLLDHEM@dsaWithSHA1?9old?$AA@ 1008f194     libeay32_EM.0.9.8e:obj_dat.obj
 0002:000061a4       ??_C@_0N@ONIKBKNK@DSA?9SHA1?9old?$AA@ 1008f1a4     libeay32_EM.0.9.8e:obj_dat.obj
 0002:000061b4       ??_C@_06KBOEGBGA@PBKDF2?$AA@ 1008f1b4     libeay32_EM.0.9.8e:obj_dat.obj
 0002:000061bc       ??_C@_0BG@IBNNJING@pbeWithSHA1AndRC2?9CBC?$AA@ 1008f1bc     libeay32_EM.0.9.8e:obj_dat.obj
 0002:000061d4       ??_C@_0BA@KKPEMNGH@PBE?9SHA1?9RC2?964?$AA@ 1008f1d4     libeay32_EM.0.9.8e:obj_dat.obj
 0002:000061e4       ??_C@_0BC@FFHHBCCH@dsaEncryption?9old?$AA@ 1008f1e4     libeay32_EM.0.9.8e:obj_dat.obj
 0002:000061f8       ??_C@_07PLHLFGGF@DSA?9old?$AA@ 1008f1f8     libeay32_EM.0.9.8e:obj_dat.obj
 0002:00006200       ??_C@_0L@BEHMICBH@dsaWithSHA?$AA@ 1008f200     libeay32_EM.0.9.8e:obj_dat.obj
 0002:0000620c       ??_C@_07JGDBCPKH@DSA?9SHA?$AA@ 1008f20c     libeay32_EM.0.9.8e:obj_dat.obj
 0002:00006214       ??_C@_0BG@DALFFFBE@sha1WithRSAEncryption?$AA@ 1008f214     libeay32_EM.0.9.8e:obj_dat.obj
 0002:0000622c       ??_C@_08FBKDDLCN@RSA?9SHA1?$AA@ 1008f22c     libeay32_EM.0.9.8e:obj_dat.obj
 0002:00006238       ??_C@_04PGHFOLLE@sha1?$AA@ 1008f238     libeay32_EM.0.9.8e:obj_dat.obj
 0002:00006240       ??_C@_04KPMLCNGO@SHA1?$AA@ 1008f240     libeay32_EM.0.9.8e:obj_dat.obj
 0002:00006248       ??_C@_0N@LODGAID@des?9ede3?9ofb?$AA@ 1008f248     libeay32_EM.0.9.8e:obj_dat.obj
 0002:00006258       ??_C@_0N@JPPBGLEM@DES?9EDE3?9OFB?$AA@ 1008f258     libeay32_EM.0.9.8e:obj_dat.obj
 0002:00006268       ??_C@_0M@BOHDOFGF@des?9ede?9ofb?$AA@ 1008f268     libeay32_EM.0.9.8e:obj_dat.obj
 0002:00006274       ??_C@_0M@PDBPCBBK@DES?9EDE?9OFB?$AA@ 1008f274     libeay32_EM.0.9.8e:obj_dat.obj
 0002:00006280       ??_C@_0N@EBDFNPDL@des?9ede3?9cfb?$AA@ 1008f280     libeay32_EM.0.9.8e:obj_dat.obj
 0002:00006290       ??_C@_0N@NFCHNEPE@DES?9EDE3?9CFB?$AA@ 1008f290     libeay32_EM.0.9.8e:obj_dat.obj
 0002:000062a0       ??_C@_0M@FEKFFKNN@des?9ede?9cfb?$AA@ 1008f2a0     libeay32_EM.0.9.8e:obj_dat.obj
 0002:000062ac       ??_C@_0M@LJMJJOKC@DES?9EDE?9CFB?$AA@ 1008f2ac     libeay32_EM.0.9.8e:obj_dat.obj
 0002:000062b8       ??_C@_0BD@JJEILMNP@Netscape?5Data?5Type?$AA@ 1008f2b8     libeay32_EM.0.9.8e:obj_dat.obj
 0002:000062cc       ??_C@_0L@FIMLGGPA@nsDataType?$AA@ 1008f2cc     libeay32_EM.0.9.8e:obj_dat.obj
 0002:000062d8       ??_C@_0BP@LHPGKGFM@Netscape?5Certificate?5Extension?$AA@ 1008f2d8     libeay32_EM.0.9.8e:obj_dat.obj
 0002:000062f8       ??_C@_09JDCKDNMG@nsCertExt?$AA@ 1008f2f8     libeay32_EM.0.9.8e:obj_dat.obj
 0002:00006304       ??_C@_0BO@IAIBEBGO@Netscape?5Communications?5Corp?4?$AA@ 1008f304     libeay32_EM.0.9.8e:obj_dat.obj
 0002:00006324       ??_C@_08BDEPHMAF@Netscape?$AA@ 1008f324     libeay32_EM.0.9.8e:obj_dat.obj
 0002:00006330       ??_C@_0BO@LDCCNBPE@extendedCertificateAttributes?$AA@ 1008f330     libeay32_EM.0.9.8e:obj_dat.obj
 0002:00006350       ??_C@_0BE@MACPCAPF@unstructuredAddress?$AA@ 1008f350     libeay32_EM.0.9.8e:obj_dat.obj
 0002:00006364       ??_C@_0BC@OKHONEEM@challengePassword?$AA@ 1008f364     libeay32_EM.0.9.8e:obj_dat.obj
 0002:00006378       ??_C@_0BB@IPFGMODP@countersignature?$AA@ 1008f378     libeay32_EM.0.9.8e:obj_dat.obj
 0002:0000638c       ??_C@_0M@IJBJCCMP@signingTime?$AA@ 1008f38c     libeay32_EM.0.9.8e:obj_dat.obj
 0002:00006398       ??_C@_0O@JDGJDGC@messageDigest?$AA@ 1008f398     libeay32_EM.0.9.8e:obj_dat.obj
 0002:000063a8       ??_C@_0M@DOEFOEJD@contentType?$AA@ 1008f3a8     libeay32_EM.0.9.8e:obj_dat.obj
 0002:000063b4       ??_C@_0BB@CJIILOEM@unstructuredName?$AA@ 1008f3b4     libeay32_EM.0.9.8e:obj_dat.obj
 0002:000063c8       ??_C@_0N@IHLBAGEP@emailAddress?$AA@ 1008f3c8     libeay32_EM.0.9.8e:obj_dat.obj
 0002:000063d8       ??_C@_05NKFNBGJP@pkcs9?$AA@ 1008f3d8     libeay32_EM.0.9.8e:obj_dat.obj
 0002:000063e0       ??_C@_08OGDEHPAF@idea?9ofb?$AA@ 1008f3e0     libeay32_EM.0.9.8e:obj_dat.obj
 0002:000063ec       ??_C@_08FIFJGOCG@IDEA?9OFB?$AA@ 1008f3ec     libeay32_EM.0.9.8e:obj_dat.obj
 0002:000063f8       ??_C@_07NLMBCAKN@des?9ofb?$AA@ 1008f3f8     libeay32_EM.0.9.8e:obj_dat.obj
 0002:00006400       ??_C@_07OHFNLDCN@DES?9OFB?$AA@ 1008f400     libeay32_EM.0.9.8e:obj_dat.obj
 0002:00006408       ??_C@_0N@FPCHEGKG@des?9ede3?9cbc?$AA@ 1008f408     libeay32_EM.0.9.8e:obj_dat.obj
 0002:00006418       ??_C@_0N@MLDFENGJ@DES?9EDE3?9CBC?$AA@ 1008f418     libeay32_EM.0.9.8e:obj_dat.obj
 0002:00006428       ??_C@_0M@EKLHMDEA@des?9ede?9cbc?$AA@ 1008f428     libeay32_EM.0.9.8e:obj_dat.obj
 0002:00006434       ??_C@_0M@KHNLAHDP@DES?9EDE?9CBC?$AA@ 1008f434     libeay32_EM.0.9.8e:obj_dat.obj
 0002:00006440       ??_C@_0BF@LIDINENF@shaWithRSAEncryption?$AA@ 1008f440     libeay32_EM.0.9.8e:obj_dat.obj
 0002:00006458       ??_C@_07CMOFBHAL@RSA?9SHA?$AA@ 1008f458     libeay32_EM.0.9.8e:obj_dat.obj
 0002:00006460       ??_C@_03JNBDOPOP@sha?$AA@  1008f460     libeay32_EM.0.9.8e:obj_dat.obj
 0002:00006464       ??_C@_03JAOICCJD@SHA?$AA@  1008f464     libeay32_EM.0.9.8e:obj_dat.obj
 0002:00006468       ??_C@_07MGMBPEPC@rc2?9ofb?$AA@ 1008f468     libeay32_EM.0.9.8e:obj_dat.obj
 0002:00006470       ??_C@_07PNPBGCEE@RC2?9OFB?$AA@ 1008f470     libeay32_EM.0.9.8e:obj_dat.obj
 0002:00006478       ??_C@_07IMBHELEK@rc2?9cfb?$AA@ 1008f478     libeay32_EM.0.9.8e:obj_dat.obj
 0002:00006480       ??_C@_07LHCHNNPM@RC2?9CFB?$AA@ 1008f480     libeay32_EM.0.9.8e:obj_dat.obj
 0002:00006488       ??_C@_07KPLHNGHN@rc2?9ecb?$AA@ 1008f488     libeay32_EM.0.9.8e:obj_dat.obj
 0002:00006490       ??_C@_07JEIHEAML@RC2?9ECB?$AA@ 1008f490     libeay32_EM.0.9.8e:obj_dat.obj
 0002:00006498       ??_C@_07JCAFNCNH@rc2?9cbc?$AA@ 1008f498     libeay32_EM.0.9.8e:obj_dat.obj
 0002:000064a0       ??_C@_07KJDFEEGB@RC2?9CBC?$AA@ 1008f4a0     libeay32_EM.0.9.8e:obj_dat.obj
 0002:000064a8       ??_C@_08IPECFNIK@idea?9ecb?$AA@ 1008f4a8     libeay32_EM.0.9.8e:obj_dat.obj
 0002:000064b4       ??_C@_08DBCPEMKJ@IDEA?9ECB?$AA@ 1008f4b4     libeay32_EM.0.9.8e:obj_dat.obj
 0002:000064c0       ??_C@_08KMOCMALN@idea?9cfb?$AA@ 1008f4c0     libeay32_EM.0.9.8e:obj_dat.obj
 0002:000064cc       ??_C@_08BCIPNBJO@IDEA?9CFB?$AA@ 1008f4cc     libeay32_EM.0.9.8e:obj_dat.obj
 0002:000064d8       ??_C@_08LCPAFJCA@idea?9cbc?$AA@ 1008f4d8     libeay32_EM.0.9.8e:obj_dat.obj
 0002:000064e4       ??_C@_08MJNEIAD@IDEA?9CBC?$AA@ 1008f4e4     libeay32_EM.0.9.8e:obj_dat.obj
 0002:000064f0       ??_C@_08LJCBLNOK@des?9ede3?$AA@ 1008f4f0     libeay32_EM.0.9.8e:obj_dat.obj
 0002:000064fc       ??_C@_08FEKFKCFJ@DES?9EDE3?$AA@ 1008f4fc     libeay32_EM.0.9.8e:obj_dat.obj
 0002:00006508       ??_C@_07PILJICGA@des?9ede?$AA@ 1008f508     libeay32_EM.0.9.8e:obj_dat.obj
 0002:00006510       ??_C@_07MECFBBOA@DES?9EDE?$AA@ 1008f510     libeay32_EM.0.9.8e:obj_dat.obj
 0002:00006518       ??_C@_07IPAFAGII@des?9cbc?$AA@ 1008f518     libeay32_EM.0.9.8e:obj_dat.obj
 0002:00006520       ??_C@_07LDJJJFAI@DES?9CBC?$AA@ 1008f520     libeay32_EM.0.9.8e:obj_dat.obj
 0002:00006528       ??_C@_07JBBHJPBF@des?9cfb?$AA@ 1008f528     libeay32_EM.0.9.8e:obj_dat.obj
 0002:00006530       ??_C@_07KNILAMJF@DES?9CFB?$AA@ 1008f530     libeay32_EM.0.9.8e:obj_dat.obj
 0002:00006538       ??_C@_07LCLHACCC@des?9ecb?$AA@ 1008f538     libeay32_EM.0.9.8e:obj_dat.obj
 0002:00006540       ??_C@_07IOCLJBKC@DES?9ECB?$AA@ 1008f540     libeay32_EM.0.9.8e:obj_dat.obj
 0002:00006548       ??_C@_0P@HCMIBBEB@dhKeyAgreement?$AA@ 1008f548     libeay32_EM.0.9.8e:obj_dat.obj
 0002:00006558       ??_C@_05CALCPOBF@pkcs3?$AA@ 1008f558     libeay32_EM.0.9.8e:obj_dat.obj
 0002:00006560       ??_C@_0BE@CAMKAFJN@pkcs7?9encryptedData?$AA@ 1008f560     libeay32_EM.0.9.8e:obj_dat.obj
 0002:00006574       ??_C@_0BB@CJNFBHDI@pkcs7?9digestData?$AA@ 1008f574     libeay32_EM.0.9.8e:obj_dat.obj
 0002:00006588       ??_C@_0BN@LMEEMCPG@pkcs7?9signedAndEnvelopedData?$AA@ 1008f588     libeay32_EM.0.9.8e:obj_dat.obj
 0002:000065a8       ??_C@_0BE@FAIIHMP@pkcs7?9envelopedData?$AA@ 1008f5a8     libeay32_EM.0.9.8e:obj_dat.obj
 0002:000065bc       ??_C@_0BB@PEKKHBEJ@pkcs7?9signedData?$AA@ 1008f5bc     libeay32_EM.0.9.8e:obj_dat.obj
 0002:000065d0       ??_C@_0L@BCKMJOMA@pkcs7?9data?$AA@ 1008f5d0     libeay32_EM.0.9.8e:obj_dat.obj
 0002:000065dc       ??_C@_05EENODLBB@pkcs7?$AA@ 1008f5dc     libeay32_EM.0.9.8e:obj_dat.obj
 0002:000065e4       ??_C@_03DFNMMEBL@rsa?$AA@  1008f5e4     libeay32_EM.0.9.8e:obj_dat.obj
 0002:000065e8       ??_C@_0BH@LAMMAAM@organizationalUnitName?$AA@ 1008f5e8     libeay32_EM.0.9.8e:obj_dat.obj
 0002:00006600       ??_C@_02LMLEEFAB@OU?$AA@   1008f600     libeay32_EM.0.9.8e:obj_dat.obj
 0002:00006604       ??_C@_0BB@GBCNPHLL@organizationName?$AA@ 1008f604     libeay32_EM.0.9.8e:obj_dat.obj
 0002:00006618       ??_C@_01MJMHLOMK@O?$AA@    1008f618     libeay32_EM.0.9.8e:obj_dat.obj
 0002:0000661c       ??_C@_0BE@NKDCJFMD@stateOrProvinceName?$AA@ 1008f61c     libeay32_EM.0.9.8e:obj_dat.obj
 0002:00006630       ??_C@_02LAJDCOFE@ST?$AA@   1008f630     libeay32_EM.0.9.8e:obj_dat.obj
 0002:00006634       ??_C@_0N@LEDCGGBI@localityName?$AA@ 1008f634     libeay32_EM.0.9.8e:obj_dat.obj
 0002:00006644       ??_C@_01OCOKONAJ@L?$AA@    1008f644     libeay32_EM.0.9.8e:obj_dat.obj
 0002:00006648       ??_C@_0M@NPBHECMC@countryName?$AA@ 1008f648     libeay32_EM.0.9.8e:obj_dat.obj
 0002:00006654       ??_C@_01GFHCPBMG@C?$AA@    1008f654     libeay32_EM.0.9.8e:obj_dat.obj
 0002:00006658       ??_C@_0L@OILMNBLH@commonName?$AA@ 1008f658     libeay32_EM.0.9.8e:obj_dat.obj
 0002:00006664       ??_C@_02BMJIHHPP@CN?$AA@   1008f664     libeay32_EM.0.9.8e:obj_dat.obj
 0002:00006668       ??_C@_0BL@NJHHPHOL@directory?5services?5?$CIX?4500?$CJ?$AA@ 1008f668     libeay32_EM.0.9.8e:obj_dat.obj
 0002:00006684       ??_C@_04NGGFHBI@X500?$AA@  1008f684     libeay32_EM.0.9.8e:obj_dat.obj
 0002:0000668c       ??_C@_0BF@DAJHPIMK@pbeWithMD5AndDES?9CBC?$AA@ 1008f68c     libeay32_EM.0.9.8e:obj_dat.obj
 0002:000066a4       ??_C@_0M@KBNDBPIJ@PBE?9MD5?9DES?$AA@ 1008f6a4     libeay32_EM.0.9.8e:obj_dat.obj
 0002:000066b0       ??_C@_0BF@EEAPBBEF@pbeWithMD2AndDES?9CBC?$AA@ 1008f6b0     libeay32_EM.0.9.8e:obj_dat.obj
 0002:000066c8       ??_C@_0M@LMNGCPDB@PBE?9MD2?9DES?$AA@ 1008f6c8     libeay32_EM.0.9.8e:obj_dat.obj
 0002:000066d4       ??_C@_0BF@EEAHCNKC@md5WithRSAEncryption?$AA@ 1008f6d4     libeay32_EM.0.9.8e:obj_dat.obj
 0002:000066ec       ??_C@_07NOGKHCDB@RSA?9MD5?$AA@ 1008f6ec     libeay32_EM.0.9.8e:obj_dat.obj
 0002:000066f4       ??_C@_0BF@ODJKGOJ@md2WithRSAEncryption?$AA@ 1008f6f4     libeay32_EM.0.9.8e:obj_dat.obj
 0002:0000670c       ??_C@_07JBCLOEPG@RSA?9MD2?$AA@ 1008f70c     libeay32_EM.0.9.8e:obj_dat.obj
 0002:00006714       ??_C@_0O@PCHNMHJE@rsaEncryption?$AA@ 1008f714     libeay32_EM.0.9.8e:obj_dat.obj
 0002:00006724       ??_C@_03OODGMOHK@rc4?$AA@  1008f724     libeay32_EM.0.9.8e:obj_dat.obj
 0002:00006728       ??_C@_03HGEJCHKE@RC4?$AA@  1008f728     libeay32_EM.0.9.8e:obj_dat.obj
 0002:0000672c       ??_C@_03PKBIKOHH@md5?$AA@  1008f72c     libeay32_EM.0.9.8e:obj_dat.obj
 0002:00006730       ??_C@_03GCGHEHKJ@MD5?$AA@  1008f730     libeay32_EM.0.9.8e:obj_dat.obj
 0002:00006734       ??_C@_03LFFJDILA@md2?$AA@  1008f734     libeay32_EM.0.9.8e:obj_dat.obj
 0002:00006738       ??_C@_03CNCGNBGO@MD2?$AA@  1008f738     libeay32_EM.0.9.8e:obj_dat.obj
 0002:0000673c       ??_C@_0BN@EBHJCEC@RSA?5Data?5Security?0?5Inc?4?5PKCS?$AA@ 1008f73c     libeay32_EM.0.9.8e:obj_dat.obj
 0002:0000675c       ??_C@_04GCKLMHGD@pkcs?$AA@ 1008f75c     libeay32_EM.0.9.8e:obj_dat.obj
 0002:00006764       ??_C@_0BI@MPBNCOIB@RSA?5Data?5Security?0?5Inc?4?$AA@ 1008f764     libeay32_EM.0.9.8e:obj_dat.obj
 0002:0000677c       ??_C@_06GGEMKGKC@rsadsi?$AA@ 1008f77c     libeay32_EM.0.9.8e:obj_dat.obj
 0002:00006784       ??_C@_09MLGAJAED@undefined?$AA@ 1008f784     libeay32_EM.0.9.8e:obj_dat.obj
 0002:00006790       ??_C@_05DBLJEJPC@UNDEF?$AA@ 1008f790     libeay32_EM.0.9.8e:obj_dat.obj
 0002:00006798       ??_C@_0BL@BPKKLIHO@?4?2crypto?2objects?2obj_dat?4c?$AA@ 1008f798     libeay32_EM.0.9.8e:obj_dat.obj
 0002:000067b4       ??_C@_04MDEFHJHM@?4?$CFlu?$AA@ 1008f7b4     libeay32_EM.0.9.8e:obj_dat.obj
 0002:000067bc       ??_C@_0BJ@BDIDBFLG@?4?2crypto?2asn1?2tasn_enc?4c?$AA@ 1008f7bc     libeay32_EM.0.9.8e:tasn_enc.obj
 0002:000067d8       ??_C@_0BB@KDJGCOOH@?$CFlu?3?$CFs?3?$CFs?3?$CFd?3?$CFs?6?$AA@ 1008f7d8     libeay32_EM.0.9.8e:err_prn.obj
 0002:000067ec       ??_C@_02DKCKIIND@?$CFs?$AA@ 1008f7ec     libeay32_EM.0.9.8e:err_prn.obj
 0002:00006908       ??_C@_0BB@BIPBIGGF@PKCS12_AUTHSAFES?$AA@ 1008f908     libeay32_EM.0.9.8e:p12_asn.obj
 0002:0000691c       ??_C@_0BA@MCGBLIFE@PKCS12_SAFEBAGS?$AA@ 1008f91c     libeay32_EM.0.9.8e:p12_asn.obj
 0002:0000692c       ??_C@_06CEIPPJF@attrib?$AA@ 1008f92c     libeay32_EM.0.9.8e:p12_asn.obj
 0002:00006934       ??_C@_0P@EECFPDPC@PKCS12_SAFEBAG?$AA@ 1008f934     libeay32_EM.0.9.8e:p12_asn.obj
 0002:00006944       ??_C@_09EBGANBLK@value?4bag?$AA@ 1008f944     libeay32_EM.0.9.8e:p12_asn.obj
 0002:00006950       ??_C@_0M@NFMGHALF@value?4safes?$AA@ 1008f950     libeay32_EM.0.9.8e:p12_asn.obj
 0002:0000695c       ??_C@_0P@FIADCDOI@value?4shkeybag?$AA@ 1008f95c     libeay32_EM.0.9.8e:p12_asn.obj
 0002:0000696c       ??_C@_0N@DOAHKDFI@value?4keybag?$AA@ 1008f96c     libeay32_EM.0.9.8e:p12_asn.obj
 0002:0000697c       ??_C@_0M@BNPBMADO@PKCS12_BAGS?$AA@ 1008f97c     libeay32_EM.0.9.8e:p12_asn.obj
 0002:00006988       ??_C@_04GPMDFGEJ@type?$AA@ 1008f988     libeay32_EM.0.9.8e:p12_asn.obj
 0002:00006990       ??_C@_0P@OEFHMPFE@value?4sdsicert?$AA@ 1008f990     libeay32_EM.0.9.8e:p12_asn.obj
 0002:000069a0       ??_C@_0O@KKFHCJNP@value?4x509crl?$AA@ 1008f9a0     libeay32_EM.0.9.8e:p12_asn.obj
 0002:000069b0       ??_C@_0P@IGODMFMC@value?4x509cert?$AA@ 1008f9b0     libeay32_EM.0.9.8e:p12_asn.obj
 0002:000069c0       ??_C@_0M@PABGOMNF@value?4other?$AA@ 1008f9c0     libeay32_EM.0.9.8e:p12_asn.obj
 0002:000069cc       ??_C@_0BA@LPMCLHLH@PKCS12_MAC_DATA?$AA@ 1008f9cc     libeay32_EM.0.9.8e:p12_asn.obj
 0002:000069dc       ??_C@_04BKLHDIKK@iter?$AA@ 1008f9dc     libeay32_EM.0.9.8e:p12_asn.obj
 0002:000069e4       ??_C@_04OKLIMCN@salt?$AA@  1008f9e4     libeay32_EM.0.9.8e:p12_asn.obj
 0002:000069ec       ??_C@_05DMLMEGOG@dinfo?$AA@ 1008f9ec     libeay32_EM.0.9.8e:p12_asn.obj
 0002:000069f4       ??_C@_06CKOLGKJK@PKCS12?$AA@ 1008f9f4     libeay32_EM.0.9.8e:p12_asn.obj
 0002:000069fc       ??_C@_03BADCJGEO@mac?$AA@  1008f9fc     libeay32_EM.0.9.8e:p12_asn.obj
 0002:00006a00       ??_C@_09HFIAEJAG@authsafes?$AA@ 1008fa00     libeay32_EM.0.9.8e:p12_asn.obj
 0002:00006cf4       ??_C@_0BC@DLHIINOH@PKCS7_ATTR_VERIFY?$AA@ 1008fcf4     libeay32_EM.0.9.8e:pk7_asn1.obj
 0002:00006d08       ??_C@_0BA@IJMFEGLH@PKCS7_ATTR_SIGN?$AA@ 1008fd08     libeay32_EM.0.9.8e:pk7_asn1.obj
 0002:00006d18       ??_C@_0BB@ODHHPICH@PKCS7_ATTRIBUTES?$AA@ 1008fd18     libeay32_EM.0.9.8e:pk7_asn1.obj
 0002:00006d2c       ??_C@_0N@NAILNAH@PKCS7_DIGEST?$AA@ 1008fd2c     libeay32_EM.0.9.8e:pk7_asn1.obj
 0002:00006d3c       ??_C@_02EBCANADN@md?$AA@   1008fd3c     libeay32_EM.0.9.8e:pk7_asn1.obj
 0002:00006d40       ??_C@_0O@GIFGHKGC@PKCS7_ENCRYPT?$AA@ 1008fd40     libeay32_EM.0.9.8e:pk7_asn1.obj
 0002:00006d50       ??_C@_0BE@LMHBPFDD@PKCS7_SIGN_ENVELOPE?$AA@ 1008fd50     libeay32_EM.0.9.8e:pk7_asn1.obj
 0002:00006d64       ??_C@_0BC@INKEDPEG@PKCS7_ENC_CONTENT?$AA@ 1008fd64     libeay32_EM.0.9.8e:pk7_asn1.obj
 0002:00006d78       ??_C@_0N@IEAAACJL@content_type?$AA@ 1008fd78     libeay32_EM.0.9.8e:pk7_asn1.obj
 0002:00006d88       ??_C@_0BB@MGPEFENK@PKCS7_RECIP_INFO?$AA@ 1008fd88     libeay32_EM.0.9.8e:pk7_asn1.obj
 0002:00006d9c       ??_C@_07LBLKCHGJ@enc_key?$AA@ 1008fd9c     libeay32_EM.0.9.8e:pk7_asn1.obj
 0002:00006da4       ??_C@_0O@ODFHHMFC@key_enc_algor?$AA@ 1008fda4     libeay32_EM.0.9.8e:pk7_asn1.obj
 0002:00006db4       ??_C@_0P@KCJMJLOD@PKCS7_ENVELOPE?$AA@ 1008fdb4     libeay32_EM.0.9.8e:pk7_asn1.obj
 0002:00006dc4       ??_C@_08ENNDKKOI@enc_data?$AA@ 1008fdc4     libeay32_EM.0.9.8e:pk7_asn1.obj
 0002:00006dd0       ??_C@_0O@HGJALPPJ@recipientinfo?$AA@ 1008fdd0     libeay32_EM.0.9.8e:pk7_asn1.obj
 0002:00006de0       ??_C@_0BI@POAIONGK@PKCS7_ISSUER_AND_SERIAL?$AA@ 1008fde0     libeay32_EM.0.9.8e:pk7_asn1.obj
 0002:00006df8       ??_C@_0BC@BFFCPPDG@PKCS7_SIGNER_INFO?$AA@ 1008fdf8     libeay32_EM.0.9.8e:pk7_asn1.obj
 0002:00006e0c       ??_C@_0M@NNBFAOJK@unauth_attr?$AA@ 1008fe0c     libeay32_EM.0.9.8e:pk7_asn1.obj
 0002:00006e18       ??_C@_0L@PJDBOMFC@enc_digest?$AA@ 1008fe18     libeay32_EM.0.9.8e:pk7_asn1.obj
 0002:00006e24       ??_C@_0P@KLFHBHJD@digest_enc_alg?$AA@ 1008fe24     libeay32_EM.0.9.8e:pk7_asn1.obj
 0002:00006e34       ??_C@_09PLABOLFJ@auth_attr?$AA@ 1008fe34     libeay32_EM.0.9.8e:pk7_asn1.obj
 0002:00006e40       ??_C@_0L@OGBFEEJI@digest_alg?$AA@ 1008fe40     libeay32_EM.0.9.8e:pk7_asn1.obj
 0002:00006e4c       ??_C@_0BC@PMGLGNPO@issuer_and_serial?$AA@ 1008fe4c     libeay32_EM.0.9.8e:pk7_asn1.obj
 0002:00006e60       ??_C@_0N@CKBJFFNF@PKCS7_SIGNED?$AA@ 1008fe60     libeay32_EM.0.9.8e:pk7_asn1.obj
 0002:00006e70       ??_C@_0M@KEDNAHBP@signer_info?$AA@ 1008fe70     libeay32_EM.0.9.8e:pk7_asn1.obj
 0002:00006e7c       ??_C@_03GJBFOAJL@crl?$AA@  1008fe7c     libeay32_EM.0.9.8e:pk7_asn1.obj
 0002:00006e80       ??_C@_04PHJBACIC@cert?$AA@ 1008fe80     libeay32_EM.0.9.8e:pk7_asn1.obj
 0002:00006e88       ??_C@_08ODCIAOPM@contents?$AA@ 1008fe88     libeay32_EM.0.9.8e:pk7_asn1.obj
 0002:00006e94       ??_C@_07MPDKKGPO@md_algs?$AA@ 1008fe94     libeay32_EM.0.9.8e:pk7_asn1.obj
 0002:00006e9c       ??_C@_0M@IDEHBFAL@d?4encrypted?$AA@ 1008fe9c     libeay32_EM.0.9.8e:pk7_asn1.obj
 0002:00006ea8       ??_C@_08JOIJLLGO@d?4digest?$AA@ 1008fea8     libeay32_EM.0.9.8e:pk7_asn1.obj
 0002:00006eb4       ??_C@_0BH@FHPJHCLF@d?4signed_and_enveloped?$AA@ 1008feb4     libeay32_EM.0.9.8e:pk7_asn1.obj
 0002:00006ecc       ??_C@_0M@CLKMIMCI@d?4enveloped?$AA@ 1008fecc     libeay32_EM.0.9.8e:pk7_asn1.obj
 0002:00006ed8       ??_C@_06GOHGJFCL@d?4sign?$AA@ 1008fed8     libeay32_EM.0.9.8e:pk7_asn1.obj
 0002:00006ee0       ??_C@_06OAPKPHLA@d?4data?$AA@ 1008fee0     libeay32_EM.0.9.8e:pk7_asn1.obj
 0002:00006ee8       ??_C@_07JIJPKMF@d?4other?$AA@ 1008fee8     libeay32_EM.0.9.8e:pk7_asn1.obj
 0002:00007478       ??_C@_0BI@PEDEDAKL@?4?2crypto?2rsa?2rsa_sign?4c?$AA@ 10090478     libeay32_EM.0.9.8e:rsa_sign.obj
 0002:00007490       ??_C@_0DF@DGNAAHIE@signature?5has?5problems?0?5re?9make?5@ 10090490     libeay32_EM.0.9.8e:rsa_sign.obj
 0002:000076e4       ??_C@_0M@PCEPOGPN@?8?$CI?$CJ?$CL?0?9?4?1?3?$DN?$DP?$AA@ 100906e4     libeay32_EM.0.9.8e:a_mbstr.obj
 0002:000076f0       ??_C@_08EOPONIBF@maxsize?$DN?$AA@ 100906f0     libeay32_EM.0.9.8e:a_mbstr.obj
 0002:000076fc       ??_C@_08JJBFGKFE@minsize?$DN?$AA@ 100906fc     libeay32_EM.0.9.8e:a_mbstr.obj
 0002:00007708       ??_C@_03JALODAI@?$CFld?$AA@ 10090708     libeay32_EM.0.9.8e:a_mbstr.obj
 0002:0000770c       ??_C@_0BI@LIGHHEPI@?4?2crypto?2asn1?2a_mbstr?4c?$AA@ 1009070c     libeay32_EM.0.9.8e:a_mbstr.obj
 0002:0000785c       ??_C@_0BG@JMNNPFBP@?4?2crypto?2asn1?2a_int?4c?$AA@ 1009085c     libeay32_EM.0.9.8e:a_int.obj
 0002:00007874       ??_C@_0BK@KJEJJLK@?4?2crypto?2x509v3?2v3_conf?4c?$AA@ 10090874     libeay32_EM.0.9.8e:v3_conf.obj
 0002:00007890       ??_C@_06KFEJCPI@value?$DN?$AA@ 10090890     libeay32_EM.0.9.8e:v3_conf.obj
 0002:00007898       ??_C@_0BK@OCKBPLKH@?4?2crypto?2pkcs7?2pk7_mime?4c?$AA@ 10090898     libeay32_EM.0.9.8e:pk7_mime.obj
 0002:000078b4       ??_C@_02PCIJFNDE@?$AN?6?$AA@ 100908b4     libeay32_EM.0.9.8e:pk7_mime.obj
 0002:000078b8       ??_C@_0BN@PPPPFNNH@Content?9Type?3?5text?1plain?$AN?6?$AN?6?$AA@ 100908b8     libeay32_EM.0.9.8e:pk7_mime.obj
 0002:000078d8       ??_C@_06BPMLCLKK@type?3?5?$AA@ 100908d8     libeay32_EM.0.9.8e:pk7_mime.obj
 0002:000078e0       ??_C@_0N@MCOKKOFB@content?9type?$AA@ 100908e0     libeay32_EM.0.9.8e:pk7_mime.obj
 0002:000078f0       ??_C@_0L@NPNLKGOJ@text?1plain?$AA@ 100908f0     libeay32_EM.0.9.8e:pk7_mime.obj
 0002:000078fc       ??_C@_0N@JAGKAFD@FILE?5pointer?$AA@ 100908fc     libeay32_EM.0.9.8e:bss_file.obj
 0002:0000790c       ??_C@_0BI@EHMCOOOG@?4?2crypto?2bio?2bss_file?4c?$AA@ 1009090c     libeay32_EM.0.9.8e:bss_file.obj
 0002:00007924       ??_C@_07JMDFGFFH@fopen?$CI?8?$AA@ 10090924     libeay32_EM.0.9.8e:bss_file.obj
 0002:0000792c       ??_C@_03IMMLKIF@?8?0?8?$AA@ 1009092c     libeay32_EM.0.9.8e:bss_file.obj
 0002:00007930       ??_C@_02HJPKOJGD@?8?$CJ?$AA@ 10090930     libeay32_EM.0.9.8e:bss_file.obj
 0002:00007934       ??_C@_01PFHFFBPC@t?$AA@    10090934     libeay32_EM.0.9.8e:bss_file.obj
 0002:00007938       ??_C@_01OJONOECF@b?$AA@    10090938     libeay32_EM.0.9.8e:bss_file.obj
 0002:0000793c       ??_C@_02CBLLGHLK@r?$CL?$AA@ 1009093c     libeay32_EM.0.9.8e:bss_file.obj
 0002:00007940       ??_C@_02DPNLHKJD@a?$CL?$AA@ 10090940     libeay32_EM.0.9.8e:bss_file.obj
 0002:00007958       ??_C@_0BH@HBJNKHOA@?4?2crypto?2bn?2bn_print?4c?$AA@ 10090958     libeay32_EM.0.9.8e:bn_print.obj
 0002:00007970       ??_C@_05CGNLHKID@?$CF09lu?$AA@ 10090970     libeay32_EM.0.9.8e:bn_print.obj
 0002:00007978       ??_C@_01GBGANLPD@0?$AA@    10090978     libeay32_EM.0.9.8e:bn_print.obj
 0002:0000797c       ??_C@_01JOAMLHOP@?9?$AA@   1009097c     libeay32_EM.0.9.8e:bn_print.obj
 0002:00007980       ??_C@_0P@OMHBNPIC@X509_EXTENSION?$AA@ 10090980     libeay32_EM.0.9.8e:x_exten.obj
 0002:00007990       ??_C@_08CBBMEOFB@critical?$AA@ 10090990     libeay32_EM.0.9.8e:x_exten.obj
 0002:000079f4       ??_C@_02KEGNLNML@?0?5?$AA@ 100909f4     libeay32_EM.0.9.8e:v3_prn.obj
 0002:000079f8       ??_C@_03HIJPJGOM@?$CF?$CKs?$AA@ 100909f8     libeay32_EM.0.9.8e:v3_prn.obj
 0002:000079fc       ??_C@_07GOIIHCND@?$CF?$CKs?$CFs?3?6?$AA@ 100909fc     libeay32_EM.0.9.8e:v3_prn.obj
 0002:00007a50       ??_C@_0BI@IGECNGFF@?4?2crypto?2x509?2x509_lu?4c?$AA@ 10090a50     libeay32_EM.0.9.8e:x509_lu.obj
 0002:00007a68       ??_C@_0O@LAGOGLFJ@socket?5accept?$AA@ 10090a68     libeay32_EM.0.9.8e:bss_acpt.obj
 0002:00007a78       ??_C@_0BI@GOELLJHH@?4?2crypto?2bio?2bss_acpt?4c?$AA@ 10090a78     libeay32_EM.0.9.8e:bss_acpt.obj
 0002:00007a90       ??_C@_0P@GJDBGGFH@socket?5connect?$AA@ 10090a90     libeay32_EM.0.9.8e:bss_conn.obj
 0002:00007aa0       ??_C@_05PBGCLELH@host?$DN?$AA@ 10090aa0     libeay32_EM.0.9.8e:bss_conn.obj
 0002:00007aa8       ??_C@_01JLIPDDHJ@?3?$AA@   10090aa8     libeay32_EM.0.9.8e:bss_conn.obj
 0002:00007aac       ??_C@_0BI@GOGCPGDN@?4?2crypto?2bio?2bss_conn?4c?$AA@ 10090aac     libeay32_EM.0.9.8e:bss_conn.obj
 0002:00007ac4       ??_C@_0M@PCENNPGA@?$CFd?4?$CFd?4?$CFd?4?$CFd?$AA@ 10090ac4     libeay32_EM.0.9.8e:bss_conn.obj
 0002:00007ad0       ??_C@_0BA@CJBGKJNL@not?5initialized?$AA@ 10090ad0     libeay32_EM.0.9.8e:bss_conn.obj
 0002:00007ae0       ??_C@_0BH@HCDEFMEH@?4?2crypto?2evp?2evp_lib?4c?$AA@ 10090ae0     libeay32_EM.0.9.8e:evp_lib.obj
 0002:00007af8       ??_C@_0BD@LHHAEAAJ@l?5?$DM?$DN?5sizeof?$CIc?9?$DOiv?$CJ?$AA@ 10090af8     libeay32_EM.0.9.8e:evp_lib.obj
 0002:00007b0c       ??_C@_0BD@CKKMELBK@j?5?$DM?$DN?5sizeof?$CIc?9?$DOiv?$CJ?$AA@ 10090b0c     libeay32_EM.0.9.8e:evp_lib.obj
 0002:00007b20       ??_C@_0BB@PLKCHANP@error?5number?5?$CFld?$AA@ 10090b20     libeay32_EM.0.9.8e:x509_txt.obj
 0002:00007b34       ??_C@_0DD@IBFFGHC@RFC?53779?5resource?5not?5subset?5of?5@ 10090b34     libeay32_EM.0.9.8e:x509_txt.obj
 0002:00007b68       ??_C@_0BD@KPLGPDJA@no?5explicit?5policy?$AA@ 10090b68     libeay32_EM.0.9.8e:x509_txt.obj
 0002:00007b7c       ??_C@_0DF@JOCKIEDN@invalid?5or?5inconsistent?5certific@ 10090b7c     libeay32_EM.0.9.8e:x509_txt.obj
 0002:00007bb4       ??_C@_0CO@BIBMOLPK@invalid?5or?5inconsistent?5certific@ 10090bb4     libeay32_EM.0.9.8e:x509_txt.obj
 0002:00007be4       ??_C@_0CB@OODOOIP@unhandled?5critical?5CRL?5extension@ 10090be4     libeay32_EM.0.9.8e:x509_txt.obj
 0002:00007c08       ??_C@_0CN@HJJGOKEM@key?5usage?5does?5not?5include?5digit@ 10090c08     libeay32_EM.0.9.8e:x509_txt.obj
 0002:00007c38       ??_C@_0CH@JKPBLJBP@key?5usage?5does?5not?5include?5CRL?5s@ 10090c38     libeay32_EM.0.9.8e:x509_txt.obj
 0002:00007c60       ??_C@_0BN@DHGAFJG@unhandled?5critical?5extension?$AA@ 10090c60     libeay32_EM.0.9.8e:x509_txt.obj
 0002:00007c80       ??_C@_0CF@OOPBMEA@unable?5to?5get?5CRL?5issuer?5certifi@ 10090c80     libeay32_EM.0.9.8e:x509_txt.obj
 0002:00007ca8       ??_C@_0CP@EEPOGHPG@key?5usage?5does?5not?5include?5certi@ 10090ca8     libeay32_EM.0.9.8e:x509_txt.obj
 0002:00007cd8       ??_C@_0CM@GGIKLLEP@authority?5and?5issuer?5serial?5numb@ 10090cd8     libeay32_EM.0.9.8e:x509_txt.obj
 0002:00007d04       ??_C@_0CO@HGJKNPBG@authority?5and?5subject?5key?5identi@ 10090d04     libeay32_EM.0.9.8e:x509_txt.obj
 0002:00007d34       ??_C@_0BI@OHGOAFON@subject?5issuer?5mismatch?$AA@ 10090d34     libeay32_EM.0.9.8e:x509_txt.obj
 0002:00007d4c       ??_C@_0CB@HLIFGCCB@application?5verification?5failure@ 10090d4c     libeay32_EM.0.9.8e:x509_txt.obj
 0002:00007d70       ??_C@_0BF@OJPAOPB@certificate?5rejected?$AA@ 10090d70     libeay32_EM.0.9.8e:x509_txt.obj
 0002:00007d88       ??_C@_0BI@GDICGBPK@certificate?5not?5trusted?$AA@ 10090d88     libeay32_EM.0.9.8e:x509_txt.obj
 0002:00007da0       ??_C@_0CA@LPAJAMFA@unsupported?5certificate?5purpose?$AA@ 10090da0     libeay32_EM.0.9.8e:x509_txt.obj
 0002:00007dc0       ??_C@_0DP@OLPCKKGC@proxy?5cerificates?5not?5allowed?0?5p@ 10090dc0     libeay32_EM.0.9.8e:x509_txt.obj
 0002:00007e00       ??_C@_0CG@BIOFEFIK@proxy?5path?5length?5constraint?5exc@ 10090e00     libeay32_EM.0.9.8e:x509_txt.obj
 0002:00007e28       ??_C@_0CA@LLGONKGK@path?5length?5constraint?5exceeded?$AA@ 10090e28     libeay32_EM.0.9.8e:x509_txt.obj
 0002:00007e48       ??_C@_0CN@GNFODAID@invalid?5non?9CA?5certificate?5?$CIhas?5@ 10090e48     libeay32_EM.0.9.8e:x509_txt.obj
 0002:00007e78       ??_C@_0BH@EKEBOKH@invalid?5CA?5certificate?$AA@ 10090e78     libeay32_EM.0.9.8e:x509_txt.obj
 0002:00007e90       ??_C@_0BE@PBLGGMOB@certificate?5revoked?$AA@ 10090e90     libeay32_EM.0.9.8e:x509_txt.obj
 0002:00007ea4       ??_C@_0BL@JGHJBAMD@certificate?5chain?5too?5long?$AA@ 10090ea4     libeay32_EM.0.9.8e:x509_txt.obj
 0002:00007ec0       ??_C@_0CH@PCOLJJF@unable?5to?5verify?5the?5first?5certi@ 10090ec0     libeay32_EM.0.9.8e:x509_txt.obj
 0002:00007ee8       ??_C@_0CH@NBHLNPJC@unable?5to?5get?5local?5issuer?5certi@ 10090ee8     libeay32_EM.0.9.8e:x509_txt.obj
 0002:00007f10       ??_C@_0CN@GCPAFAGL@self?5signed?5certificate?5in?5certi@ 10090f10     libeay32_EM.0.9.8e:x509_txt.obj
 0002:00007f40       ??_C@_0BI@PBDHIKFI@self?5signed?5certificate?$AA@ 10090f40     libeay32_EM.0.9.8e:x509_txt.obj
 0002:00007f58       ??_C@_0O@BNNCBLEN@out?5of?5memory?$AA@ 10090f58     libeay32_EM.0.9.8e:x509_txt.obj
 0002:00007f68       ??_C@_0CH@DKJJKKIC@format?5error?5in?5CRL?8s?5nextUpdate@ 10090f68     libeay32_EM.0.9.8e:x509_txt.obj
 0002:00007f90       ??_C@_0CH@OEGANADM@format?5error?5in?5CRL?8s?5lastUpdate@ 10090f90     libeay32_EM.0.9.8e:x509_txt.obj
 0002:00007fb8       ??_C@_0CN@NPHCNDGF@format?5error?5in?5certificate?8s?5no@ 10090fb8     libeay32_EM.0.9.8e:x509_txt.obj
 0002:00007fe8       ??_C@_0CO@BGGBNHHG@format?5error?5in?5certificate?8s?5no@ 10090fe8     libeay32_EM.0.9.8e:x509_txt.obj
 0002:00008018       ??_C@_0BA@JMGDIGAP@CRL?5has?5expired?$AA@ 10091018     libeay32_EM.0.9.8e:x509_txt.obj
 0002:00008028       ??_C@_0BI@HHICNLNC@certificate?5has?5expired?$AA@ 10091028     libeay32_EM.0.9.8e:x509_txt.obj
 0002:00008040       ??_C@_0BF@MIBPKMEH@CRL?5is?5not?5yet?5valid?$AA@ 10091040     libeay32_EM.0.9.8e:x509_txt.obj
 0002:00008058       ??_C@_0BN@JFLHFAGA@certificate?5is?5not?5yet?5valid?$AA@ 10091058     libeay32_EM.0.9.8e:x509_txt.obj
 0002:00008078       ??_C@_0BG@PKEGLGEB@CRL?5signature?5failure?$AA@ 10091078     libeay32_EM.0.9.8e:x509_txt.obj
 0002:00008090       ??_C@_0BO@FPBBKLNG@certificate?5signature?5failure?$AA@ 10091090     libeay32_EM.0.9.8e:x509_txt.obj
 0002:000080b0       ??_C@_0CD@KOEKDJOF@unable?5to?5decode?5issuer?5public?5k@ 100910b0     libeay32_EM.0.9.8e:x509_txt.obj
 0002:000080d4       ??_C@_0CC@KFEPDDPF@unable?5to?5decrypt?5CRL?8s?5signatur@ 100910d4     libeay32_EM.0.9.8e:x509_txt.obj
 0002:000080f8       ??_C@_0CK@LBDBBNHI@unable?5to?5decrypt?5certificate?8s?5@ 100910f8     libeay32_EM.0.9.8e:x509_txt.obj
 0002:00008124       ??_C@_0BO@CIOBDJGN@unable?5to?5get?5certificate?5CRL?$AA@ 10091124     libeay32_EM.0.9.8e:x509_txt.obj
 0002:00008144       ??_C@_0CB@KFJODNFN@unable?5to?5get?5issuer?5certificate@ 10091144     libeay32_EM.0.9.8e:x509_txt.obj
 0002:00008168       ??_C@_02MFDMBIJM@ok?$AA@   10091168     libeay32_EM.0.9.8e:x509_txt.obj
 0002:0000816c       ??_C@_06KDGDAFPH@cipher?$AA@ 1009116c     libeay32_EM.0.9.8e:bio_enc.obj
 0002:00008174       ??_C@_0BH@GLJJADKE@?4?2crypto?2evp?2bio_enc?4c?$AA@ 10091174     libeay32_EM.0.9.8e:bio_enc.obj
 0002:0000818c       ??_C@_0BF@MNAMDHDJ@?4?2crypto?2evp?2p_dec?4c?$AA@ 1009118c     libeay32_EM.0.9.8e:p_dec.obj
 0002:000081a4       ??_C@_0P@ONGHGJEC@message?5digest?$AA@ 100911a4     libeay32_EM.0.9.8e:bio_md.obj
 0002:000081b4       ??_C@_06HOHPNJLC@buffer?$AA@ 100911b4     libeay32_EM.0.9.8e:bf_buff.obj
 0002:000081bc       ??_C@_0BH@HEBHEJFA@?4?2crypto?2bio?2bf_buff?4c?$AA@ 100911bc     libeay32_EM.0.9.8e:bf_buff.obj
 0002:000081d4       ??_C@_0BI@NFPKAKEA@Eric?5Young?8s?5PKCS?$CD1?5RSA?$AA@ 100911d4     libeay32_EM.0.9.8e:rsa_eay.obj
 0002:000081ec       ??_C@_0BH@FEEKPMJH@?4?2crypto?2rsa?2rsa_eay?4c?$AA@ 100911ec     libeay32_EM.0.9.8e:rsa_eay.obj
 0002:00008204       ??_C@_0BL@BEBELKO@?4?2crypto?2engine?2eng_init?4c?$AA@ 10091204     libeay32_EM.0.9.8e:eng_init.obj
 0002:00008224       ??_C@_0BH@CIPLCBLK@?4?2crypto?2bn?2bn_blind?4c?$AA@ 10091224     libeay32_EM.0.9.8e:bn_blind.obj
 0002:0000823c       ??_C@_04OLDKMDKP@comp?$AA@ 1009123c     libeay32_EM.0.9.8e:cryptlib.obj
 0002:00008244       ??_C@_05ODGDKDLF@store?$AA@ 10091244     libeay32_EM.0.9.8e:cryptlib.obj
 0002:0000824c       ??_C@_0M@FNJFEIGB@ec_pre_comp?$AA@ 1009124c     libeay32_EM.0.9.8e:cryptlib.obj
 0002:00008258       ??_C@_02LAJDHPIK@bn?$AA@   10091258     libeay32_EM.0.9.8e:cryptlib.obj
 0002:0000825c       ??_C@_04KDGGCKGB@ecdh?$AA@ 1009125c     libeay32_EM.0.9.8e:cryptlib.obj
 0002:00008264       ??_C@_02HCBHEC@ec?$AA@     10091264     libeay32_EM.0.9.8e:cryptlib.obj
 0002:00008268       ??_C@_05FGIDCBJD@ecdsa?$AA@ 10091268     libeay32_EM.0.9.8e:cryptlib.obj
 0002:00008270       ??_C@_02OGLLFMLI@ui?$AA@   10091270     libeay32_EM.0.9.8e:cryptlib.obj
 0002:00008274       ??_C@_06LOBMEHPF@engine?$AA@ 10091274     libeay32_EM.0.9.8e:cryptlib.obj
 0002:0000827c       ??_C@_07HGGNMPAJ@dynlock?$AA@ 1009127c     libeay32_EM.0.9.8e:cryptlib.obj
 0002:00008284       ??_C@_03NOCNOBNG@dso?$AA@  10091284     libeay32_EM.0.9.8e:cryptlib.obj
 0002:00008288       ??_C@_0O@PMFKBDME@debug_malloc2?$AA@ 10091288     libeay32_EM.0.9.8e:cryptlib.obj
 0002:00008298       ??_C@_02OCEEKELO@dh?$AA@   10091298     libeay32_EM.0.9.8e:cryptlib.obj
 0002:0000829c       ??_C@_0N@BGAJKBNF@RSA_blinding?$AA@ 1009129c     libeay32_EM.0.9.8e:cryptlib.obj
 0002:000082ac       ??_C@_07OMHHFDME@readdir?$AA@ 100912ac     libeay32_EM.0.9.8e:cryptlib.obj
 0002:000082b4       ??_C@_0O@BFBCKHPD@gethostbyname?$AA@ 100912b4     libeay32_EM.0.9.8e:cryptlib.obj
 0002:000082c4       ??_C@_03OHAMFFNA@BIO?$AA@  100912c4     libeay32_EM.0.9.8e:cryptlib.obj
 0002:000082c8       ??_C@_0N@CLEMOJNL@debug_malloc?$AA@ 100912c8     libeay32_EM.0.9.8e:cryptlib.obj
 0002:000082d8       ??_C@_05NFNCBLNG@rand2?$AA@ 100912d8     libeay32_EM.0.9.8e:cryptlib.obj
 0002:000082e0       ??_C@_04HKINGDKC@rand?$AA@ 100912e0     libeay32_EM.0.9.8e:cryptlib.obj
 0002:000082e8       ??_C@_0L@NKBFNPDB@ssl_method?$AA@ 100912e8     libeay32_EM.0.9.8e:cryptlib.obj
 0002:000082f4       ??_C@_03DIMONNDD@ssl?$AA@  100912f4     libeay32_EM.0.9.8e:cryptlib.obj
 0002:000082f8       ??_C@_0O@LOCLBOHA@ssl_sess_cert?$AA@ 100912f8     libeay32_EM.0.9.8e:cryptlib.obj
 0002:00008308       ??_C@_0M@OAEAFGMD@ssl_session?$AA@ 10091308     libeay32_EM.0.9.8e:cryptlib.obj
 0002:00008314       ??_C@_08INIFBEOB@ssl_cert?$AA@ 10091314     libeay32_EM.0.9.8e:cryptlib.obj
 0002:00008320       ??_C@_07DNHKIAPH@ssl_ctx?$AA@ 10091320     libeay32_EM.0.9.8e:cryptlib.obj
 0002:00008328       ??_C@_0L@JCDDFIOK@x509_store?$AA@ 10091328     libeay32_EM.0.9.8e:cryptlib.obj
 0002:00008334       ??_C@_08NBJJIGBN@evp_pkey?$AA@ 10091334     libeay32_EM.0.9.8e:cryptlib.obj
 0002:00008340       ??_C@_03EAKOMMFI@dsa?$AA@  10091340     libeay32_EM.0.9.8e:cryptlib.obj
 0002:00008344       ??_C@_08BHPLFFMD@x509_req?$AA@ 10091344     libeay32_EM.0.9.8e:cryptlib.obj
 0002:00008350       ??_C@_08BJFLLMNA@x509_crl?$AA@ 10091350     libeay32_EM.0.9.8e:cryptlib.obj
 0002:0000835c       ??_C@_09HNLHIFBP@x509_pkey?$AA@ 1009135c     libeay32_EM.0.9.8e:cryptlib.obj
 0002:00008368       ??_C@_09DJEHILFA@x509_info?$AA@ 10091368     libeay32_EM.0.9.8e:cryptlib.obj
 0002:00008374       ??_C@_04BNGFMDFF@x509?$AA@ 10091374     libeay32_EM.0.9.8e:cryptlib.obj
 0002:0000837c       ??_C@_07OALPHBKG@ex_data?$AA@ 1009137c     libeay32_EM.0.9.8e:cryptlib.obj
 0002:00008384       ??_C@_03JIDPIAJI@err?$AA@  10091384     libeay32_EM.0.9.8e:cryptlib.obj
 0002:00008388       ??_C@_09OGFJIAEE@?$DM?$DMERROR?$DO?$DO?$AA@ 10091388     libeay32_EM.0.9.8e:cryptlib.obj
 0002:00008434       ??_C@_0BE@MCNNLDKP@?4?2crypto?2cryptlib?4c?$AA@ 10091434     libeay32_EM.0.9.8e:cryptlib.obj
 0002:00008448       ??_C@_1BG@MLNJHGBB@?$AAS?$AAe?$AAr?$AAv?$AAi?$AAc?$AAe?$AA?9?$AA0?$AAx?$AA?$AA@ 10091448     libeay32_EM.0.9.8e:cryptlib.obj
 0002:00008460       ??_C@_0P@LIPMGDB@OpenSSL?3?5FATAL?$AA@ 10091460     libeay32_EM.0.9.8e:cryptlib.obj
 0002:00008470       ??_C@_07BKGNFEDL@OPENSSL?$AA@ 10091470     libeay32_EM.0.9.8e:cryptlib.obj
 0002:00008478       ??_C@_0DG@JJAMFCAP@?$CFs?$CI?$CFd?$CJ?3?5OpenSSL?5internal?5error?0?5@ 10091478     libeay32_EM.0.9.8e:cryptlib.obj
 0002:000084b0       ??_C@_0BA@LPBALOME@pointer?5?$CB?$DN?5NULL?$AA@ 100914b0     libeay32_EM.0.9.8e:cryptlib.obj
 0002:000084c0       ??_C@_0BF@LAJPHOCL@?4?2crypto?2bn?2bn_ctx?4c?$AA@ 100914c0     libeay32_EM.0.9.8e:bn_ctx.obj
 0002:000084d8       ??_C@_0BF@ODABJPII@?4?2crypto?2bn?2bn_gcd?4c?$AA@ 100914d8     libeay32_EM.0.9.8e:bn_gcd.obj
 0002:000084f0       ??_C@_0BF@IHHIKAIF@?4?2crypto?2bn?2bn_add?4c?$AA@ 100914f0     libeay32_EM.0.9.8e:bn_add.obj
 0002:00008508       ??_C@_0BF@HBIANFIN@?4?2crypto?2evp?2p_enc?4c?$AA@ 10091508     libeay32_EM.0.9.8e:p_enc.obj
 0002:00008520       ??_C@_0BH@HEBAELGA@ASN1_OCTET_STRING_NDEF?$AA@ 10091520     libeay32_EM.0.9.8e:tasn_typ.obj
 0002:00008538       ??_C@_0O@JKANHMPI@ASN1_FBOOLEAN?$AA@ 10091538     libeay32_EM.0.9.8e:tasn_typ.obj
 0002:00008548       ??_C@_0O@BIDLBGAP@ASN1_TBOOLEAN?$AA@ 10091548     libeay32_EM.0.9.8e:tasn_typ.obj
 0002:00008558       ??_C@_0N@HMAPMMGF@ASN1_BOOLEAN?$AA@ 10091558     libeay32_EM.0.9.8e:tasn_typ.obj
 0002:00008568       ??_C@_0BA@CBHCBCAE@DIRECTORYSTRING?$AA@ 10091568     libeay32_EM.0.9.8e:tasn_typ.obj
 0002:00008578       ??_C@_0M@FANFDIEE@DISPLAYTEXT?$AA@ 10091578     libeay32_EM.0.9.8e:tasn_typ.obj
 0002:00008584       ??_C@_0P@NDKOCAEJ@ASN1_PRINTABLE?$AA@ 10091584     libeay32_EM.0.9.8e:tasn_typ.obj
 0002:00008594       ??_C@_0O@NJFCFMGE@ASN1_SEQUENCE?$AA@ 10091594     libeay32_EM.0.9.8e:tasn_typ.obj
 0002:000085a4       ??_C@_08FIDCPDIJ@ASN1_ANY?$AA@ 100915a4     libeay32_EM.0.9.8e:tasn_typ.obj
 0002:000085b0       ??_C@_0P@CHICPHIN@ASN1_BMPSTRING?$AA@ 100915b0     libeay32_EM.0.9.8e:tasn_typ.obj
 0002:000085c0       ??_C@_0BF@DMDDFBNJ@ASN1_UNIVERSALSTRING?$AA@ 100915c0     libeay32_EM.0.9.8e:tasn_typ.obj
 0002:000085d8       ??_C@_0BD@HMMCNBGD@ASN1_VISIBLESTRING?$AA@ 100915d8     libeay32_EM.0.9.8e:tasn_typ.obj
 0002:000085ec       ??_C@_0BF@MPJFOIHC@ASN1_GENERALIZEDTIME?$AA@ 100915ec     libeay32_EM.0.9.8e:tasn_typ.obj
 0002:00008604       ??_C@_0N@OIMCLPEM@ASN1_UTCTIME?$AA@ 10091604     libeay32_EM.0.9.8e:tasn_typ.obj
 0002:00008614       ??_C@_0BD@EMMGLGMD@ASN1_GENERALSTRING?$AA@ 10091614     libeay32_EM.0.9.8e:tasn_typ.obj
 0002:00008628       ??_C@_0P@KBFNFBLB@ASN1_IA5STRING?$AA@ 10091628     libeay32_EM.0.9.8e:tasn_typ.obj
 0002:00008638       ??_C@_0P@GDIFPLAP@ASN1_T61STRING?$AA@ 10091638     libeay32_EM.0.9.8e:tasn_typ.obj
 0002:00008648       ??_C@_0BF@CPDMNKCA@ASN1_PRINTABLESTRING?$AA@ 10091648     libeay32_EM.0.9.8e:tasn_typ.obj
 0002:00008660       ??_C@_0BA@LEPDCAOC@ASN1_UTF8STRING?$AA@ 10091660     libeay32_EM.0.9.8e:tasn_typ.obj
 0002:00008670       ??_C@_0M@BJNOJGBL@ASN1_OBJECT?$AA@ 10091670     libeay32_EM.0.9.8e:tasn_typ.obj
 0002:0000867c       ??_C@_09NHFFCPKK@ASN1_NULL?$AA@ 1009167c     libeay32_EM.0.9.8e:tasn_typ.obj
 0002:00008688       ??_C@_0BC@PEBEKNCO@ASN1_OCTET_STRING?$AA@ 10091688     libeay32_EM.0.9.8e:tasn_typ.obj
 0002:0000869c       ??_C@_0BA@LJHGDIKH@ASN1_BIT_STRING?$AA@ 1009169c     libeay32_EM.0.9.8e:tasn_typ.obj
 0002:000086ac       ??_C@_0BA@CLGIIAJD@ASN1_ENUMERATED?$AA@ 100916ac     libeay32_EM.0.9.8e:tasn_typ.obj
 0002:000086bc       ??_C@_0N@KIGEHGKE@ASN1_INTEGER?$AA@ 100916bc     libeay32_EM.0.9.8e:tasn_typ.obj
 0002:00008988       ??_C@_0BL@LGPLHJJB@?4?2crypto?2objects?2obj_lib?4c?$AA@ 10091988     libeay32_EM.0.9.8e:obj_lib.obj
 0002:000089a4       ??_C@_0P@IBKNNFL@X509_ATTRIBUTE?$AA@ 100919a4     libeay32_EM.0.9.8e:x_attrib.obj
 0002:000089b4       ??_C@_0N@MCAEPLPL@value?4single?$AA@ 100919b4     libeay32_EM.0.9.8e:x_attrib.obj
 0002:000089c4       ??_C@_09MPCDAIAO@value?4set?$AA@ 100919c4     libeay32_EM.0.9.8e:x_attrib.obj
 0002:00008a58       ??_C@_0BI@EBBNMGHM@?4?2crypto?2evp?2p_verify?4c?$AA@ 10091a58     libeay32_EM.0.9.8e:p_verify.obj
 0002:00008b00       ??_C@_0BJ@BNFJHNHM@?4?2crypto?2buffer?2buffer?4c?$AA@ 10091b00     libeay32_EM.0.9.8e:buffer.obj
 0002:00008b1c       ??_C@_0BG@NCHFDOAO@?4?2crypto?2evp?2p_sign?4c?$AA@ 10091b1c     libeay32_EM.0.9.8e:p_sign.obj
 0002:00008b34       ??_C@_0BG@EJEAOFPD@?4?2crypto?2asn1?2a_set?4c?$AA@ 10091b34     libeay32_EM.0.9.8e:a_set.obj
 0002:00008b4c       ??_C@_0M@INJPOKDH@X509_PUBKEY?$AA@ 10091b4c     libeay32_EM.0.9.8e:x_pubkey.obj
 0002:00008b58       ??_C@_0L@PJCANJEE@public_key?$AA@ 10091b58     libeay32_EM.0.9.8e:x_pubkey.obj
 0002:00008bc0       ??_C@_0BJ@MMDFAHEK@?4?2crypto?2asn1?2x_pubkey?4c?$AA@ 10091bc0     libeay32_EM.0.9.8e:x_pubkey.obj
 0002:00008bdc       ??_C@_08OPPGEJIL@X509_VAL?$AA@ 10091bdc     libeay32_EM.0.9.8e:x_val.obj
 0002:00008be8       ??_C@_08PJIFIJBI@notAfter?$AA@ 10091be8     libeay32_EM.0.9.8e:x_val.obj
 0002:00008bf4       ??_C@_09MJPOMOII@notBefore?$AA@ 10091bf4     libeay32_EM.0.9.8e:x_val.obj
 0002:00008cc8       ??_C@_0BJ@KPAPPHAC@?4?2crypto?2asn1?2tasn_dec?4c?$AA@ 10091cc8     libeay32_EM.0.9.8e:tasn_dec.obj
 0002:00008ce4       ??_C@_05GCCLHHOK@Type?$DN?$AA@ 10091ce4     libeay32_EM.0.9.8e:tasn_dec.obj
 0002:00008cec       ??_C@_06GPKHKFJE@Field?$DN?$AA@ 10091cec     libeay32_EM.0.9.8e:tasn_dec.obj
 0002:00008cf4       ??_C@_07NHKPEHKF@?0?5Type?$DN?$AA@ 10091cf4     libeay32_EM.0.9.8e:tasn_dec.obj
 0002:00008cfc       ??_C@_0BJ@NBOPBEKM@?4?2crypto?2asn1?2tasn_new?4c?$AA@ 10091cfc     libeay32_EM.0.9.8e:tasn_new.obj
 0002:00008d18       ??_C@_0BM@PFMNAKHN@?4?2crypto?2x509v3?2pcy_cache?4c?$AA@ 10091d18     libeay32_EM.0.9.8e:pcy_cache.obj
 0002:00008d34       ??_C@_0P@BDECDGPA@X509_CERT_PAIR?$AA@ 10091d34     libeay32_EM.0.9.8e:x_x509a.obj
 0002:00008d44       ??_C@_07KOIEOCCE@reverse?$AA@ 10091d44     libeay32_EM.0.9.8e:x_x509a.obj
 0002:00008d4c       ??_C@_07CJMBKHEI@forward?$AA@ 10091d4c     libeay32_EM.0.9.8e:x_x509a.obj
 0002:00008d54       ??_C@_0O@LJIIOIG@X509_CERT_AUX?$AA@ 10091d54     libeay32_EM.0.9.8e:x_x509a.obj
 0002:00008d64       ??_C@_05BGEKGIIP@other?$AA@ 10091d64     libeay32_EM.0.9.8e:x_x509a.obj
 0002:00008d6c       ??_C@_05NKHOCLEE@alias?$AA@ 10091d6c     libeay32_EM.0.9.8e:x_x509a.obj
 0002:00008d74       ??_C@_06JPOFNODM@reject?$AA@ 10091d74     libeay32_EM.0.9.8e:x_x509a.obj
 0002:00008d7c       ??_C@_05BMJJJIHB@trust?$AA@ 10091d7c     libeay32_EM.0.9.8e:x_x509a.obj
 0002:00008e4c       ??_C@_0BJ@GNDHDHAM@?4?2crypto?2x509?2x509_obj?4c?$AA@ 10091e4c     libeay32_EM.0.9.8e:x509_obj.obj
 0002:00008e68       ??_C@_0N@MJCHLFGM@NO?5X509_NAME?$AA@ 10091e68     libeay32_EM.0.9.8e:x509_obj.obj
 0002:00008e78       ??_C@_0BG@LIBBNHAF@?4?2crypto?2asn1?2a_dup?4c?$AA@ 10091e78     libeay32_EM.0.9.8e:a_dup.obj
 0002:00008e90       ??_C@_0BJ@HLJJPCLA@?4?2crypto?2asn1?2a_verify?4c?$AA@ 10091e90     libeay32_EM.0.9.8e:a_verify.obj
 0002:00008eac       ??_C@_08JGFBPDAP@X509_CRL?$AA@ 10091eac     libeay32_EM.0.9.8e:x_crl.obj
 0002:00008eb8       ??_C@_0O@IMOAEKCP@X509_CRL_INFO?$AA@ 10091eb8     libeay32_EM.0.9.8e:x_crl.obj
 0002:00008ec8       ??_C@_07MIJFAMBD@revoked?$AA@ 10091ec8     libeay32_EM.0.9.8e:x_crl.obj
 0002:00008ed0       ??_C@_0L@BMOABHOK@nextUpdate?$AA@ 10091ed0     libeay32_EM.0.9.8e:x_crl.obj
 0002:00008edc       ??_C@_0L@MPDCJAIM@lastUpdate?$AA@ 10091edc     libeay32_EM.0.9.8e:x_crl.obj
 0002:00008ee8       ??_C@_0N@JBPKOADN@X509_REVOKED?$AA@ 10091ee8     libeay32_EM.0.9.8e:x_crl.obj
 0002:00008ef8       ??_C@_0P@HBDMPDNI@revocationDate?$AA@ 10091ef8     libeay32_EM.0.9.8e:x_crl.obj
 0002:00009090       ??_C@_0O@DBIGEIKO@NETSCAPE_SPKI?$AA@ 10092090     libeay32_EM.0.9.8e:x_spki.obj
 0002:000090a0       ??_C@_09JJGBLAHB@sig_algor?$AA@ 100920a0     libeay32_EM.0.9.8e:x_spki.obj
 0002:000090ac       ??_C@_05NBLLCIIN@spkac?$AA@ 100920ac     libeay32_EM.0.9.8e:x_spki.obj
 0002:000090b4       ??_C@_0P@OEBIEFNJ@NETSCAPE_SPKAC?$AA@ 100920b4     libeay32_EM.0.9.8e:x_spki.obj
 0002:000090c4       ??_C@_09DBEGHIJJ@challenge?$AA@ 100920c4     libeay32_EM.0.9.8e:x_spki.obj
 0002:0000916c       ??_C@_0BJ@GMLOABJG@?4?2crypto?2asn1?2a_d2i_fp?4c?$AA@ 1009216c     libeay32_EM.0.9.8e:a_d2i_fp.obj
 0002:00009188       ??_C@_0BJ@PMCGIHAB@?4?2crypto?2asn1?2a_i2d_fp?4c?$AA@ 10092188     libeay32_EM.0.9.8e:a_i2d_fp.obj
 0002:000091a4       _DSA_version               100921a4     libeay32_EM.0.9.8e:dsa_lib.obj
 0002:000091cc       ??_C@_0BH@HAONLAHF@?4?2crypto?2dsa?2dsa_lib?4c?$AA@ 100921cc     libeay32_EM.0.9.8e:dsa_lib.obj
 0002:000091e4       ??_C@_08CCPALKOP@priv_key?$AA@ 100921e4     libeay32_EM.0.9.8e:dsa_asn1.obj
 0002:000091f0       ??_C@_07CLGEADLH@pub_key?$AA@ 100921f0     libeay32_EM.0.9.8e:dsa_asn1.obj
 0002:000091f8       ??_C@_01JEJKBAGA@g?$AA@    100921f8     libeay32_EM.0.9.8e:dsa_asn1.obj
 0002:000091fc       ??_C@_07ECLLFBLJ@DSA_SIG?$AA@ 100921fc     libeay32_EM.0.9.8e:dsa_asn1.obj
 0002:00009204       ??_C@_01LKDEMHDF@s?$AA@    10092204     libeay32_EM.0.9.8e:dsa_asn1.obj
 0002:00009448       ??_C@_0BI@BIJNKEAB@?4?2crypto?2dsa?2dsa_asn1?4c?$AA@ 10092448     libeay32_EM.0.9.8e:dsa_asn1.obj
 0002:00009460       ??_C@_0BF@PJJIPJIB@?4?2crypto?2ec?2ec_key?4c?$AA@ 10092460     libeay32_EM.0.9.8e:ec_key.obj
 0002:00009478       ??_C@_0O@DFJMHGOP@EC_PRIVATEKEY?$AA@ 10092478     libeay32_EM.0.9.8e:ec_asn1.obj
 0002:00009488       ??_C@_09IDENFCJL@publicKey?$AA@ 10092488     libeay32_EM.0.9.8e:ec_asn1.obj
 0002:00009494       ??_C@_0L@HHPOFMCB@parameters?$AA@ 10092494     libeay32_EM.0.9.8e:ec_asn1.obj
 0002:000094a0       ??_C@_0L@BCENACFO@privateKey?$AA@ 100924a0     libeay32_EM.0.9.8e:ec_asn1.obj
 0002:000094ac       ??_C@_0P@PBBIGPFJ@ECPKPARAMETERS?$AA@ 100924ac     libeay32_EM.0.9.8e:ec_asn1.obj
 0002:000094bc       ??_C@_0BD@HOIIAPI@value?4implicitlyCA?$AA@ 100924bc     libeay32_EM.0.9.8e:ec_asn1.obj
 0002:000094d0       ??_C@_0BB@KOECJJJ@value?4parameters?$AA@ 100924d0     libeay32_EM.0.9.8e:ec_asn1.obj
 0002:000094e4       ??_C@_0BC@JEJHGDNN@value?4named_curve?$AA@ 100924e4     libeay32_EM.0.9.8e:ec_asn1.obj
 0002:000094f8       ??_C@_0N@ECDPFONH@ECPARAMETERS?$AA@ 100924f8     libeay32_EM.0.9.8e:ec_asn1.obj
 0002:00009508       ??_C@_08DKFAOMDI@cofactor?$AA@ 10092508     libeay32_EM.0.9.8e:ec_asn1.obj
 0002:00009514       ??_C@_05NDNMCCJH@order?$AA@ 10092514     libeay32_EM.0.9.8e:ec_asn1.obj
 0002:0000951c       ??_C@_04BHIIPFEC@base?$AA@ 1009251c     libeay32_EM.0.9.8e:ec_asn1.obj
 0002:00009524       ??_C@_05HIKPKPAA@curve?$AA@ 10092524     libeay32_EM.0.9.8e:ec_asn1.obj
 0002:0000952c       ??_C@_07MJJGNICD@fieldID?$AA@ 1009252c     libeay32_EM.0.9.8e:ec_asn1.obj
 0002:00009534       ??_C@_0M@BHDPNPCK@X9_62_CURVE?$AA@ 10092534     libeay32_EM.0.9.8e:ec_asn1.obj
 0002:00009540       ??_C@_04MENKDCKE@seed?$AA@ 10092540     libeay32_EM.0.9.8e:ec_asn1.obj
 0002:00009548       ??_C@_0O@PGPIAKKH@X9_62_FIELDID?$AA@ 10092548     libeay32_EM.0.9.8e:ec_asn1.obj
 0002:00009558       ??_C@_09OAOLGAOM@fieldType?$AA@ 10092558     libeay32_EM.0.9.8e:ec_asn1.obj
 0002:00009564       ??_C@_0L@NLMAKEBL@p?4char_two?$AA@ 10092564     libeay32_EM.0.9.8e:ec_asn1.obj
 0002:00009570       ??_C@_07DPJEDCLB@p?4prime?$AA@ 10092570     libeay32_EM.0.9.8e:ec_asn1.obj
 0002:00009578       ??_C@_0BJ@CCODLOLO@X9_62_CHARACTERISTIC_TWO?$AA@ 10092578     libeay32_EM.0.9.8e:ec_asn1.obj
 0002:00009594       ??_C@_01GOHFPIOK@m?$AA@    10092594     libeay32_EM.0.9.8e:ec_asn1.obj
 0002:00009598       ??_C@_09DMGLCKOJ@p?4ppBasis?$AA@ 10092598     libeay32_EM.0.9.8e:ec_asn1.obj
 0002:000095a4       ??_C@_09LICBCEBD@p?4tpBasis?$AA@ 100925a4     libeay32_EM.0.9.8e:ec_asn1.obj
 0002:000095b0       ??_C@_09KOBBOOPN@p?4onBasis?$AA@ 100925b0     libeay32_EM.0.9.8e:ec_asn1.obj
 0002:000095bc       ??_C@_07PBHIMFBE@p?4other?$AA@ 100925bc     libeay32_EM.0.9.8e:ec_asn1.obj
 0002:000095c4       ??_C@_0BC@NPDMPFCL@X9_62_PENTANOMIAL?$AA@ 100925c4     libeay32_EM.0.9.8e:ec_asn1.obj
 0002:000095d8       ??_C@_02LAFHGHBM@k3?$AA@   100925d8     libeay32_EM.0.9.8e:ec_asn1.obj
 0002:000095dc       ??_C@_02KJEMFGFN@k2?$AA@   100925dc     libeay32_EM.0.9.8e:ec_asn1.obj
 0002:000095e0       ??_C@_02ICGBAFJO@k1?$AA@   100925e0     libeay32_EM.0.9.8e:ec_asn1.obj
 0002:00009964       ??_C@_0BG@HJBLPCL@?4?2crypto?2ec?2ec_asn1?4c?$AA@ 10092964     libeay32_EM.0.9.8e:ec_asn1.obj
 0002:0000997c       ??_C@_0BE@LDIFBBLG@PKCS8_PRIV_KEY_INFO?$AA@ 1009297c     libeay32_EM.0.9.8e:p8_pkey.obj
 0002:00009990       ??_C@_04JMMJFDFL@pkey?$AA@ 10092990     libeay32_EM.0.9.8e:p8_pkey.obj
 0002:00009998       ??_C@_07PLCMOKAM@pkeyalg?$AA@ 10092998     libeay32_EM.0.9.8e:p8_pkey.obj
 0002:00009a24       ??_C@_05DLJFLBDA@TYPE?$DN?$AA@ 10092a24     libeay32_EM.0.9.8e:evp_pkey.obj
 0002:00009a2c       ??_C@_0BI@NHBEHKCC@?4?2crypto?2evp?2evp_pkey?4c?$AA@ 10092a2c     libeay32_EM.0.9.8e:evp_pkey.obj
 0002:00009a44       ??_C@_0BH@BACMEAA@?4?2crypto?2asn1?2d2i_pr?4c?$AA@ 10092a44     libeay32_EM.0.9.8e:d2i_pr.obj
 0002:00009a5c       ??_C@_0L@IMHCEJBK@ocsphelper?$AA@ 10092a5c     libeay32_EM.0.9.8e:v3_purp.obj
 0002:00009a68       ??_C@_0M@NEPIMEJA@OCSP?5helper?$AA@ 10092a68     libeay32_EM.0.9.8e:v3_purp.obj
 0002:00009a74       ??_C@_03OBJFJEBA@any?$AA@  10092a74     libeay32_EM.0.9.8e:v3_purp.obj
 0002:00009a78       ??_C@_0M@NMNFLNDB@Any?5Purpose?$AA@ 10092a78     libeay32_EM.0.9.8e:v3_purp.obj
 0002:00009a84       ??_C@_07IOMCDAPH@crlsign?$AA@ 10092a84     libeay32_EM.0.9.8e:v3_purp.obj
 0002:00009a8c       ??_C@_0M@MEKLJHLA@CRL?5signing?$AA@ 10092a8c     libeay32_EM.0.9.8e:v3_purp.obj
 0002:00009a98       ??_C@_0N@BPFJELMP@smimeencrypt?$AA@ 10092a98     libeay32_EM.0.9.8e:v3_purp.obj
 0002:00009aa8       ??_C@_0BC@DOGNOPGC@S?1MIME?5encryption?$AA@ 10092aa8     libeay32_EM.0.9.8e:v3_purp.obj
 0002:00009abc       ??_C@_09JPGBHOKH@smimesign?$AA@ 10092abc     libeay32_EM.0.9.8e:v3_purp.obj
 0002:00009ac8       ??_C@_0P@LNDEBCCO@S?1MIME?5signing?$AA@ 10092ac8     libeay32_EM.0.9.8e:v3_purp.obj
 0002:00009ad8       ??_C@_0M@GKHHMMAE@nssslserver?$AA@ 10092ad8     libeay32_EM.0.9.8e:v3_purp.obj
 0002:00009ae4       ??_C@_0BE@BPEJPGJG@Netscape?5SSL?5server?$AA@ 10092ae4     libeay32_EM.0.9.8e:v3_purp.obj
 0002:00009af8       ??_C@_09FEILOJPJ@sslserver?$AA@ 10092af8     libeay32_EM.0.9.8e:v3_purp.obj
 0002:00009b04       ??_C@_0L@PNDNFADH@SSL?5server?$AA@ 10092b04     libeay32_EM.0.9.8e:v3_purp.obj
 0002:00009b10       ??_C@_09BLMJDCHK@sslclient?$AA@ 10092b10     libeay32_EM.0.9.8e:v3_purp.obj
 0002:00009b1c       ??_C@_0L@LCHPILLE@SSL?5client?$AA@ 10092b1c     libeay32_EM.0.9.8e:v3_purp.obj
 0002:00009b28       ??_C@_0BK@COINEMNE@?4?2crypto?2x509v3?2v3_purp?4c?$AA@ 10092b28     libeay32_EM.0.9.8e:v3_purp.obj
 0002:00009b44       _PEM_version               10092b44     libeay32_EM.0.9.8e:pem_lib.obj
 0002:00009b80       ??_C@_0BH@LICLDIKC@?4?2crypto?2pem?2pem_lib?4c?$AA@ 10092b80     libeay32_EM.0.9.8e:pem_lib.obj
 0002:00009b98       ??_C@_0DE@MBHEFEFO@phrase?5is?5too?5short?0?5needs?5to?5be@ 10092b98     libeay32_EM.0.9.8e:pem_lib.obj
 0002:00009bcc       ??_C@_0BH@FDMMOMD@Enter?5PEM?5pass?5phrase?3?$AA@ 10092bcc     libeay32_EM.0.9.8e:pem_lib.obj
 0002:00009be4       ??_C@_09NEFHHFED@ENCRYPTED?$AA@ 10092be4     libeay32_EM.0.9.8e:pem_lib.obj
 0002:00009bf0       ??_C@_0L@JOOMHNBL@DEK?9Info?3?5?$AA@ 10092bf0     libeay32_EM.0.9.8e:pem_lib.obj
 0002:00009bfc       ??_C@_0BE@LHICLJDN@TRUSTED?5CERTIFICATE?$AA@ 10092bfc     libeay32_EM.0.9.8e:pem_lib.obj
 0002:00009c10       ??_C@_0BB@PKKMAABO@X509?5CERTIFICATE?$AA@ 10092c10     libeay32_EM.0.9.8e:pem_lib.obj
 0002:00009c24       ??_C@_09KLIMLKKH@?9?9?9?9?9END?5?$AA@ 10092c24     libeay32_EM.0.9.8e:pem_lib.obj
 0002:00009c30       ??_C@_06NGLIMPFK@?9?9?9?9?9?6?$AA@ 10092c30     libeay32_EM.0.9.8e:pem_lib.obj
 0002:00009c38       ??_C@_0M@ILJMFDEM@?9?9?9?9?9BEGIN?5?$AA@ 10092c38     libeay32_EM.0.9.8e:pem_lib.obj
 0002:00009c44       ??_C@_0M@ILILCPAC@Proc?9Type?3?5?$AA@ 10092c44     libeay32_EM.0.9.8e:pem_lib.obj
 0002:00009c50       ??_C@_0M@NNIFEEDF@Expecting?3?5?$AA@ 10092c50     libeay32_EM.0.9.8e:pem_lib.obj
 0002:00009c5c       ??_C@_0BH@MJHCPJFL@?4?2crypto?2pem?2pem_oth?4c?$AA@ 10092c5c     libeay32_EM.0.9.8e:pem_oth.obj
 0002:00009c74       _SHA1_version              10092c74     libeay32_EM.0.9.8e:sha1dgst.obj
 0002:00009ca0       _SHA256_version            10092ca0     libeay32_EM.0.9.8e:sha256.obj
 0002:00009dd0       _SHA512_version            10092dd0     libeay32_EM.0.9.8e:sha512.obj
 0002:0000a080       ??_C@_0BM@LJNAPALK@?4?2crypto?2engine?2tb_digest?4c?$AA@ 10093080     libeay32_EM.0.9.8e:tb_digest.obj
 0002:0000a09c       ??_C@_0BI@HFFBAJKF@unknown?5control?5command?$AA@ 1009309c     libeay32_EM.0.9.8e:ui_err.obj
 0002:0000a0b4       ??_C@_0BB@NEPBJBGF@result?5too?5small?$AA@ 100930b4     libeay32_EM.0.9.8e:ui_err.obj
 0002:0000a0c8       ??_C@_0BB@HMLKGAPD@result?5too?5large?$AA@ 100930c8     libeay32_EM.0.9.8e:ui_err.obj
 0002:0000a0dc       ??_C@_0BB@HMMNCLKL@no?5result?5buffer?$AA@ 100930dc     libeay32_EM.0.9.8e:ui_err.obj
 0002:0000a0f0       ??_C@_0BA@CHEBNBMB@index?5too?5small?$AA@ 100930f0     libeay32_EM.0.9.8e:ui_err.obj
 0002:0000a100       ??_C@_0BA@IPAKCAFH@index?5too?5large?$AA@ 10093100     libeay32_EM.0.9.8e:ui_err.obj
 0002:0000a110       ??_C@_0CA@MODCIDDB@common?5ok?5and?5cancel?5characters?$AA@ 10093110     libeay32_EM.0.9.8e:ui_err.obj
 0002:0000a130       ??_C@_0O@EDJPOOGP@UI_set_result?$AA@ 10093130     libeay32_EM.0.9.8e:ui_err.obj
 0002:0000a140       ??_C@_0O@NGDBEIBL@UI_new_method?$AA@ 10093140     libeay32_EM.0.9.8e:ui_err.obj
 0002:0000a150       ??_C@_0P@LPDIOMBP@UI_get0_result?$AA@ 10093150     libeay32_EM.0.9.8e:ui_err.obj
 0002:0000a160       ??_C@_0BF@CLNOBEOL@UI_dup_verify_string?$AA@ 10093160     libeay32_EM.0.9.8e:ui_err.obj
 0002:0000a178       ??_C@_0BE@EKGBGIID@UI_dup_input_string?$AA@ 10093178     libeay32_EM.0.9.8e:ui_err.obj
 0002:0000a18c       ??_C@_0BF@POGJGJNM@UI_dup_input_boolean?$AA@ 1009318c     libeay32_EM.0.9.8e:ui_err.obj
 0002:0000a1a4       ??_C@_0BD@BDJEJKHN@UI_dup_info_string?$AA@ 100931a4     libeay32_EM.0.9.8e:ui_err.obj
 0002:0000a1b8       ??_C@_0BE@MCDDKAGP@UI_dup_error_string?$AA@ 100931b8     libeay32_EM.0.9.8e:ui_err.obj
 0002:0000a1cc       ??_C@_07PKCPFHP@UI_ctrl?$AA@ 100931cc     libeay32_EM.0.9.8e:ui_err.obj
 0002:0000a1d4       ??_C@_0BI@OAGFBGFA@GENERAL_ALLOCATE_STRING?$AA@ 100931d4     libeay32_EM.0.9.8e:ui_err.obj
 0002:0000a1ec       ??_C@_0BI@GHJBOEFM@GENERAL_ALLOCATE_PROMPT?$AA@ 100931ec     libeay32_EM.0.9.8e:ui_err.obj
 0002:0000a204       ??_C@_0BJ@HEJNMKGO@GENERAL_ALLOCATE_BOOLEAN?$AA@ 10093204     libeay32_EM.0.9.8e:ui_err.obj
 0002:0000a220       ??_C@_0BP@PEMBCGCF@unsupported?5requestorname?5type?$AA@ 10093220     libeay32_EM.0.9.8e:ocsp_err.obj
 0002:0000a240       ??_C@_0M@MJJCBEFL@unknown?5nid?$AA@ 10093240     libeay32_EM.0.9.8e:ocsp_err.obj
 0002:0000a24c       ??_C@_0BH@HCJHEFDL@unknown?5message?5digest?$AA@ 1009324c     libeay32_EM.0.9.8e:ocsp_err.obj
 0002:0000a264       ??_C@_0P@GGIDMBBF@status?5too?5old?$AA@ 10093264     libeay32_EM.0.9.8e:ocsp_err.obj
 0002:0000a274       ??_C@_0BF@IGIMLKNE@status?5not?5yet?5valid?$AA@ 10093274     libeay32_EM.0.9.8e:ocsp_err.obj
 0002:0000a28c       ??_C@_0P@HOCKGMFL@status?5expired?$AA@ 1009328c     libeay32_EM.0.9.8e:ocsp_err.obj
 0002:0000a29c       ??_C@_0BN@LFDDONEE@signer?5certificate?5not?5found?$AA@ 1009329c     libeay32_EM.0.9.8e:ocsp_err.obj
 0002:0000a2bc       ??_C@_0BC@FNMJPDOC@signature?5failure?$AA@ 100932bc     libeay32_EM.0.9.8e:ocsp_err.obj
 0002:0000a2d0       ??_C@_0BD@GNOPIANF@server?5write?5error?$AA@ 100932d0     libeay32_EM.0.9.8e:ocsp_err.obj
 0002:0000a2e4       ??_C@_0BM@PELFIJJH@server?5response?5parse?5error?$AA@ 100932e4     libeay32_EM.0.9.8e:ocsp_err.obj
 0002:0000a300       ??_C@_0BG@HMMPALGI@server?5response?5error?$AA@ 10093300     libeay32_EM.0.9.8e:ocsp_err.obj
 0002:0000a318       ??_C@_0BC@IPNNFNEJ@server?5read?5error?$AA@ 10093318     libeay32_EM.0.9.8e:ocsp_err.obj
 0002:0000a32c       ??_C@_0BE@FPFBADPC@root?5ca?5not?5trusted?$AA@ 1009332c     libeay32_EM.0.9.8e:ocsp_err.obj
 0002:0000a340       ??_C@_0CF@EOACFMGE@response?5contains?5no?5revocation?5@ 10093340     libeay32_EM.0.9.8e:ocsp_err.obj
 0002:0000a368       ??_C@_0BD@NCDAPJKO@request?5not?5signed?$AA@ 10093368     libeay32_EM.0.9.8e:ocsp_err.obj
 0002:0000a37c       ??_C@_0CH@PMPAELAG@private?5key?5does?5not?5match?5certi@ 1009337c     libeay32_EM.0.9.8e:ocsp_err.obj
 0002:0000a3a4       ??_C@_0BA@KBOGMBML@no?5revoked?5time?$AA@ 100933a4     libeay32_EM.0.9.8e:ocsp_err.obj
 0002:0000a3b4       ??_C@_0BB@GBCEEOG@no?5response?5data?$AA@ 100933b4     libeay32_EM.0.9.8e:ocsp_err.obj
 0002:0000a3c8       ??_C@_0O@EOGKGIEL@no?5public?5key?$AA@ 100933c8     libeay32_EM.0.9.8e:ocsp_err.obj
 0002:0000a3d8       ??_C@_0L@CMBDMAOL@no?5content?$AA@ 100933d8     libeay32_EM.0.9.8e:ocsp_err.obj
 0002:0000a3e4       ??_C@_0BJ@PFPLJIP@no?5certificates?5in?5chain?$AA@ 100933e4     libeay32_EM.0.9.8e:ocsp_err.obj
 0002:0000a400       ??_C@_0BD@BKKPMAGI@not?5basic?5response?$AA@ 10093400     libeay32_EM.0.9.8e:ocsp_err.obj
 0002:0000a414       ??_C@_0BN@MIEFPHNI@nextupdate?5before?5thisupdate?$AA@ 10093414     libeay32_EM.0.9.8e:ocsp_err.obj
 0002:0000a434       ??_C@_0BK@CFIMGAGI@missing?5ocspsigning?5usage?$AA@ 10093434     libeay32_EM.0.9.8e:ocsp_err.obj
 0002:0000a450       ??_C@_0BC@FBBBNNOE@error?5parsing?5url?$AA@ 10093450     libeay32_EM.0.9.8e:ocsp_err.obj
 0002:0000a464       ??_C@_0BK@GDOEKJHF@error?5in?5thisupdate?5field?$AA@ 10093464     libeay32_EM.0.9.8e:ocsp_err.obj
 0002:0000a480       ??_C@_0BK@NHIHEDGP@error?5in?5nextupdate?5field?$AA@ 10093480     libeay32_EM.0.9.8e:ocsp_err.obj
 0002:0000a49c       ??_C@_0L@DDPIMMLP@digest?5err?$AA@ 1009349c     libeay32_EM.0.9.8e:ocsp_err.obj
 0002:0000a4a8       ??_C@_0BJ@PLMONNLI@certificate?5verify?5error?$AA@ 100934a8     libeay32_EM.0.9.8e:ocsp_err.obj
 0002:0000a4c4       ??_C@_08MPEBFEBH@bad?5data?$AA@ 100934c4     libeay32_EM.0.9.8e:ocsp_err.obj
 0002:0000a4d0       ??_C@_0P@EJFIFBBI@REQUEST_VERIFY?$AA@ 100934d0     libeay32_EM.0.9.8e:ocsp_err.obj
 0002:0000a4e0       ??_C@_0BB@PJALPLHC@OCSP_sendreq_bio?$AA@ 100934e0     libeay32_EM.0.9.8e:ocsp_err.obj
 0002:0000a4f4       ??_C@_0BJ@PJFNFKOP@OCSP_response_get1_basic?$AA@ 100934f4     libeay32_EM.0.9.8e:ocsp_err.obj
 0002:0000a510       ??_C@_0BE@OFJONHDE@OCSP_request_verify?$AA@ 10093510     libeay32_EM.0.9.8e:ocsp_err.obj
 0002:0000a524       ??_C@_0BC@BOKGIJKF@OCSP_request_sign?$AA@ 10093524     libeay32_EM.0.9.8e:ocsp_err.obj
 0002:0000a538       ??_C@_0P@EGPIPMGP@OCSP_parse_url?$AA@ 10093538     libeay32_EM.0.9.8e:ocsp_err.obj
 0002:0000a548       ??_C@_0BE@JIKJHJDO@OCSP_MATCH_ISSUERID?$AA@ 10093548     libeay32_EM.0.9.8e:ocsp_err.obj
 0002:0000a55c       ??_C@_0BE@MFKONAMO@OCSP_check_validity?$AA@ 1009355c     libeay32_EM.0.9.8e:ocsp_err.obj
 0002:0000a570       ??_C@_0BC@NGBDAEFF@OCSP_CHECK_ISSUER?$AA@ 10093570     libeay32_EM.0.9.8e:ocsp_err.obj
 0002:0000a584       ??_C@_0P@DDGGJONL@OCSP_CHECK_IDS?$AA@ 10093584     libeay32_EM.0.9.8e:ocsp_err.obj
 0002:0000a594       ??_C@_0BF@KOGHHGND@OCSP_CHECK_DELEGATED?$AA@ 10093594     libeay32_EM.0.9.8e:ocsp_err.obj
 0002:0000a5ac       ??_C@_0BB@FDFOGFMH@OCSP_cert_id_new?$AA@ 100935ac     libeay32_EM.0.9.8e:ocsp_err.obj
 0002:0000a5c0       ??_C@_0BC@BKMFDAMH@OCSP_basic_verify?$AA@ 100935c0     libeay32_EM.0.9.8e:ocsp_err.obj
 0002:0000a5d4       ??_C@_0BA@ENHCHJFD@OCSP_basic_sign?$AA@ 100935d4     libeay32_EM.0.9.8e:ocsp_err.obj
 0002:0000a5e4       ??_C@_0BH@GOAFBKBP@OCSP_basic_add1_status?$AA@ 100935e4     libeay32_EM.0.9.8e:ocsp_err.obj
 0002:0000a5fc       ??_C@_0P@MGFFHJND@D2I_OCSP_NONCE?$AA@ 100935fc     libeay32_EM.0.9.8e:ocsp_err.obj
 0002:0000a60c       ??_C@_0BD@NPDGBE@ASN1_STRING_encode?$AA@ 1009360c     libeay32_EM.0.9.8e:ocsp_err.obj
 0002:0000a620       ??_C@_0BI@GMELFAKF@version?5incompatibility?$AA@ 10093620     libeay32_EM.0.9.8e:eng_err.obj
 0002:0000a638       ??_C@_0BF@FHAJCIB@unimplemented?5digest?$AA@ 10093638     libeay32_EM.0.9.8e:eng_err.obj
 0002:0000a650       ??_C@_0BF@KOIMEHAE@unimplemented?5cipher?$AA@ 10093650     libeay32_EM.0.9.8e:eng_err.obj
 0002:0000a668       ??_C@_0BE@ICGIJGPJ@rsa?5not?5implemented?$AA@ 10093668     libeay32_EM.0.9.8e:eng_err.obj
 0002:0000a67c       ??_C@_0BD@OBEDCEHC@provide?5parameters?$AA@ 1009367c     libeay32_EM.0.9.8e:eng_err.obj
 0002:0000a690       ??_C@_0BD@BAMGBJCH@no?5unload?5function?$AA@ 10093690     libeay32_EM.0.9.8e:eng_err.obj
 0002:0000a6a4       ??_C@_0P@MKGFOFPM@no?5such?5engine?$AA@ 100936a4     libeay32_EM.0.9.8e:eng_err.obj
 0002:0000a6b4       ??_C@_0N@GNFMHGFB@no?5reference?$AA@ 100936b4     libeay32_EM.0.9.8e:eng_err.obj
 0002:0000a6c4       ??_C@_0BB@MEBKLLLP@no?5load?5function?$AA@ 100936c4     libeay32_EM.0.9.8e:eng_err.obj
 0002:0000a6d8       ??_C@_08FPGGDHDD@no?5index?$AA@ 100936d8     libeay32_EM.0.9.8e:eng_err.obj
 0002:0000a6e4       ??_C@_0BE@IBINMIII@no?5control?5function?$AA@ 100936e4     libeay32_EM.0.9.8e:eng_err.obj
 0002:0000a6f8       ??_C@_0L@ICAFOIA@not?5loaded?$AA@ 100936f8     libeay32_EM.0.9.8e:eng_err.obj
 0002:0000a704       ??_C@_0BA@FEBOOGFB@not?5initialised?$AA@ 10093704     libeay32_EM.0.9.8e:eng_err.obj
 0002:0000a714       ??_C@_0P@JNPPPLLF@invalid?5string?$AA@ 10093714     libeay32_EM.0.9.8e:eng_err.obj
 0002:0000a724       ??_C@_0BD@HIPFLJCP@invalid?5init?5value?$AA@ 10093724     libeay32_EM.0.9.8e:eng_err.obj
 0002:0000a738       ??_C@_0BD@PPGEIBJN@invalid?5cmd?5number?$AA@ 10093738     libeay32_EM.0.9.8e:eng_err.obj
 0002:0000a74c       ??_C@_0BB@CNFOOOPK@invalid?5cmd?5name?$AA@ 1009374c     libeay32_EM.0.9.8e:eng_err.obj
 0002:0000a760       ??_C@_0BB@FCMFBGOM@invalid?5argument?$AA@ 10093760     libeay32_EM.0.9.8e:eng_err.obj
 0002:0000a774       ??_C@_0BE@OKODLAII@internal?5list?5error?$AA@ 10093774     libeay32_EM.0.9.8e:eng_err.obj
 0002:0000a788       ??_C@_0M@MLCJFCMN@init?5failed?$AA@ 10093788     libeay32_EM.0.9.8e:eng_err.obj
 0002:0000a794       ??_C@_0BH@HIGAMGCJ@?8id?8?5or?5?8name?8?5missing?$AA@ 10093794     libeay32_EM.0.9.8e:eng_err.obj
 0002:0000a7ac       ??_C@_0CB@LBPHDELA@could?5not?5obtain?5hardware?5handle@ 100937ac     libeay32_EM.0.9.8e:eng_err.obj
 0002:0000a7d0       ??_C@_0O@LLOFKFAE@finish?5failed?$AA@ 100937d0     libeay32_EM.0.9.8e:eng_err.obj
 0002:0000a7e0       ??_C@_0BK@OJHFAKGP@failed?5loading?5public?5key?$AA@ 100937e0     libeay32_EM.0.9.8e:eng_err.obj
 0002:0000a7fc       ??_C@_0BL@DPOFILLC@failed?5loading?5private?5key?$AA@ 100937fc     libeay32_EM.0.9.8e:eng_err.obj
 0002:0000a818       ??_C@_0BF@NFOFDGOH@engine?5section?5error?$AA@ 10093818     libeay32_EM.0.9.8e:eng_err.obj
 0002:0000a830       ??_C@_0BK@OKABGIGB@engine?5is?5not?5in?5the?5list?$AA@ 10093830     libeay32_EM.0.9.8e:eng_err.obj
 0002:0000a84c       ??_C@_0BG@OGKPDNLL@engines?5section?5error?$AA@ 1009384c     libeay32_EM.0.9.8e:eng_err.obj
 0002:0000a864       ??_C@_0O@BBPECCFC@dso?5not?5found?$AA@ 10093864     libeay32_EM.0.9.8e:eng_err.obj
 0002:0000a874       ??_C@_0M@OADBIJHF@DSO?5failure?$AA@ 10093874     libeay32_EM.0.9.8e:eng_err.obj
 0002:0000a880       ??_C@_0BE@OGINKAAJ@dsa?5not?5implemented?$AA@ 10093880     libeay32_EM.0.9.8e:eng_err.obj
 0002:0000a894       ??_C@_0BD@PDMGEBAD@dh?5not?5implemented?$AA@ 10093894     libeay32_EM.0.9.8e:eng_err.obj
 0002:0000a8a8       ??_C@_0BN@NJGGMLOG@ctrl?5command?5not?5implemented?$AA@ 100938a8     libeay32_EM.0.9.8e:eng_err.obj
 0002:0000a8c8       ??_C@_0BG@FIAJIFFO@conflicting?5engine?5id?$AA@ 100938c8     libeay32_EM.0.9.8e:eng_err.obj
 0002:0000a8e0       ??_C@_0BH@KAPFONCA@command?5takes?5no?5input?$AA@ 100938e0     libeay32_EM.0.9.8e:eng_err.obj
 0002:0000a8f8       ??_C@_0BE@CMOMGKCM@command?5takes?5input?$AA@ 100938f8     libeay32_EM.0.9.8e:eng_err.obj
 0002:0000a90c       ??_C@_0BD@DHLDGNIM@cmd?5not?5executable?$AA@ 1009390c     libeay32_EM.0.9.8e:eng_err.obj
 0002:0000a920       ??_C@_0BJ@MLKFDHJB@argument?5is?5not?5a?5number?$AA@ 10093920     libeay32_EM.0.9.8e:eng_err.obj
 0002:0000a93c       ??_C@_0P@BJJHFGDF@already?5loaded?$AA@ 1009393c     libeay32_EM.0.9.8e:eng_err.obj
 0002:0000a94c       ??_C@_0M@KPAPOBEL@LOG_MESSAGE?$AA@ 1009394c     libeay32_EM.0.9.8e:eng_err.obj
 0002:0000a958       ??_C@_0BH@NKOABKBJ@INT_ENGINE_MODULE_INIT?$AA@ 10093958     libeay32_EM.0.9.8e:eng_err.obj
 0002:0000a970       ??_C@_0BF@KHKGEEDA@INT_ENGINE_CONFIGURE?$AA@ 10093970     libeay32_EM.0.9.8e:eng_err.obj
 0002:0000a988       ??_C@_0BA@NBOMGPDI@INT_CTRL_HELPER?$AA@ 10093988     libeay32_EM.0.9.8e:eng_err.obj
 0002:0000a998       ??_C@_0O@GOAHGMDB@ENGINE_up_ref?$AA@ 10093998     libeay32_EM.0.9.8e:eng_err.obj
 0002:0000a9a8       ??_C@_0BH@LANMBLCP@ENGINE_UNLOCKED_FINISH?$AA@ 100939a8     libeay32_EM.0.9.8e:eng_err.obj
 0002:0000a9c0       ??_C@_0BC@NNKOFPO@ENGINE_UNLOAD_KEY?$AA@ 100939c0     libeay32_EM.0.9.8e:eng_err.obj
 0002:0000a9d4       ??_C@_0BG@HEPKCBPA@ENGINE_TABLE_REGISTER?$AA@ 100939d4     libeay32_EM.0.9.8e:eng_err.obj
 0002:0000a9ec       ??_C@_0BA@BBCLHLE@ENGINE_set_name?$AA@ 100939ec     libeay32_EM.0.9.8e:eng_err.obj
 0002:0000a9fc       ??_C@_0O@IBKJDIDD@ENGINE_set_id?$AA@ 100939fc     libeay32_EM.0.9.8e:eng_err.obj
 0002:0000aa0c       ??_C@_0BI@PCMFCKOJ@ENGINE_SET_DEFAULT_TYPE?$AA@ 10093a0c     libeay32_EM.0.9.8e:eng_err.obj
 0002:0000aa24       ??_C@_0BK@CMIADBNF@ENGINE_set_default_string?$AA@ 10093a24     libeay32_EM.0.9.8e:eng_err.obj
 0002:0000aa40       ??_C@_0O@LEGEOLNJ@ENGINE_remove?$AA@ 10093a40     libeay32_EM.0.9.8e:eng_err.obj
 0002:0000aa50       ??_C@_0L@DLEMNAIO@ENGINE_new?$AA@ 10093a50     libeay32_EM.0.9.8e:eng_err.obj
 0002:0000aa5c       ??_C@_0BH@DNGJCACJ@ENGINE_load_public_key?$AA@ 10093a5c     libeay32_EM.0.9.8e:eng_err.obj
 0002:0000aa74       ??_C@_0BI@CBHILLDH@ENGINE_load_private_key?$AA@ 10093a74     libeay32_EM.0.9.8e:eng_err.obj
 0002:0000aa8c       ??_C@_0BD@LDGPIDHA@ENGINE_LIST_REMOVE?$AA@ 10093a8c     libeay32_EM.0.9.8e:eng_err.obj
 0002:0000aaa0       ??_C@_0BA@LJOOGOPL@ENGINE_LIST_ADD?$AA@ 10093aa0     libeay32_EM.0.9.8e:eng_err.obj
 0002:0000aab0       ??_C@_0M@DCPBILGO@ENGINE_init?$AA@ 10093ab0     libeay32_EM.0.9.8e:eng_err.obj
 0002:0000aabc       ??_C@_0BA@CLOGFHB@ENGINE_get_prev?$AA@ 10093abc     libeay32_EM.0.9.8e:eng_err.obj
 0002:0000aacc       ??_C@_0BA@DGGIHBBF@ENGINE_get_next?$AA@ 10093acc     libeay32_EM.0.9.8e:eng_err.obj
 0002:0000aadc       ??_C@_0BC@NEPEFELB@ENGINE_get_digest?$AA@ 10093adc     libeay32_EM.0.9.8e:eng_err.obj
 0002:0000aaf0       ??_C@_0BI@JGJMJEFL@ENGINE_GET_DEFAULT_TYPE?$AA@ 10093af0     libeay32_EM.0.9.8e:eng_err.obj
 0002:0000ab08       ??_C@_0BC@HPAIIBDE@ENGINE_get_cipher?$AA@ 10093b08     libeay32_EM.0.9.8e:eng_err.obj
 0002:0000ab1c       ??_C@_0BB@PJHBNDMO@ENGINE_FREE_UTIL?$AA@ 10093b1c     libeay32_EM.0.9.8e:eng_err.obj
 0002:0000ab30       ??_C@_0O@IBJJAKNF@ENGINE_finish?$AA@ 10093b30     libeay32_EM.0.9.8e:eng_err.obj
 0002:0000ab40       ??_C@_0BH@IEMBPIBJ@ENGINE_ctrl_cmd_string?$AA@ 10093b40     libeay32_EM.0.9.8e:eng_err.obj
 0002:0000ab58       ??_C@_0BA@NDKOOMLF@ENGINE_ctrl_cmd?$AA@ 10093b58     libeay32_EM.0.9.8e:eng_err.obj
 0002:0000ab68       ??_C@_0M@NFINPAPM@ENGINE_ctrl?$AA@ 10093b68     libeay32_EM.0.9.8e:eng_err.obj
 0002:0000ab74       ??_C@_0BJ@HKGBPGOI@ENGINE_cmd_is_executable?$AA@ 10093b74     libeay32_EM.0.9.8e:eng_err.obj
 0002:0000ab90       ??_C@_0N@NCBADPHI@ENGINE_by_id?$AA@ 10093b90     libeay32_EM.0.9.8e:eng_err.obj
 0002:0000aba0       ??_C@_0L@DACOLHN@ENGINE_add?$AA@ 10093ba0     libeay32_EM.0.9.8e:eng_err.obj
 0002:0000abac       ??_C@_0BF@CMDFGLLL@DYNAMIC_SET_DATA_CTX?$AA@ 10093bac     libeay32_EM.0.9.8e:eng_err.obj
 0002:0000abc4       ??_C@_0N@PDCGAECP@DYNAMIC_LOAD?$AA@ 10093bc4     libeay32_EM.0.9.8e:eng_err.obj
 0002:0000abd4       ??_C@_0BF@FIILKHPH@DYNAMIC_GET_DATA_CTX?$AA@ 10093bd4     libeay32_EM.0.9.8e:eng_err.obj
 0002:0000abec       ??_C@_0N@CANHNEEB@DYNAMIC_CTRL?$AA@ 10093bec     libeay32_EM.0.9.8e:eng_err.obj
 0002:0000abfc       ??_C@_0BM@LHLEOIGK@functionality?5not?5supported?$AA@ 10093bfc     libeay32_EM.0.9.8e:dso_err.obj
 0002:0000ac18       ??_C@_0CE@FOMJAKIK@could?5not?5unload?5the?5shared?5libr@ 10093c18     libeay32_EM.0.9.8e:dso_err.obj
 0002:0000ac3c       ??_C@_0CM@JGGNADOB@could?5not?5bind?5to?5the?5requested?5@ 10093c3c     libeay32_EM.0.9.8e:dso_err.obj
 0002:0000ac68       ??_C@_0BP@PIEGKEEJ@the?5meth_data?5stack?5is?5corrupt?$AA@ 10093c68     libeay32_EM.0.9.8e:dso_err.obj
 0002:0000ac88       ??_C@_0BE@NIHPFFEI@set?5filename?5failed?$AA@ 10093c88     libeay32_EM.0.9.8e:dso_err.obj
 0002:0000ac9c       ??_C@_0CG@BNDBJOHD@a?5null?5shared?5library?5handle?5was@ 10093c9c     libeay32_EM.0.9.8e:dso_err.obj
 0002:0000acc4       ??_C@_0BG@DMKAPHFP@no?5file?5specification?$AA@ 10093cc4     libeay32_EM.0.9.8e:dso_err.obj
 0002:0000acdc       ??_C@_0M@MANHICLF@no?5filename?$AA@ 10093cdc     libeay32_EM.0.9.8e:dso_err.obj
 0002:0000ace8       ??_C@_0BI@CMDMEMFB@name?5translation?5failed?$AA@ 10093ce8     libeay32_EM.0.9.8e:dso_err.obj
 0002:0000ad00       ??_C@_0CC@FFDOFDDH@could?5not?5load?5the?5shared?5librar@ 10093d00     libeay32_EM.0.9.8e:dso_err.obj
 0002:0000ad24       ??_C@_0BG@NKEINIBP@incorrect?5file?5syntax?$AA@ 10093d24     libeay32_EM.0.9.8e:dso_err.obj
 0002:0000ad3c       ??_C@_0BP@OLOPAJM@cleanup?5method?5function?5failed?$AA@ 10093d3c     libeay32_EM.0.9.8e:dso_err.obj
 0002:0000ad5c       ??_C@_0BB@PBMBADNF@filename?5too?5big?$AA@ 10093d5c     libeay32_EM.0.9.8e:dso_err.obj
 0002:0000ad70       ??_C@_07MBLPHJFH@failure?$AA@ 10093d70     libeay32_EM.0.9.8e:dso_err.obj
 0002:0000ad78       ??_C@_0BF@PAMEGLNL@empty?5file?5structure?$AA@ 10093d78     libeay32_EM.0.9.8e:dso_err.obj
 0002:0000ad90       ??_C@_0BD@BHBOFNOP@dso?5already?5loaded?$AA@ 10093d90     libeay32_EM.0.9.8e:dso_err.obj
 0002:0000ada4       ??_C@_0BH@OOCPFGMG@control?5command?5failed?$AA@ 10093da4     libeay32_EM.0.9.8e:dso_err.obj
 0002:0000adbc       ??_C@_0N@FNAFDKAA@WIN32_UNLOAD?$AA@ 10093dbc     libeay32_EM.0.9.8e:dso_err.obj
 0002:0000adcc       ??_C@_0P@MLLACKJ@WIN32_SPLITTER?$AA@ 10093dcc     libeay32_EM.0.9.8e:dso_err.obj
 0002:0000addc       ??_C@_0BF@KDGOAHDK@WIN32_NAME_CONVERTER?$AA@ 10093ddc     libeay32_EM.0.9.8e:dso_err.obj
 0002:0000adf4       ??_C@_0N@GCAGAEGN@WIN32_MERGER?$AA@ 10093df4     libeay32_EM.0.9.8e:dso_err.obj
 0002:0000ae04       ??_C@_0L@MDFNLIFJ@WIN32_LOAD?$AA@ 10093e04     libeay32_EM.0.9.8e:dso_err.obj
 0002:0000ae10       ??_C@_0N@GMACPAJM@WIN32_JOINER?$AA@ 10093e10     libeay32_EM.0.9.8e:dso_err.obj
 0002:0000ae20       ??_C@_0P@CFCFCNCK@WIN32_BIND_VAR?$AA@ 10093e20     libeay32_EM.0.9.8e:dso_err.obj
 0002:0000ae30       ??_C@_0BA@KKGNPNGD@WIN32_BIND_FUNC?$AA@ 10093e30     libeay32_EM.0.9.8e:dso_err.obj
 0002:0000ae40       ??_C@_0L@FHGIHEGE@VMS_UNLOAD?$AA@ 10093e40     libeay32_EM.0.9.8e:dso_err.obj
 0002:0000ae4c       ??_C@_0L@GIGLEKAJ@VMS_MERGER?$AA@ 10093e4c     libeay32_EM.0.9.8e:dso_err.obj
 0002:0000ae58       ??_C@_08POPKNNEM@VMS_LOAD?$AA@ 10093e58     libeay32_EM.0.9.8e:dso_err.obj
 0002:0000ae64       ??_C@_0N@FNGBOJBH@VMS_BIND_SYM?$AA@ 10093e64     libeay32_EM.0.9.8e:dso_err.obj
 0002:0000ae74       ??_C@_0L@JOFLDDCD@DSO_up_ref?$AA@ 10093e74     libeay32_EM.0.9.8e:dso_err.obj
 0002:0000ae80       ??_C@_0BH@HJLMMDGG@DSO_set_name_converter?$AA@ 10093e80     libeay32_EM.0.9.8e:dso_err.obj
 0002:0000ae98       ??_C@_0BB@KOOHGFJP@DSO_set_filename?$AA@ 10093e98     libeay32_EM.0.9.8e:dso_err.obj
 0002:0000aeac       ??_C@_0P@MIPJLIEO@DSO_new_method?$AA@ 10093eac     libeay32_EM.0.9.8e:dso_err.obj
 0002:0000aebc       ??_C@_09JEEHMKBG@DSO_merge?$AA@ 10093ebc     libeay32_EM.0.9.8e:dso_err.obj
 0002:0000aec8       ??_C@_08HJLJIAGA@DSO_load?$AA@ 10093ec8     libeay32_EM.0.9.8e:dso_err.obj
 0002:0000aed4       ??_C@_0BI@BHCPJBAG@DSO_get_loaded_filename?$AA@ 10093ed4     libeay32_EM.0.9.8e:dso_err.obj
 0002:0000aeec       ??_C@_0BB@NKFJKJND@DSO_get_filename?$AA@ 10093eec     libeay32_EM.0.9.8e:dso_err.obj
 0002:0000af00       ??_C@_08IPGIIOBO@DSO_free?$AA@ 10093f00     libeay32_EM.0.9.8e:dso_err.obj
 0002:0000af0c       ??_C@_08KKEIFAAO@DSO_ctrl?$AA@ 10093f0c     libeay32_EM.0.9.8e:dso_err.obj
 0002:0000af18       ??_C@_0BF@LACAGLOM@DSO_convert_filename?$AA@ 10093f18     libeay32_EM.0.9.8e:dso_err.obj
 0002:0000af30       ??_C@_0N@JOCDIPCP@DSO_bind_var?$AA@ 10093f30     libeay32_EM.0.9.8e:dso_err.obj
 0002:0000af40       ??_C@_0O@EPDICLOM@DSO_bind_func?$AA@ 10093f40     libeay32_EM.0.9.8e:dso_err.obj
 0002:0000af50       ??_C@_09MAACBMPD@DL_UNLOAD?$AA@ 10093f50     libeay32_EM.0.9.8e:dso_err.obj
 0002:0000af5c       ??_C@_0BC@EKHEMLCM@DL_NAME_CONVERTER?$AA@ 10093f5c     libeay32_EM.0.9.8e:dso_err.obj
 0002:0000af70       ??_C@_09PPABCCJO@DL_MERGER?$AA@ 10093f70     libeay32_EM.0.9.8e:dso_err.obj
 0002:0000af7c       ??_C@_07PCEANJHL@DL_LOAD?$AA@ 10093f7c     libeay32_EM.0.9.8e:dso_err.obj
 0002:0000af84       ??_C@_0M@MILJIHKO@DL_BIND_VAR?$AA@ 10093f84     libeay32_EM.0.9.8e:dso_err.obj
 0002:0000af90       ??_C@_0N@EAFFCGPA@DL_BIND_FUNC?$AA@ 10093f90     libeay32_EM.0.9.8e:dso_err.obj
 0002:0000afa0       ??_C@_0N@JGHGNDBI@DLFCN_UNLOAD?$AA@ 10093fa0     libeay32_EM.0.9.8e:dso_err.obj
 0002:0000afb0       ??_C@_0BF@IJHLGIMF@DLFCN_NAME_CONVERTER?$AA@ 10093fb0     libeay32_EM.0.9.8e:dso_err.obj
 0002:0000afc8       ??_C@_0N@KJHFONHF@DLFCN_MERGER?$AA@ 10093fc8     libeay32_EM.0.9.8e:dso_err.obj
 0002:0000afd8       ??_C@_0L@COCAFIAA@DLFCN_LOAD?$AA@ 10093fd8     libeay32_EM.0.9.8e:dso_err.obj
 0002:0000afe4       ??_C@_0P@HOOICENM@DLFCN_BIND_VAR?$AA@ 10093fe4     libeay32_EM.0.9.8e:dso_err.obj
 0002:0000aff4       ??_C@_0BA@POOIGHED@DLFCN_BIND_FUNC?$AA@ 10093ff4     libeay32_EM.0.9.8e:dso_err.obj
 0002:0000b004       ??_C@_0BA@PGDKLOAF@PRNG?5not?5seeded?$AA@ 10094004     libeay32_EM.0.9.8e:rand_err.obj
 0002:0000b014       ??_C@_0BC@HICMDCDB@SSLEAY_RAND_BYTES?$AA@ 10094014     libeay32_EM.0.9.8e:rand_err.obj
 0002:0000b028       ??_C@_0BF@CAFGGGED@RAND_get_rand_method?$AA@ 10094028     libeay32_EM.0.9.8e:rand_err.obj
 0002:0000b040       ??_C@_0BI@EEIECHAF@unsupported?5pkcs12?5mode?$AA@ 10094040     libeay32_EM.0.9.8e:pk12err.obj
 0002:0000b058       ??_C@_0BJ@OKONMLMC@unknown?5digest?5algorithm?$AA@ 10094058     libeay32_EM.0.9.8e:pk12err.obj
 0002:0000b074       ??_C@_0BH@KFJJFPGN@pkcs12?5pbe?5crypt?5error?$AA@ 10094074     libeay32_EM.0.9.8e:pk12err.obj
 0002:0000b08c       ??_C@_0BJ@BKJAONNI@pkcs12?5cipherfinal?5error?$AA@ 1009408c     libeay32_EM.0.9.8e:pk12err.obj
 0002:0000b0a8       ??_C@_0BO@BBFFHMLJ@pkcs12?5algor?5cipherinit?5error?$AA@ 100940a8     libeay32_EM.0.9.8e:pk12err.obj
 0002:0000b0c8       ??_C@_0M@BJIBBOFC@parse?5error?$AA@ 100940c8     libeay32_EM.0.9.8e:pk12err.obj
 0002:0000b0d4       ??_C@_0BD@GOKMGMNC@mac?5verify?5failure?$AA@ 100940d4     libeay32_EM.0.9.8e:pk12err.obj
 0002:0000b0e8       ??_C@_0BB@GIFNFEPC@mac?5verify?5error?$AA@ 100940e8     libeay32_EM.0.9.8e:pk12err.obj
 0002:0000b0fc       ??_C@_0BF@JMCFJAMN@mac?5string?5set?5error?$AA@ 100940fc     libeay32_EM.0.9.8e:pk12err.obj
 0002:0000b114       ??_C@_0BA@ILPLLEEK@mac?5setup?5error?$AA@ 10094114     libeay32_EM.0.9.8e:pk12err.obj
 0002:0000b124       ??_C@_0BF@NKGPIEMN@mac?5generation?5error?$AA@ 10094124     libeay32_EM.0.9.8e:pk12err.obj
 0002:0000b13c       ??_C@_0L@HOOIALKD@mac?5absent?$AA@ 1009413c     libeay32_EM.0.9.8e:pk12err.obj
 0002:0000b148       ??_C@_0O@KKIOONMM@key?5gen?5error?$AA@ 10094148     libeay32_EM.0.9.8e:pk12err.obj
 0002:0000b158       ??_C@_0N@FPIKEAMH@iv?5gen?5error?$AA@ 10094158     libeay32_EM.0.9.8e:pk12err.obj
 0002:0000b168       ??_C@_0BM@HJIDLEHH@invalid?5null?5pkcs12?5pointer?$AA@ 10094168     libeay32_EM.0.9.8e:pk12err.obj
 0002:0000b184       ??_C@_0BG@HMFEKIEC@invalid?5null?5argument?$AA@ 10094184     libeay32_EM.0.9.8e:pk12err.obj
 0002:0000b19c       ??_C@_0CC@OLHMBGOD@error?5setting?5encrypted?5data?5typ@ 1009419c     libeay32_EM.0.9.8e:pk12err.obj
 0002:0000b1c0       ??_C@_0O@HCGKPNBB@encrypt?5error?$AA@ 100941c0     libeay32_EM.0.9.8e:pk12err.obj
 0002:0000b1d0       ??_C@_0N@NJEIFFDB@encode?5error?$AA@ 100941d0     libeay32_EM.0.9.8e:pk12err.obj
 0002:0000b1e0       ??_C@_0N@HFEMCILK@decode?5error?$AA@ 100941e0     libeay32_EM.0.9.8e:pk12err.obj
 0002:0000b1f0       ??_C@_0BG@NAJKFFBP@content?5type?5not?5data?$AA@ 100941f0     libeay32_EM.0.9.8e:pk12err.obj
 0002:0000b208       ??_C@_0BE@DIFPEDMB@cant?5pack?5structure?$AA@ 10094208     libeay32_EM.0.9.8e:pk12err.obj
 0002:0000b21c       ??_C@_0O@GEAAJNGL@PKCS8_encrypt?$AA@ 1009421c     libeay32_EM.0.9.8e:pk12err.obj
 0002:0000b22c       ??_C@_0BD@PNOACOKG@PKCS8_add_keyusage?$AA@ 1009422c     libeay32_EM.0.9.8e:pk12err.obj
 0002:0000b240       ??_C@_0BC@ODGOFFJK@PKCS12_verify_mac?$AA@ 10094240     libeay32_EM.0.9.8e:pk12err.obj
 0002:0000b254       ??_C@_0BF@PGHHFMGC@PKCS12_unpack_p7data?$AA@ 10094254     libeay32_EM.0.9.8e:pk12err.obj
 0002:0000b26c       ??_C@_0BI@LFBOHEJ@PKCS12_unpack_authsafes?$AA@ 1009426c     libeay32_EM.0.9.8e:pk12err.obj
 0002:0000b284       ??_C@_0P@NELHLNIA@PKCS12_set_mac?$AA@ 10094284     libeay32_EM.0.9.8e:pk12err.obj
 0002:0000b294       ??_C@_0BB@KDNNBMPN@PKCS12_setup_mac?$AA@ 10094294     libeay32_EM.0.9.8e:pk12err.obj
 0002:0000b2a8       ??_C@_0BE@IOEGDAJO@PKCS12_PBE_keyivgen?$AA@ 100942a8     libeay32_EM.0.9.8e:pk12err.obj
 0002:0000b2bc       ??_C@_0BB@IMFIILMJ@PKCS12_pbe_crypt?$AA@ 100942bc     libeay32_EM.0.9.8e:pk12err.obj
 0002:0000b2d0       ??_C@_0N@KODNLEFI@PKCS12_parse?$AA@ 100942d0     libeay32_EM.0.9.8e:pk12err.obj
 0002:0000b2e0       ??_C@_0BG@GJBJGPGL@PKCS12_pack_p7encdata?$AA@ 100942e0     libeay32_EM.0.9.8e:pk12err.obj
 0002:0000b2f8       ??_C@_0BD@CKGFANON@PKCS12_pack_p7data?$AA@ 100942f8     libeay32_EM.0.9.8e:pk12err.obj
 0002:0000b30c       ??_C@_0P@OJLKIJPG@PKCS12_newpass?$AA@ 1009430c     libeay32_EM.0.9.8e:pk12err.obj
 0002:0000b31c       ??_C@_0BF@NOJGELOL@PKCS12_MAKE_SHKEYBAG?$AA@ 1009431c     libeay32_EM.0.9.8e:pk12err.obj
 0002:0000b334       ??_C@_0BD@NGAACKBP@PKCS12_MAKE_KEYBAG?$AA@ 10094334     libeay32_EM.0.9.8e:pk12err.obj
 0002:0000b348       ??_C@_0BD@DMMKPAAN@PKCS12_key_gen_uni?$AA@ 10094348     libeay32_EM.0.9.8e:pk12err.obj
 0002:0000b35c       ??_C@_0BD@NKAOIGM@PKCS12_key_gen_asc?$AA@ 1009435c     libeay32_EM.0.9.8e:pk12err.obj
 0002:0000b370       ??_C@_0BJ@KMABOEKC@PKCS12_item_pack_safebag?$AA@ 10094370     libeay32_EM.0.9.8e:pk12err.obj
 0002:0000b38c       ??_C@_0BI@HHFDKLOA@PKCS12_item_i2d_encrypt?$AA@ 1009438c     libeay32_EM.0.9.8e:pk12err.obj
 0002:0000b3a4       ??_C@_0BI@DMGNLMLF@PKCS12_item_decrypt_d2i?$AA@ 100943a4     libeay32_EM.0.9.8e:pk12err.obj
 0002:0000b3bc       ??_C@_0M@LLKHLIMM@PKCS12_init?$AA@ 100943bc     libeay32_EM.0.9.8e:pk12err.obj
 0002:0000b3c8       ??_C@_0P@IOALKDKM@PKCS12_gen_mac?$AA@ 100943c8     libeay32_EM.0.9.8e:pk12err.obj
 0002:0000b3d8       ??_C@_0O@JLNEJADH@PKCS12_create?$AA@ 100943d8     libeay32_EM.0.9.8e:pk12err.obj
 0002:0000b3e8       ??_C@_0BG@MCOKGJI@PKCS12_add_localkeyid?$AA@ 100943e8     libeay32_EM.0.9.8e:pk12err.obj
 0002:0000b400       ??_C@_0BM@DMPHEEM@PKCS12_add_friendlyname_uni?$AA@ 10094400     libeay32_EM.0.9.8e:pk12err.obj
 0002:0000b41c       ??_C@_0BM@DCKFGMCN@PKCS12_add_friendlyname_asc?$AA@ 1009441c     libeay32_EM.0.9.8e:pk12err.obj
 0002:0000b438       ??_C@_0BI@NGMPLJFF@PKCS12_ADD_FRIENDLYNAME?$AA@ 10094438     libeay32_EM.0.9.8e:pk12err.obj
 0002:0000b450       ??_C@_0L@BEIACDCD@PARSE_BAGS?$AA@ 10094450     libeay32_EM.0.9.8e:pk12err.obj
 0002:0000b45c       ??_C@_09HDBNGMFC@PARSE_BAG?$AA@ 1009445c     libeay32_EM.0.9.8e:pk12err.obj
 0002:0000b468       ??_C@_0O@JHPAMHAH@user?5too?5long?$AA@ 10094468     libeay32_EM.0.9.8e:v3err.obj
 0002:0000b478       ??_C@_0BD@HBMBLBA@unsupported?5option?$AA@ 10094478     libeay32_EM.0.9.8e:v3err.obj
 0002:0000b48c       ??_C@_0P@EMNDFJHN@unknown?5option?$AA@ 1009448c     libeay32_EM.0.9.8e:v3err.obj
 0002:0000b49c       ??_C@_0BH@BCAACBGI@unknown?5extension?5name?$AA@ 1009449c     libeay32_EM.0.9.8e:v3err.obj
 0002:0000b4b4       ??_C@_0BC@OOCHDELC@unknown?5extension?$AA@ 100944b4     libeay32_EM.0.9.8e:v3err.obj
 0002:0000b4c8       ??_C@_0BM@MKJMMAIK@unknown?5bit?5string?5argument?$AA@ 100944c8     libeay32_EM.0.9.8e:v3err.obj
 0002:0000b4e4       ??_C@_0BL@OBFDCJAP@unable?5to?5get?5issuer?5keyid?$AA@ 100944e4     libeay32_EM.0.9.8e:v3err.obj
 0002:0000b500       ??_C@_0BN@CHFBOPOP@unable?5to?5get?5issuer?5details?$AA@ 10094500     libeay32_EM.0.9.8e:v3err.obj
 0002:0000b520       ??_C@_0BC@JNLKMDNP@section?5not?5found?$AA@ 10094520     libeay32_EM.0.9.8e:v3err.obj
 0002:0000b534       ??_C@_0CO@JHHDKONF@policy?5when?5proxy?5language?5requi@ 10094534     libeay32_EM.0.9.8e:v3err.obj
 0002:0000b564       ??_C@_0CG@MJOKMEM@policy?5syntax?5not?5currently?5supp@ 10094564     libeay32_EM.0.9.8e:v3err.obj
 0002:0000b58c       ??_C@_0CE@NHPKMPCL@policy?5path?5length?5alreadty?5defi@ 1009458c     libeay32_EM.0.9.8e:v3err.obj
 0002:0000b5b0       ??_C@_0BD@NEDBFMDL@policy?5path?5length?$AA@ 100945b0     libeay32_EM.0.9.8e:v3err.obj
 0002:0000b5c4       ??_C@_0CB@NHMENKCN@policy?5language?5alreadty?5defined@ 100945c4     libeay32_EM.0.9.8e:v3err.obj
 0002:0000b5e8       ??_C@_0BA@MOGEPHBJ@othername?5error?$AA@ 100945e8     libeay32_EM.0.9.8e:v3err.obj
 0002:0000b5f8       ??_C@_0BG@NMPNHAKE@operation?5not?5defined?$AA@ 100945f8     libeay32_EM.0.9.8e:v3err.obj
 0002:0000b610       ??_C@_0BF@KKPHKHFI@odd?5number?5of?5digits?$AA@ 10094610     libeay32_EM.0.9.8e:v3err.obj
 0002:0000b628       ??_C@_0BD@MBNAEAHJ@no?5subject?5details?$AA@ 10094628     libeay32_EM.0.9.8e:v3err.obj
 0002:0000b63c       ??_C@_0CG@OJBEOHLI@no?5proxy?5cert?5policy?5language?5de@ 1009463c     libeay32_EM.0.9.8e:v3err.obj
 0002:0000b664       ??_C@_0BF@GMFLKLFH@no?5policy?5identifier?$AA@ 10094664     libeay32_EM.0.9.8e:v3err.obj
 0002:0000b67c       ??_C@_0BC@DGDOEGNM@no?5issuer?5details?$AA@ 1009467c     libeay32_EM.0.9.8e:v3err.obj
 0002:0000b690       ??_C@_0BG@BJHMFLGH@no?5issuer?5certificate?$AA@ 10094690     libeay32_EM.0.9.8e:v3err.obj
 0002:0000b6a8       ??_C@_0BD@GBCDPHMB@no?5config?5database?$AA@ 100946a8     libeay32_EM.0.9.8e:v3err.obj
 0002:0000b6bc       ??_C@_0BO@NPHFIDLK@need?5organization?5and?5numbers?$AA@ 100946bc     libeay32_EM.0.9.8e:v3err.obj
 0002:0000b6dc       ??_C@_0O@EGLIOGHL@missing?5value?$AA@ 100946dc     libeay32_EM.0.9.8e:v3err.obj
 0002:0000b6ec       ??_C@_0BE@OKJPOHGC@issuer?5decode?5error?$AA@ 100946ec     libeay32_EM.0.9.8e:v3err.obj
 0002:0000b700       ??_C@_0P@OAAEFEAJ@invalid?5syntax?$AA@ 10094700     libeay32_EM.0.9.8e:v3err.obj
 0002:0000b710       ??_C@_0BA@ECHPICKH@invalid?5section?$AA@ 10094710     libeay32_EM.0.9.8e:v3err.obj
 0002:0000b720       ??_C@_0N@FIBHOIMG@invalid?5safi?$AA@ 10094720     libeay32_EM.0.9.8e:v3err.obj
 0002:0000b730       ??_C@_0BA@EFIHLCHH@invalid?5purpose?$AA@ 10094730     libeay32_EM.0.9.8e:v3err.obj
 0002:0000b740       ??_C@_0BN@HOHNAMND@invalid?5proxy?5policy?5setting?$AA@ 10094740     libeay32_EM.0.9.8e:v3err.obj
 0002:0000b760       ??_C@_0BK@EAPNGJJJ@invalid?5policy?5identifier?$AA@ 10094760     libeay32_EM.0.9.8e:v3err.obj
 0002:0000b77c       ??_C@_0P@PJFAGLMH@invalid?5option?$AA@ 1009477c     libeay32_EM.0.9.8e:v3err.obj
 0002:0000b78c       ??_C@_0BK@NLNHJCIF@invalid?5object?5identifier?$AA@ 1009478c     libeay32_EM.0.9.8e:v3err.obj
 0002:0000b7a8       ??_C@_0BA@LGPBNKEG@invalid?5numbers?$AA@ 100947a8     libeay32_EM.0.9.8e:v3err.obj
 0002:0000b7b8       ??_C@_0P@FOPLFLLJ@invalid?5number?$AA@ 100947b8     libeay32_EM.0.9.8e:v3err.obj
 0002:0000b7c8       ??_C@_0BD@GLEJLJGC@invalid?5null?5value?$AA@ 100947c8     libeay32_EM.0.9.8e:v3err.obj
 0002:0000b7dc       ??_C@_0BC@EKAKHKC@invalid?5null?5name?$AA@ 100947dc     libeay32_EM.0.9.8e:v3err.obj
 0002:0000b7f0       ??_C@_0N@GAIHBLBI@invalid?5name?$AA@ 100947f0     libeay32_EM.0.9.8e:v3err.obj
 0002:0000b800       ??_C@_0BC@LAJKDMCB@invalid?5ipaddress?$AA@ 10094800     libeay32_EM.0.9.8e:v3err.obj
 0002:0000b814       ??_C@_0BE@EJNBIJCH@invalid?5inheritance?$AA@ 10094814     libeay32_EM.0.9.8e:v3err.obj
 0002:0000b828       ??_C@_0BJ@ECCGDIOM@invalid?5extension?5string?$AA@ 10094828     libeay32_EM.0.9.8e:v3err.obj
 0002:0000b844       ??_C@_0BH@CJLEFGHB@invalid?5boolean?5string?$AA@ 10094844     libeay32_EM.0.9.8e:v3err.obj
 0002:0000b85c       ??_C@_0BA@GIFFGEAD@invalid?5asrange?$AA@ 1009485c     libeay32_EM.0.9.8e:v3err.obj
 0002:0000b86c       ??_C@_0BB@MMCPCDHP@invalid?5asnumber?$AA@ 1009486c     libeay32_EM.0.9.8e:v3err.obj
 0002:0000b880       ??_C@_0BM@GFPPDKKF@incorrect?5policy?5syntax?5tag?$AA@ 10094880     libeay32_EM.0.9.8e:v3err.obj
 0002:0000b89c       ??_C@_0BC@NGJFBKFK@illegal?5hex?5digit?$AA@ 1009489c     libeay32_EM.0.9.8e:v3err.obj
 0002:0000b8b0       ??_C@_0BI@JDFDJJBE@illegal?5empty?5extension?$AA@ 100948b0     libeay32_EM.0.9.8e:v3err.obj
 0002:0000b8c8       ??_C@_0BG@HAAPENCJ@extension?5value?5error?$AA@ 100948c8     libeay32_EM.0.9.8e:v3err.obj
 0002:0000b8e0       ??_C@_0CA@OIICHEJO@extension?5setting?5not?5supported?$AA@ 100948e0     libeay32_EM.0.9.8e:v3err.obj
 0002:0000b900       ??_C@_0BE@PDPAEMIJ@extension?5not?5found?$AA@ 10094900     libeay32_EM.0.9.8e:v3err.obj
 0002:0000b914       ??_C@_0BF@NELDGAFP@extension?5name?5error?$AA@ 10094914     libeay32_EM.0.9.8e:v3err.obj
 0002:0000b92c       ??_C@_0BB@NMKOJBMO@extension?5exists?$AA@ 1009492c     libeay32_EM.0.9.8e:v3err.obj
 0002:0000b940       ??_C@_0BI@FPOKMAM@expected?5a?5section?5name?$AA@ 10094940     libeay32_EM.0.9.8e:v3err.obj
 0002:0000b958       ??_C@_0BD@OJDPENBP@error?5in?5extension?$AA@ 10094958     libeay32_EM.0.9.8e:v3err.obj
 0002:0000b96c       ??_C@_0BJ@PFLAAICM@error?5creating?5extension?$AA@ 1009496c     libeay32_EM.0.9.8e:v3err.obj
 0002:0000b988       ??_C@_0BG@BJAKBIPP@error?5converting?5zone?$AA@ 10094988     libeay32_EM.0.9.8e:v3err.obj
 0002:0000b9a0       ??_C@_0BC@CAFGAOAM@duplicate?5zone?5id?$AA@ 100949a0     libeay32_EM.0.9.8e:v3err.obj
 0002:0000b9b4       ??_C@_0O@HIKALICP@dirname?5error?$AA@ 100949b4     libeay32_EM.0.9.8e:v3err.obj
 0002:0000b9c4       ??_C@_0BJ@FNPACNBP@bn?5to?5asn1?5integer?5error?$AA@ 100949c4     libeay32_EM.0.9.8e:v3err.obj
 0002:0000b9e0       ??_C@_0BA@CINBMAOD@bn?5dec2bn?5error?$AA@ 100949e0     libeay32_EM.0.9.8e:v3err.obj
 0002:0000b9f0       ??_C@_0L@LMGGIPFB@bad?5object?$AA@ 100949f0     libeay32_EM.0.9.8e:v3err.obj
 0002:0000b9fc       ??_C@_0P@HHIOGPLO@bad?5ip?5address?$AA@ 100949fc     libeay32_EM.0.9.8e:v3err.obj
 0002:0000ba0c       ??_C@_0BB@HHDJLLEN@X509_PURPOSE_set?$AA@ 10094a0c     libeay32_EM.0.9.8e:v3err.obj
 0002:0000ba20       ??_C@_0BB@MGCJFMDP@X509_PURPOSE_add?$AA@ 10094a20     libeay32_EM.0.9.8e:v3err.obj
 0002:0000ba34       ??_C@_0BC@KJEMBDOE@X509V3_parse_list?$AA@ 10094a34     libeay32_EM.0.9.8e:v3err.obj
 0002:0000ba48       ??_C@_0BG@MGIBIFAD@X509V3_get_value_bool?$AA@ 10094a48     libeay32_EM.0.9.8e:v3err.obj
 0002:0000ba60       ??_C@_0BC@DJANGIBG@X509V3_get_string?$AA@ 10094a60     libeay32_EM.0.9.8e:v3err.obj
 0002:0000ba74       ??_C@_0BD@NAEICGG@X509V3_get_section?$AA@ 10094a74     libeay32_EM.0.9.8e:v3err.obj
 0002:0000ba88       ??_C@_0BB@LCMAPPDO@X509V3_EXT_nconf?$AA@ 10094a88     libeay32_EM.0.9.8e:v3err.obj
 0002:0000ba9c       ??_C@_0P@EKNPOBED@X509V3_EXT_i2d?$AA@ 10094a9c     libeay32_EM.0.9.8e:v3err.obj
 0002:0000baac       ??_C@_0BA@KCHIEJOC@X509V3_EXT_conf?$AA@ 10094aac     libeay32_EM.0.9.8e:v3err.obj
 0002:0000babc       ??_C@_0BF@MMADKDDK@X509V3_EXT_add_alias?$AA@ 10094abc     libeay32_EM.0.9.8e:v3err.obj
 0002:0000bad4       ??_C@_0P@OHFKJLKO@X509V3_EXT_add?$AA@ 10094ad4     libeay32_EM.0.9.8e:v3err.obj
 0002:0000bae4       ??_C@_0BB@FBAFPAF@X509V3_add_value?$AA@ 10094ae4     libeay32_EM.0.9.8e:v3err.obj
 0002:0000baf8       ??_C@_0BA@CDLAKIAK@X509V3_add1_i2d?$AA@ 10094af8     libeay32_EM.0.9.8e:v3err.obj
 0002:0000bb08       ??_C@_0BF@CFAPJAED@V3_GENERIC_EXTENSION?$AA@ 10094b08     libeay32_EM.0.9.8e:v3err.obj
 0002:0000bb20       ??_C@_0BP@FCHOOCEO@V3_ADDR_VALIDATE_PATH_INTERNAL?$AA@ 10094b20     libeay32_EM.0.9.8e:v3err.obj
 0002:0000bb40       ??_C@_0BA@DHKCKDL@V2I_SUBJECT_ALT?$AA@ 10094b40     libeay32_EM.0.9.8e:v3err.obj
 0002:0000bb50       ??_C@_0BE@KOLIPFC@V2I_POLICY_MAPPINGS?$AA@ 10094b50     libeay32_EM.0.9.8e:v3err.obj
 0002:0000bb64       ??_C@_0BH@GFHHCJKN@V2I_POLICY_CONSTRAINTS?$AA@ 10094b64     libeay32_EM.0.9.8e:v3err.obj
 0002:0000bb7c       ??_C@_0BF@MLIEBPGH@V2I_NAME_CONSTRAINTS?$AA@ 10094b7c     libeay32_EM.0.9.8e:v3err.obj
 0002:0000bb94       ??_C@_0P@HKPGPAFL@V2I_ISSUER_ALT?$AA@ 10094b94     libeay32_EM.0.9.8e:v3err.obj
 0002:0000bba4       ??_C@_0BB@GHEBMKIK@V2I_IPADDRBLOCKS?$AA@ 10094ba4     libeay32_EM.0.9.8e:v3err.obj
 0002:0000bbb8       ??_C@_0BE@EAFOFDEM@v2i_GENERAL_NAME_ex?$AA@ 10094bb8     libeay32_EM.0.9.8e:v3err.obj
 0002:0000bbcc       ??_C@_0BC@HHFBPNHH@v2i_GENERAL_NAMES?$AA@ 10094bcc     libeay32_EM.0.9.8e:v3err.obj
 0002:0000bbe0       ??_C@_0BH@IDIMOMGB@V2I_EXTENDED_KEY_USAGE?$AA@ 10094be0     libeay32_EM.0.9.8e:v3err.obj
 0002:0000bbf8       ??_C@_08GANPBGDA@V2I_CRLD?$AA@ 10094bf8     libeay32_EM.0.9.8e:v3err.obj
 0002:0000bc04       ??_C@_0BG@DJKMFBMP@V2I_BASIC_CONSTRAINTS?$AA@ 10094c04     libeay32_EM.0.9.8e:v3err.obj
 0002:0000bc1c       ??_C@_0BE@NCGIHFAP@V2I_AUTHORITY_KEYID?$AA@ 10094c1c     libeay32_EM.0.9.8e:v3err.obj
 0002:0000bc30       ??_C@_0BK@NMMKGGHG@V2I_AUTHORITY_INFO_ACCESS?$AA@ 10094c30     libeay32_EM.0.9.8e:v3err.obj
 0002:0000bc4c       ??_C@_0BE@MDNGHKJM@v2i_ASN1_BIT_STRING?$AA@ 10094c4c     libeay32_EM.0.9.8e:v3err.obj
 0002:0000bc60       ??_C@_0BC@NFHLLIFI@V2I_ASIDENTIFIERS?$AA@ 10094c60     libeay32_EM.0.9.8e:v3err.obj
 0002:0000bc74       ??_C@_0BD@NOFPGMLA@SXNET_get_id_ulong?$AA@ 10094c74     libeay32_EM.0.9.8e:v3err.obj
 0002:0000bc88       ??_C@_0BB@DCAEMBDN@SXNET_get_id_asc?$AA@ 10094c88     libeay32_EM.0.9.8e:v3err.obj
 0002:0000bc9c       ??_C@_0BD@ELOJDLMJ@SXNET_add_id_ulong?$AA@ 10094c9c     libeay32_EM.0.9.8e:v3err.obj
 0002:0000bcb0       ??_C@_0BF@KHDBJGPF@SXNET_add_id_INTEGER?$AA@ 10094cb0     libeay32_EM.0.9.8e:v3err.obj
 0002:0000bcc8       ??_C@_0BB@JJLDCCDB@SXNET_add_id_asc?$AA@ 10094cc8     libeay32_EM.0.9.8e:v3err.obj
 0002:0000bcdc       ??_C@_0O@FGGLLMNC@string_to_hex?$AA@ 10094cdc     libeay32_EM.0.9.8e:v3err.obj
 0002:0000bcec       ??_C@_0M@PPIOCBAF@S2I_SKEY_ID?$AA@ 10094cec     libeay32_EM.0.9.8e:v3err.obj
 0002:0000bcf8       ??_C@_0BB@JOCKIPFF@S2I_ASN1_SKEY_ID?$AA@ 10094cf8     libeay32_EM.0.9.8e:v3err.obj
 0002:0000bd0c       ??_C@_0BG@BLPNOPMK@s2i_ASN1_OCTET_STRING?$AA@ 10094d0c     libeay32_EM.0.9.8e:v3err.obj
 0002:0000bd24       ??_C@_0BB@GKLKBJAL@s2i_ASN1_INTEGER?$AA@ 10094d24     libeay32_EM.0.9.8e:v3err.obj
 0002:0000bd38       ??_C@_0BD@FNOIALGO@S2I_ASN1_IA5STRING?$AA@ 10094d38     libeay32_EM.0.9.8e:v3err.obj
 0002:0000bd4c       ??_C@_07LIFMKLJP@R2I_PCI?$AA@ 10094d4c     libeay32_EM.0.9.8e:v3err.obj
 0002:0000bd54       ??_C@_0M@DKNLDHGC@R2I_CERTPOL?$AA@ 10094d54     libeay32_EM.0.9.8e:v3err.obj
 0002:0000bd60       ??_C@_0BC@MLBEAOC@PROCESS_PCI_VALUE?$AA@ 10094d60     libeay32_EM.0.9.8e:v3err.obj
 0002:0000bd74       ??_C@_0P@OGMAKCCE@POLICY_SECTION?$AA@ 10094d74     libeay32_EM.0.9.8e:v3err.obj
 0002:0000bd84       ??_C@_08PMEPMHKO@NREF_NOS?$AA@ 10094d84     libeay32_EM.0.9.8e:v3err.obj
 0002:0000bd90       ??_C@_0P@JMEHDBMP@NOTICE_SECTION?$AA@ 10094d90     libeay32_EM.0.9.8e:v3err.obj
 0002:0000bda0       ??_C@_0BK@GHAMBPGA@I2V_AUTHORITY_INFO_ACCESS?$AA@ 10094da0     libeay32_EM.0.9.8e:v3err.obj
 0002:0000bdbc       ??_C@_0BB@GMKKLNHG@i2s_ASN1_INTEGER?$AA@ 10094dbc     libeay32_EM.0.9.8e:v3err.obj
 0002:0000bdd0       ??_C@_0BD@BGMCGNDE@I2S_ASN1_IA5STRING?$AA@ 10094dd0     libeay32_EM.0.9.8e:v3err.obj
 0002:0000bde4       ??_C@_0BE@PBLHIADL@i2s_ASN1_ENUMERATED?$AA@ 10094de4     libeay32_EM.0.9.8e:v3err.obj
 0002:0000bdf8       ??_C@_0O@FLJILPHC@hex_to_string?$AA@ 10094df8     libeay32_EM.0.9.8e:v3err.obj
 0002:0000be08       ??_C@_0BI@PNFOPHFO@DO_I2V_NAME_CONSTRAINTS?$AA@ 10094e08     libeay32_EM.0.9.8e:v3err.obj
 0002:0000be20       ??_C@_0N@KELHEBGM@DO_EXT_NCONF?$AA@ 10094e20     libeay32_EM.0.9.8e:v3err.obj
 0002:0000be30       ??_C@_0L@DJEOCDBO@DO_EXT_I2D?$AA@ 10094e30     libeay32_EM.0.9.8e:v3err.obj
 0002:0000be3c       ??_C@_0M@ICGHHOPF@DO_EXT_CONF?$AA@ 10094e3c     libeay32_EM.0.9.8e:v3err.obj
 0002:0000be48       ??_C@_0L@DMJGNPBG@DO_DIRNAME?$AA@ 10094e48     libeay32_EM.0.9.8e:v3err.obj
 0002:0000be54       ??_C@_0M@ELLBFBDD@COPY_ISSUER?$AA@ 10094e54     libeay32_EM.0.9.8e:v3err.obj
 0002:0000be60       ??_C@_0L@KGBMNDCM@COPY_EMAIL?$AA@ 10094e60     libeay32_EM.0.9.8e:v3err.obj
 0002:0000be6c       ??_C@_0CA@PCJPNFHG@ASIDENTIFIERCHOICE_IS_CANONICAL?$AA@ 10094e6c     libeay32_EM.0.9.8e:v3err.obj
 0002:0000be8c       ??_C@_0BM@FNMHINEI@ASIDENTIFIERCHOICE_CANONIZE?$AA@ 10094e8c     libeay32_EM.0.9.8e:v3err.obj
 0002:0000bea8       ??_C@_0BB@LMNDDHAO@wrong?5pkcs7?5type?$AA@ 10094ea8     libeay32_EM.0.9.8e:pkcs7err.obj
 0002:0000bebc       ??_C@_0BD@ONLLMKAC@wrong?5content?5type?$AA@ 10094ebc     libeay32_EM.0.9.8e:pkcs7err.obj
 0002:0000bed0       ??_C@_0BJ@KNOCCCPA@unsupported?5content?5type?$AA@ 10094ed0     libeay32_EM.0.9.8e:pkcs7err.obj
 0002:0000beec       ??_C@_0BI@BDKIDJNG@unsupported?5cipher?5type?$AA@ 10094eec     libeay32_EM.0.9.8e:pkcs7err.obj
 0002:0000bf04       ??_C@_0BC@BDMDPLFD@unknown?5operation?$AA@ 10094f04     libeay32_EM.0.9.8e:pkcs7err.obj
 0002:0000bf18       ??_C@_0BE@FDMIMEPA@unknown?5digest?5type?$AA@ 10094f18     libeay32_EM.0.9.8e:pkcs7err.obj
 0002:0000bf2c       ??_C@_0BO@BPGCPEON@unable?5to?5find?5message?5digest?$AA@ 10094f2c     libeay32_EM.0.9.8e:pkcs7err.obj
 0002:0000bf4c       ??_C@_0BH@GGBACGPO@unable?5to?5find?5mem?5bio?$AA@ 10094f4c     libeay32_EM.0.9.8e:pkcs7err.obj
 0002:0000bf64       ??_C@_0BL@MPEBNJMM@unable?5to?5find?5certificate?$AA@ 10094f64     libeay32_EM.0.9.8e:pkcs7err.obj
 0002:0000bf80       ??_C@_0BB@KEMFLAGG@smime?5text?5error?$AA@ 10094f80     libeay32_EM.0.9.8e:pkcs7err.obj
 0002:0000bf94       ??_C@_0BG@HLPLMCAK@sig?5invalid?5mime?5type?$AA@ 10094f94     libeay32_EM.0.9.8e:pkcs7err.obj
 0002:0000bfac       ??_C@_0BG@GDEPAMKB@pkcs7?5sig?5parse?5error?$AA@ 10094fac     libeay32_EM.0.9.8e:pkcs7err.obj
 0002:0000bfc4       ??_C@_0BC@HAIFOMAN@pkcs7?5parse?5error?$AA@ 10094fc4     libeay32_EM.0.9.8e:pkcs7err.obj
 0002:0000bfd8       ??_C@_0P@MLIPMLPL@pkcs7?5datasign?$AA@ 10094fd8     libeay32_EM.0.9.8e:pkcs7err.obj
 0002:0000bfe8       ??_C@_0BG@DENNOOLH@pkcs7?5datafinal?5error?$AA@ 10094fe8     libeay32_EM.0.9.8e:pkcs7err.obj
 0002:0000c000       ??_C@_0BA@MGKDBLGL@pkcs7?5datafinal?$AA@ 10095000     libeay32_EM.0.9.8e:pkcs7err.obj
 0002:0000c010       ??_C@_0BK@HFMOMPGJ@pkcs7?5add?5signature?5error?$AA@ 10095010     libeay32_EM.0.9.8e:pkcs7err.obj
 0002:0000c02c       ??_C@_0CF@KFDJAIAE@operation?5not?5supported?5on?5this?5@ 1009502c     libeay32_EM.0.9.8e:pkcs7err.obj
 0002:0000c054       ??_C@_0BE@PKDDELLH@no?5sig?5content?5type?$AA@ 10095054     libeay32_EM.0.9.8e:pkcs7err.obj
 0002:0000c068       ??_C@_0L@GEFKNGMC@no?5signers?$AA@ 10095068     libeay32_EM.0.9.8e:pkcs7err.obj
 0002:0000c074       ??_C@_0BG@KJOJDMCP@no?5signatures?5on?5data?$AA@ 10095074     libeay32_EM.0.9.8e:pkcs7err.obj
 0002:0000c08c       ??_C@_0BJ@HNAOANNO@no?5recipient?5matches?5key?$AA@ 1009508c     libeay32_EM.0.9.8e:pkcs7err.obj
 0002:0000c0a8       ??_C@_0CB@EOIABHI@no?5recipient?5matches?5certificate@ 100950a8     libeay32_EM.0.9.8e:pkcs7err.obj
 0002:0000c0cc       ??_C@_0BG@CCLGBNL@no?5multipart?5boundary?$AA@ 100950cc     libeay32_EM.0.9.8e:pkcs7err.obj
 0002:0000c0e4       ??_C@_0BK@BJLDLELE@no?5multipart?5body?5failure?$AA@ 100950e4     libeay32_EM.0.9.8e:pkcs7err.obj
 0002:0000c100       ??_C@_0BA@FPKKDFNC@no?5content?5type?$AA@ 10095100     libeay32_EM.0.9.8e:pkcs7err.obj
 0002:0000c110       ??_C@_0BG@FIKOHGJL@missing?5ceripend?5info?$AA@ 10095110     libeay32_EM.0.9.8e:pkcs7err.obj
 0002:0000c128       ??_C@_0BF@NGKJEMBA@mime?5sig?5parse?5error?$AA@ 10095128     libeay32_EM.0.9.8e:pkcs7err.obj
 0002:0000c140       ??_C@_0BB@CLOKMDJL@mime?5parse?5error?$AA@ 10095140     libeay32_EM.0.9.8e:pkcs7err.obj
 0002:0000c154       ??_C@_0BF@JPGANBNB@mime?5no?5content?5type?$AA@ 10095154     libeay32_EM.0.9.8e:pkcs7err.obj
 0002:0000c16c       ??_C@_0BF@IPGLAOPL@invalid?5null?5pointer?$AA@ 1009516c     libeay32_EM.0.9.8e:pkcs7err.obj
 0002:0000c184       ??_C@_0BC@FHFCCIPJ@invalid?5mime?5type?$AA@ 10095184     libeay32_EM.0.9.8e:pkcs7err.obj
 0002:0000c198       ??_C@_0BF@EJOJNMMB@error?5setting?5cipher?$AA@ 10095198     libeay32_EM.0.9.8e:pkcs7err.obj
 0002:0000c1b0       ??_C@_0BH@PJNOPIMM@error?5adding?5recipient?$AA@ 100951b0     libeay32_EM.0.9.8e:pkcs7err.obj
 0002:0000c1c8       ??_C@_0P@EAGFKBJN@digest?5failure?$AA@ 100951c8     libeay32_EM.0.9.8e:pkcs7err.obj
 0002:0000c1d8       ??_C@_0O@IKMKDME@decrypt?5error?$AA@ 100951d8     libeay32_EM.0.9.8e:pkcs7err.obj
 0002:0000c1e8       ??_C@_0BO@LNIEDLGB@decrypted?5key?5is?5wrong?5length?$AA@ 100951e8     libeay32_EM.0.9.8e:pkcs7err.obj
 0002:0000c208       ??_C@_0BJ@JDGHLKE@content?5and?5data?5present?$AA@ 10095208     libeay32_EM.0.9.8e:pkcs7err.obj
 0002:0000c224       ??_C@_0BH@HHGJPEG@cipher?5not?5initialized?$AA@ 10095224     libeay32_EM.0.9.8e:pkcs7err.obj
 0002:0000c23c       ??_C@_0CA@BHNCFDBP@cipher?5has?5no?5object?5identifier?$AA@ 1009523c     libeay32_EM.0.9.8e:pkcs7err.obj
 0002:0000c25c       ??_C@_0L@CEDJDPJO@SMIME_text?$AA@ 1009525c     libeay32_EM.0.9.8e:pkcs7err.obj
 0002:0000c268       ??_C@_0BB@KDHLDBMO@SMIME_read_PKCS7?$AA@ 10095268     libeay32_EM.0.9.8e:pkcs7err.obj
 0002:0000c27c       ??_C@_0N@MDDFJGNF@PKCS7_verify?$AA@ 1009527c     libeay32_EM.0.9.8e:pkcs7err.obj
 0002:0000c28c       ??_C@_0BG@NGGLELOE@PKCS7_simple_smimecap?$AA@ 1009528c     libeay32_EM.0.9.8e:pkcs7err.obj
 0002:0000c2a4       ??_C@_0BG@PMADOMPD@PKCS7_signatureVerify?$AA@ 100952a4     libeay32_EM.0.9.8e:pkcs7err.obj
 0002:0000c2bc       ??_C@_0L@GIIMDMGD@PKCS7_sign?$AA@ 100952bc     libeay32_EM.0.9.8e:pkcs7err.obj
 0002:0000c2c8       ??_C@_0P@EIBMGDIL@PKCS7_set_type?$AA@ 100952c8     libeay32_EM.0.9.8e:pkcs7err.obj
 0002:0000c2d8       ??_C@_0BB@KHOAIGEC@PKCS7_set_digest?$AA@ 100952d8     libeay32_EM.0.9.8e:pkcs7err.obj
 0002:0000c2ec       ??_C@_0BC@KEHPIBPE@PKCS7_set_content?$AA@ 100952ec     libeay32_EM.0.9.8e:pkcs7err.obj
 0002:0000c300       ??_C@_0BB@MBMFDMH@PKCS7_set_cipher?$AA@ 10095300     libeay32_EM.0.9.8e:pkcs7err.obj
 0002:0000c314       ??_C@_0BD@ONJMGDLL@PKCS7_get0_signers?$AA@ 10095314     libeay32_EM.0.9.8e:pkcs7err.obj
 0002:0000c328       ??_C@_0BC@PMCDCHO@PKCS7_FIND_DIGEST?$AA@ 10095328     libeay32_EM.0.9.8e:pkcs7err.obj
 0002:0000c33c       ??_C@_0O@JFALMGOG@PKCS7_encrypt?$AA@ 1009533c     libeay32_EM.0.9.8e:pkcs7err.obj
 0002:0000c34c       ??_C@_0O@FLKGJCIC@PKCS7_decrypt?$AA@ 1009534c     libeay32_EM.0.9.8e:pkcs7err.obj
 0002:0000c35c       ??_C@_0BB@LMCKHKKD@PKCS7_dataVerify?$AA@ 1009535c     libeay32_EM.0.9.8e:pkcs7err.obj
 0002:0000c370       ??_C@_0P@FNIPPNIC@PKCS7_DATASIGN?$AA@ 10095370     libeay32_EM.0.9.8e:pkcs7err.obj
 0002:0000c380       ??_C@_0P@OONGIMOK@PKCS7_dataInit?$AA@ 10095380     libeay32_EM.0.9.8e:pkcs7err.obj
 0002:0000c390       ??_C@_0BA@ENDFMOKG@PKCS7_dataFinal?$AA@ 10095390     libeay32_EM.0.9.8e:pkcs7err.obj
 0002:0000c3a0       ??_C@_0BB@NBHDJPJJ@PKCS7_dataDecode?$AA@ 100953a0     libeay32_EM.0.9.8e:pkcs7err.obj
 0002:0000c3b4       ??_C@_0L@ICMECHLK@PKCS7_ctrl?$AA@ 100953b4     libeay32_EM.0.9.8e:pkcs7err.obj
 0002:0000c3c0       ??_C@_0BF@HBBJACAF@PKCS7_BIO_ADD_DIGEST?$AA@ 100953c0     libeay32_EM.0.9.8e:pkcs7err.obj
 0002:0000c3d8       ??_C@_0BB@CJPBIPAC@PKCS7_add_signer?$AA@ 100953d8     libeay32_EM.0.9.8e:pkcs7err.obj
 0002:0000c3ec       ??_C@_0BJ@NOCKKMGL@PKCS7_add_recipient_info?$AA@ 100953ec     libeay32_EM.0.9.8e:pkcs7err.obj
 0002:0000c408       ??_C@_0O@CPFOLHJD@PKCS7_add_crl?$AA@ 10095408     libeay32_EM.0.9.8e:pkcs7err.obj
 0002:0000c418       ??_C@_0BG@DMGOLPOM@PKCS7_add_certificate?$AA@ 10095418     libeay32_EM.0.9.8e:pkcs7err.obj
 0002:0000c430       ??_C@_0BK@HOMOFJDN@PKCS7_add_attrib_smimecap?$AA@ 10095430     libeay32_EM.0.9.8e:pkcs7err.obj
 0002:0000c44c       ??_C@_0BA@NHGCDPL@B64_WRITE_PKCS7?$AA@ 1009544c     libeay32_EM.0.9.8e:pkcs7err.obj
 0002:0000c45c       ??_C@_0P@CNHJDHJP@B64_READ_PKCS7?$AA@ 1009545c     libeay32_EM.0.9.8e:pkcs7err.obj
 0002:0000c46c       ??_C@_0L@EEFLCHHA@WSAStartup?$AA@ 1009546c     libeay32_EM.0.9.8e:bio_err.obj
 0002:0000c478       ??_C@_0BH@JKPNCGEG@write?5to?5read?5only?5BIO?$AA@ 10095478     libeay32_EM.0.9.8e:bio_err.obj
 0002:0000c490       ??_C@_0BD@IBMLBGPO@unsupported?5method?$AA@ 10095490     libeay32_EM.0.9.8e:bio_err.obj
 0002:0000c4a4       ??_C@_0O@MBAHBKHG@uninitialized?$AA@ 100954a4     libeay32_EM.0.9.8e:bio_err.obj
 0002:0000c4b4       ??_C@_0BI@IMDEIGOC@unable?5to?5listen?5socket?$AA@ 100954b4     libeay32_EM.0.9.8e:bio_err.obj
 0002:0000c4cc       ??_C@_0BI@PPNDHPPD@unable?5to?5create?5socket?$AA@ 100954cc     libeay32_EM.0.9.8e:bio_err.obj
 0002:0000c4e4       ??_C@_0BG@FHGKKMFN@unable?5to?5bind?5socket?$AA@ 100954e4     libeay32_EM.0.9.8e:bio_err.obj
 0002:0000c4fc       ??_C@_0N@KDFLPJNC@tag?5mismatch?$AA@ 100954fc     libeay32_EM.0.9.8e:bio_err.obj
 0002:0000c50c       ??_C@_0P@PKDFLBFD@null?5parameter?$AA@ 1009550c     libeay32_EM.0.9.8e:bio_err.obj
 0002:0000c51c       ??_C@_0N@JHAEJMBC@no?5such?5file?$AA@ 1009551c     libeay32_EM.0.9.8e:bio_err.obj
 0002:0000c52c       ??_C@_0BC@JMJFCOFK@no?5port?5specified?$AA@ 1009552c     libeay32_EM.0.9.8e:bio_err.obj
 0002:0000c540       ??_C@_0BA@LJKOOBIO@no?5port?5defined?$AA@ 10095540     libeay32_EM.0.9.8e:bio_err.obj
 0002:0000c550       ??_C@_0BG@JKBKGOCO@no?5hostname?5specified?$AA@ 10095550     libeay32_EM.0.9.8e:bio_err.obj
 0002:0000c568       ??_C@_0BJ@GKFIJAJL@no?5accept?5port?5specified?$AA@ 10095568     libeay32_EM.0.9.8e:bio_err.obj
 0002:0000c584       ??_C@_0BD@POMCLPDD@nbio?5connect?5error?$AA@ 10095584     libeay32_EM.0.9.8e:bio_err.obj
 0002:0000c598       ??_C@_09MGFHKHCL@keepalive?$AA@ 10095598     libeay32_EM.0.9.8e:bio_err.obj
 0002:0000c5a4       ??_C@_06JNFOHBNM@in?5use?$AA@ 100955a4     libeay32_EM.0.9.8e:bio_err.obj
 0002:0000c5ac       ??_C@_0BD@LLPPBLCA@invalid?5ip?5address?$AA@ 100955ac     libeay32_EM.0.9.8e:bio_err.obj
 0002:0000c5c0       ??_C@_0CC@PGBNHLMO@gethostbyname?5addr?5is?5not?5af?5ine@ 100955c0     libeay32_EM.0.9.8e:bio_err.obj
 0002:0000c5e4       ??_C@_0CE@GODMPCOM@error?5setting?5nbio?5on?5accept?5soc@ 100955e4     libeay32_EM.0.9.8e:bio_err.obj
 0002:0000c608       ??_C@_0CG@JPMNKLHJ@error?5setting?5nbio?5on?5accepted?5s@ 10095608     libeay32_EM.0.9.8e:bio_err.obj
 0002:0000c630       ??_C@_0BD@LABEPFLI@error?5setting?5nbio?$AA@ 10095630     libeay32_EM.0.9.8e:bio_err.obj
 0002:0000c644       ??_C@_0BC@DJNFOHIO@EOF?5on?5memory?5BIO?$AA@ 10095644     libeay32_EM.0.9.8e:bio_err.obj
 0002:0000c658       ??_C@_0O@MFKCCHBC@connect?5error?$AA@ 10095658     libeay32_EM.0.9.8e:bio_err.obj
 0002:0000c668       ??_C@_0M@KPHOFDBE@broken?5pipe?$AA@ 10095668     libeay32_EM.0.9.8e:bio_err.obj
 0002:0000c674       ??_C@_0BE@HPLPMGEP@bad?5hostname?5lookup?$AA@ 10095674     libeay32_EM.0.9.8e:bio_err.obj
 0002:0000c688       ??_C@_0P@HMIOPJLA@bad?5fopen?5mode?$AA@ 10095688     libeay32_EM.0.9.8e:bio_err.obj
 0002:0000c698       ??_C@_0N@NBEBIMEI@accept?5error?$AA@ 10095698     libeay32_EM.0.9.8e:bio_err.obj
 0002:0000c6a8       ??_C@_0L@EAHAPJKC@WSASTARTUP?$AA@ 100956a8     libeay32_EM.0.9.8e:bio_err.obj
 0002:0000c6b4       ??_C@_07GEALNDFO@SSL_new?$AA@ 100956b4     libeay32_EM.0.9.8e:bio_err.obj
 0002:0000c6bc       ??_C@_09NHMOJNMM@MEM_WRITE?$AA@ 100956bc     libeay32_EM.0.9.8e:bio_err.obj
 0002:0000c6c8       ??_C@_08IEAGDEEB@MEM_READ?$AA@ 100956c8     libeay32_EM.0.9.8e:bio_err.obj
 0002:0000c6d4       ??_C@_0BA@KHKLOGKO@LINEBUFFER_CTRL?$AA@ 100956d4     libeay32_EM.0.9.8e:bio_err.obj
 0002:0000c6e4       ??_C@_09GDGNDLDO@FILE_READ?$AA@ 100956e4     libeay32_EM.0.9.8e:bio_err.obj
 0002:0000c6f0       ??_C@_09PBCCNH@FILE_CTRL?$AA@ 100956f0     libeay32_EM.0.9.8e:bio_err.obj
 0002:0000c6fc       ??_C@_0L@MJCDONOC@CONN_STATE?$AA@ 100956fc     libeay32_EM.0.9.8e:bio_err.obj
 0002:0000c708       ??_C@_09NFOAMDJO@CONN_CTRL?$AA@ 10095708     libeay32_EM.0.9.8e:bio_err.obj
 0002:0000c714       ??_C@_0M@CPJAKCHN@BUFFER_CTRL?$AA@ 10095714     libeay32_EM.0.9.8e:bio_err.obj
 0002:0000c720       ??_C@_09EJECNFGG@BIO_write?$AA@ 10095720     libeay32_EM.0.9.8e:bio_err.obj
 0002:0000c72c       ??_C@_0O@OKBNIDJO@BIO_sock_init?$AA@ 1009572c     libeay32_EM.0.9.8e:bio_err.obj
 0002:0000c73c       ??_C@_08FHLFBNIO@BIO_read?$AA@ 1009573c     libeay32_EM.0.9.8e:bio_err.obj
 0002:0000c748       ??_C@_08GCACPMHM@BIO_puts?$AA@ 10095748     libeay32_EM.0.9.8e:bio_err.obj
 0002:0000c754       ??_C@_0M@HMEMAIDG@BIO_nwrite0?$AA@ 10095754     libeay32_EM.0.9.8e:bio_err.obj
 0002:0000c760       ??_C@_0L@LGDOLBGC@BIO_nwrite?$AA@ 10095760     libeay32_EM.0.9.8e:bio_err.obj
 0002:0000c76c       ??_C@_0L@CKGNEJMN@BIO_nread0?$AA@ 1009576c     libeay32_EM.0.9.8e:bio_err.obj
 0002:0000c778       ??_C@_09CELLGJFH@BIO_nread?$AA@ 10095778     libeay32_EM.0.9.8e:bio_err.obj
 0002:0000c784       ??_C@_0BA@KKBPEOM@BIO_new_mem_buf?$AA@ 10095784     libeay32_EM.0.9.8e:bio_err.obj
 0002:0000c794       ??_C@_0N@FMJJBHLM@BIO_new_file?$AA@ 10095794     libeay32_EM.0.9.8e:bio_err.obj
 0002:0000c7a4       ??_C@_07JBCAFDMF@BIO_new?$AA@ 100957a4     libeay32_EM.0.9.8e:bio_err.obj
 0002:0000c7ac       ??_C@_0O@MMPGPDFN@BIO_MAKE_PAIR?$AA@ 100957ac     libeay32_EM.0.9.8e:bio_err.obj
 0002:0000c7bc       ??_C@_0N@EOHICLOO@BIO_get_port?$AA@ 100957bc     libeay32_EM.0.9.8e:bio_err.obj
 0002:0000c7cc       ??_C@_0BA@BEIHJGBF@BIO_get_host_ip?$AA@ 100957cc     libeay32_EM.0.9.8e:bio_err.obj
 0002:0000c7dc       ??_C@_0BG@OBCHEGOE@BIO_get_accept_socket?$AA@ 100957dc     libeay32_EM.0.9.8e:bio_err.obj
 0002:0000c7f4       ??_C@_08OANLOAHB@BIO_gets?$AA@ 100957f4     libeay32_EM.0.9.8e:bio_err.obj
 0002:0000c800       ??_C@_0BC@FKJOFNNM@BIO_gethostbyname?$AA@ 10095800     libeay32_EM.0.9.8e:bio_err.obj
 0002:0000c814       ??_C@_08DECJAEGH@BIO_ctrl?$AA@ 10095814     libeay32_EM.0.9.8e:bio_err.obj
 0002:0000c820       ??_C@_0BC@CFHCBGEE@BIO_callback_ctrl?$AA@ 10095820     libeay32_EM.0.9.8e:bio_err.obj
 0002:0000c834       ??_C@_0BD@IAPMAGLL@BIO_BER_GET_HEADER?$AA@ 10095834     libeay32_EM.0.9.8e:bio_err.obj
 0002:0000c848       ??_C@_0L@JLLHALEA@BIO_accept?$AA@ 10095848     libeay32_EM.0.9.8e:bio_err.obj
 0002:0000c854       ??_C@_0L@CAKAAKN@ACPT_STATE?$AA@ 10095854     libeay32_EM.0.9.8e:bio_err.obj
 0002:0000c860       ??_C@_0BJ@GIHJPDAI@point?5arithmetic?5failure?$AA@ 10095860     libeay32_EM.0.9.8e:ech_err.obj
 0002:0000c87c       ??_C@_0BB@COKBGGEN@no?5private?5value?$AA@ 1009587c     libeay32_EM.0.9.8e:ech_err.obj
 0002:0000c890       ??_C@_0L@CDCPDAHG@KDF?5failed?$AA@ 10095890     libeay32_EM.0.9.8e:ech_err.obj
 0002:0000c89c       ??_C@_0BF@CBGMNLCA@ECDH_DATA_NEW_METHOD?$AA@ 1009589c     libeay32_EM.0.9.8e:ech_err.obj
 0002:0000c8b4       ??_C@_0BB@IOKCFGPF@ECDH_compute_key?$AA@ 100958b4     libeay32_EM.0.9.8e:ech_err.obj
 0002:0000c8c8       ??_C@_0BI@IHHJBEMD@signature?5malloc?5failed?$AA@ 100958c8     libeay32_EM.0.9.8e:ecs_err.obj
 0002:0000c8e0       ??_C@_0CA@PEINDBLK@random?5number?5generation?5failed?$AA@ 100958e0     libeay32_EM.0.9.8e:ecs_err.obj
 0002:0000c900       ??_C@_0BG@CMMPCEJC@need?5new?5setup?5values?$AA@ 10095900     libeay32_EM.0.9.8e:ecs_err.obj
 0002:0000c918       ??_C@_0BD@FMCFODNL@missing?5parameters?$AA@ 10095918     libeay32_EM.0.9.8e:ecs_err.obj
 0002:0000c92c       ??_C@_0L@JHHGCIEK@err?5ec?5lib?$AA@ 1009592c     libeay32_EM.0.9.8e:ecs_err.obj
 0002:0000c938       ??_C@_0BM@LDGAMALI@data?5too?5large?5for?5key?5size?$AA@ 10095938     libeay32_EM.0.9.8e:ecs_err.obj
 0002:0000c954       ??_C@_0O@NKHGIDL@bad?5signature?$AA@ 10095954     libeay32_EM.0.9.8e:ecs_err.obj
 0002:0000c964       ??_C@_0BB@IKKHAHBP@ECDSA_sign_setup?$AA@ 10095964     libeay32_EM.0.9.8e:ecs_err.obj
 0002:0000c978       ??_C@_0BA@EHPKHBIM@ECDSA_do_verify?$AA@ 10095978     libeay32_EM.0.9.8e:ecs_err.obj
 0002:0000c988       ??_C@_0O@HPIOKGCH@ECDSA_do_sign?$AA@ 10095988     libeay32_EM.0.9.8e:ecs_err.obj
 0002:0000c998       ??_C@_0BG@PPIAHALF@ECDSA_DATA_NEW_METHOD?$AA@ 10095998     libeay32_EM.0.9.8e:ecs_err.obj
 0002:0000c9b0       ??_C@_0M@EOIJFDOH@wrong?5order?$AA@ 100959b0     libeay32_EM.0.9.8e:ec_err.obj
 0002:0000c9bc       ??_C@_0BC@JMLAMKLK@unsupported?5field?$AA@ 100959bc     libeay32_EM.0.9.8e:ec_err.obj
 0002:0000c9d0       ??_C@_0O@MMOMPOPJ@unknown?5order?$AA@ 100959d0     libeay32_EM.0.9.8e:ec_err.obj
 0002:0000c9e0       ??_C@_0O@NJKODKGH@unknown?5group?$AA@ 100959e0     libeay32_EM.0.9.8e:ec_err.obj
 0002:0000c9f0       ??_C@_0BA@KMEKJECH@undefined?5order?$AA@ 100959f0     libeay32_EM.0.9.8e:ec_err.obj
 0002:0000ca00       ??_C@_0BE@EGDCECDM@undefined?5generator?$AA@ 10095a00     libeay32_EM.0.9.8e:ec_err.obj
 0002:0000ca14       ??_C@_09GPAKFMBH@slot?5full?$AA@ 10095a14     libeay32_EM.0.9.8e:ec_err.obj
 0002:0000ca20       ??_C@_0BG@HJHIMKPE@point?5is?5not?5on?5curve?$AA@ 10095a20     libeay32_EM.0.9.8e:ec_err.obj
 0002:0000ca38       ??_C@_0BC@GCGFLKCO@point?5at?5infinity?$AA@ 10095a38     libeay32_EM.0.9.8e:ec_err.obj
 0002:0000ca4c       ??_C@_0BL@ELPENPAK@pkparameters2group?5failure?$AA@ 10095a4c     libeay32_EM.0.9.8e:ec_err.obj
 0002:0000ca68       ??_C@_0BG@DNAKIAMA@passed?5null?5parameter?$AA@ 10095a68     libeay32_EM.0.9.8e:ec_err.obj
 0002:0000ca80       ??_C@_0N@PJBCLHJD@no?5field?5mod?$AA@ 10095a80     libeay32_EM.0.9.8e:ec_err.obj
 0002:0000ca90       ??_C@_0BA@JJKIAAEB@not?5implemented?$AA@ 10095a90     libeay32_EM.0.9.8e:ec_err.obj
 0002:0000caa0       ??_C@_0BL@JNPAJGEA@not?5a?5supported?5NIST?5prime?$AA@ 10095aa0     libeay32_EM.0.9.8e:ec_err.obj
 0002:0000cabc       ??_C@_0BB@BMGODCLF@not?5a?5NIST?5prime?$AA@ 10095abc     libeay32_EM.0.9.8e:ec_err.obj
 0002:0000cad0       ??_C@_0BE@DEHOFIII@missing?5private?5key?$AA@ 10095ad0     libeay32_EM.0.9.8e:ec_err.obj
 0002:0000cae4       ??_C@_0BI@JECPOIKH@invalid?5trinomial?5basis?$AA@ 10095ae4     libeay32_EM.0.9.8e:ec_err.obj
 0002:0000cafc       ??_C@_0BE@IKADKHBA@invalid?5private?5key?$AA@ 10095afc     libeay32_EM.0.9.8e:ec_err.obj
 0002:0000cb10       ??_C@_0BK@FNMGACKE@invalid?5pentanomial?5basis?$AA@ 10095b10     libeay32_EM.0.9.8e:ec_err.obj
 0002:0000cb2c       ??_C@_0BE@PJEEGFKA@invalid?5group?5order?$AA@ 10095b2c     libeay32_EM.0.9.8e:ec_err.obj
 0002:0000cb40       ??_C@_0N@GPILEJKP@invalid?5form?$AA@ 10095b40     libeay32_EM.0.9.8e:ec_err.obj
 0002:0000cb50       ??_C@_0O@ENLGLCC@invalid?5field?$AA@ 10095b50     libeay32_EM.0.9.8e:ec_err.obj
 0002:0000cb60       ??_C@_0BB@FEBGPKDB@invalid?5encoding?$AA@ 10095b60     libeay32_EM.0.9.8e:ec_err.obj
 0002:0000cb74       ??_C@_0BI@LFAIIMLE@invalid?5compression?5bit?$AA@ 10095b74     libeay32_EM.0.9.8e:ec_err.obj
 0002:0000cb8c       ??_C@_0BJ@MNCPMIGN@invalid?5compressed?5point?$AA@ 10095b8c     libeay32_EM.0.9.8e:ec_err.obj
 0002:0000cba8       ??_C@_0BF@PILBEPF@incompatible?5objects?$AA@ 10095ba8     libeay32_EM.0.9.8e:ec_err.obj
 0002:0000cbc0       ??_C@_0BL@PCNBEHHO@i2d?5ecpkparameters?5failure?$AA@ 10095bc0     libeay32_EM.0.9.8e:ec_err.obj
 0002:0000cbdc       ??_C@_0BL@OGODAEJ@group2pkparameters?5failure?$AA@ 10095bdc     libeay32_EM.0.9.8e:ec_err.obj
 0002:0000cbf8       ??_C@_0BA@IJGJADJE@field?5too?5large?$AA@ 10095bf8     libeay32_EM.0.9.8e:ec_err.obj
 0002:0000cc08       ??_C@_0BN@FLBCEDHC@ec?5group?5new?5by?5name?5failure?$AA@ 10095c08     libeay32_EM.0.9.8e:ec_err.obj
 0002:0000cc28       ??_C@_0BF@CBFOEPCG@discriminant?5is?5zero?$AA@ 10095c28     libeay32_EM.0.9.8e:ec_err.obj
 0002:0000cc40       ??_C@_0BL@ENKDKILC@d2i?5ecpkparameters?5failure?$AA@ 10095c40     libeay32_EM.0.9.8e:ec_err.obj
 0002:0000cc5c       ??_C@_0BB@CABJKBPN@buffer?5too?5small?$AA@ 10095c5c     libeay32_EM.0.9.8e:ec_err.obj
 0002:0000cc70       ??_C@_0BD@CGGBEGAN@asn1?5unknown?5field?$AA@ 10095c70     libeay32_EM.0.9.8e:ec_err.obj
 0002:0000cc84       ??_C@_0L@EOLINLAB@asn1?5error?$AA@ 10095c84     libeay32_EM.0.9.8e:ec_err.obj
 0002:0000cc90       ??_C@_0BA@PLLAKFLG@o2i_ECPublicKey?$AA@ 10095c90     libeay32_EM.0.9.8e:ec_err.obj
 0002:0000cca0       ??_C@_0BA@FAODIHOE@i2o_ECPublicKey?$AA@ 10095ca0     libeay32_EM.0.9.8e:ec_err.obj
 0002:0000ccb0       ??_C@_0BB@MNAGGNI@i2d_ECPrivateKey?$AA@ 10095cb0     libeay32_EM.0.9.8e:ec_err.obj
 0002:0000ccc4       ??_C@_0BD@EJJCMPPD@i2d_ECPKParameters?$AA@ 10095cc4     libeay32_EM.0.9.8e:ec_err.obj
 0002:0000ccd8       ??_C@_0BB@GJGDDIKH@i2d_ECParameters?$AA@ 10095cd8     libeay32_EM.0.9.8e:ec_err.obj
 0002:0000ccec       ??_C@_0BI@BBMLGAEE@ec_wNAF_precompute_mult?$AA@ 10095cec     libeay32_EM.0.9.8e:ec_err.obj
 0002:0000cd04       ??_C@_0M@MOCHBPNP@ec_wNAF_mul?$AA@ 10095d04     libeay32_EM.0.9.8e:ec_err.obj
 0002:0000cd10       ??_C@_0BA@JLLJLPBB@EC_PRE_COMP_DUP?$AA@ 10095d10     libeay32_EM.0.9.8e:ec_err.obj
 0002:0000cd20       ??_C@_0BJ@OKHKHJLG@EC_POINT_set_to_infinity?$AA@ 10095d20     libeay32_EM.0.9.8e:ec_err.obj
 0002:0000cd3c       ??_C@_0CJ@OEEMAMPO@EC_POINT_set_Jprojective_coordin@ 10095d3c     libeay32_EM.0.9.8e:ec_err.obj
 0002:0000cd68       ??_C@_0CI@KEKPCLNN@EC_POINT_set_compressed_coordina@ 10095d68     libeay32_EM.0.9.8e:ec_err.obj
 0002:0000cd90       ??_C@_0CJ@FLILENAG@EC_POINT_set_compressed_coordina@ 10095d90     libeay32_EM.0.9.8e:ec_err.obj
 0002:0000cdbc       ??_C@_0CE@BGAPNKLA@EC_POINT_set_affine_coordinates_@ 10095dbc     libeay32_EM.0.9.8e:ec_err.obj
 0002:0000cde0       ??_C@_0CF@GIDKPABC@EC_POINT_set_affine_coordinates_@ 10095de0     libeay32_EM.0.9.8e:ec_err.obj
 0002:0000ce08       ??_C@_0BD@OIBFFFMJ@EC_POINT_point2oct?$AA@ 10095e08     libeay32_EM.0.9.8e:ec_err.obj
 0002:0000ce1c       ??_C@_0BD@KNOOFOGC@EC_POINT_oct2point?$AA@ 10095e1c     libeay32_EM.0.9.8e:ec_err.obj
 0002:0000ce30       ??_C@_0N@LOIMDOGK@EC_POINT_new?$AA@ 10095e30     libeay32_EM.0.9.8e:ec_err.obj
 0002:0000ce40       ??_C@_0N@BJCJPJGO@EC_POINT_mul?$AA@ 10095e40     libeay32_EM.0.9.8e:ec_err.obj
 0002:0000ce50       ??_C@_0BF@OGCGANIF@EC_POINT_make_affine?$AA@ 10095e50     libeay32_EM.0.9.8e:ec_err.obj
 0002:0000ce68       ??_C@_0BF@LEBHDAHH@EC_POINT_is_on_curve?$AA@ 10095e68     libeay32_EM.0.9.8e:ec_err.obj
 0002:0000ce80       ??_C@_0BI@OBFGKGNP@EC_POINT_is_at_infinity?$AA@ 10095e80     libeay32_EM.0.9.8e:ec_err.obj
 0002:0000ce98       ??_C@_0BA@GCFFHKDO@EC_POINT_invert?$AA@ 10095e98     libeay32_EM.0.9.8e:ec_err.obj
 0002:0000cea8       ??_C@_0CJ@IIJPHIDN@EC_POINT_get_Jprojective_coordin@ 10095ea8     libeay32_EM.0.9.8e:ec_err.obj
 0002:0000ced4       ??_C@_0CE@CJDKBKKA@EC_POINT_get_affine_coordinates_@ 10095ed4     libeay32_EM.0.9.8e:ec_err.obj
 0002:0000cef8       ??_C@_0CF@HFLCNFLG@EC_POINT_get_affine_coordinates_@ 10095ef8     libeay32_EM.0.9.8e:ec_err.obj
 0002:0000cf20       ??_C@_0N@HNEIADBB@EC_POINT_dbl?$AA@ 10095f20     libeay32_EM.0.9.8e:ec_err.obj
 0002:0000cf30       ??_C@_0O@MBEGPEJH@EC_POINT_copy?$AA@ 10095f30     libeay32_EM.0.9.8e:ec_err.obj
 0002:0000cf40       ??_C@_0N@NLECBMI@EC_POINT_cmp?$AA@ 10095f40     libeay32_EM.0.9.8e:ec_err.obj
 0002:0000cf50       ??_C@_0N@IGMCAFJJ@EC_POINT_add?$AA@ 10095f50     libeay32_EM.0.9.8e:ec_err.obj
 0002:0000cf60       ??_C@_0O@EOIOIICJ@EC_POINTs_mul?$AA@ 10095f60     libeay32_EM.0.9.8e:ec_err.obj
 0002:0000cf70       ??_C@_0BG@BELCPGD@EC_POINTs_make_affine?$AA@ 10095f70     libeay32_EM.0.9.8e:ec_err.obj
 0002:0000cf88       ??_C@_0BA@JKENIEBO@EC_KEY_print_fp?$AA@ 10095f88     libeay32_EM.0.9.8e:ec_err.obj
 0002:0000cf98       ??_C@_0N@FGDNEALE@EC_KEY_print?$AA@ 10095f98     libeay32_EM.0.9.8e:ec_err.obj
 0002:0000cfa8       ??_C@_0L@ONJMCKDA@EC_KEY_new?$AA@ 10095fa8     libeay32_EM.0.9.8e:ec_err.obj
 0002:0000cfb4       ??_C@_0BE@MFFKFHAB@EC_KEY_generate_key?$AA@ 10095fb4     libeay32_EM.0.9.8e:ec_err.obj
 0002:0000cfc8       ??_C@_0M@EKKLFMGJ@EC_KEY_copy?$AA@ 10095fc8     libeay32_EM.0.9.8e:ec_err.obj
 0002:0000cfd4       ??_C@_0BB@NNGADNNL@EC_KEY_check_key?$AA@ 10095fd4     libeay32_EM.0.9.8e:ec_err.obj
 0002:0000cfe8       ??_C@_0BH@CFECBPOO@EC_GROUP_set_generator?$AA@ 10095fe8     libeay32_EM.0.9.8e:ec_err.obj
 0002:0000d000       ??_C@_0BI@FFDHFCOK@EC_GROUP_SET_EXTRA_DATA?$AA@ 10096000     libeay32_EM.0.9.8e:ec_err.obj
 0002:0000d018       ??_C@_0BH@BKLNCDLE@EC_GROUP_set_curve_GFp?$AA@ 10096018     libeay32_EM.0.9.8e:ec_err.obj
 0002:0000d030       ??_C@_0BI@GPFLIGPC@EC_GROUP_set_curve_GF2m?$AA@ 10096030     libeay32_EM.0.9.8e:ec_err.obj
 0002:0000d048       ??_C@_0BJ@EGIKACCD@EC_GROUP_precompute_mult?$AA@ 10096048     libeay32_EM.0.9.8e:ec_err.obj
 0002:0000d064       ??_C@_0BH@GPENGIHE@EC_GROUP_NEW_FROM_DATA?$AA@ 10096064     libeay32_EM.0.9.8e:ec_err.obj
 0002:0000d07c       ??_C@_0BL@EGJNHICO@EC_GROUP_new_by_curve_name?$AA@ 1009607c     libeay32_EM.0.9.8e:ec_err.obj
 0002:0000d098       ??_C@_0N@BOFGICHI@EC_GROUP_new?$AA@ 10096098     libeay32_EM.0.9.8e:ec_err.obj
 0002:0000d0a8       ??_C@_0BN@BIKFBBCG@EC_GROUP_get_trinomial_basis?$AA@ 100960a8     libeay32_EM.0.9.8e:ec_err.obj
 0002:0000d0c8       ??_C@_0BP@IOAFMBFK@EC_GROUP_get_pentanomial_basis?$AA@ 100960c8     libeay32_EM.0.9.8e:ec_err.obj
 0002:0000d0e8       ??_C@_0BD@OOGPHLOG@EC_GROUP_get_order?$AA@ 100960e8     libeay32_EM.0.9.8e:ec_err.obj
 0002:0000d0fc       ??_C@_0BE@NONOHBAO@EC_GROUP_get_degree?$AA@ 100960fc     libeay32_EM.0.9.8e:ec_err.obj
 0002:0000d110       ??_C@_0BH@GFKDJAMD@EC_GROUP_get_curve_GFp?$AA@ 10096110     libeay32_EM.0.9.8e:ec_err.obj
 0002:0000d128       ??_C@_0BI@KBEFHMNO@EC_GROUP_get_curve_GF2m?$AA@ 10096128     libeay32_EM.0.9.8e:ec_err.obj
 0002:0000d140       ??_C@_0BG@FGHCOKEJ@EC_GROUP_get_cofactor?$AA@ 10096140     libeay32_EM.0.9.8e:ec_err.obj
 0002:0000d158       ??_C@_0BI@JLPIENJE@EC_GROUP_get0_generator?$AA@ 10096158     libeay32_EM.0.9.8e:ec_err.obj
 0002:0000d170       ??_C@_0O@DCFPFPGD@EC_GROUP_copy?$AA@ 10096170     libeay32_EM.0.9.8e:ec_err.obj
 0002:0000d180       ??_C@_0BM@EDPHFFHB@EC_GROUP_check_discriminant?$AA@ 10096180     libeay32_EM.0.9.8e:ec_err.obj
 0002:0000d19c       ??_C@_0P@JGNGIAMK@EC_GROUP_check?$AA@ 1009619c     libeay32_EM.0.9.8e:ec_err.obj
 0002:0000d1ac       ??_C@_0CN@HEIOPOMJ@EC_GFP_SIMPLE_SET_COMPRESSED_COO@ 100961ac     libeay32_EM.0.9.8e:ec_err.obj
 0002:0000d1dc       ??_C@_0CJ@NNCOMCAA@ec_GFp_simple_set_compressed_coo@ 100961dc     libeay32_EM.0.9.8e:ec_err.obj
 0002:0000d208       ??_C@_0CP@IIHPGJL@EC_GFP_SIMPLE_POINT_SET_AFFINE_C@ 10096208     libeay32_EM.0.9.8e:ec_err.obj
 0002:0000d238       ??_C@_0CL@CECOKBPF@ec_GFp_simple_point_set_affine_c@ 10096238     libeay32_EM.0.9.8e:ec_err.obj
 0002:0000d264       ??_C@_0CP@DHLCDGIL@EC_GFP_SIMPLE_POINT_GET_AFFINE_C@ 10096264     libeay32_EM.0.9.8e:ec_err.obj
 0002:0000d294       ??_C@_0CL@CFAAIGCK@ec_GFp_simple_point_get_affine_c@ 10096294     libeay32_EM.0.9.8e:ec_err.obj
 0002:0000d2c0       ??_C@_0CB@KBGPMJPK@ec_GFp_simple_points_make_affine@ 100962c0     libeay32_EM.0.9.8e:ec_err.obj
 0002:0000d2e4       ??_C@_0BI@JEGCEGAG@ec_GFp_simple_point2oct?$AA@ 100962e4     libeay32_EM.0.9.8e:ec_err.obj
 0002:0000d2fc       ??_C@_0BI@NBJJENKN@ec_GFp_simple_oct2point?$AA@ 100962fc     libeay32_EM.0.9.8e:ec_err.obj
 0002:0000d314       ??_C@_0BK@COPKPLKN@ec_GFp_simple_make_affine?$AA@ 10096314     libeay32_EM.0.9.8e:ec_err.obj
 0002:0000d330       ??_C@_0CC@KAJMPEKM@EC_GFP_SIMPLE_GROUP_SET_GENERATO@ 10096330     libeay32_EM.0.9.8e:ec_err.obj
 0002:0000d354       ??_C@_0CC@MGNNAOCM@EC_GFP_SIMPLE_GROUP_SET_CURVE_GF@ 10096354     libeay32_EM.0.9.8e:ec_err.obj
 0002:0000d378       ??_C@_0BO@FHKAIIJJ@ec_GFp_simple_group_set_curve?$AA@ 10096378     libeay32_EM.0.9.8e:ec_err.obj
 0002:0000d398       ??_C@_0CH@CICCEFIM@ec_GFp_simple_group_check_discri@ 10096398     libeay32_EM.0.9.8e:ec_err.obj
 0002:0000d3c0       ??_C@_0BM@NNIDGPMA@ec_GFp_nist_group_set_curve?$AA@ 100963c0     libeay32_EM.0.9.8e:ec_err.obj
 0002:0000d3dc       ??_C@_0BG@NIJIDFMF@ec_GFp_nist_field_sqr?$AA@ 100963dc     libeay32_EM.0.9.8e:ec_err.obj
 0002:0000d3f4       ??_C@_0BG@LLBGICGK@ec_GFp_nist_field_mul?$AA@ 100963f4     libeay32_EM.0.9.8e:ec_err.obj
 0002:0000d40c       ??_C@_0CA@DHAFKAHK@EC_GFP_MONT_GROUP_SET_CURVE_GFP?$AA@ 1009640c     libeay32_EM.0.9.8e:ec_err.obj
 0002:0000d42c       ??_C@_0BM@GNHNLMD@ec_GFp_mont_group_set_curve?$AA@ 1009642c     libeay32_EM.0.9.8e:ec_err.obj
 0002:0000d448       ??_C@_0BG@MCAMNCKO@ec_GFp_mont_field_sqr?$AA@ 10096448     libeay32_EM.0.9.8e:ec_err.obj
 0002:0000d460       ??_C@_0BN@OCMPOINJ@ec_GFp_mont_field_set_to_one?$AA@ 10096460     libeay32_EM.0.9.8e:ec_err.obj
 0002:0000d480       ??_C@_0BG@KBICGFAB@ec_GFp_mont_field_mul?$AA@ 10096480     libeay32_EM.0.9.8e:ec_err.obj
 0002:0000d498       ??_C@_0BJ@PGEBCHNN@ec_GFp_mont_field_encode?$AA@ 10096498     libeay32_EM.0.9.8e:ec_err.obj
 0002:0000d4b4       ??_C@_0BJ@DKPBNMKK@ec_GFp_mont_field_decode?$AA@ 100964b4     libeay32_EM.0.9.8e:ec_err.obj
 0002:0000d4d0       ??_C@_0CK@EMOLEAE@ec_GF2m_simple_set_compressed_co@ 100964d0     libeay32_EM.0.9.8e:ec_err.obj
 0002:0000d4fc       ??_C@_0CM@PJCEGJBI@ec_GF2m_simple_point_set_affine_@ 100964fc     libeay32_EM.0.9.8e:ec_err.obj
 0002:0000d528       ??_C@_0CM@PIAKEOMH@ec_GF2m_simple_point_get_affine_@ 10096528     libeay32_EM.0.9.8e:ec_err.obj
 0002:0000d554       ??_C@_0BJ@BCDOEDMD@ec_GF2m_simple_point2oct?$AA@ 10096554     libeay32_EM.0.9.8e:ec_err.obj
 0002:0000d570       ??_C@_0BJ@FHMFEIGI@ec_GF2m_simple_oct2point?$AA@ 10096570     libeay32_EM.0.9.8e:ec_err.obj
 0002:0000d58c       ??_C@_0BP@LKAGFPMG@ec_GF2m_simple_group_set_curve?$AA@ 1009658c     libeay32_EM.0.9.8e:ec_err.obj
 0002:0000d5ac       ??_C@_0CI@HLAFKCG@ec_GF2m_simple_group_check_discr@ 100965ac     libeay32_EM.0.9.8e:ec_err.obj
 0002:0000d5d4       ??_C@_0CC@ICBKMHKB@EC_GF2M_MONTGOMERY_POINT_MULTIPL@ 100965d4     libeay32_EM.0.9.8e:ec_err.obj
 0002:0000d5f8       ??_C@_0BE@IGKCIBBP@EC_EX_DATA_set_data?$AA@ 100965f8     libeay32_EM.0.9.8e:ec_err.obj
 0002:0000d60c       ??_C@_0BL@HBOBKPAK@EC_ASN1_PKPARAMETERS2GROUP?$AA@ 1009660c     libeay32_EM.0.9.8e:ec_err.obj
 0002:0000d628       ??_C@_0BJ@GDKAGOMP@EC_ASN1_PARAMETERS2GROUP?$AA@ 10096628     libeay32_EM.0.9.8e:ec_err.obj
 0002:0000d644       ??_C@_0BL@CHLBAFFP@EC_ASN1_GROUP2PKPARAMETERS?$AA@ 10096644     libeay32_EM.0.9.8e:ec_err.obj
 0002:0000d660       ??_C@_0BJ@OBNMEFJL@EC_ASN1_GROUP2PARAMETERS?$AA@ 10096660     libeay32_EM.0.9.8e:ec_err.obj
 0002:0000d67c       ??_C@_0BG@DBLOBDEO@EC_ASN1_GROUP2FIELDID?$AA@ 1009667c     libeay32_EM.0.9.8e:ec_err.obj
 0002:0000d694       ??_C@_0BE@MCAODDGE@EC_ASN1_GROUP2CURVE?$AA@ 10096694     libeay32_EM.0.9.8e:ec_err.obj
 0002:0000d6a8       ??_C@_0BB@HJLHKBLC@ECP_NIST_MOD_521?$AA@ 100966a8     libeay32_EM.0.9.8e:ec_err.obj
 0002:0000d6bc       ??_C@_0BB@KOGOBJEJ@ECP_NIST_MOD_256?$AA@ 100966bc     libeay32_EM.0.9.8e:ec_err.obj
 0002:0000d6d0       ??_C@_0BB@JJBHGNEO@ECP_NIST_MOD_224?$AA@ 100966d0     libeay32_EM.0.9.8e:ec_err.obj
 0002:0000d6e4       ??_C@_0BB@NBKNIKMH@ECP_NIST_MOD_192?$AA@ 100966e4     libeay32_EM.0.9.8e:ec_err.obj
 0002:0000d6f8       ??_C@_0BI@PBKJPLGO@ECPKParameters_print_fp?$AA@ 100966f8     libeay32_EM.0.9.8e:ec_err.obj
 0002:0000d710       ??_C@_0BF@EIEGNLJB@ECPKParameters_print?$AA@ 10096710     libeay32_EM.0.9.8e:ec_err.obj
 0002:0000d728       ??_C@_0BG@IABNBFJJ@ECParameters_print_fp?$AA@ 10096728     libeay32_EM.0.9.8e:ec_err.obj
 0002:0000d740       ??_C@_0BD@KEAOIMB@ECParameters_print?$AA@ 10096740     libeay32_EM.0.9.8e:ec_err.obj
 0002:0000d754       ??_C@_0BB@OCGALHMG@d2i_ECPrivateKey?$AA@ 10096754     libeay32_EM.0.9.8e:ec_err.obj
 0002:0000d768       ??_C@_0BD@GMAHPMNO@d2i_ECPKParameters?$AA@ 10096768     libeay32_EM.0.9.8e:ec_err.obj
 0002:0000d77c       ??_C@_0BB@IHNDOJLJ@d2i_ECParameters?$AA@ 1009677c     libeay32_EM.0.9.8e:ec_err.obj
 0002:0000d790       ??_C@_0N@DCDCJEGB@COMPUTE_WNAF?$AA@ 10096790     libeay32_EM.0.9.8e:ec_err.obj
 0002:0000d7a0       ??_C@_0BL@GHFOLNLN@no?5dynlock?5create?5callback?$AA@ 100967a0     libeay32_EM.0.9.8e:cpt_err.obj
 0002:0000d7bc       ??_C@_0BA@NPGJKDBD@INT_NEW_EX_DATA?$AA@ 100967bc     libeay32_EM.0.9.8e:cpt_err.obj
 0002:0000d7cc       ??_C@_0BB@EOLKIEIJ@INT_FREE_EX_DATA?$AA@ 100967cc     libeay32_EM.0.9.8e:cpt_err.obj
 0002:0000d7e0       ??_C@_0BA@HJHEJEMA@INT_DUP_EX_DATA?$AA@ 100967e0     libeay32_EM.0.9.8e:cpt_err.obj
 0002:0000d7f0       ??_C@_0O@MGHCLFMH@DEF_GET_CLASS?$AA@ 100967f0     libeay32_EM.0.9.8e:cpt_err.obj
 0002:0000d800       ??_C@_0O@LHHGGGNF@DEF_ADD_INDEX?$AA@ 10096800     libeay32_EM.0.9.8e:cpt_err.obj
 0002:0000d810       ??_C@_0BD@NOOFBIMD@CRYPTO_set_ex_data?$AA@ 10096810     libeay32_EM.0.9.8e:cpt_err.obj
 0002:0000d824       ??_C@_0BG@MHMFFADP@CRYPTO_get_new_lockid?$AA@ 10096824     libeay32_EM.0.9.8e:cpt_err.obj
 0002:0000d83c       ??_C@_0BJ@CCOEIIFC@CRYPTO_get_new_dynlockid?$AA@ 1009683c     libeay32_EM.0.9.8e:cpt_err.obj
 0002:0000d858       ??_C@_0BI@MHIJLMOF@CRYPTO_get_ex_new_index?$AA@ 10096858     libeay32_EM.0.9.8e:cpt_err.obj
 0002:0000d870       ??_C@_0BG@NAOLEILH@variable?5has?5no?5value?$AA@ 10096870     libeay32_EM.0.9.8e:conf_err.obj
 0002:0000d888       ??_C@_0BE@KOBCLJNN@unknown?5module?5name?$AA@ 10096888     libeay32_EM.0.9.8e:conf_err.obj
 0002:0000d89c       ??_C@_0BN@CFCNACBC@unable?5to?5create?5new?5section?$AA@ 1009689c     libeay32_EM.0.9.8e:conf_err.obj
 0002:0000d8bc       ??_C@_08JEIPHCP@no?5value?$AA@ 100968bc     libeay32_EM.0.9.8e:conf_err.obj
 0002:0000d8c8       ??_C@_0L@LDHPJCAE@no?5section?$AA@ 100968c8     libeay32_EM.0.9.8e:conf_err.obj
 0002:0000d8d4       ??_C@_0CA@NLBFLDPJ@no?5conf?5or?5environment?5variable?$AA@ 100968d4     libeay32_EM.0.9.8e:conf_err.obj
 0002:0000d8f4       ??_C@_07OJNHGLOG@no?5conf?$AA@ 100968f4     libeay32_EM.0.9.8e:conf_err.obj
 0002:0000d8fc       ??_C@_0P@ECIPDLAO@no?5close?5brace?$AA@ 100968fc     libeay32_EM.0.9.8e:conf_err.obj
 0002:0000d90c       ??_C@_0BM@JOLMIONN@module?5initialization?5error?$AA@ 1009690c     libeay32_EM.0.9.8e:conf_err.obj
 0002:0000d928       ??_C@_0BG@OKCBACKF@missing?5init?5function?$AA@ 10096928     libeay32_EM.0.9.8e:conf_err.obj
 0002:0000d940       ??_C@_0BI@KJPGAHFP@missing?5finish?5function?$AA@ 10096940     libeay32_EM.0.9.8e:conf_err.obj
 0002:0000d958       ??_C@_0BD@CENOJJDH@missing?5equal?5sign?$AA@ 10096958     libeay32_EM.0.9.8e:conf_err.obj
 0002:0000d96c       ??_C@_0BN@LNHOFFHB@missing?5close?5square?5bracket?$AA@ 1009696c     libeay32_EM.0.9.8e:conf_err.obj
 0002:0000d98c       ??_C@_0BC@MMAHEKMC@error?5loading?5dso?$AA@ 1009698c     libeay32_EM.0.9.8e:conf_err.obj
 0002:0000d9a0       ??_C@_08BBDGILDN@STR_COPY?$AA@ 100969a0     libeay32_EM.0.9.8e:conf_err.obj
 0002:0000d9ac       ??_C@_09JEJJGJM@NCONF_new?$AA@ 100969ac     libeay32_EM.0.9.8e:conf_err.obj
 0002:0000d9b8       ??_C@_0O@PJAMGPBO@NCONF_load_fp?$AA@ 100969b8     libeay32_EM.0.9.8e:conf_err.obj
 0002:0000d9c8       ??_C@_0P@IEAGEJMM@NCONF_load_bio?$AA@ 100969c8     libeay32_EM.0.9.8e:conf_err.obj
 0002:0000d9d8       ??_C@_0L@PFPHFEJM@NCONF_load?$AA@ 100969d8     libeay32_EM.0.9.8e:conf_err.obj
 0002:0000d9e4       ??_C@_0BB@OFIAOKID@NCONF_get_string?$AA@ 100969e4     libeay32_EM.0.9.8e:conf_err.obj
 0002:0000d9f8       ??_C@_0BC@INLNGICP@NCONF_get_section?$AA@ 100969f8     libeay32_EM.0.9.8e:conf_err.obj
 0002:0000da0c       ??_C@_0BD@FFHIPMOB@NCONF_get_number_e?$AA@ 10096a0c     libeay32_EM.0.9.8e:conf_err.obj
 0002:0000da20       ??_C@_0BB@CGIEEKIP@NCONF_get_number?$AA@ 10096a20     libeay32_EM.0.9.8e:conf_err.obj
 0002:0000da34       ??_C@_0O@LOFEGBC@NCONF_dump_fp?$AA@ 10096a34     libeay32_EM.0.9.8e:conf_err.obj
 0002:0000da44       ??_C@_0P@INECOMMO@NCONF_dump_bio?$AA@ 10096a44     libeay32_EM.0.9.8e:conf_err.obj
 0002:0000da54       ??_C@_0L@HLFJHMEO@MODULE_RUN?$AA@ 10096a54     libeay32_EM.0.9.8e:conf_err.obj
 0002:0000da60       ??_C@_0BA@DFFKJEMO@MODULE_LOAD_DSO?$AA@ 10096a60     libeay32_EM.0.9.8e:conf_err.obj
 0002:0000da70       ??_C@_0M@NKKPMNDD@MODULE_INIT?$AA@ 10096a70     libeay32_EM.0.9.8e:conf_err.obj
 0002:0000da7c       ??_C@_0N@GOMHLHAF@DEF_LOAD_BIO?$AA@ 10096a7c     libeay32_EM.0.9.8e:conf_err.obj
 0002:0000da8c       ??_C@_08JKMPBPGH@DEF_LOAD?$AA@ 10096a8c     libeay32_EM.0.9.8e:conf_err.obj
 0002:0000da98       ??_C@_0BC@FCDKCHEN@CONF_modules_load?$AA@ 10096a98     libeay32_EM.0.9.8e:conf_err.obj
 0002:0000daac       ??_C@_0N@KNOBPCCK@CONF_load_fp?$AA@ 10096aac     libeay32_EM.0.9.8e:conf_err.obj
 0002:0000dabc       ??_C@_0O@KFOGFAOE@CONF_load_bio?$AA@ 10096abc     libeay32_EM.0.9.8e:conf_err.obj
 0002:0000dacc       ??_C@_09PJMELPOP@CONF_load?$AA@ 10096acc     libeay32_EM.0.9.8e:conf_err.obj
 0002:0000dad8       ??_C@_0N@FPAINLCG@CONF_dump_fp?$AA@ 10096ad8     libeay32_EM.0.9.8e:conf_err.obj
 0002:0000dae8       ??_C@_0L@OIMFIJMM@wrong?5type?$AA@ 10096ae8     libeay32_EM.0.9.8e:asn1_err.obj
 0002:0000daf4       ??_C@_09FHDDBMMO@wrong?5tag?$AA@ 10096af4     libeay32_EM.0.9.8e:asn1_err.obj
 0002:0000db00       ??_C@_0BB@HCAFPPCK@unsupported?5type?$AA@ 10096b00     libeay32_EM.0.9.8e:asn1_err.obj
 0002:0000db14       ??_C@_0BM@ONPEBOBM@unsupported?5public?5key?5type?$AA@ 10096b14     libeay32_EM.0.9.8e:asn1_err.obj
 0002:0000db30       ??_C@_0CB@JCOCHIMG@unsupported?5encryption?5algorithm@ 10096b30     libeay32_EM.0.9.8e:asn1_err.obj
 0002:0000db54       ??_C@_0BD@ECLJDLBJ@unsupported?5cipher?$AA@ 10096b54     libeay32_EM.0.9.8e:asn1_err.obj
 0002:0000db68       ??_C@_0CA@KHOGLJGI@unsupported?5any?5defined?5by?5type?$AA@ 10096b68     libeay32_EM.0.9.8e:asn1_err.obj
 0002:0000db88       ??_C@_0O@OOPMEED@unkown?5format?$AA@ 10096b88     libeay32_EM.0.9.8e:asn1_err.obj
 0002:0000db98       ??_C@_0M@NDAIKBNL@unknown?5tag?$AA@ 10096b98     libeay32_EM.0.9.8e:asn1_err.obj
 0002:0000dba4       ??_C@_0BI@HEKKKILC@unknown?5public?5key?5type?$AA@ 10096ba4     libeay32_EM.0.9.8e:asn1_err.obj
 0002:0000dbbc       ??_C@_0BE@IIDOFNCB@unknown?5object?5type?$AA@ 10096bbc     libeay32_EM.0.9.8e:asn1_err.obj
 0002:0000dbd0       ??_C@_0CB@FPJIEFKF@unknown?5message?5digest?5algorithm@ 10096bd0     libeay32_EM.0.9.8e:asn1_err.obj
 0002:0000dbf4       ??_C@_0P@JBFKBJMG@unknown?5format?$AA@ 10096bf4     libeay32_EM.0.9.8e:asn1_err.obj
 0002:0000dc04       ??_C@_0P@GFLKNBFP@unexpected?5eoc?$AA@ 10096c04     libeay32_EM.0.9.8e:asn1_err.obj
 0002:0000dc14       ??_C@_0CB@OFDMIBCA@unable?5to?5decode?5rsa?5private?5key@ 10096c14     libeay32_EM.0.9.8e:asn1_err.obj
 0002:0000dc38       ??_C@_0BJ@FGOOGDNL@unable?5to?5decode?5rsa?5key?$AA@ 10096c38     libeay32_EM.0.9.8e:asn1_err.obj
 0002:0000dc54       ??_C@_0BF@EOIFAKLF@type?5not?5constructed?$AA@ 10096c54     libeay32_EM.0.9.8e:asn1_err.obj
 0002:0000dc6c       ??_C@_08JAFCJEPG@too?5long?$AA@ 10096c6c     libeay32_EM.0.9.8e:asn1_err.obj
 0002:0000dc78       ??_C@_0BG@FIHEIAJO@time?5not?5ascii?5format?$AA@ 10096c78     libeay32_EM.0.9.8e:asn1_err.obj
 0002:0000dc90       ??_C@_0DE@FHLPPGDD@the?5asn1?5object?5identifier?5is?5no@ 10096c90     libeay32_EM.0.9.8e:asn1_err.obj
 0002:0000dcc4       ??_C@_0BD@FKIMNJNM@tag?5value?5too?5high?$AA@ 10096cc4     libeay32_EM.0.9.8e:asn1_err.obj
 0002:0000dcd8       ??_C@_0BB@EJOCOHKH@string?5too?5short?$AA@ 10096cd8     libeay32_EM.0.9.8e:asn1_err.obj
 0002:0000dcec       ??_C@_0BA@JFNIOLAK@string?5too?5long?$AA@ 10096cec     libeay32_EM.0.9.8e:asn1_err.obj
 0002:0000dcfc       ??_C@_0L@DIDEMPO@short?5line?$AA@ 10096cfc     libeay32_EM.0.9.8e:asn1_err.obj
 0002:0000dd08       ??_C@_0BN@IFEEBMGE@sequence?5or?5set?5needs?5config?$AA@ 10096d08     libeay32_EM.0.9.8e:asn1_err.obj
 0002:0000dd28       ??_C@_0BJ@OILHCOMM@sequence?5not?5constructed?$AA@ 10096d28     libeay32_EM.0.9.8e:asn1_err.obj
 0002:0000dd44       ??_C@_0BJ@LFBNHHNL@sequence?5length?5mismatch?$AA@ 10096d44     libeay32_EM.0.9.8e:asn1_err.obj
 0002:0000dd60       ??_C@_0BI@GOIIMJKA@second?5number?5too?5large?$AA@ 10096d60     libeay32_EM.0.9.8e:asn1_err.obj
 0002:0000dd78       ??_C@_0BL@KPMAFJEI@private?5key?5header?5missing?$AA@ 10096d78     libeay32_EM.0.9.8e:asn1_err.obj
 0002:0000dd94       ??_C@_0BE@GONLLLGK@odd?5number?5of?5chars?$AA@ 10096d94     libeay32_EM.0.9.8e:asn1_err.obj
 0002:0000dda8       ??_C@_0BI@KCMPJCA@object?5not?5ascii?5format?$AA@ 10096da8     libeay32_EM.0.9.8e:asn1_err.obj
 0002:0000ddc0       ??_C@_0BF@CCHOLFBJ@null?5is?5wrong?5length?$AA@ 10096dc0     libeay32_EM.0.9.8e:asn1_err.obj
 0002:0000ddd8       ??_C@_0BI@DFIHABJJ@no?5matching?5choice?5type?$AA@ 10096dd8     libeay32_EM.0.9.8e:asn1_err.obj
 0002:0000ddf0       ??_C@_0BA@NBOKDEIF@not?5enough?5data?$AA@ 10096df0     libeay32_EM.0.9.8e:asn1_err.obj
 0002:0000de00       ??_C@_0BB@MGCBBDEB@not?5ascii?5format?$AA@ 10096e00     libeay32_EM.0.9.8e:asn1_err.obj
 0002:0000de14       ??_C@_0BD@MNEEEEPB@non?5hex?5characters?$AA@ 10096e14     libeay32_EM.0.9.8e:asn1_err.obj
 0002:0000de28       ??_C@_0BD@IJCHMKNH@nested?5asn1?5string?$AA@ 10096e28     libeay32_EM.0.9.8e:asn1_err.obj
 0002:0000de3c       ??_C@_0BC@FJKJBBMN@mstring?5wrong?5tag?$AA@ 10096e3c     libeay32_EM.0.9.8e:asn1_err.obj
 0002:0000de50       ??_C@_0BG@HBALPIGP@mstring?5not?5universal?$AA@ 10096e50     libeay32_EM.0.9.8e:asn1_err.obj
 0002:0000de68       ??_C@_0BG@OJFAFJNH@missing?5second?5number?$AA@ 10096e68     libeay32_EM.0.9.8e:asn1_err.obj
 0002:0000de80       ??_C@_0M@MKABCMG@missing?5eoc?$AA@ 10096e80     libeay32_EM.0.9.8e:asn1_err.obj
 0002:0000de8c       ??_C@_0L@IJFCOOII@list?5error?$AA@ 10096e8c     libeay32_EM.0.9.8e:asn1_err.obj
 0002:0000de98       ??_C@_0N@MAMJKBIE@length?5error?$AA@ 10096e98     libeay32_EM.0.9.8e:asn1_err.obj
 0002:0000dea8       ??_C@_0N@MBEIJJJI@iv?5too?5large?$AA@ 10096ea8     libeay32_EM.0.9.8e:asn1_err.obj
 0002:0000deb8       ??_C@_0BD@CADAIHCD@invalid?5utf8string?$AA@ 10096eb8     libeay32_EM.0.9.8e:asn1_err.obj
 0002:0000decc       ??_C@_0BP@NLLGLGJG@invalid?5universalstring?5length?$AA@ 10096ecc     libeay32_EM.0.9.8e:asn1_err.obj
 0002:0000deec       ??_C@_0BE@PJIGHIDK@invalid?5time?5format?$AA@ 10096eec     libeay32_EM.0.9.8e:asn1_err.obj
 0002:0000df00       ??_C@_0BC@JCCFGDFH@invalid?5separator?$AA@ 10096f00     libeay32_EM.0.9.8e:asn1_err.obj
 0002:0000df14       ??_C@_0BB@HBLKNPLB@invalid?5modifier?$AA@ 10096f14     libeay32_EM.0.9.8e:asn1_err.obj
 0002:0000df28       ??_C@_0O@KPBDNCBI@invalid?5digit?$AA@ 10096f28     libeay32_EM.0.9.8e:asn1_err.obj
 0002:0000df38       ??_C@_0BJ@DGKAOOKA@invalid?5bmpstring?5length?$AA@ 10096f38     libeay32_EM.0.9.8e:asn1_err.obj
 0002:0000df54       ??_C@_0BL@JBPGNNHP@integer?5too?5large?5for?5long?$AA@ 10096f54     libeay32_EM.0.9.8e:asn1_err.obj
 0002:0000df70       ??_C@_0BJ@IOJNPFPJ@integer?5not?5ascii?5format?$AA@ 10096f70     libeay32_EM.0.9.8e:asn1_err.obj
 0002:0000df8c       ??_C@_0BD@FBIAEBKG@illegal?5time?5value?$AA@ 10096f8c     libeay32_EM.0.9.8e:asn1_err.obj
 0002:0000dfa0       ??_C@_0BD@KMIMMNBH@illegal?5tagged?5any?$AA@ 10096fa0     libeay32_EM.0.9.8e:asn1_err.obj
 0002:0000dfb4       ??_C@_0CB@JCNOHDMC@illegal?5options?5on?5item?5template@ 10096fb4     libeay32_EM.0.9.8e:asn1_err.obj
 0002:0000dfd8       ??_C@_0BF@JJCOPKAM@illegal?5optional?5any?$AA@ 10096fd8     libeay32_EM.0.9.8e:asn1_err.obj
 0002:0000dff0       ??_C@_0P@HMGBAHDF@illegal?5object?$AA@ 10096ff0     libeay32_EM.0.9.8e:asn1_err.obj
 0002:0000e000       ??_C@_0BD@CIHPLDOH@illegal?5null?5value?$AA@ 10097000     libeay32_EM.0.9.8e:asn1_err.obj
 0002:0000e014       ??_C@_0N@KECKGDAL@illegal?5null?$AA@ 10097014     libeay32_EM.0.9.8e:asn1_err.obj
 0002:0000e024       ??_C@_0BH@NHBAOIGA@illegal?5nested?5tagging?$AA@ 10097024     libeay32_EM.0.9.8e:asn1_err.obj
 0002:0000e03c       ??_C@_0BA@OBFDOAFI@illegal?5integer?$AA@ 1009703c     libeay32_EM.0.9.8e:asn1_err.obj
 0002:0000e04c       ??_C@_0BF@HBCDAMIA@illegal?5implicit?5tag?$AA@ 1009704c     libeay32_EM.0.9.8e:asn1_err.obj
 0002:0000e064       ??_C@_0M@KIEAGAOM@illegal?5hex?$AA@ 10097064     libeay32_EM.0.9.8e:asn1_err.obj
 0002:0000e070       ??_C@_0P@MDMHHBPK@illegal?5format?$AA@ 10097070     libeay32_EM.0.9.8e:asn1_err.obj
 0002:0000e080       ??_C@_0BD@NEHNCJDJ@illegal?5characters?$AA@ 10097080     libeay32_EM.0.9.8e:asn1_err.obj
 0002:0000e094       ??_C@_0BA@DFDIFKJJ@illegal?5boolean?$AA@ 10097094     libeay32_EM.0.9.8e:asn1_err.obj
 0002:0000e0a4       ??_C@_0BJ@PIGABEGD@illegal?5bitstring?5format?$AA@ 100970a4     libeay32_EM.0.9.8e:asn1_err.obj
 0002:0000e0c0       ??_C@_0BA@CHHBAPMA@header?5too?5long?$AA@ 100970c0     libeay32_EM.0.9.8e:asn1_err.obj
 0002:0000e0d0       ??_C@_0BE@LDHAAJPI@first?5num?5too?5large?$AA@ 100970d0     libeay32_EM.0.9.8e:asn1_err.obj
 0002:0000e0e4       ??_C@_0O@CLCAFBLA@field?5missing?$AA@ 100970e4     libeay32_EM.0.9.8e:asn1_err.obj
 0002:0000e0f4       ??_C@_0BN@FKHNFGAN@explicit?5tag?5not?5constructed?$AA@ 100970f4     libeay32_EM.0.9.8e:asn1_err.obj
 0002:0000e114       ??_C@_0BJ@GCMFJMFA@explicit?5length?5mismatch?$AA@ 10097114     libeay32_EM.0.9.8e:asn1_err.obj
 0002:0000e130       ??_C@_0BB@JKCOMHFA@expecting?5a?5time?$AA@ 10097130     libeay32_EM.0.9.8e:asn1_err.obj
 0002:0000e144       ??_C@_0BE@BDJOEMIP@expecting?5a?5boolean?$AA@ 10097144     libeay32_EM.0.9.8e:asn1_err.obj
 0002:0000e158       ??_C@_0BE@OOABJJEB@expecting?5an?5object?$AA@ 10097158     libeay32_EM.0.9.8e:asn1_err.obj
 0002:0000e16c       ??_C@_0BF@LGKJDFOD@expecting?5an?5integer?$AA@ 1009716c     libeay32_EM.0.9.8e:asn1_err.obj
 0002:0000e184       ??_C@_0BM@FOGNMFHP@error?5setting?5cipher?5params?$AA@ 10097184     libeay32_EM.0.9.8e:asn1_err.obj
 0002:0000e1a0       ??_C@_0BK@DGGLLBPO@error?5parsing?5set?5element?$AA@ 100971a0     libeay32_EM.0.9.8e:asn1_err.obj
 0002:0000e1bc       ??_C@_0BG@ILOBFDMI@error?5loading?5section?$AA@ 100971bc     libeay32_EM.0.9.8e:asn1_err.obj
 0002:0000e1d4       ??_C@_0BD@MEBNHBIA@error?5getting?5time?$AA@ 100971d4     libeay32_EM.0.9.8e:asn1_err.obj
 0002:0000e1e8       ??_C@_0P@PBNPDGCA@depth?5exceeded?$AA@ 100971e8     libeay32_EM.0.9.8e:asn1_err.obj
 0002:0000e1f8       ??_C@_0P@JLNKKAF@decoding?5error?$AA@ 100971f8     libeay32_EM.0.9.8e:asn1_err.obj
 0002:0000e208       ??_C@_0O@BCDMJPKL@data?5is?5wrong?$AA@ 10097208     libeay32_EM.0.9.8e:asn1_err.obj
 0002:0000e218       ??_C@_0BI@BIBDEEPC@boolean?5is?5wrong?5length?$AA@ 10097218     libeay32_EM.0.9.8e:asn1_err.obj
 0002:0000e230       ??_C@_06OMLIINFC@bn?5lib?$AA@ 10097230     libeay32_EM.0.9.8e:asn1_err.obj
 0002:0000e238       ??_C@_07PAICMJPF@bad?5tag?$AA@ 10097238     libeay32_EM.0.9.8e:asn1_err.obj
 0002:0000e240       ??_C@_0BC@CABCLHEJ@bad?5password?5read?$AA@ 10097240     libeay32_EM.0.9.8e:asn1_err.obj
 0002:0000e254       ??_C@_0BC@HBIHOFOK@bad?5object?5header?$AA@ 10097254     libeay32_EM.0.9.8e:asn1_err.obj
 0002:0000e268       ??_C@_09BKPOMKBM@bad?5class?$AA@ 10097268     libeay32_EM.0.9.8e:asn1_err.obj
 0002:0000e274       ??_C@_09GMPDBPNM@aux?5error?$AA@ 10097274     libeay32_EM.0.9.8e:asn1_err.obj
 0002:0000e280       ??_C@_0O@BJDBCOJG@adding?5object?$AA@ 10097280     libeay32_EM.0.9.8e:asn1_err.obj
 0002:0000e290       ??_C@_0O@FLJODBAL@X509_PKEY_new?$AA@ 10097290     libeay32_EM.0.9.8e:asn1_err.obj
 0002:0000e2a0       ??_C@_08NEGEFFLN@X509_NEW?$AA@ 100972a0     libeay32_EM.0.9.8e:asn1_err.obj
 0002:0000e2ac       ??_C@_0BB@PPJFHHNK@X509_NAME_EX_NEW?$AA@ 100972ac     libeay32_EM.0.9.8e:asn1_err.obj
 0002:0000e2c0       ??_C@_0BB@BFNHNGLE@X509_NAME_EX_D2I?$AA@ 100972c0     libeay32_EM.0.9.8e:asn1_err.obj
 0002:0000e2d4       ??_C@_0BB@EOIAJBFO@X509_NAME_ENCODE?$AA@ 100972d4     libeay32_EM.0.9.8e:asn1_err.obj
 0002:0000e2e8       ??_C@_0O@PHHKDAFO@X509_INFO_new?$AA@ 100972e8     libeay32_EM.0.9.8e:asn1_err.obj
 0002:0000e2f8       ??_C@_0BG@JPBFPNPM@X509_CRL_add0_revoked?$AA@ 100972f8     libeay32_EM.0.9.8e:asn1_err.obj
 0002:0000e310       ??_C@_0O@HBIKGBAK@X509_CINF_NEW?$AA@ 10097310     libeay32_EM.0.9.8e:asn1_err.obj
 0002:0000e320       ??_C@_0O@PIFNMKLH@PKCS5_pbe_set?$AA@ 10097320     libeay32_EM.0.9.8e:asn1_err.obj
 0002:0000e330       ??_C@_0P@MGGDNIJC@PKCS5_pbe2_set?$AA@ 10097330     libeay32_EM.0.9.8e:asn1_err.obj
 0002:0000e340       ??_C@_0O@GFIOGLLN@PARSE_TAGGING?$AA@ 10097340     libeay32_EM.0.9.8e:asn1_err.obj
 0002:0000e350       ??_C@_0BA@CHDDCHHF@OID_MODULE_INIT?$AA@ 10097350     libeay32_EM.0.9.8e:asn1_err.obj
 0002:0000e360       ??_C@_08OCDCJFII@LONG_C2I?$AA@ 10097360     libeay32_EM.0.9.8e:asn1_err.obj
 0002:0000e36c       ??_C@_0P@ONPLPJGI@i2d_RSA_PUBKEY?$AA@ 1009736c     libeay32_EM.0.9.8e:asn1_err.obj
 0002:0000e37c       ??_C@_0M@JMAEMJEO@i2d_RSA_NET?$AA@ 1009737c     libeay32_EM.0.9.8e:asn1_err.obj
 0002:0000e388       ??_C@_0O@HLJNBGGC@i2d_PublicKey?$AA@ 10097388     libeay32_EM.0.9.8e:asn1_err.obj
 0002:0000e398       ??_C@_0P@NGNEJIKC@i2d_PrivateKey?$AA@ 10097398     libeay32_EM.0.9.8e:asn1_err.obj
 0002:0000e3a8       ??_C@_0O@LEOKMPDM@i2d_EC_PUBKEY?$AA@ 100973a8     libeay32_EM.0.9.8e:asn1_err.obj
 0002:0000e3b8       ??_C@_0P@KLLIPHOA@i2d_DSA_PUBKEY?$AA@ 100973b8     libeay32_EM.0.9.8e:asn1_err.obj
 0002:0000e3c8       ??_C@_0O@FFBCHNNJ@I2D_ASN1_TIME?$AA@ 100973c8     libeay32_EM.0.9.8e:asn1_err.obj
 0002:0000e3d8       ??_C@_0N@CLMCOPEP@i2d_ASN1_SET?$AA@ 100973d8     libeay32_EM.0.9.8e:asn1_err.obj
 0002:0000e3e8       ??_C@_0O@GAAIFCCL@d2i_X509_PKEY?$AA@ 100973e8     libeay32_EM.0.9.8e:asn1_err.obj
 0002:0000e3f8       ??_C@_0O@PJBLDFKN@D2I_X509_CINF?$AA@ 100973f8     libeay32_EM.0.9.8e:asn1_err.obj
 0002:0000e408       ??_C@_08JEFCIDGB@D2I_X509?$AA@ 10097408     libeay32_EM.0.9.8e:asn1_err.obj
 0002:0000e414       ??_C@_0O@PKNCGLPC@D2I_RSA_NET_2?$AA@ 10097414     libeay32_EM.0.9.8e:asn1_err.obj
 0002:0000e424       ??_C@_0M@PHFFEDBA@d2i_RSA_NET?$AA@ 10097424     libeay32_EM.0.9.8e:asn1_err.obj
 0002:0000e430       ??_C@_0O@FCMIGHNH@d2i_PublicKey?$AA@ 10097430     libeay32_EM.0.9.8e:asn1_err.obj
 0002:0000e440       ??_C@_0P@GNPGIKNA@d2i_PrivateKey?$AA@ 10097440     libeay32_EM.0.9.8e:asn1_err.obj
 0002:0000e450       ??_C@_0BD@ICAMCAJL@D2I_NETSCAPE_RSA_2?$AA@ 10097450     libeay32_EM.0.9.8e:asn1_err.obj
 0002:0000e464       ??_C@_0BB@DAKIIIBF@d2i_Netscape_RSA?$AA@ 10097464     libeay32_EM.0.9.8e:asn1_err.obj
 0002:0000e478       ??_C@_0BB@LLLJDJLB@D2I_ASN1_UTCTIME?$AA@ 10097478     libeay32_EM.0.9.8e:asn1_err.obj
 0002:0000e48c       ??_C@_0BC@FCANIOOH@d2i_ASN1_UINTEGER?$AA@ 1009748c     libeay32_EM.0.9.8e:asn1_err.obj
 0002:0000e4a0       ??_C@_0BE@KEADNCBD@d2i_ASN1_type_bytes?$AA@ 100974a0     libeay32_EM.0.9.8e:asn1_err.obj
 0002:0000e4b4       ??_C@_0N@KHHKMCDG@d2i_ASN1_SET?$AA@ 100974b4     libeay32_EM.0.9.8e:asn1_err.obj
 0002:0000e4c4       ??_C@_0BA@LJAFIEM@d2i_ASN1_OBJECT?$AA@ 100974c4     libeay32_EM.0.9.8e:asn1_err.obj
 0002:0000e4d4       ??_C@_0BB@PLBPPAFJ@D2I_ASN1_INTEGER?$AA@ 100974d4     libeay32_EM.0.9.8e:asn1_err.obj
 0002:0000e4e8       ??_C@_0BA@EOIJNLDK@d2i_ASN1_HEADER?$AA@ 100974e8     libeay32_EM.0.9.8e:asn1_err.obj
 0002:0000e4f8       ??_C@_0BJ@FOGLHODI@D2I_ASN1_GENERALIZEDTIME?$AA@ 100974f8     libeay32_EM.0.9.8e:asn1_err.obj
 0002:0000e514       ??_C@_0P@LNLNJINM@d2i_ASN1_bytes?$AA@ 10097514     libeay32_EM.0.9.8e:asn1_err.obj
 0002:0000e524       ??_C@_0BB@IJBCEGPM@d2i_ASN1_BOOLEAN?$AA@ 10097524     libeay32_EM.0.9.8e:asn1_err.obj
 0002:0000e538       ??_C@_0BE@KOGEEPAO@D2I_ASN1_BIT_STRING?$AA@ 10097538     libeay32_EM.0.9.8e:asn1_err.obj
 0002:0000e54c       ??_C@_0N@PPLGMNKG@COLLECT_DATA?$AA@ 1009754c     libeay32_EM.0.9.8e:asn1_err.obj
 0002:0000e55c       ??_C@_0BA@PGGJKADJ@c2i_ASN1_OBJECT?$AA@ 1009755c     libeay32_EM.0.9.8e:asn1_err.obj
 0002:0000e56c       ??_C@_0BB@HNOLIAHG@c2i_ASN1_INTEGER?$AA@ 1009756c     libeay32_EM.0.9.8e:asn1_err.obj
 0002:0000e580       ??_C@_0BE@IJKABKG@c2i_ASN1_BIT_STRING?$AA@ 10097580     libeay32_EM.0.9.8e:asn1_err.obj
 0002:0000e594       ??_C@_0BD@HOPLIKO@BN_to_ASN1_INTEGER?$AA@ 10097594     libeay32_EM.0.9.8e:asn1_err.obj
 0002:0000e5a8       ??_C@_0BG@JOMKFIC@BN_to_ASN1_ENUMERATED?$AA@ 100975a8     libeay32_EM.0.9.8e:asn1_err.obj
 0002:0000e5c0       ??_C@_09MBGLCMPO@BITSTR_CB?$AA@ 100975c0     libeay32_EM.0.9.8e:asn1_err.obj
 0002:0000e5cc       ??_C@_0M@FLJFHODB@ASN1_verify?$AA@ 100975cc     libeay32_EM.0.9.8e:asn1_err.obj
 0002:0000e5d8       ??_C@_0BB@IOFLGDHP@ASN1_UTCTIME_set?$AA@ 100975d8     libeay32_EM.0.9.8e:asn1_err.obj
 0002:0000e5ec       ??_C@_0BD@PPGFNCOC@ASN1_unpack_string?$AA@ 100975ec     libeay32_EM.0.9.8e:asn1_err.obj
 0002:0000e600       ??_C@_0BK@BAIAADBG@ASN1_TYPE_get_octetstring?$AA@ 10097600     libeay32_EM.0.9.8e:asn1_err.obj
 0002:0000e61c       ??_C@_0BO@BBFILFPI@ASN1_TYPE_get_int_octetstring?$AA@ 1009761c     libeay32_EM.0.9.8e:asn1_err.obj
 0002:0000e63c       ??_C@_0O@JLLIECHM@ASN1_TIME_set?$AA@ 1009763c     libeay32_EM.0.9.8e:asn1_err.obj
 0002:0000e64c       ??_C@_0BI@IBDIODGE@ASN1_TEMPLATE_NOEXP_D2I?$AA@ 1009764c     libeay32_EM.0.9.8e:asn1_err.obj
 0002:0000e664       ??_C@_0BC@MAPIMCN@ASN1_TEMPLATE_NEW?$AA@ 10097664     libeay32_EM.0.9.8e:asn1_err.obj
 0002:0000e678       ??_C@_0BF@KIABBLMP@ASN1_TEMPLATE_EX_D2I?$AA@ 10097678     libeay32_EM.0.9.8e:asn1_err.obj
 0002:0000e690       ??_C@_0BF@PEOOGBEK@ASN1_STRING_type_new?$AA@ 10097690     libeay32_EM.0.9.8e:asn1_err.obj
 0002:0000e6a8       ??_C@_0BG@HPBLJLKM@ASN1_STRING_TABLE_add?$AA@ 100976a8     libeay32_EM.0.9.8e:asn1_err.obj
 0002:0000e6c0       ??_C@_0BA@OJKOPFKM@ASN1_STRING_set?$AA@ 100976c0     libeay32_EM.0.9.8e:asn1_err.obj
 0002:0000e6d0       ??_C@_0O@MDHEIEJD@ASN1_STR2TYPE?$AA@ 100976d0     libeay32_EM.0.9.8e:asn1_err.obj
 0002:0000e6e0       ??_C@_09KHLDPLKF@ASN1_sign?$AA@ 100976e0     libeay32_EM.0.9.8e:asn1_err.obj
 0002:0000e6ec       ??_C@_0BA@BDDKOFAM@ASN1_seq_unpack?$AA@ 100976ec     libeay32_EM.0.9.8e:asn1_err.obj
 0002:0000e6fc       ??_C@_0O@GOCJGBDJ@ASN1_seq_pack?$AA@ 100976fc     libeay32_EM.0.9.8e:asn1_err.obj
 0002:0000e70c       ??_C@_0BD@LCDDBKEK@ASN1_PKCS5_PBE_SET?$AA@ 1009770c     libeay32_EM.0.9.8e:asn1_err.obj
 0002:0000e720       ??_C@_0O@JODPNGBN@ASN1_PCTX_NEW?$AA@ 10097720     libeay32_EM.0.9.8e:asn1_err.obj
 0002:0000e730       ??_C@_0BB@PMAOEIM@ASN1_pack_string?$AA@ 10097730     libeay32_EM.0.9.8e:asn1_err.obj
 0002:0000e744       ??_C@_0BA@EKIOGKFN@ASN1_OBJECT_new?$AA@ 10097744     libeay32_EM.0.9.8e:asn1_err.obj
 0002:0000e754       ??_C@_0BE@MAJEFFDP@ASN1_mbstring_ncopy?$AA@ 10097754     libeay32_EM.0.9.8e:asn1_err.obj
 0002:0000e768       ??_C@_0BB@HPDEMCFL@ASN1_item_verify?$AA@ 10097768     libeay32_EM.0.9.8e:asn1_err.obj
 0002:0000e77c       ??_C@_0BB@OFFAOBLC@ASN1_item_unpack?$AA@ 1009777c     libeay32_EM.0.9.8e:asn1_err.obj
 0002:0000e790       ??_C@_0P@GCFCEBPI@ASN1_item_sign?$AA@ 10097790     libeay32_EM.0.9.8e:asn1_err.obj
 0002:0000e7a0       ??_C@_0P@JKDIEPFO@ASN1_item_pack?$AA@ 100977a0     libeay32_EM.0.9.8e:asn1_err.obj
 0002:0000e7b0       ??_C@_0BB@BEALGICF@ASN1_item_i2d_fp?$AA@ 100977b0     libeay32_EM.0.9.8e:asn1_err.obj
 0002:0000e7c4       ??_C@_0BC@DFOAKHOP@ASN1_item_i2d_bio?$AA@ 100977c4     libeay32_EM.0.9.8e:asn1_err.obj
 0002:0000e7d8       ??_C@_0BB@NCKAJAHC@ASN1_ITEM_EX_D2I?$AA@ 100977d8     libeay32_EM.0.9.8e:asn1_err.obj
 0002:0000e7ec       ??_C@_0BJ@GMGFBPBH@ASN1_ITEM_EX_COMBINE_NEW?$AA@ 100977ec     libeay32_EM.0.9.8e:asn1_err.obj
 0002:0000e808       ??_C@_0O@PICHNKKH@ASN1_item_dup?$AA@ 10097808     libeay32_EM.0.9.8e:asn1_err.obj
 0002:0000e818       ??_C@_0BB@INEMMNFE@ASN1_item_d2i_fp?$AA@ 10097818     libeay32_EM.0.9.8e:asn1_err.obj
 0002:0000e82c       ??_C@_0BD@EHPGDINP@ASN1_INTEGER_to_BN?$AA@ 1009782c     libeay32_EM.0.9.8e:asn1_err.obj
 0002:0000e840       ??_C@_0BB@INGPPNJI@ASN1_INTEGER_set?$AA@ 10097840     libeay32_EM.0.9.8e:asn1_err.obj
 0002:0000e854       ??_C@_0M@DAKKNEEP@ASN1_i2d_fp?$AA@ 10097854     libeay32_EM.0.9.8e:asn1_err.obj
 0002:0000e860       ??_C@_0N@JIKDIOBF@ASN1_i2d_bio?$AA@ 10097860     libeay32_EM.0.9.8e:asn1_err.obj
 0002:0000e870       ??_C@_0BA@HKBPCMMD@ASN1_HEADER_new?$AA@ 10097870     libeay32_EM.0.9.8e:asn1_err.obj
 0002:0000e880       ??_C@_0BA@JLIGACBL@ASN1_get_object?$AA@ 10097880     libeay32_EM.0.9.8e:asn1_err.obj
 0002:0000e890       ??_C@_0BB@KDPFLPEI@ASN1_generate_v3?$AA@ 10097890     libeay32_EM.0.9.8e:asn1_err.obj
 0002:0000e8a4       ??_C@_0BJ@KHKMKKCA@ASN1_GENERALIZEDTIME_set?$AA@ 100978a4     libeay32_EM.0.9.8e:asn1_err.obj
 0002:0000e8c0       ??_C@_0O@NNCENJDM@ASN1_FIND_END?$AA@ 100978c0     libeay32_EM.0.9.8e:asn1_err.obj
 0002:0000e8d0       ??_C@_0M@DINHMBPN@ASN1_EX_C2I?$AA@ 100978d0     libeay32_EM.0.9.8e:asn1_err.obj
 0002:0000e8dc       ??_C@_0BG@DAFILAFG@ASN1_ENUMERATED_to_BN?$AA@ 100978dc     libeay32_EM.0.9.8e:asn1_err.obj
 0002:0000e8f4       ??_C@_0BE@IJNOKPHE@ASN1_ENUMERATED_set?$AA@ 100978f4     libeay32_EM.0.9.8e:asn1_err.obj
 0002:0000e908       ??_C@_08KDKGDJBP@ASN1_dup?$AA@ 10097908     libeay32_EM.0.9.8e:asn1_err.obj
 0002:0000e914       ??_C@_0M@JJPCPNMI@ASN1_DO_ADB?$AA@ 10097914     libeay32_EM.0.9.8e:asn1_err.obj
 0002:0000e920       ??_C@_0M@JBIDILDB@ASN1_digest?$AA@ 10097920     libeay32_EM.0.9.8e:asn1_err.obj
 0002:0000e92c       ??_C@_0BC@HGCNEDND@ASN1_D2I_READ_BIO?$AA@ 1009792c     libeay32_EM.0.9.8e:asn1_err.obj
 0002:0000e940       ??_C@_0M@KJONHBDO@ASN1_d2i_fp?$AA@ 10097940     libeay32_EM.0.9.8e:asn1_err.obj
 0002:0000e94c       ??_C@_0BG@BGPEICDG@ASN1_D2I_EX_PRIMITIVE?$AA@ 1009794c     libeay32_EM.0.9.8e:asn1_err.obj
 0002:0000e964       ??_C@_0N@IFJIJAOA@ASN1_COLLECT?$AA@ 10097964     libeay32_EM.0.9.8e:asn1_err.obj
 0002:0000e974       ??_C@_0BH@GHEGGMCL@ASN1_COLLATE_PRIMITIVE?$AA@ 10097974     libeay32_EM.0.9.8e:asn1_err.obj
 0002:0000e98c       ??_C@_0BA@FMGKINFP@ASN1_CHECK_TLEN?$AA@ 1009798c     libeay32_EM.0.9.8e:asn1_err.obj
 0002:0000e99c       ??_C@_07OHDJOKAP@ASN1_CB?$AA@ 1009799c     libeay32_EM.0.9.8e:asn1_err.obj
 0002:0000e9a4       ??_C@_0BI@BKJIJOJH@ASN1_BIT_STRING_set_bit?$AA@ 100979a4     libeay32_EM.0.9.8e:asn1_err.obj
 0002:0000e9bc       ??_C@_0L@GHOFBHJM@APPEND_EXP?$AA@ 100979bc     libeay32_EM.0.9.8e:asn1_err.obj
 0002:0000e9c8       ??_C@_0BA@HHEJCDFM@a2i_ASN1_STRING?$AA@ 100979c8     libeay32_EM.0.9.8e:asn1_err.obj
 0002:0000e9d8       ??_C@_0BB@KJNHBALB@a2i_ASN1_INTEGER?$AA@ 100979d8     libeay32_EM.0.9.8e:asn1_err.obj
 0002:0000e9ec       ??_C@_0BE@FAEKMPBO@a2i_ASN1_ENUMERATED?$AA@ 100979ec     libeay32_EM.0.9.8e:asn1_err.obj
 0002:0000ea00       ??_C@_0BA@MGDDPFAB@a2d_ASN1_OBJECT?$AA@ 10097a00     libeay32_EM.0.9.8e:asn1_err.obj
 0002:0000ea10       ??_C@_0BC@LGGDOKM@wrong?5lookup?5type?$AA@ 10097a10     libeay32_EM.0.9.8e:x509_err.obj
 0002:0000ea24       ??_C@_0BG@BLGKMDGK@unsupported?5algorithm?$AA@ 10097a24     libeay32_EM.0.9.8e:x509_err.obj
 0002:0000ea3c       ??_C@_0BB@MKMAIEDB@unknown?5trust?5id?$AA@ 10097a3c     libeay32_EM.0.9.8e:x509_err.obj
 0002:0000ea50       ??_C@_0BD@OMLBEGJA@unknown?5purpose?5id?$AA@ 10097a50     libeay32_EM.0.9.8e:x509_err.obj
 0002:0000ea64       ??_C@_0BB@DOJEMIBI@unknown?5key?5type?$AA@ 10097a64     libeay32_EM.0.9.8e:x509_err.obj
 0002:0000ea78       ??_C@_0BP@NPEJCEFK@unable?5to?5get?5certs?5public?5key?$AA@ 10097a78     libeay32_EM.0.9.8e:x509_err.obj
 0002:0000ea98       ??_C@_0CD@IFPIKENM@unable?5to?5find?5parameters?5in?5cha@ 10097a98     libeay32_EM.0.9.8e:x509_err.obj
 0002:0000eabc       ??_C@_0N@HBABGHDD@should?5retry?$AA@ 10097abc     libeay32_EM.0.9.8e:x509_err.obj
 0002:0000eacc       ??_C@_0BN@FFJPEMJE@no?5cert?5set?5for?5us?5to?5verify?$AA@ 10097acc     libeay32_EM.0.9.8e:x509_err.obj
 0002:0000eaec       ??_C@_0BB@NCCHLMLI@loading?5defaults?$AA@ 10097aec     libeay32_EM.0.9.8e:x509_err.obj
 0002:0000eb00       ??_C@_0BB@EOGOJDLC@loading?5cert?5dir?$AA@ 10097b00     libeay32_EM.0.9.8e:x509_err.obj
 0002:0000eb14       ??_C@_0BE@OFOHOJCA@key?5values?5mismatch?$AA@ 10097b14     libeay32_EM.0.9.8e:x509_err.obj
 0002:0000eb28       ??_C@_0BC@KHIFLHIK@key?5type?5mismatch?$AA@ 10097b28     libeay32_EM.0.9.8e:x509_err.obj
 0002:0000eb3c       ??_C@_0O@FAFEMPKC@invalid?5trust?$AA@ 10097b3c     libeay32_EM.0.9.8e:x509_err.obj
 0002:0000eb4c       ??_C@_0BD@EICHIIFO@invalid?5field?5name?$AA@ 10097b4c     libeay32_EM.0.9.8e:x509_err.obj
 0002:0000eb60       ??_C@_0BC@BHJBNJAG@invalid?5directory?$AA@ 10097b60     libeay32_EM.0.9.8e:x509_err.obj
 0002:0000eb74       ??_C@_0N@BPKBFJKI@err?5asn1?5lib?$AA@ 10097b74     libeay32_EM.0.9.8e:x509_err.obj
 0002:0000eb84       ??_C@_0BL@PBNJDLDJ@cert?5already?5in?5hash?5table?$AA@ 10097b84     libeay32_EM.0.9.8e:x509_err.obj
 0002:0000eba0       ??_C@_0BC@JOEACAAF@cant?5check?5dh?5key?$AA@ 10097ba0     libeay32_EM.0.9.8e:x509_err.obj
 0002:0000ebb4       ??_C@_0BE@KBNKALIF@base64?5decode?5error?$AA@ 10097bb4     libeay32_EM.0.9.8e:x509_err.obj
 0002:0000ebc8       ??_C@_0BC@ICNCOGNN@bad?5x509?5filetype?$AA@ 10097bc8     libeay32_EM.0.9.8e:x509_err.obj
 0002:0000ebdc       ??_C@_0BB@ECODCNHD@X509_verify_cert?$AA@ 10097bdc     libeay32_EM.0.9.8e:x509_err.obj
 0002:0000ebf0       ??_C@_0P@JBMPNPNG@X509_TRUST_set?$AA@ 10097bf0     libeay32_EM.0.9.8e:x509_err.obj
 0002:0000ec00       ??_C@_0P@CANPDIKE@X509_TRUST_add?$AA@ 10097c00     libeay32_EM.0.9.8e:x509_err.obj
 0002:0000ec10       ??_C@_0BB@NLPDCJDM@X509_to_X509_REQ?$AA@ 10097c10     libeay32_EM.0.9.8e:x509_err.obj
 0002:0000ec24       ??_C@_0BP@KJILIOLI@X509_STORE_CTX_purpose_inherit?$AA@ 10097c24     libeay32_EM.0.9.8e:x509_err.obj
 0002:0000ec44       ??_C@_0BD@NAAKLPIL@X509_STORE_CTX_new?$AA@ 10097c44     libeay32_EM.0.9.8e:x509_err.obj
 0002:0000ec58       ??_C@_0BE@ECHADJIO@X509_STORE_CTX_init?$AA@ 10097c58     libeay32_EM.0.9.8e:x509_err.obj
 0002:0000ec6c       ??_C@_0BL@BBMOOAME@X509_STORE_CTX_get1_issuer?$AA@ 10097c6c     libeay32_EM.0.9.8e:x509_err.obj
 0002:0000ec88       ??_C@_0BD@PCLHBOJG@X509_STORE_add_crl?$AA@ 10097c88     libeay32_EM.0.9.8e:x509_err.obj
 0002:0000ec9c       ??_C@_0BE@IJLLNMMB@X509_STORE_add_cert?$AA@ 10097c9c     libeay32_EM.0.9.8e:x509_err.obj
 0002:0000ecb0       ??_C@_0BB@DHKMDCNJ@X509_REQ_to_X509?$AA@ 10097cb0     libeay32_EM.0.9.8e:x509_err.obj
 0002:0000ecc4       ??_C@_0BC@BCPDEBLL@X509_REQ_print_fp?$AA@ 10097cc4     libeay32_EM.0.9.8e:x509_err.obj
 0002:0000ecd8       ??_C@_0BC@NIGMHFOK@X509_REQ_print_ex?$AA@ 10097cd8     libeay32_EM.0.9.8e:x509_err.obj
 0002:0000ecec       ??_C@_0BL@BBAELMEH@X509_REQ_check_private_key?$AA@ 10097cec     libeay32_EM.0.9.8e:x509_err.obj
 0002:0000ed08       ??_C@_0BA@GKNPBOHH@X509_PUBKEY_set?$AA@ 10097d08     libeay32_EM.0.9.8e:x509_err.obj
 0002:0000ed18       ??_C@_0BA@LFKENOLP@X509_PUBKEY_get?$AA@ 10097d18     libeay32_EM.0.9.8e:x509_err.obj
 0002:0000ed28       ??_C@_0BB@FBMLCAMI@X509_print_ex_fp?$AA@ 10097d28     libeay32_EM.0.9.8e:x509_err.obj
 0002:0000ed3c       ??_C@_0BA@JLIECJBK@X509_NAME_print?$AA@ 10097d3c     libeay32_EM.0.9.8e:x509_err.obj
 0002:0000ed4c       ??_C@_0BC@CMIEJJP@X509_NAME_oneline?$AA@ 10097d4c     libeay32_EM.0.9.8e:x509_err.obj
 0002:0000ed60       ??_C@_0BL@LBCOMPFN@X509_NAME_ENTRY_set_object?$AA@ 10097d60     libeay32_EM.0.9.8e:x509_err.obj
 0002:0000ed7c       ??_C@_0BO@OEKCNPAD@X509_NAME_ENTRY_create_by_txt?$AA@ 10097d7c     libeay32_EM.0.9.8e:x509_err.obj
 0002:0000ed9c       ??_C@_0BO@IBNLHOJC@X509_NAME_ENTRY_create_by_NID?$AA@ 10097d9c     libeay32_EM.0.9.8e:x509_err.obj
 0002:0000edbc       ??_C@_0BE@BBPAOGFF@X509_NAME_add_entry?$AA@ 10097dbc     libeay32_EM.0.9.8e:x509_err.obj
 0002:0000edd0       ??_C@_0BD@INIDJHGH@X509_load_crl_file?$AA@ 10097dd0     libeay32_EM.0.9.8e:x509_err.obj
 0002:0000ede4       ??_C@_0BE@DONBIDEA@X509_load_cert_file?$AA@ 10097de4     libeay32_EM.0.9.8e:x509_err.obj
 0002:0000edf8       ??_C@_0BI@OGJJMPCK@X509_load_cert_crl_file?$AA@ 10097df8     libeay32_EM.0.9.8e:x509_err.obj
 0002:0000ee10       ??_C@_0BL@MNBNHJHC@X509_get_pubkey_parameters?$AA@ 10097e10     libeay32_EM.0.9.8e:x509_err.obj
 0002:0000ee2c       ??_C@_0BN@PKALOJGD@X509_EXTENSION_create_by_OBJ?$AA@ 10097e2c     libeay32_EM.0.9.8e:x509_err.obj
 0002:0000ee4c       ??_C@_0BN@NAGBEMGJ@X509_EXTENSION_create_by_NID?$AA@ 10097e4c     libeay32_EM.0.9.8e:x509_err.obj
 0002:0000ee6c       ??_C@_0BC@GGIALDFL@X509_CRL_print_fp?$AA@ 10097e6c     libeay32_EM.0.9.8e:x509_err.obj
 0002:0000ee80       ??_C@_0BH@NDKJLKDD@X509_check_private_key?$AA@ 10097e80     libeay32_EM.0.9.8e:x509_err.obj
 0002:0000ee98       ??_C@_0BJ@IBAEDLOI@X509_ATTRIBUTE_set1_data?$AA@ 10097e98     libeay32_EM.0.9.8e:x509_err.obj
 0002:0000eeb4       ??_C@_0BJ@JDGBBMO@X509_ATTRIBUTE_get0_data?$AA@ 10097eb4     libeay32_EM.0.9.8e:x509_err.obj
 0002:0000eed0       ??_C@_0BN@BBEGJLKP@X509_ATTRIBUTE_create_by_txt?$AA@ 10097ed0     libeay32_EM.0.9.8e:x509_err.obj
 0002:0000eef0       ??_C@_0BN@FOFFJPDE@X509_ATTRIBUTE_create_by_OBJ?$AA@ 10097ef0     libeay32_EM.0.9.8e:x509_err.obj
 0002:0000ef10       ??_C@_0BN@HEDPDKDO@X509_ATTRIBUTE_create_by_NID?$AA@ 10097f10     libeay32_EM.0.9.8e:x509_err.obj
 0002:0000ef30       ??_C@_0P@KHNPGPEM@X509v3_add_ext?$AA@ 10097f30     libeay32_EM.0.9.8e:x509_err.obj
 0002:0000ef40       ??_C@_0BB@FBCHBIJK@X509at_add1_attr?$AA@ 10097f40     libeay32_EM.0.9.8e:x509_err.obj
 0002:0000ef54       ??_C@_0BJ@KPNMIPMN@NETSCAPE_SPKI_b64_encode?$AA@ 10097f54     libeay32_EM.0.9.8e:x509_err.obj
 0002:0000ef70       ??_C@_0BJ@GDGMHELK@NETSCAPE_SPKI_b64_decode?$AA@ 10097f70     libeay32_EM.0.9.8e:x509_err.obj
 0002:0000ef8c       ??_C@_0BE@GHOMHOGE@GET_CERT_BY_SUBJECT?$AA@ 10097f8c     libeay32_EM.0.9.8e:x509_err.obj
 0002:0000efa0       ??_C@_08INAAGCJL@DIR_CTRL?$AA@ 10097fa0     libeay32_EM.0.9.8e:x509_err.obj
 0002:0000efac       ??_C@_0N@HLJBNGNN@CHECK_POLICY?$AA@ 10097fac     libeay32_EM.0.9.8e:x509_err.obj
 0002:0000efbc       ??_C@_0N@HLEKGBLM@BY_FILE_CTRL?$AA@ 10097fbc     libeay32_EM.0.9.8e:x509_err.obj
 0002:0000efcc       ??_C@_0N@HBLPJFKJ@ADD_CERT_DIR?$AA@ 10097fcc     libeay32_EM.0.9.8e:x509_err.obj
 0002:0000efdc       ??_C@_0BC@MALNKACF@modulus?5too?5large?$AA@ 10097fdc     libeay32_EM.0.9.8e:dsa_err.obj
 0002:0000eff0       ??_C@_0M@GGMKMBAH@bad?5q?5value?$AA@ 10097ff0     libeay32_EM.0.9.8e:dsa_err.obj
 0002:0000effc       ??_C@_06JBNHANLM@SIG_CB?$AA@ 10097ffc     libeay32_EM.0.9.8e:dsa_err.obj
 0002:0000f004       ??_C@_0M@OMFGMGFG@i2d_DSA_SIG?$AA@ 10098004     libeay32_EM.0.9.8e:dsa_err.obj
 0002:0000f010       ??_C@_0L@EFDPOKOI@DSA_verify?$AA@ 10098010     libeay32_EM.0.9.8e:dsa_err.obj
 0002:0000f01c       ??_C@_0M@NNDPCMII@DSA_SIG_new?$AA@ 1009801c     libeay32_EM.0.9.8e:dsa_err.obj
 0002:0000f028       ??_C@_0P@DKMFDODF@DSA_sign_setup?$AA@ 10098028     libeay32_EM.0.9.8e:dsa_err.obj
 0002:0000f038       ??_C@_08BADPDAIK@DSA_sign?$AA@ 10098038     libeay32_EM.0.9.8e:dsa_err.obj
 0002:0000f044       ??_C@_0N@FHNMHEON@DSA_print_fp?$AA@ 10098044     libeay32_EM.0.9.8e:dsa_err.obj
 0002:0000f054       ??_C@_09DHFFEKPC@DSA_print?$AA@ 10098054     libeay32_EM.0.9.8e:dsa_err.obj
 0002:0000f060       ??_C@_0P@DCBPLEPO@DSA_new_method?$AA@ 10098060     libeay32_EM.0.9.8e:dsa_err.obj
 0002:0000f070       ??_C@_0O@PFFLHJPG@DSA_do_verify?$AA@ 10098070     libeay32_EM.0.9.8e:dsa_err.obj
 0002:0000f080       ??_C@_0M@BALNHNHG@DSA_do_sign?$AA@ 10098080     libeay32_EM.0.9.8e:dsa_err.obj
 0002:0000f08c       ??_C@_0BD@IOGFPALM@DSAparams_print_fp?$AA@ 1009808c     libeay32_EM.0.9.8e:dsa_err.obj
 0002:0000f0a0       ??_C@_0BA@KGFLHLGF@DSAparams_print?$AA@ 100980a0     libeay32_EM.0.9.8e:dsa_err.obj
 0002:0000f0b0       ??_C@_0M@IHAHEMAI@d2i_DSA_SIG?$AA@ 100980b0     libeay32_EM.0.9.8e:dsa_err.obj
 0002:0000f0bc       ??_C@_0BH@MFJKMGEH@unsupported?5encryption?$AA@ 100980bc     libeay32_EM.0.9.8e:pem_err.obj
 0002:0000f0d4       ??_C@_0N@BPCBMEGI@short?5header?$AA@ 100980d4     libeay32_EM.0.9.8e:pem_err.obj
 0002:0000f0e4       ??_C@_08HMALDALC@read?5key?$AA@ 100980e4     libeay32_EM.0.9.8e:pem_err.obj
 0002:0000f0f0       ??_C@_0BC@BIPPFHLM@public?5key?5no?5rsa?$AA@ 100980f0     libeay32_EM.0.9.8e:pem_err.obj
 0002:0000f104       ??_C@_0BK@CGJEFKNB@problems?5getting?5password?$AA@ 10098104     libeay32_EM.0.9.8e:pem_err.obj
 0002:0000f120       ??_C@_0O@DKBLDABL@no?5start?5line?$AA@ 10098120     libeay32_EM.0.9.8e:pem_err.obj
 0002:0000f130       ??_C@_0O@CLGKLHJP@not?5proc?5type?$AA@ 10098130     libeay32_EM.0.9.8e:pem_err.obj
 0002:0000f140       ??_C@_0O@BJICLJJL@not?5encrypted?$AA@ 10098140     libeay32_EM.0.9.8e:pem_err.obj
 0002:0000f150       ??_C@_0N@KJIDIIOD@not?5dek?5info?$AA@ 10098150     libeay32_EM.0.9.8e:pem_err.obj
 0002:0000f160       ??_C@_0BN@CDIOJAJE@error?5converting?5private?5key?$AA@ 10098160     libeay32_EM.0.9.8e:pem_err.obj
 0002:0000f180       ??_C@_0N@CABOMBAE@bad?5iv?5chars?$AA@ 10098180     libeay32_EM.0.9.8e:pem_err.obj
 0002:0000f190       ??_C@_0N@GJGMFAMK@bad?5end?5line?$AA@ 10098190     libeay32_EM.0.9.8e:pem_err.obj
 0002:0000f1a0       ??_C@_0M@CCMJMLK@bad?5decrypt?$AA@ 100981a0     libeay32_EM.0.9.8e:pem_err.obj
 0002:0000f1ac       ??_C@_0BC@FIJDAKN@bad?5base64?5decode?$AA@ 100981ac     libeay32_EM.0.9.8e:pem_err.obj
 0002:0000f1c0       ??_C@_0BI@DHEEHMMN@PEM_X509_INFO_write_bio?$AA@ 100981c0     libeay32_EM.0.9.8e:pem_err.obj
 0002:0000f1d8       ??_C@_0BH@POEFLIJP@PEM_X509_INFO_read_bio?$AA@ 100981d8     libeay32_EM.0.9.8e:pem_err.obj
 0002:0000f1f0       ??_C@_0BD@DEKDGILE@PEM_X509_INFO_read?$AA@ 100981f0     libeay32_EM.0.9.8e:pem_err.obj
 0002:0000f204       ??_C@_0O@CHBCLEEH@PEM_write_bio?$AA@ 10098204     libeay32_EM.0.9.8e:pem_err.obj
 0002:0000f214       ??_C@_09MOAIHANK@PEM_write?$AA@ 10098214     libeay32_EM.0.9.8e:pem_err.obj
 0002:0000f220       ??_C@_0O@FJKEJNIO@PEM_SignFinal?$AA@ 10098220     libeay32_EM.0.9.8e:pem_err.obj
 0002:0000f230       ??_C@_0N@HGOGKII@PEM_SealInit?$AA@ 10098230     libeay32_EM.0.9.8e:pem_err.obj
 0002:0000f240       ??_C@_0O@OOGAHGDE@PEM_SealFinal?$AA@ 10098240     libeay32_EM.0.9.8e:pem_err.obj
 0002:0000f250       ??_C@_0BE@FKKHCPGB@PEM_READ_PRIVATEKEY?$AA@ 10098250     libeay32_EM.0.9.8e:pem_err.obj
 0002:0000f264       ??_C@_0BI@MIECOFDA@PEM_READ_BIO_PRIVATEKEY?$AA@ 10098264     libeay32_EM.0.9.8e:pem_err.obj
 0002:0000f27c       ??_C@_0N@HCPHGIAF@PEM_read_bio?$AA@ 1009827c     libeay32_EM.0.9.8e:pem_err.obj
 0002:0000f28c       ??_C@_08BFLDHDBP@PEM_read?$AA@ 1009828c     libeay32_EM.0.9.8e:pem_err.obj
 0002:0000f298       ??_C@_0M@ELMMDKMC@PEM_PK8PKEY?$AA@ 10098298     libeay32_EM.0.9.8e:pem_err.obj
 0002:0000f2a4       ??_C@_0BI@EHMJGDHN@PEM_get_EVP_CIPHER_INFO?$AA@ 100982a4     libeay32_EM.0.9.8e:pem_err.obj
 0002:0000f2bc       ??_C@_0CA@LGAAOEPD@PEM_F_PEM_WRITE_PKCS8PRIVATEKEY?$AA@ 100982bc     libeay32_EM.0.9.8e:pem_err.obj
 0002:0000f2dc       ??_C@_0O@JINEELIJ@PEM_do_header?$AA@ 100982dc     libeay32_EM.0.9.8e:pem_err.obj
 0002:0000f2ec       ??_C@_0BB@HPAACPJ@PEM_def_callback?$AA@ 100982ec     libeay32_EM.0.9.8e:pem_err.obj
 0002:0000f300       ??_C@_0BD@OMDPFNGK@PEM_ASN1_write_bio?$AA@ 10098300     libeay32_EM.0.9.8e:pem_err.obj
 0002:0000f314       ??_C@_0P@IAMHDFGD@PEM_ASN1_write?$AA@ 10098314     libeay32_EM.0.9.8e:pem_err.obj
 0002:0000f324       ??_C@_0BC@DOKNMJLF@PEM_ASN1_read_bio?$AA@ 10098324     libeay32_EM.0.9.8e:pem_err.obj
 0002:0000f338       ??_C@_0O@NOHFJOPN@PEM_ASN1_read?$AA@ 10098338     libeay32_EM.0.9.8e:pem_err.obj
 0002:0000f348       ??_C@_07DPBPIGIN@LOAD_IV?$AA@ 10098348     libeay32_EM.0.9.8e:pem_err.obj
 0002:0000f350       ??_C@_0O@NDAGLHK@DO_PK8PKEY_FP?$AA@ 10098350     libeay32_EM.0.9.8e:pem_err.obj
 0002:0000f360       ??_C@_0L@KCJOBILA@DO_PK8PKEY?$AA@ 10098360     libeay32_EM.0.9.8e:pem_err.obj
 0002:0000f36c       ??_C@_0BH@EPJFGPLK@d2i_PKCS8PrivateKey_fp?$AA@ 1009836c     libeay32_EM.0.9.8e:pem_err.obj
 0002:0000f384       ??_C@_0BI@FFALLHDN@d2i_PKCS8PrivateKey_bio?$AA@ 10098384     libeay32_EM.0.9.8e:pem_err.obj
 0002:0000f39c       ??_C@_0L@ODBGAEPJ@OBJ_nid2sn?$AA@ 1009839c     libeay32_EM.0.9.8e:obj_err.obj
 0002:0000f3a8       ??_C@_0M@EIEFMONC@OBJ_nid2obj?$AA@ 100983a8     libeay32_EM.0.9.8e:obj_err.obj
 0002:0000f3b4       ??_C@_0L@PEGMOALE@OBJ_nid2ln?$AA@ 100983b4     libeay32_EM.0.9.8e:obj_err.obj
 0002:0000f3c0       ??_C@_0BD@EBGMNDBO@OBJ_NAME_new_index?$AA@ 100983c0     libeay32_EM.0.9.8e:obj_err.obj
 0002:0000f3d4       ??_C@_07GEDFFGIO@OBJ_dup?$AA@ 100983d4     libeay32_EM.0.9.8e:obj_err.obj
 0002:0000f3dc       ??_C@_0L@OJLDNBND@OBJ_create?$AA@ 100983dc     libeay32_EM.0.9.8e:obj_err.obj
 0002:0000f3e8       ??_C@_0P@PNBAKKGP@OBJ_add_object?$AA@ 100983e8     libeay32_EM.0.9.8e:obj_err.obj
 0002:0000f3f8       ??_C@_0M@PMIFCMGN@BUF_strndup?$AA@ 100983f8     libeay32_EM.0.9.8e:buf_err.obj
 0002:0000f404       ??_C@_0L@GDIPLNAB@BUF_strdup?$AA@ 10098404     libeay32_EM.0.9.8e:buf_err.obj
 0002:0000f410       ??_C@_0M@DHGBDCFJ@BUF_MEM_new?$AA@ 10098410     libeay32_EM.0.9.8e:buf_err.obj
 0002:0000f41c       ??_C@_0BD@IAEPNGDK@BUF_MEM_grow_clean?$AA@ 1009841c     libeay32_EM.0.9.8e:buf_err.obj
 0002:0000f430       ??_C@_0N@KABFJIMM@BUF_MEM_grow?$AA@ 10098430     libeay32_EM.0.9.8e:buf_err.obj
 0002:0000f440       ??_C@_0L@HOFEILPP@BUF_memdup?$AA@ 10098440     libeay32_EM.0.9.8e:buf_err.obj
 0002:0000f44c       ??_C@_0BG@NPKECJFG@wrong?5public?5key?5type?$AA@ 1009844c     libeay32_EM.0.9.8e:evp_err.obj
 0002:0000f464       ??_C@_0BJ@GMMEOCIA@wrong?5final?5block?5length?$AA@ 10098464     libeay32_EM.0.9.8e:evp_err.obj
 0002:0000f480       ??_C@_0BG@HNPLFI@unsupported?5salt?5type?$AA@ 10098480     libeay32_EM.0.9.8e:evp_err.obj
 0002:0000f498       ??_C@_0CC@DLEFGHNG@unsupported?5private?5key?5algorith@ 10098498     libeay32_EM.0.9.8e:evp_err.obj
 0002:0000f4bc       ??_C@_0BA@KAOPPHHA@unsupported?5prf?$AA@ 100984bc     libeay32_EM.0.9.8e:evp_err.obj
 0002:0000f4cc       ??_C@_0BF@JJLLLINI@unsupported?5key?5size?$AA@ 100984cc     libeay32_EM.0.9.8e:evp_err.obj
 0002:0000f4e4       ??_C@_0CE@LAMCIFFJ@unsupported?5key?5derivation?5funct@ 100984e4     libeay32_EM.0.9.8e:evp_err.obj
 0002:0000f508       ??_C@_0BG@HOCGGEGP@unsupported?5keylength?$AA@ 10098508     libeay32_EM.0.9.8e:evp_err.obj
 0002:0000f520       ??_C@_0BM@HIBGCGNH@unsuported?5number?5of?5rounds?$AA@ 10098520     libeay32_EM.0.9.8e:evp_err.obj
 0002:0000f53c       ??_C@_0BG@FAIBJLPO@unknown?5pbe?5algorithm?$AA@ 1009853c     libeay32_EM.0.9.8e:evp_err.obj
 0002:0000f554       ??_C@_0BD@MMPLJMCH@public?5key?5not?5rsa?$AA@ 10098554     libeay32_EM.0.9.8e:evp_err.obj
 0002:0000f568       ??_C@_0BK@DPIDMHCF@pkcs8?5unknown?5broken?5type?$AA@ 10098568     libeay32_EM.0.9.8e:evp_err.obj
 0002:0000f584       ??_C@_0BO@JCHGAODK@no?5verify?5function?5configured?$AA@ 10098584     libeay32_EM.0.9.8e:evp_err.obj
 0002:0000f5a4       ??_C@_0BM@MKFHONFA@no?5sign?5function?5configured?$AA@ 100985a4     libeay32_EM.0.9.8e:evp_err.obj
 0002:0000f5c0       ??_C@_0BC@LCMEIJMC@no?5dsa?5parameters?$AA@ 100985c0     libeay32_EM.0.9.8e:evp_err.obj
 0002:0000f5d4       ??_C@_0O@MFHBBAJO@no?5digest?5set?$AA@ 100985d4     libeay32_EM.0.9.8e:evp_err.obj
 0002:0000f5e4       ??_C@_0O@GNLJHFJN@no?5cipher?5set?$AA@ 100985e4     libeay32_EM.0.9.8e:evp_err.obj
 0002:0000f5f4       ??_C@_0P@OKANNIHB@keygen?5failure?$AA@ 100985f4     libeay32_EM.0.9.8e:evp_err.obj
 0002:0000f604       ??_C@_0BD@ECABCPMG@invalid?5key?5length?$AA@ 10098604     libeay32_EM.0.9.8e:evp_err.obj
 0002:0000f618       ??_C@_0BG@FEDNMCDD@input?5not?5initialized?$AA@ 10098618     libeay32_EM.0.9.8e:evp_err.obj
 0002:0000f630       ??_C@_0BF@BLPPFHJN@initialization?5error?$AA@ 10098630     libeay32_EM.0.9.8e:evp_err.obj
 0002:0000f648       ??_C@_0BD@CPNEAEMK@expecting?5a?5ec?5key?$AA@ 10098648     libeay32_EM.0.9.8e:evp_err.obj
 0002:0000f65c       ??_C@_0BG@HCFIIKBE@expecting?5a?5ecdsa?5key?$AA@ 1009865c     libeay32_EM.0.9.8e:evp_err.obj
 0002:0000f674       ??_C@_0BE@DANDDMPD@expecting?5a?5dsa?5key?$AA@ 10098674     libeay32_EM.0.9.8e:evp_err.obj
 0002:0000f688       ??_C@_0BD@ODGEPPLN@expecting?5a?5dh?5key?$AA@ 10098688     libeay32_EM.0.9.8e:evp_err.obj
 0002:0000f69c       ??_C@_0BF@PLFLMHPC@expecting?5an?5rsa?5key?$AA@ 1009869c     libeay32_EM.0.9.8e:evp_err.obj
 0002:0000f6b4       ??_C@_0BJ@OKDOIMO@evp?5pbe?5cipherinit?5error?$AA@ 100986b4     libeay32_EM.0.9.8e:evp_err.obj
 0002:0000f6d0       ??_C@_0BE@KPACBDBO@different?5key?5types?$AA@ 100986d0     libeay32_EM.0.9.8e:evp_err.obj
 0002:0000f6e4       ??_C@_0CC@CACKLKH@data?5not?5multiple?5of?5block?5lengt@ 100986e4     libeay32_EM.0.9.8e:evp_err.obj
 0002:0000f708       ??_C@_0BP@HNCHOJGH@ctrl?5operation?5not?5implemented?$AA@ 10098708     libeay32_EM.0.9.8e:evp_err.obj
 0002:0000f728       ??_C@_0BF@HEOEPAFD@ctrl?5not?5implemented?$AA@ 10098728     libeay32_EM.0.9.8e:evp_err.obj
 0002:0000f740       ??_C@_0BH@NKJMBAMK@cipher?5parameter?5error?$AA@ 10098740     libeay32_EM.0.9.8e:evp_err.obj
 0002:0000f758       ??_C@_0BK@KFELEBBK@camellia?5key?5setup?5failed?$AA@ 10098758     libeay32_EM.0.9.8e:evp_err.obj
 0002:0000f774       ??_C@_0BA@MGOHMGOK@bn?5pubkey?5error?$AA@ 10098774     libeay32_EM.0.9.8e:evp_err.obj
 0002:0000f784       ??_C@_0BA@EKELKIMH@bn?5decode?5error?$AA@ 10098784     libeay32_EM.0.9.8e:evp_err.obj
 0002:0000f794       ??_C@_0P@IOHAFLFI@bad?5key?5length?$AA@ 10098794     libeay32_EM.0.9.8e:evp_err.obj
 0002:0000f7a4       ??_C@_0BB@PEINPMDG@bad?5block?5length?$AA@ 100987a4     libeay32_EM.0.9.8e:evp_err.obj
 0002:0000f7b8       ??_C@_08MEGCJFEA@asn1?5lib?$AA@ 100987b8     libeay32_EM.0.9.8e:evp_err.obj
 0002:0000f7c4       ??_C@_0BF@JJHFFCED@aes?5key?5setup?5failed?$AA@ 100987c4     libeay32_EM.0.9.8e:evp_err.obj
 0002:0000f7dc       ??_C@_08INALDHMD@RC5_CTRL?$AA@ 100987dc     libeay32_EM.0.9.8e:evp_err.obj
 0002:0000f7e8       ??_C@_0BC@MNOALPJL@RC2_MAGIC_TO_METH?$AA@ 100987e8     libeay32_EM.0.9.8e:evp_err.obj
 0002:0000f7fc       ??_C@_0BB@PCHIINPO@PKCS8_set_broken?$AA@ 100987fc     libeay32_EM.0.9.8e:evp_err.obj
 0002:0000f810       ??_C@_0BG@DEAJDLGC@PKCS5_v2_PBE_keyivgen?$AA@ 10098810     libeay32_EM.0.9.8e:evp_err.obj
 0002:0000f828       ??_C@_0BD@BCPAFJOG@PKCS5_PBE_keyivgen?$AA@ 10098828     libeay32_EM.0.9.8e:evp_err.obj
 0002:0000f83c       ??_C@_0BA@GLLLOEJG@EVP_VerifyFinal?$AA@ 1009883c     libeay32_EM.0.9.8e:evp_err.obj
 0002:0000f84c       ??_C@_0O@CAMPOJIJ@EVP_SignFinal?$AA@ 1009884c     libeay32_EM.0.9.8e:evp_err.obj
 0002:0000f85c       ??_C@_0N@KINHBLCG@EVP_RIJNDAEL?$AA@ 1009885c     libeay32_EM.0.9.8e:evp_err.obj
 0002:0000f86c       ??_C@_0N@MHABMGDE@EVP_PKEY_new?$AA@ 1009886c     libeay32_EM.0.9.8e:evp_err.obj
 0002:0000f87c       ??_C@_0BC@IMEMINHC@EVP_PKEY_get1_RSA?$AA@ 1009887c     libeay32_EM.0.9.8e:evp_err.obj
 0002:0000f890       ??_C@_0BF@IJHAKIDN@EVP_PKEY_get1_EC_KEY?$AA@ 10098890     libeay32_EM.0.9.8e:evp_err.obj
 0002:0000f8a8       ??_C@_0BE@LEFNNDP@EVP_PKEY_GET1_ECDSA?$AA@ 100988a8     libeay32_EM.0.9.8e:evp_err.obj
 0002:0000f8bc       ??_C@_0BC@PJDOIFDB@EVP_PKEY_get1_DSA?$AA@ 100988bc     libeay32_EM.0.9.8e:evp_err.obj
 0002:0000f8d0       ??_C@_0BB@CPLHOEAA@EVP_PKEY_get1_DH?$AA@ 100988d0     libeay32_EM.0.9.8e:evp_err.obj
 0002:0000f8e4       ??_C@_0BB@LLNNGDGM@EVP_PKEY_encrypt?$AA@ 100988e4     libeay32_EM.0.9.8e:evp_err.obj
 0002:0000f8f8       ??_C@_0BB@HFHADHAI@EVP_PKEY_decrypt?$AA@ 100988f8     libeay32_EM.0.9.8e:evp_err.obj
 0002:0000f90c       ??_C@_0BJ@PGNHNKFL@EVP_PKEY_copy_parameters?$AA@ 1009890c     libeay32_EM.0.9.8e:evp_err.obj
 0002:0000f928       ??_C@_0BG@JJKNEENC@EVP_PKEY2PKCS8_broken?$AA@ 10098928     libeay32_EM.0.9.8e:evp_err.obj
 0002:0000f940       ??_C@_0P@NALOFFAP@EVP_PKCS82PKEY?$AA@ 10098940     libeay32_EM.0.9.8e:evp_err.obj
 0002:0000f950       ??_C@_0BD@IMFOLFNB@EVP_PBE_CipherInit?$AA@ 10098950     libeay32_EM.0.9.8e:evp_err.obj
 0002:0000f964       ??_C@_0BA@LHOGICEL@EVP_PBE_alg_add?$AA@ 10098964     libeay32_EM.0.9.8e:evp_err.obj
 0002:0000f974       ??_C@_0N@HHIKMCLD@EVP_OpenInit?$AA@ 10098974     libeay32_EM.0.9.8e:evp_err.obj
 0002:0000f984       ??_C@_0BD@OOMFHFKA@EVP_MD_CTX_copy_ex?$AA@ 10098984     libeay32_EM.0.9.8e:evp_err.obj
 0002:0000f998       ??_C@_0BE@EADDKHIK@EVP_EncryptFinal_ex?$AA@ 10098998     libeay32_EM.0.9.8e:evp_err.obj
 0002:0000f9ac       ??_C@_0BC@NBJFCNLO@EVP_DigestInit_ex?$AA@ 100989ac     libeay32_EM.0.9.8e:evp_err.obj
 0002:0000f9c0       ??_C@_0BE@DAKPJAOF@EVP_DecryptFinal_ex?$AA@ 100989c0     libeay32_EM.0.9.8e:evp_err.obj
 0002:0000f9d4       ??_C@_0BO@LEIONLOF@EVP_CIPHER_CTX_set_key_length?$AA@ 100989d4     libeay32_EM.0.9.8e:evp_err.obj
 0002:0000f9f4       ??_C@_0BE@PBKBIICA@EVP_CIPHER_CTX_ctrl?$AA@ 100989f4     libeay32_EM.0.9.8e:evp_err.obj
 0002:0000fa08       ??_C@_0BC@FOOGEGCP@EVP_CipherInit_ex?$AA@ 10098a08     libeay32_EM.0.9.8e:evp_err.obj
 0002:0000fa1c       ??_C@_0BB@KFLGPIAK@ECKEY_PKEY2PKCS8?$AA@ 10098a1c     libeay32_EM.0.9.8e:evp_err.obj
 0002:0000fa30       ??_C@_0BB@IBEKDJPK@ECDSA_PKEY2PKCS8?$AA@ 10098a30     libeay32_EM.0.9.8e:evp_err.obj
 0002:0000fa44       ??_C@_0P@DBCIAANA@DSA_PKEY2PKCS8?$AA@ 10098a44     libeay32_EM.0.9.8e:evp_err.obj
 0002:0000fa54       ??_C@_0O@EFMKNPDB@DSAPKEY2PKCS8?$AA@ 10098a54     libeay32_EM.0.9.8e:evp_err.obj
 0002:0000fa64       ??_C@_08BIAFNOBD@D2I_PKEY?$AA@ 10098a64     libeay32_EM.0.9.8e:evp_err.obj
 0002:0000fa70       ??_C@_0BC@JBPLKLIN@CAMELLIA_INIT_KEY?$AA@ 10098a70     libeay32_EM.0.9.8e:evp_err.obj
 0002:0000fa84       ??_C@_0N@HCMHGGIL@AES_INIT_KEY?$AA@ 10098a84     libeay32_EM.0.9.8e:evp_err.obj
 0002:0000fa94       ??_C@_0BD@NPJGJJNC@invalid?5public?5key?$AA@ 10098a94     libeay32_EM.0.9.8e:dh_err.obj
 0002:0000faa8       ??_C@_0O@FMBNEOHL@bad?5generator?$AA@ 10098aa8     libeay32_EM.0.9.8e:dh_err.obj
 0002:0000fab8       ??_C@_0BE@OEKEKGDH@GENERATE_PARAMETERS?$AA@ 10098ab8     libeay32_EM.0.9.8e:dh_err.obj
 0002:0000facc       ??_C@_0N@LOPKMDIL@GENERATE_KEY?$AA@ 10098acc     libeay32_EM.0.9.8e:dh_err.obj
 0002:0000fadc       ??_C@_0O@PABKEMIE@DH_new_method?$AA@ 10098adc     libeay32_EM.0.9.8e:dh_err.obj
 0002:0000faec       ??_C@_0BF@BNFPPOCD@DH_BUILTIN_GENPARAMS?$AA@ 10098aec     libeay32_EM.0.9.8e:dh_err.obj
 0002:0000fb04       ??_C@_0BC@DJCNMFPF@DHparams_print_fp?$AA@ 10098b04     libeay32_EM.0.9.8e:dh_err.obj
 0002:0000fb18       ??_C@_0P@BGEJOGLP@DHparams_print?$AA@ 10098b18     libeay32_EM.0.9.8e:dh_err.obj
 0002:0000fb28       ??_C@_0M@OBMGPJBG@COMPUTE_KEY?$AA@ 10098b28     libeay32_EM.0.9.8e:dh_err.obj
 0002:0000fb34       ??_C@_0BH@BMPGLKME@wrong?5signature?5length?$AA@ 10098b34     libeay32_EM.0.9.8e:rsa_err.obj
 0002:0000fb4c       ??_C@_0BF@PMKFBMAN@unknown?5padding?5type?$AA@ 10098b4c     libeay32_EM.0.9.8e:rsa_err.obj
 0002:0000fb64       ??_C@_0BH@FNFJOEPG@unknown?5algorithm?5type?$AA@ 10098b64     libeay32_EM.0.9.8e:rsa_err.obj
 0002:0000fb7c       ??_C@_0BG@LCCLIBDD@sslv3?5rollback?5attack?$AA@ 10098b7c     libeay32_EM.0.9.8e:rsa_err.obj
 0002:0000fb94       ??_C@_0BM@NMIBMGCO@salt?5length?5recovery?5failed?$AA@ 10098b94     libeay32_EM.0.9.8e:rsa_err.obj
 0002:0000fbb0       ??_C@_0BJ@GBKHEAEB@salt?5length?5check?5failed?$AA@ 10098bb0     libeay32_EM.0.9.8e:rsa_err.obj
 0002:0000fbcc       ??_C@_0BN@NCCKMPPH@rsa?5operations?5not?5supported?$AA@ 10098bcc     libeay32_EM.0.9.8e:rsa_err.obj
 0002:0000fbec       ??_C@_0M@IAJBGGOK@q?5not?5prime?$AA@ 10098bec     libeay32_EM.0.9.8e:rsa_err.obj
 0002:0000fbf8       ??_C@_0M@BLDECKIF@p?5not?5prime?$AA@ 10098bf8     libeay32_EM.0.9.8e:rsa_err.obj
 0002:0000fc04       ??_C@_0BF@INPMJCDD@padding?5check?5failed?$AA@ 10098c04     libeay32_EM.0.9.8e:rsa_err.obj
 0002:0000fc1c       ??_C@_0BE@EOPELEIO@oaep?5decoding?5error?$AA@ 10098c1c     libeay32_EM.0.9.8e:rsa_err.obj
 0002:0000fc30       ??_C@_0BF@HDECBJIA@n?5does?5not?5equal?5p?5q?$AA@ 10098c30     libeay32_EM.0.9.8e:rsa_err.obj
 0002:0000fc48       ??_C@_0BK@GGMKFEM@null?5before?5block?5missing?$AA@ 10098c48     libeay32_EM.0.9.8e:rsa_err.obj
 0002:0000fc64       ??_C@_0BD@JKKNAJDI@no?5public?5exponent?$AA@ 10098c64     libeay32_EM.0.9.8e:rsa_err.obj
 0002:0000fc78       ??_C@_0BD@FKBIBGMM@last?5octet?5invalid?$AA@ 10098c78     libeay32_EM.0.9.8e:rsa_err.obj
 0002:0000fc8c       ??_C@_0BD@CLOJELDD@key?5size?5too?5small?$AA@ 10098c8c     libeay32_EM.0.9.8e:rsa_err.obj
 0002:0000fca0       ??_C@_0BG@DEDKEMGA@iqmp?5not?5inverse?5of?5q?$AA@ 10098ca0     libeay32_EM.0.9.8e:rsa_err.obj
 0002:0000fcb8       ??_C@_0BA@ODEFPDHP@invalid?5trailer?$AA@ 10098cb8     libeay32_EM.0.9.8e:rsa_err.obj
 0002:0000fcc8       ??_C@_0BA@JFFKNHBD@invalid?5padding?$AA@ 10098cc8     libeay32_EM.0.9.8e:rsa_err.obj
 0002:0000fcd8       ??_C@_0BH@EKFCLFAD@invalid?5message?5length?$AA@ 10098cd8     libeay32_EM.0.9.8e:rsa_err.obj
 0002:0000fcf0       ??_C@_0P@NOGGNOMF@invalid?5header?$AA@ 10098cf0     libeay32_EM.0.9.8e:rsa_err.obj
 0002:0000fd00       ??_C@_0BE@NOENCFCG@first?5octet?5invalid?$AA@ 10098d00     libeay32_EM.0.9.8e:rsa_err.obj
 0002:0000fd14       ??_C@_0BH@NCGBLFLB@d?5e?5not?5congruent?5to?51?$AA@ 10098d14     libeay32_EM.0.9.8e:rsa_err.obj
 0002:0000fd2c       ??_C@_0BI@DHGHJHEG@dmq1?5not?5congruent?5to?5d?$AA@ 10098d2c     libeay32_EM.0.9.8e:rsa_err.obj
 0002:0000fd44       ??_C@_0BI@CAEPPDIG@dmp1?5not?5congruent?5to?5d?$AA@ 10098d44     libeay32_EM.0.9.8e:rsa_err.obj
 0002:0000fd5c       ??_C@_0BL@JJIEEIJC@digest?5too?5big?5for?5rsa?5key?$AA@ 10098d5c     libeay32_EM.0.9.8e:rsa_err.obj
 0002:0000fd78       ??_C@_0BM@JHCGOKFN@data?5too?5small?5for?5key?5size?$AA@ 10098d78     libeay32_EM.0.9.8e:rsa_err.obj
 0002:0000fd94       ??_C@_0P@ODJPKBGD@data?5too?5small?$AA@ 10098d94     libeay32_EM.0.9.8e:rsa_err.obj
 0002:0000fda4       ??_C@_0BL@NKECKCIM@data?5too?5large?5for?5modulus?$AA@ 10098da4     libeay32_EM.0.9.8e:rsa_err.obj
 0002:0000fdc0       ??_C@_0P@ELNEFAPF@data?5too?5large?$AA@ 10098dc0     libeay32_EM.0.9.8e:rsa_err.obj
 0002:0000fdd0       ??_C@_0BK@IFDNCIJ@data?5greater?5than?5mod?5len?$AA@ 10098dd0     libeay32_EM.0.9.8e:rsa_err.obj
 0002:0000fdec       ??_C@_0BF@CPFAMEOF@block?5type?5is?5not?502?$AA@ 10098dec     libeay32_EM.0.9.8e:rsa_err.obj
 0002:0000fe04       ??_C@_0BF@EHNJHCG@block?5type?5is?5not?501?$AA@ 10098e04     libeay32_EM.0.9.8e:rsa_err.obj
 0002:0000fe1c       ??_C@_0BD@NMJFBDLM@bad?5pad?5byte?5count?$AA@ 10098e1c     libeay32_EM.0.9.8e:rsa_err.obj
 0002:0000fe30       ??_C@_0BJ@NJEIMCLK@bad?5fixed?5header?5decrypt?$AA@ 10098e30     libeay32_EM.0.9.8e:rsa_err.obj
 0002:0000fe4c       ??_C@_0M@JODLPONG@bad?5e?5value?$AA@ 10098e4c     libeay32_EM.0.9.8e:rsa_err.obj
 0002:0000fe58       ??_C@_0BD@CGPAGFLI@algorithm?5mismatch?$AA@ 10098e58     libeay32_EM.0.9.8e:rsa_err.obj
 0002:0000fe6c       ??_C@_0BF@IGJEFDEP@RSA_verify_PKCS1_PSS?$AA@ 10098e6c     libeay32_EM.0.9.8e:rsa_err.obj
 0002:0000fe84       ??_C@_0BN@EFLGKFKB@RSA_verify_ASN1_OCTET_STRING?$AA@ 10098e84     libeay32_EM.0.9.8e:rsa_err.obj
 0002:0000fea4       ??_C@_0L@DHMOEGA@RSA_verify?$AA@ 10098ea4     libeay32_EM.0.9.8e:rsa_err.obj
 0002:0000feb0       ??_C@_0BL@CNIEBPPN@RSA_sign_ASN1_OCTET_STRING?$AA@ 10098eb0     libeay32_EM.0.9.8e:rsa_err.obj
 0002:0000fecc       ??_C@_08MPOFALHB@RSA_sign?$AA@ 10098ecc     libeay32_EM.0.9.8e:rsa_err.obj
 0002:0000fed8       ??_C@_0BD@BJFMCAGF@RSA_setup_blinding?$AA@ 10098ed8     libeay32_EM.0.9.8e:rsa_err.obj
 0002:0000feec       ??_C@_0N@EDDOANOK@RSA_print_fp?$AA@ 10098eec     libeay32_EM.0.9.8e:rsa_err.obj
 0002:0000fefc       ??_C@_09BNOFLLFN@RSA_print?$AA@ 10098efc     libeay32_EM.0.9.8e:rsa_err.obj
 0002:0000ff08       ??_C@_0BH@HNEKADOE@RSA_padding_check_X931?$AA@ 10098f08     libeay32_EM.0.9.8e:rsa_err.obj
 0002:0000ff20       ??_C@_0BJ@KGLGCBIK@RSA_padding_check_SSLv23?$AA@ 10098f20     libeay32_EM.0.9.8e:rsa_err.obj
 0002:0000ff3c       ??_C@_0BP@NOENDBAC@RSA_padding_check_PKCS1_type_2?$AA@ 10098f3c     libeay32_EM.0.9.8e:rsa_err.obj
 0002:0000ff5c       ??_C@_0BP@PFGAGCMB@RSA_padding_check_PKCS1_type_1?$AA@ 10098f5c     libeay32_EM.0.9.8e:rsa_err.obj
 0002:0000ff7c       ??_C@_0BN@IOMKEGJG@RSA_padding_check_PKCS1_OAEP?$AA@ 10098f7c     libeay32_EM.0.9.8e:rsa_err.obj
 0002:0000ff9c       ??_C@_0BH@HPODLAP@RSA_padding_check_none?$AA@ 10098f9c     libeay32_EM.0.9.8e:rsa_err.obj
 0002:0000ffb4       ??_C@_0BF@EIOFIDKM@RSA_padding_add_X931?$AA@ 10098fb4     libeay32_EM.0.9.8e:rsa_err.obj
 0002:0000ffcc       ??_C@_0BH@HDKOFCAI@RSA_padding_add_SSLv23?$AA@ 10098fcc     libeay32_EM.0.9.8e:rsa_err.obj
 0002:0000ffe4       ??_C@_0BN@CNKIJGGF@RSA_padding_add_PKCS1_type_2?$AA@ 10098fe4     libeay32_EM.0.9.8e:rsa_err.obj
 0002:00010004       ??_C@_0BN@GIFMFKG@RSA_padding_add_PKCS1_type_1?$AA@ 10099004     libeay32_EM.0.9.8e:rsa_err.obj
 0002:00010024       ??_C@_0BK@OBENMGDB@RSA_padding_add_PKCS1_PSS?$AA@ 10099024     libeay32_EM.0.9.8e:rsa_err.obj
 0002:00010040       ??_C@_0BL@OLIPFACN@RSA_padding_add_PKCS1_OAEP?$AA@ 10099040     libeay32_EM.0.9.8e:rsa_err.obj
 0002:0001005c       ??_C@_0BF@DCFBLLEH@RSA_padding_add_none?$AA@ 1009905c     libeay32_EM.0.9.8e:rsa_err.obj
 0002:00010074       ??_C@_0BI@OOBCANGE@RSA_NULL_PUBLIC_ENCRYPT?$AA@ 10099074     libeay32_EM.0.9.8e:rsa_err.obj
 0002:0001008c       ??_C@_0BI@CALPFJAA@RSA_NULL_PUBLIC_DECRYPT?$AA@ 1009908c     libeay32_EM.0.9.8e:rsa_err.obj
 0002:000100a4       ??_C@_0BJ@LPMCNPIA@RSA_NULL_PRIVATE_ENCRYPT?$AA@ 100990a4     libeay32_EM.0.9.8e:rsa_err.obj
 0002:000100c0       ??_C@_0BJ@HBGPILOE@RSA_NULL_PRIVATE_DECRYPT?$AA@ 100990c0     libeay32_EM.0.9.8e:rsa_err.obj
 0002:000100dc       ??_C@_0BB@HDGNLFN@RSA_NULL_MOD_EXP?$AA@ 100990dc     libeay32_EM.0.9.8e:rsa_err.obj
 0002:000100f0       ??_C@_08LPADNPHO@RSA_NULL?$AA@ 100990f0     libeay32_EM.0.9.8e:rsa_err.obj
 0002:000100fc       ??_C@_0P@FEIHPPED@RSA_new_method?$AA@ 100990fc     libeay32_EM.0.9.8e:rsa_err.obj
 0002:0001010c       ??_C@_0BA@JIOKLGDH@RSA_memory_lock?$AA@ 1009910c     libeay32_EM.0.9.8e:rsa_err.obj
 0002:0001011c       ??_C@_0BB@NJKHLGLL@RSA_generate_key?$AA@ 1009911c     libeay32_EM.0.9.8e:rsa_err.obj
 0002:00010130       ??_C@_0BH@LNLHMMLN@RSA_EAY_PUBLIC_ENCRYPT?$AA@ 10099130     libeay32_EM.0.9.8e:rsa_err.obj
 0002:00010148       ??_C@_0BH@HDBKJINJ@RSA_EAY_PUBLIC_DECRYPT?$AA@ 10099148     libeay32_EM.0.9.8e:rsa_err.obj
 0002:00010160       ??_C@_0BI@EAJOBADB@RSA_EAY_PRIVATE_ENCRYPT?$AA@ 10099160     libeay32_EM.0.9.8e:rsa_err.obj
 0002:00010178       ??_C@_0BI@IODDEEFF@RSA_EAY_PRIVATE_DECRYPT?$AA@ 10099178     libeay32_EM.0.9.8e:rsa_err.obj
 0002:00010190       ??_C@_0O@GHGJHIFH@RSA_check_key?$AA@ 10099190     libeay32_EM.0.9.8e:rsa_err.obj
 0002:000101a0       ??_C@_0BD@CBDKPIGP@RSA_BUILTIN_KEYGEN?$AA@ 100991a0     libeay32_EM.0.9.8e:rsa_err.obj
 0002:000101b4       ??_C@_0M@IECFMAGM@MEMORY_LOCK?$AA@ 100991b4     libeay32_EM.0.9.8e:rsa_err.obj
 0002:000101c0       ??_C@_0BN@FMADIABH@too?5many?5temporary?5variables?$AA@ 100991c0     libeay32_EM.0.9.8e:bn_err.obj
 0002:000101e0       ??_C@_0BE@OPCNEJGC@too?5many?5iterations?$AA@ 100991e0     libeay32_EM.0.9.8e:bn_err.obj
 0002:000101f4       ??_C@_0P@ICPCEPDP@p?5is?5not?5prime?$AA@ 100991f4     libeay32_EM.0.9.8e:bn_err.obj
 0002:00010204       ??_C@_0M@OMKNCEPO@no?5solution?$AA@ 10099204     libeay32_EM.0.9.8e:bn_err.obj
 0002:00010210       ??_C@_0L@CDEIJFEG@no?5inverse?$AA@ 10099210     libeay32_EM.0.9.8e:bn_err.obj
 0002:0001021c       ??_C@_0N@NDJIBCN@not?5a?5square?$AA@ 1009921c     libeay32_EM.0.9.8e:bn_err.obj
 0002:0001022c       ??_C@_0O@GOKDDJMP@invalid?5range?$AA@ 1009922c     libeay32_EM.0.9.8e:bn_err.obj
 0002:0001023c       ??_C@_0P@BHAFPBHF@invalid?5length?$AA@ 1009923c     libeay32_EM.0.9.8e:bn_err.obj
 0002:0001024c       ??_C@_0BC@JDEDLNHC@input?5not?5reduced?$AA@ 1009924c     libeay32_EM.0.9.8e:bn_err.obj
 0002:00010260       ??_C@_0BN@BKAHLPJH@expand?5on?5static?5bignum?5data?$AA@ 10099260     libeay32_EM.0.9.8e:bn_err.obj
 0002:00010280       ??_C@_0P@PPHOEKAA@encoding?5error?$AA@ 10099280     libeay32_EM.0.9.8e:bn_err.obj
 0002:00010290       ??_C@_0M@BLFJLCCH@div?5by?5zero?$AA@ 10099290     libeay32_EM.0.9.8e:bn_err.obj
 0002:0001029c       ??_C@_0BJ@OJGGDJF@called?5with?5even?5modulus?$AA@ 1009929c     libeay32_EM.0.9.8e:bn_err.obj
 0002:000102b8       ??_C@_0BA@GFLMOMGJ@bignum?5too?5long?$AA@ 100992b8     libeay32_EM.0.9.8e:bn_err.obj
 0002:000102c8       ??_C@_0P@CGNJGONO@bad?5reciprocal?$AA@ 100992c8     libeay32_EM.0.9.8e:bn_err.obj
 0002:000102d8       ??_C@_0N@DINPDMFF@arg2?5lt?5arg3?$AA@ 100992d8     libeay32_EM.0.9.8e:bn_err.obj
 0002:000102e8       ??_C@_07FFMAJCFD@BN_usub?$AA@ 100992e8     libeay32_EM.0.9.8e:bn_err.obj
 0002:000102f0       ??_C@_0O@GGLCDEBH@BN_rand_range?$AA@ 100992f0     libeay32_EM.0.9.8e:bn_err.obj
 0002:00010300       ??_C@_07FLNJDKEA@BN_rand?$AA@ 10099300     libeay32_EM.0.9.8e:bn_err.obj
 0002:00010308       ??_C@_06MLINBBBN@BN_new?$AA@ 10099308     libeay32_EM.0.9.8e:bn_err.obj
 0002:00010310       ??_C@_09IDACCFHO@BN_mpi2bn?$AA@ 10099310     libeay32_EM.0.9.8e:bn_err.obj
 0002:0001031c       ??_C@_0M@MDECKEMJ@BN_mod_sqrt?$AA@ 1009931c     libeay32_EM.0.9.8e:bn_err.obj
 0002:00010328       ??_C@_0BG@BPLEAIGL@BN_mod_mul_reciprocal?$AA@ 10099328     libeay32_EM.0.9.8e:bn_err.obj
 0002:00010340       ??_C@_0BE@HCGJNJDH@BN_mod_lshift_quick?$AA@ 10099340     libeay32_EM.0.9.8e:bn_err.obj
 0002:00010354       ??_C@_0P@PJDAOIEB@BN_mod_inverse?$AA@ 10099354     libeay32_EM.0.9.8e:bn_err.obj
 0002:00010364       ??_C@_0BC@IAKJJHKD@BN_mod_exp_simple?$AA@ 10099364     libeay32_EM.0.9.8e:bn_err.obj
 0002:00010378       ??_C@_0BA@MFDDJGKA@BN_mod_exp_recp?$AA@ 10099378     libeay32_EM.0.9.8e:bn_err.obj
 0002:00010388       ??_C@_0BF@NHOGELCA@BN_mod_exp_mont_word?$AA@ 10099388     libeay32_EM.0.9.8e:bn_err.obj
 0002:000103a0       ??_C@_0BK@MLKANOIE@BN_mod_exp_mont_consttime?$AA@ 100993a0     libeay32_EM.0.9.8e:bn_err.obj
 0002:000103bc       ??_C@_0BA@CEIKCAMA@BN_mod_exp_mont?$AA@ 100993bc     libeay32_EM.0.9.8e:bn_err.obj
 0002:000103cc       ??_C@_0BB@KAANGNEC@BN_mod_exp2_mont?$AA@ 100993cc     libeay32_EM.0.9.8e:bn_err.obj
 0002:000103e0       ??_C@_0BB@COMHDKLD@BN_GF2m_mod_sqrt?$AA@ 100993e0     libeay32_EM.0.9.8e:bn_err.obj
 0002:000103f4       ??_C@_0BA@CEFPIHFI@BN_GF2m_mod_sqr?$AA@ 100993f4     libeay32_EM.0.9.8e:bn_err.obj
 0002:00010404       ??_C@_0BL@JJDJOBHG@BN_GF2m_mod_solve_quad_arr?$AA@ 10099404     libeay32_EM.0.9.8e:bn_err.obj
 0002:00010420       ??_C@_0BH@EFEHBMGJ@BN_GF2m_mod_solve_quad?$AA@ 10099420     libeay32_EM.0.9.8e:bn_err.obj
 0002:00010438       ??_C@_0BA@EHNBDAPH@BN_GF2m_mod_mul?$AA@ 10099438     libeay32_EM.0.9.8e:bn_err.obj
 0002:00010448       ??_C@_0BA@GMMKNGBG@BN_GF2m_mod_exp?$AA@ 10099448     libeay32_EM.0.9.8e:bn_err.obj
 0002:00010458       ??_C@_0M@HLNBKHPC@BN_GF2m_mod?$AA@ 10099458     libeay32_EM.0.9.8e:bn_err.obj
 0002:00010464       ??_C@_0BD@EECAEFPD@BN_EXPAND_INTERNAL?$AA@ 10099464     libeay32_EM.0.9.8e:bn_err.obj
 0002:00010478       ??_C@_0L@GPKOAPJM@bn_expand2?$AA@ 10099478     libeay32_EM.0.9.8e:bn_err.obj
 0002:00010484       ??_C@_06EHDDDAPI@BN_exp?$AA@ 10099484     libeay32_EM.0.9.8e:bn_err.obj
 0002:0001048c       ??_C@_0M@MCFMHDMJ@BN_div_recp?$AA@ 1009948c     libeay32_EM.0.9.8e:bn_err.obj
 0002:00010498       ??_C@_06LEDBDJFM@BN_div?$AA@ 10099498     libeay32_EM.0.9.8e:bn_err.obj
 0002:000104a0       ??_C@_0N@IHLKEKP@BN_CTX_start?$AA@ 100994a0     libeay32_EM.0.9.8e:bn_err.obj
 0002:000104b0       ??_C@_0L@OIEJOLGJ@BN_CTX_new?$AA@ 100994b0     libeay32_EM.0.9.8e:bn_err.obj
 0002:000104bc       ??_C@_0L@LOGMPHCA@BN_CTX_get?$AA@ 100994bc     libeay32_EM.0.9.8e:bn_err.obj
 0002:000104c8       ??_C@_09LODCIEDC@BN_bn2hex?$AA@ 100994c8     libeay32_EM.0.9.8e:bn_err.obj
 0002:000104d4       ??_C@_09FNNCPABA@BN_bn2dec?$AA@ 100994d4     libeay32_EM.0.9.8e:bn_err.obj
 0002:000104e0       ??_C@_0BD@IEOEBKMM@BN_BLINDING_update?$AA@ 100994e0     libeay32_EM.0.9.8e:bn_err.obj
 0002:000104f4       ??_C@_0BA@NFFODEFF@BN_BLINDING_new?$AA@ 100994f4     libeay32_EM.0.9.8e:bn_err.obj
 0002:00010504       ??_C@_0BG@KNPDOBDE@BN_BLINDING_invert_ex?$AA@ 10099504     libeay32_EM.0.9.8e:bn_err.obj
 0002:0001051c       ??_C@_0BJ@OIJBBKAP@BN_BLINDING_create_param?$AA@ 1009951c     libeay32_EM.0.9.8e:bn_err.obj
 0002:00010538       ??_C@_0BH@GHOHGGBP@BN_BLINDING_convert_ex?$AA@ 10099538     libeay32_EM.0.9.8e:bn_err.obj
 0002:00010550       ??_C@_06LDPKGPF@BNRAND?$AA@ 10099550     libeay32_EM.0.9.8e:bn_err.obj
 0002:00010558       ??_C@_0O@NFAAPMIG@GENERAL_NAMES?$AA@ 10099558     libeay32_EM.0.9.8e:v3_genn.obj
 0002:00010568       ??_C@_0N@CJKIBDLK@GeneralNames?$AA@ 10099568     libeay32_EM.0.9.8e:v3_genn.obj
 0002:00010578       ??_C@_0N@JCNPGCGM@GENERAL_NAME?$AA@ 10099578     libeay32_EM.0.9.8e:v3_genn.obj
 0002:00010588       ??_C@_0P@KIENIEMD@d?4registeredID?$AA@ 10099588     libeay32_EM.0.9.8e:v3_genn.obj
 0002:00010598       ??_C@_0M@PANAALJB@d?4iPAddress?$AA@ 10099598     libeay32_EM.0.9.8e:v3_genn.obj
 0002:000105a4       ??_C@_0BM@CMCMADCA@d?4uniformResourceIdentifier?$AA@ 100995a4     libeay32_EM.0.9.8e:v3_genn.obj
 0002:000105c0       ??_C@_0P@OBCPPLOL@d?4ediPartyName?$AA@ 100995c0     libeay32_EM.0.9.8e:v3_genn.obj
 0002:000105d0       ??_C@_0BA@JLDFBFLN@d?4directoryName?$AA@ 100995d0     libeay32_EM.0.9.8e:v3_genn.obj
 0002:000105e0       ??_C@_0O@NKHOODFK@d?4x400Address?$AA@ 100995e0     libeay32_EM.0.9.8e:v3_genn.obj
 0002:000105f0       ??_C@_09HIBJABFB@d?4dNSName?$AA@ 100995f0     libeay32_EM.0.9.8e:v3_genn.obj
 0002:000105fc       ??_C@_0N@MMCCMIPN@d?4rfc822Name?$AA@ 100995fc     libeay32_EM.0.9.8e:v3_genn.obj
 0002:0001060c       ??_C@_0M@FGIBMCEL@d?4otherName?$AA@ 1009960c     libeay32_EM.0.9.8e:v3_genn.obj
 0002:00010618       ??_C@_0N@GEILLNKP@EDIPARTYNAME?$AA@ 10099618     libeay32_EM.0.9.8e:v3_genn.obj
 0002:00010628       ??_C@_09EHIHAIPF@partyName?$AA@ 10099628     libeay32_EM.0.9.8e:v3_genn.obj
 0002:00010634       ??_C@_0N@KBFEHHDO@nameAssigner?$AA@ 10099634     libeay32_EM.0.9.8e:v3_genn.obj
 0002:00010644       ??_C@_09MAFAINAH@OTHERNAME?$AA@ 10099644     libeay32_EM.0.9.8e:v3_genn.obj
 0002:00010650       ??_C@_07EEDOJOAA@type_id?$AA@ 10099650     libeay32_EM.0.9.8e:v3_genn.obj
 0002:00013208       _SHA_version               1009c208     libeay32_EM.0.9.8e:sha_dgst.obj
 0002:00013234       ??_C@_0BM@JJNBBBD@?4?2crypto?2engine?2tb_cipher?4c?$AA@ 1009c234     libeay32_EM.0.9.8e:tb_cipher.obj
 0002:00013250       ??_C@_06CHOIGJDB@BIGNUM?$AA@ 1009c250     libeay32_EM.0.9.8e:x_bignum.obj
 0002:00013290       ??_C@_05HIGAPBOG@ZLONG?$AA@ 1009c290     libeay32_EM.0.9.8e:x_long.obj
 0002:00013298       ??_C@_04KCJFIMMJ@LONG?$AA@ 1009c298     libeay32_EM.0.9.8e:x_long.obj
 0002:000132d8       ??_C@_0BH@OOENGGEL@?4?2crypto?2asn1?2x_long?4c?$AA@ 1009c2d8     libeay32_EM.0.9.8e:x_long.obj
 0002:000132f0       _RC2_version               1009c2f0     libeay32_EM.0.9.8e:rc2_ecb.obj
 0002:00013318       ??_C@_0BJ@IFLEADKK@?4?2crypto?2asn1?2evp_asn1?4c?$AA@ 1009c318     libeay32_EM.0.9.8e:evp_asn1.obj
 0002:00013334       _RC4_version               1009c334     libeay32_EM.0.9.8e:rc4_skey.obj
 0002:00013360       __real@4024000000000000    1009c360     libeay32_EM.0.9.8e:b_print.obj
 0002:00013368       __real@3fe0000000000000    1009c368     libeay32_EM.0.9.8e:b_print.obj
 0002:00013370       ??_C@_0BH@PHJMFNI@?4?2crypto?2bio?2b_print?4c?$AA@ 1009c370     libeay32_EM.0.9.8e:b_print.obj
 0002:00013388       ??_C@_06CBHGEMFM@?$DMNULL?$DO?$AA@ 1009c388     libeay32_EM.0.9.8e:b_print.obj
 0002:00013390       ??_C@_0BB@JCEFLFJE@0123456789abcdef?$AA@ 1009c390     libeay32_EM.0.9.8e:b_print.obj
 0002:000133a4       ??_C@_0BB@JGGOGLEG@0123456789ABCDEF?$AA@ 1009c3a4     libeay32_EM.0.9.8e:b_print.obj
 0002:000133b8       ??_C@_02MDDDDAID@0x?$AA@   1009c3b8     libeay32_EM.0.9.8e:b_print.obj
 0002:000133bc       ??_C@_07DKNGGOEP@doapr?$CI?$CJ?$AA@ 1009c3bc     libeay32_EM.0.9.8e:b_print.obj
 0002:000133ec       ??_C@_0BF@KGHFPEKG@?4?2crypto?2ec?2ec_lib?4c?$AA@ 1009c3ec     libeay32_EM.0.9.8e:ec_lib.obj
 0002:00013404       _ECDSA_version             1009c404     libeay32_EM.0.9.8e:ecs_lib.obj
 0002:00013430       ??_C@_0BJ@FFOJENDB@?4?2crypto?2ecdsa?2ecs_lib?4c?$AA@ 1009c430     libeay32_EM.0.9.8e:ecs_lib.obj
 0002:0001344c       _DH_version                1009c44c     libeay32_EM.0.9.8e:dh_lib.obj
 0002:00013480       ??_C@_0BF@FEOADHJI@?4?2crypto?2dh?2dh_lib?4c?$AA@ 1009c480     libeay32_EM.0.9.8e:dh_lib.obj
 0002:0001349c       _MD4_version               1009c49c     libeay32_EM.0.9.8e:md4_dgst.obj
 0002:000134c4       ??_C@_0BH@GGOBJLLE@NETSCAPE_CERT_SEQUENCE?$AA@ 1009c4c4     libeay32_EM.0.9.8e:nsseq.obj
 0002:000134dc       ??_C@_05HFDFJDL@certs?$AA@ 1009c4dc     libeay32_EM.0.9.8e:nsseq.obj
 0002:00013540       ??_C@_02EPINMGPM@DH?$AA@   1009c540     libeay32_EM.0.9.8e:dh_asn1.obj
 0002:00013544       ??_C@_06IJDLPEM@length?$AA@ 1009c544     libeay32_EM.0.9.8e:dh_asn1.obj
 0002:000135bc       _RC5_version               1009c5bc     libeay32_EM.0.9.8e:rc5_ecb.obj
 0002:000135e4       _lh_version                1009c5e4     libeay32_EM.0.9.8e:lhash.obj
 0002:00013610       ??_C@_0BH@ENNIJDED@?4?2crypto?2lhash?2lhash?4c?$AA@ 1009c610     libeay32_EM.0.9.8e:lhash.obj
 0002:00013628       ??_C@_0BD@KJPFNPNE@?4?2crypto?2mem_dbg?4c?$AA@ 1009c628     libeay32_EM.0.9.8e:mem_dbg.obj
 0002:0001363c       ??_C@_0BJ@GENBDNBC@?4?2crypto?2asn1?2asn_pack?4c?$AA@ 1009c63c     libeay32_EM.0.9.8e:asn_pack.obj
 0002:00013658       ??_C@_0N@CAJJAOJD@OCSP?5request?$AA@ 1009c658     libeay32_EM.0.9.8e:x509_trs.obj
 0002:00013668       ??_C@_0P@JHCOMJOI@OCSP?5responder?$AA@ 1009c668     libeay32_EM.0.9.8e:x509_trs.obj
 0002:00013678       ??_C@_0O@EEPBMPKP@Object?5Signer?$AA@ 1009c678     libeay32_EM.0.9.8e:x509_trs.obj
 0002:00013688       ??_C@_0N@OEEPKGPL@S?1MIME?5email?$AA@ 1009c688     libeay32_EM.0.9.8e:x509_trs.obj
 0002:00013698       ??_C@_0L@DCIAGJKL@SSL?5Server?$AA@ 1009c698     libeay32_EM.0.9.8e:x509_trs.obj
 0002:000136a4       ??_C@_0L@HNMCLCCI@SSL?5Client?$AA@ 1009c6a4     libeay32_EM.0.9.8e:x509_trs.obj
 0002:000136b0       ??_C@_0L@JNOGJJCA@compatible?$AA@ 1009c6b0     libeay32_EM.0.9.8e:x509_trs.obj
 0002:000136bc       ??_C@_0BL@HFHMLGNE@?4?2crypto?2x509v3?2pcy_tree?4c?$AA@ 1009c6bc     libeay32_EM.0.9.8e:pcy_tree.obj
 0002:000136d8       ??_C@_09DHMKJJNA@ASN1_TIME?$AA@ 1009c6d8     libeay32_EM.0.9.8e:a_time.obj
 0002:00013700       ??_C@_0BH@IBOPBBIO@?4?2crypto?2asn1?2a_time?4c?$AA@ 1009c700     libeay32_EM.0.9.8e:a_time.obj
 0002:00013718       ??_C@_0BK@EMDNDBLP@?$CF04d?$CF02d?$CF02d?$CF02d?$CF02d?$CF02dZ?$AA@ 1009c718     libeay32_EM.0.9.8e:a_gentm.obj
 0002:00013734       ??_C@_0BI@FLDCAADC@?4?2crypto?2asn1?2a_gentm?4c?$AA@ 1009c734     libeay32_EM.0.9.8e:a_gentm.obj
 0002:0001374c       ??_C@_0BK@PMAAGDOP@?$CF02d?$CF02d?$CF02d?$CF02d?$CF02d?$CF02dZ?$AA@ 1009c74c     libeay32_EM.0.9.8e:a_utctm.obj
 0002:00013768       ??_C@_0BI@BIJLLCMA@?4?2crypto?2asn1?2a_utctm?4c?$AA@ 1009c768     libeay32_EM.0.9.8e:a_utctm.obj
 0002:00013780       ??_C@_0L@MDHNNNKP@ssl_server?$AA@ 1009c780     libeay32_EM.0.9.8e:x509_vpm.obj
 0002:0001378c       ??_C@_0L@IMDPAGCM@ssl_client?$AA@ 1009c78c     libeay32_EM.0.9.8e:x509_vpm.obj
 0002:00013838       ??_C@_0BJ@MOBJJIAE@?4?2crypto?2x509?2x509_vpm?4c?$AA@ 1009c838     libeay32_EM.0.9.8e:x509_vpm.obj
 0002:00013854       _RAND_version              1009c854     libeay32_EM.0.9.8e:md_rand.obj
 0002:00013880       __real@4040000000000000    1009c880     libeay32_EM.0.9.8e:md_rand.obj
 0002:00013888       ??_C@_0BI@MJCOAGKM@?4?2crypto?2rand?2md_rand?4c?$AA@ 1009c888     libeay32_EM.0.9.8e:md_rand.obj
 0002:000138a0       ??_C@_0EK@MHBHPLPP@You?5need?5to?5read?5the?5OpenSSL?5FAQ@ 1009c8a0     libeay32_EM.0.9.8e:md_rand.obj
 0002:000138ec       ??_C@_0BF@KNMHCCP@?4?4?4?4?4?4?4?4?4?4?4?4?4?4?4?4?4?4?4?4?$AA@ 1009c8ec     libeay32_EM.0.9.8e:md_rand.obj
 0002:0001390c       _MD5_version               1009c90c     libeay32_EM.0.9.8e:md5_dgst.obj
 0002:00013934       ??_C@_0BJ@NBKGKDKG@?4?2crypto?2asn1?2a_bitstr?4c?$AA@ 1009c934     libeay32_EM.0.9.8e:a_bitstr.obj
 0002:00013950       ??_C@_0BJ@GCGGIIFI@?4?2crypto?2asn1?2tasn_utl?4c?$AA@ 1009c950     libeay32_EM.0.9.8e:tasn_utl.obj
 0002:0001396c       _MD2_version               1009c96c     libeay32_EM.0.9.8e:md2_dgst.obj
 0002:00013994       _IDEA_version              1009c994     libeay32_EM.0.9.8e:i_ecb.obj
 0002:000139bc       _BF_version                1009c9bc     libeay32_EM.0.9.8e:bf_ecb.obj
 0002:00014a30       ??_C@_0BI@IKGEHGEF@?4?2crypto?2rsa?2rsa_saos?4c?$AA@ 1009da30     libeay32_EM.0.9.8e:rsa_saos.obj
 0002:00014a48       _CAST_version              1009da48     libeay32_EM.0.9.8e:c_ecb.obj
 0002:00014a70       _CAST_S_table0             1009da70     libeay32_EM.0.9.8e:c_skey.obj
 0002:00014e70       _CAST_S_table1             1009de70     libeay32_EM.0.9.8e:c_skey.obj
 0002:00015270       _CAST_S_table2             1009e270     libeay32_EM.0.9.8e:c_skey.obj
 0002:00015670       _CAST_S_table3             1009e670     libeay32_EM.0.9.8e:c_skey.obj
 0002:00015a70       _CAST_S_table4             1009ea70     libeay32_EM.0.9.8e:c_skey.obj
 0002:00015e70       _CAST_S_table5             1009ee70     libeay32_EM.0.9.8e:c_skey.obj
 0002:00016270       _CAST_S_table6             1009f270     libeay32_EM.0.9.8e:c_skey.obj
 0002:00016670       _CAST_S_table7             1009f670     libeay32_EM.0.9.8e:c_skey.obj
 0002:00016a70       ??_C@_0CF@LKDMNFLO@Load?5certs?5from?5files?5in?5a?5direc@ 1009fa70     libeay32_EM.0.9.8e:by_dir.obj
 0002:00016a98       ??_C@_0BH@HEBEBEMJ@?4?2crypto?2x509?2by_dir?4c?$AA@ 1009fa98     libeay32_EM.0.9.8e:by_dir.obj
 0002:00016ab0       ??_C@_0P@NEPFKFLK@?$CFs?$CFc?$CF08lx?4?$CFs?$CFd?$AA@ 1009fab0     libeay32_EM.0.9.8e:by_dir.obj
 0002:00016ac0       ??_C@_0BF@HBBMCMFA@Load?5file?5into?5cache?$AA@ 1009fac0     libeay32_EM.0.9.8e:by_file.obj
 0002:00016ad8       ??_C@_0BI@NAAEKPAB@?4?2crypto?2x509?2by_file?4c?$AA@ 1009fad8     libeay32_EM.0.9.8e:by_file.obj
 0002:00016af0       _DES_SPtrans               1009faf0     libeay32_EM.0.9.8e:ecb_enc.obj
 0002:000172f0       _OSSL_libdes_version       100a02f0     libeay32_EM.0.9.8e:ecb_enc.obj
 0002:0001731c       _OSSL_DES_version          100a031c     libeay32_EM.0.9.8e:ecb_enc.obj
 0002:00017344       ??_C@_06DPGELLJH@FORMAT?$AA@ 100a0344     libeay32_EM.0.9.8e:asn1_gen.obj
 0002:0001734c       ??_C@_04HPGCGPG@FORM?$AA@  100a034c     libeay32_EM.0.9.8e:asn1_gen.obj
 0002:00017354       ??_C@_07JHDNPBBM@BITWRAP?$AA@ 100a0354     libeay32_EM.0.9.8e:asn1_gen.obj
 0002:0001735c       ??_C@_07OAIMKKNN@SETWRAP?$AA@ 100a035c     libeay32_EM.0.9.8e:asn1_gen.obj
 0002:00017364       ??_C@_07LAEBDLGO@SEQWRAP?$AA@ 100a0364     libeay32_EM.0.9.8e:asn1_gen.obj
 0002:0001736c       ??_C@_07KIEILLID@OCTWRAP?$AA@ 100a036c     libeay32_EM.0.9.8e:asn1_gen.obj
 0002:00017374       ??_C@_08PPMOEJGF@IMPLICIT?$AA@ 100a0374     libeay32_EM.0.9.8e:asn1_gen.obj
 0002:00017380       ??_C@_03PKFOHEJD@IMP?$AA@  100a0380     libeay32_EM.0.9.8e:asn1_gen.obj
 0002:00017384       ??_C@_08CNKBIFDO@EXPLICIT?$AA@ 100a0384     libeay32_EM.0.9.8e:asn1_gen.obj
 0002:00017390       ??_C@_03KKGFKKLA@EXP?$AA@  100a0390     libeay32_EM.0.9.8e:asn1_gen.obj
 0002:00017394       ??_C@_03KPIFFHNE@SET?$AA@  100a0394     libeay32_EM.0.9.8e:asn1_gen.obj
 0002:00017398       ??_C@_03NCPCKDJB@SEQ?$AA@  100a0398     libeay32_EM.0.9.8e:asn1_gen.obj
 0002:0001739c       ??_C@_08POLPFBMC@SEQUENCE?$AA@ 100a039c     libeay32_EM.0.9.8e:asn1_gen.obj
 0002:000173a8       ??_C@_06GBOJAPHH@GENSTR?$AA@ 100a03a8     libeay32_EM.0.9.8e:asn1_gen.obj
 0002:000173b0       ??_C@_0O@OIKLOOAP@GeneralString?$AA@ 100a03b0     libeay32_EM.0.9.8e:asn1_gen.obj
 0002:000173c0       ??_C@_0O@GENPGMAM@TELETEXSTRING?$AA@ 100a03c0     libeay32_EM.0.9.8e:asn1_gen.obj
 0002:000173d0       ??_C@_09FMBHBANP@T61STRING?$AA@ 100a03d0     libeay32_EM.0.9.8e:asn1_gen.obj
 0002:000173dc       ??_C@_03HMGPCGIG@T61?$AA@  100a03dc     libeay32_EM.0.9.8e:asn1_gen.obj
 0002:000173e0       ??_C@_09OMDMMLJJ@PRINTABLE?$AA@ 100a03e0     libeay32_EM.0.9.8e:asn1_gen.obj
 0002:000173ec       ??_C@_0BA@FKHILLED@PRINTABLESTRING?$AA@ 100a03ec     libeay32_EM.0.9.8e:asn1_gen.obj
 0002:000173fc       ??_C@_07MCGNPFEO@VISIBLE?$AA@ 100a03fc     libeay32_EM.0.9.8e:asn1_gen.obj
 0002:00017404       ??_C@_0O@KDAJCBO@VISIBLESTRING?$AA@ 100a0404     libeay32_EM.0.9.8e:asn1_gen.obj
 0002:00017414       ??_C@_09BIBABMFN@BMPSTRING?$AA@ 100a0414     libeay32_EM.0.9.8e:asn1_gen.obj
 0002:00017420       ??_C@_03CNFPPDJC@BMP?$AA@  100a0420     libeay32_EM.0.9.8e:asn1_gen.obj
 0002:00017424       ??_C@_0L@PJIJIHJD@UTF8String?$AA@ 100a0424     libeay32_EM.0.9.8e:asn1_gen.obj
 0002:00017430       ??_C@_04OOMJJNCF@UTF8?$AA@ 100a0430     libeay32_EM.0.9.8e:asn1_gen.obj
 0002:00017438       ??_C@_09JOMPLKGB@IA5STRING?$AA@ 100a0438     libeay32_EM.0.9.8e:asn1_gen.obj
 0002:00017444       ??_C@_03OLMOBCBF@IA5?$AA@  100a0444     libeay32_EM.0.9.8e:asn1_gen.obj
 0002:00017448       ??_C@_04CBEPCLMK@UNIV?$AA@ 100a0448     libeay32_EM.0.9.8e:asn1_gen.obj
 0002:00017450       ??_C@_0BA@EJHHDALK@UNIVERSALSTRING?$AA@ 100a0450     libeay32_EM.0.9.8e:asn1_gen.obj
 0002:00017460       ??_C@_09MBLGEDKL@BITSTRING?$AA@ 100a0460     libeay32_EM.0.9.8e:asn1_gen.obj
 0002:0001746c       ??_C@_06GOEDGPII@BITSTR?$AA@ 100a046c     libeay32_EM.0.9.8e:asn1_gen.obj
 0002:00017474       ??_C@_0M@JIDALIGG@OCTETSTRING?$AA@ 100a0474     libeay32_EM.0.9.8e:asn1_gen.obj
 0002:00017480       ??_C@_03LBMHMDEB@OCT?$AA@  100a0480     libeay32_EM.0.9.8e:asn1_gen.obj
 0002:00017484       ??_C@_07EECHABMP@GENTIME?$AA@ 100a0484     libeay32_EM.0.9.8e:asn1_gen.obj
 0002:0001748c       ??_C@_0BA@LKNBIJBB@GENERALIZEDTIME?$AA@ 100a048c     libeay32_EM.0.9.8e:asn1_gen.obj
 0002:0001749c       ??_C@_03JCIJEFNJ@UTC?$AA@  100a049c     libeay32_EM.0.9.8e:asn1_gen.obj
 0002:000174a0       ??_C@_07HIOLDDN@UTCTIME?$AA@ 100a04a0     libeay32_EM.0.9.8e:asn1_gen.obj
 0002:000174a8       ??_C@_06IAMCMNFI@OBJECT?$AA@ 100a04a8     libeay32_EM.0.9.8e:asn1_gen.obj
 0002:000174b0       ??_C@_03PGJCFEMG@OID?$AA@  100a04b0     libeay32_EM.0.9.8e:asn1_gen.obj
 0002:000174b4       ??_C@_0L@KNIEMAKM@ENUMERATED?$AA@ 100a04b4     libeay32_EM.0.9.8e:asn1_gen.obj
 0002:000174c0       ??_C@_04PNKFCNMG@ENUM?$AA@ 100a04c0     libeay32_EM.0.9.8e:asn1_gen.obj
 0002:000174c8       ??_C@_07EHCIHKNF@INTEGER?$AA@ 100a04c8     libeay32_EM.0.9.8e:asn1_gen.obj
 0002:000174d0       ??_C@_03JMHEAPMO@INT?$AA@  100a04d0     libeay32_EM.0.9.8e:asn1_gen.obj
 0002:000174d4       ??_C@_07JDEDMABE@BOOLEAN?$AA@ 100a04d4     libeay32_EM.0.9.8e:asn1_gen.obj
 0002:000174dc       ??_C@_04PPJDIBFE@BOOL?$AA@ 100a04dc     libeay32_EM.0.9.8e:asn1_gen.obj
 0002:000174e4       ??_C@_05NALEHOPE@Char?$DN?$AA@ 100a04e4     libeay32_EM.0.9.8e:asn1_gen.obj
 0002:000174ec       ??_C@_0BJ@PGICCAGB@?4?2crypto?2asn1?2asn1_gen?4c?$AA@ 100a04ec     libeay32_EM.0.9.8e:asn1_gen.obj
 0002:00017508       ??_C@_07HMNLDFAL@BITLIST?$AA@ 100a0508     libeay32_EM.0.9.8e:asn1_gen.obj
 0002:00017510       ??_C@_03IECIMIEG@HEX?$AA@  100a0510     libeay32_EM.0.9.8e:asn1_gen.obj
 0002:00017514       ??_C@_05CCNLIHFO@ASCII?$AA@ 100a0514     libeay32_EM.0.9.8e:asn1_gen.obj
 0002:0001751c       ??_C@_04JBGFELJA@tag?$DN?$AA@ 100a051c     libeay32_EM.0.9.8e:asn1_gen.obj
 0002:00017524       ??_C@_07IOGEOOAA@string?$DN?$AA@ 100a0524     libeay32_EM.0.9.8e:asn1_gen.obj
 0002:0001752c       _CONF_version              100a052c     libeay32_EM.0.9.8e:conf_lib.obj
 0002:00017554       ??_C@_0BJ@NLLAICIC@?4?2crypto?2conf?2conf_lib?4c?$AA@ 100a0554     libeay32_EM.0.9.8e:conf_lib.obj
 0002:00017570       ??_C@_06BDPCGOPM@group?$DN?$AA@ 100a0570     libeay32_EM.0.9.8e:conf_lib.obj
 0002:00017578       ??_C@_06NGDKEHGB@?5name?$DN?$AA@ 100a0578     libeay32_EM.0.9.8e:conf_lib.obj
 0002:00017594       ??_C@_0BJ@BDGEMPMC@?4?2crypto?2x509v3?2v3_utl?4c?$AA@ 100a0594     libeay32_EM.0.9.8e:v3_utl.obj
 0002:000175b0       ??_C@_05MAJJAKPI@FALSE?$AA@ 100a05b0     libeay32_EM.0.9.8e:v3_utl.obj
 0002:000175b8       ??_C@_04HCDDPBNL@TRUE?$AA@ 100a05b8     libeay32_EM.0.9.8e:v3_utl.obj
 0002:000175c0       ??_C@_08PCLJGJAL@section?3?$AA@ 100a05c0     libeay32_EM.0.9.8e:v3_utl.obj
 0002:000175cc       ??_C@_06FONLLLNC@?0name?3?$AA@ 100a05cc     libeay32_EM.0.9.8e:v3_utl.obj
 0002:000175d4       ??_C@_07BDICHDDB@?0value?3?$AA@ 100a05d4     libeay32_EM.0.9.8e:v3_utl.obj
 0002:000175dc       ??_C@_02KAJCLHKP@no?$AA@   100a05dc     libeay32_EM.0.9.8e:v3_utl.obj
 0002:000175e0       ??_C@_02NFLNFON@NO?$AA@    100a05e0     libeay32_EM.0.9.8e:v3_utl.obj
 0002:000175e4       ??_C@_01NANMIPIL@N?$AA@    100a05e4     libeay32_EM.0.9.8e:v3_utl.obj
 0002:000175e8       ??_C@_05LAPONLG@false?$AA@ 100a05e8     libeay32_EM.0.9.8e:v3_utl.obj
 0002:000175f0       ??_C@_03ICICOMAL@yes?$AA@  100a05f0     libeay32_EM.0.9.8e:v3_utl.obj
 0002:000175f4       ??_C@_03IPHJCBHH@YES?$AA@  100a05f4     libeay32_EM.0.9.8e:v3_utl.obj
 0002:000175f8       ??_C@_01EANLCPLP@y?$AA@    100a05f8     libeay32_EM.0.9.8e:v3_utl.obj
 0002:000175fc       ??_C@_01NFFPALBN@Y?$AA@    100a05fc     libeay32_EM.0.9.8e:v3_utl.obj
 0002:00017600       ??_C@_04LOAJBDKD@true?$AA@ 100a0600     libeay32_EM.0.9.8e:v3_utl.obj
 0002:00017608       ??_C@_0BA@CNEIDKOH@base64?5encoding?$AA@ 100a0608     libeay32_EM.0.9.8e:bio_b64.obj
 0002:00017618       ??_C@_0BH@CICFIAAN@?4?2crypto?2evp?2bio_b64?4c?$AA@ 100a0618     libeay32_EM.0.9.8e:bio_b64.obj
 0002:00017630       ??_C@_0CH@JADBFJCL@ctx?9?$DObuf_off?$CLi?5?$DM?5?$CIint?$CJsizeof?$CIctx@ 100a0630     libeay32_EM.0.9.8e:bio_b64.obj
 0002:00017658       ??_C@_0BF@IHGKFBOP@?4?2crypto?2bn?2bn_mod?4c?$AA@ 100a0658     libeay32_EM.0.9.8e:bn_mod.obj
 0002:00017670       ??_C@_0BF@NFDFGKJD@?4?2crypto?2bn?2bn_div?4c?$AA@ 100a0670     libeay32_EM.0.9.8e:bn_div.obj
 0002:000196bc       ??_C@_05JJPGCIKH@?2?$CF02X?$AA@ 100a26bc     libeay32_EM.0.9.8e:a_strex.obj
 0002:000196c4       ??_C@_01KICIPPFI@?2?$AA@   100a26c4     libeay32_EM.0.9.8e:a_strex.obj
 0002:000196c8       ??_C@_07FDBPKGOC@?2U?$CF04lX?$AA@ 100a26c8     libeay32_EM.0.9.8e:a_strex.obj
 0002:000196d0       ??_C@_07IOFGAIHD@?2W?$CF08lX?$AA@ 100a26d0     libeay32_EM.0.9.8e:a_strex.obj
 0002:000196d8       ??_C@_0BI@CMDJHDOG@?4?2crypto?2asn1?2a_strex?4c?$AA@ 100a26d8     libeay32_EM.0.9.8e:a_strex.obj
 0002:000196f0       ??_C@_01IPJKGB@?$CD?$AA@   100a26f0     libeay32_EM.0.9.8e:a_strex.obj
 0002:000196f4       ??_C@_01BJJEKLCA@?$CC?$AA@ 100a26f4     libeay32_EM.0.9.8e:a_strex.obj
 0002:000196f8       ??_C@_01NEMOKFLO@?$DN?$AA@ 100a26f8     libeay32_EM.0.9.8e:a_strex.obj
 0002:000196fc       ??_C@_03MHLONNLM@?5?$DN?5?$AA@ 100a26fc     libeay32_EM.0.9.8e:a_strex.obj
 0002:00019700       ??_C@_03NPBFACHO@?5?$CL?5?$AA@ 100a2700     libeay32_EM.0.9.8e:a_strex.obj
 0002:00019704       ??_C@_02LNAEAIDO@?$DL?5?$AA@ 100a2704     libeay32_EM.0.9.8e:a_strex.obj
 0002:00019708       ??_C@_01MIFGBAGJ@?$CL?$AA@ 100a2708     libeay32_EM.0.9.8e:a_strex.obj
 0002:0001970c       ??_C@_06HGILBMJP@rmd160?$AA@ 100a270c     libeay32_EM.0.9.8e:c_alld.obj
 0002:00019714       ??_C@_06ICCLKODP@ripemd?$AA@ 100a2714     libeay32_EM.0.9.8e:c_alld.obj
 0002:0001971c       ??_C@_04LMAPAHKG@dss1?$AA@ 100a271c     libeay32_EM.0.9.8e:c_alld.obj
 0002:00019724       ??_C@_04OFLBMBHM@DSS1?$AA@ 100a2724     libeay32_EM.0.9.8e:c_alld.obj
 0002:0001972c       ??_C@_09KCHAKJIH@ssl3?9sha1?$AA@ 100a272c     libeay32_EM.0.9.8e:c_alld.obj
 0002:00019738       ??_C@_08CBANLEIB@ssl3?9md5?$AA@ 100a2738     libeay32_EM.0.9.8e:c_alld.obj
 0002:00019744       ??_C@_08OKFBGHCE@ssl2?9md5?$AA@ 100a2744     libeay32_EM.0.9.8e:c_alld.obj
 0002:00019750       ??_C@_0M@MJDEJAJF@camellia256?$AA@ 100a2750     libeay32_EM.0.9.8e:c_allc.obj
 0002:0001975c       ??_C@_0M@GKJDDEDB@CAMELLIA256?$AA@ 100a275c     libeay32_EM.0.9.8e:c_allc.obj
 0002:00019768       ??_C@_0M@LGPHADBL@camellia192?$AA@ 100a2768     libeay32_EM.0.9.8e:c_allc.obj
 0002:00019774       ??_C@_0M@BFFAKHLP@CAMELLIA192?$AA@ 100a2774     libeay32_EM.0.9.8e:c_allc.obj
 0002:00019780       ??_C@_0M@EAENAEHA@camellia128?$AA@ 100a2780     libeay32_EM.0.9.8e:c_allc.obj
 0002:0001978c       ??_C@_0M@ODOKKANE@CAMELLIA128?$AA@ 100a278c     libeay32_EM.0.9.8e:c_allc.obj
 0002:00019798       ??_C@_06FIIHOFAC@aes256?$AA@ 100a2798     libeay32_EM.0.9.8e:c_allc.obj
 0002:000197a0       ??_C@_06FBFHPGKM@AES256?$AA@ 100a27a0     libeay32_EM.0.9.8e:c_allc.obj
 0002:000197a8       ??_C@_06CHEEHGIM@aes192?$AA@ 100a27a8     libeay32_EM.0.9.8e:c_allc.obj
 0002:000197b0       ??_C@_06COJEGFCC@AES192?$AA@ 100a27b0     libeay32_EM.0.9.8e:c_allc.obj
 0002:000197b8       ??_C@_06NBPOHBOH@aes128?$AA@ 100a27b8     libeay32_EM.0.9.8e:c_allc.obj
 0002:000197c0       ??_C@_06NICOGCEJ@AES128?$AA@ 100a27c0     libeay32_EM.0.9.8e:c_allc.obj
 0002:000197c8       ??_C@_03GPFCBGOF@RC5?$AA@  100a27c8     libeay32_EM.0.9.8e:c_allc.obj
 0002:000197cc       ??_C@_03PHCNPPDL@rc5?$AA@  100a27cc     libeay32_EM.0.9.8e:c_allc.obj
 0002:000197d0       ??_C@_08DICLOHAG@cast?9cbc?$AA@ 100a27d0     libeay32_EM.0.9.8e:c_allc.obj
 0002:000197dc       ??_C@_08ILLNDLFJ@CAST?9cbc?$AA@ 100a27dc     libeay32_EM.0.9.8e:c_allc.obj
 0002:000197e8       ??_C@_04HJDBPPOC@cast?$AA@ 100a27e8     libeay32_EM.0.9.8e:c_allc.obj
 0002:000197f0       ??_C@_04LFALBNJK@CAST?$AA@ 100a27f0     libeay32_EM.0.9.8e:c_allc.obj
 0002:000197f8       ??_C@_08CMDBPLDA@blowfish?$AA@ 100a27f8     libeay32_EM.0.9.8e:c_allc.obj
 0002:00019804       ??_C@_02HIEKPFIC@bf?$AA@   100a2804     libeay32_EM.0.9.8e:c_allc.obj
 0002:00019808       ??_C@_02NFIDJHMA@BF?$AA@   100a2808     libeay32_EM.0.9.8e:c_allc.obj
 0002:0001980c       ??_C@_03LIGMGJPM@rc2?$AA@  100a280c     libeay32_EM.0.9.8e:c_allc.obj
 0002:00019810       ??_C@_03CABDIACC@RC2?$AA@  100a2810     libeay32_EM.0.9.8e:c_allc.obj
 0002:00019814       ??_C@_04CLEBCOKH@idea?$AA@ 100a2814     libeay32_EM.0.9.8e:c_allc.obj
 0002:0001981c       ??_C@_04OHHLMMNP@IDEA?$AA@ 100a281c     libeay32_EM.0.9.8e:c_allc.obj
 0002:00019824       ??_C@_04PLELGNGH@des3?$AA@ 100a2824     libeay32_EM.0.9.8e:c_allc.obj
 0002:0001982c       ??_C@_04KCPFKLLN@DES3?$AA@ 100a282c     libeay32_EM.0.9.8e:c_allc.obj
 0002:00019834       ??_C@_03CAPBGDEJ@des?$AA@  100a2834     libeay32_EM.0.9.8e:c_allc.obj
 0002:00019838       ??_C@_03CNAKKODF@DES?$AA@  100a2838     libeay32_EM.0.9.8e:c_allc.obj
 0002:0001983c       ??_C@_04OIMGPLKJ@desx?$AA@ 100a283c     libeay32_EM.0.9.8e:c_allc.obj
 0002:00019844       ??_C@_04CEPMBJNB@DESX?$AA@ 100a2844     libeay32_EM.0.9.8e:c_allc.obj
 0002:0001984c       ??_C@_09FGHEBGDO@?$DMASN1?529?$DO?$AA@ 100a284c     libeay32_EM.0.9.8e:asn1_par.obj
 0002:00019858       ??_C@_0O@DKDEPFLO@GENERALSTRING?$AA@ 100a2858     libeay32_EM.0.9.8e:asn1_par.obj
 0002:00019868       ??_C@_0O@MABADFB@GRAPHICSTRING?$AA@ 100a2868     libeay32_EM.0.9.8e:asn1_par.obj
 0002:00019878       ??_C@_0P@LNAMNBEL@VIDEOTEXSTRING?$AA@ 100a2878     libeay32_EM.0.9.8e:asn1_par.obj
 0002:00019888       ??_C@_0O@DFADMOGA@NUMERICSTRING?$AA@ 100a2888     libeay32_EM.0.9.8e:asn1_par.obj
 0002:00019898       ??_C@_09ENNLEALE@?$DMASN1?515?$DO?$AA@ 100a2898     libeay32_EM.0.9.8e:asn1_par.obj
 0002:000198a4       ??_C@_09EMBJCKID@?$DMASN1?514?$DO?$AA@ 100a28a4     libeay32_EM.0.9.8e:asn1_par.obj
 0002:000198b0       ??_C@_09EJFGDMAG@?$DMASN1?513?$DO?$AA@ 100a28b0     libeay32_EM.0.9.8e:asn1_par.obj
 0002:000198bc       ??_C@_0L@DCBPGANN@UTF8STRING?$AA@ 100a28bc     libeay32_EM.0.9.8e:asn1_par.obj
 0002:000198c8       ??_C@_09EKNCOIGI@?$DMASN1?511?$DO?$AA@ 100a28c8     libeay32_EM.0.9.8e:asn1_par.obj
 0002:000198d4       ??_C@_04PKFANLLI@REAL?$AA@ 100a28d4     libeay32_EM.0.9.8e:asn1_par.obj
 0002:000198dc       ??_C@_08JHLDEHEK@EXTERNAL?$AA@ 100a28dc     libeay32_EM.0.9.8e:asn1_par.obj
 0002:000198e8       ??_C@_0BC@HDOCNDIH@OBJECT?5DESCRIPTOR?$AA@ 100a28e8     libeay32_EM.0.9.8e:asn1_par.obj
 0002:000198fc       ??_C@_0N@KPGGMDFC@OCTET?5STRING?$AA@ 100a28fc     libeay32_EM.0.9.8e:asn1_par.obj
 0002:0001990c       ??_C@_0L@EKOKPLKE@BIT?5STRING?$AA@ 100a290c     libeay32_EM.0.9.8e:asn1_par.obj
 0002:00019918       ??_C@_03NCODFONH@EOC?$AA@  100a2918     libeay32_EM.0.9.8e:asn1_par.obj
 0002:00019930       ??_C@_09GPGAJHPD@?$CIunknown?$CJ?$AA@ 100a2930     libeay32_EM.0.9.8e:asn1_par.obj
 0002:0001993c       ??_C@_02PLJDPFIO@00?$AA@   100a293c     libeay32_EM.0.9.8e:asn1_par.obj
 0002:00019940       ??_C@_03MKABNOCG@Dec?$AA@  100a2940     libeay32_EM.0.9.8e:t_x509.obj
 0002:00019944       ??_C@_03JPJOFNIA@Nov?$AA@  100a2944     libeay32_EM.0.9.8e:t_x509.obj
 0002:00019948       ??_C@_03BMAOKBAD@Oct?$AA@  100a2948     libeay32_EM.0.9.8e:t_x509.obj
 0002:0001994c       ??_C@_03GGCAPAJC@Sep?$AA@  100a294c     libeay32_EM.0.9.8e:t_x509.obj
 0002:00019950       ??_C@_03IFJFEIGA@Aug?$AA@  100a2950     libeay32_EM.0.9.8e:t_x509.obj
 0002:00019954       ??_C@_03LBGABGKK@Jul?$AA@  100a2954     libeay32_EM.0.9.8e:t_x509.obj
 0002:00019958       ??_C@_03IDFGHECI@Jun?$AA@  100a2958     libeay32_EM.0.9.8e:t_x509.obj
 0002:0001995c       ??_C@_03CNMDKL@May?$AA@    100a295c     libeay32_EM.0.9.8e:t_x509.obj
 0002:00019960       ??_C@_03LEOLGMJP@Apr?$AA@  100a2960     libeay32_EM.0.9.8e:t_x509.obj
 0002:00019964       ??_C@_03ODNJBKGA@Mar?$AA@  100a2964     libeay32_EM.0.9.8e:t_x509.obj
 0002:00019968       ??_C@_03HJBDCHOM@Feb?$AA@  100a2968     libeay32_EM.0.9.8e:t_x509.obj
 0002:0001996c       ??_C@_03JIHJHPIE@Jan?$AA@  100a296c     libeay32_EM.0.9.8e:t_x509.obj
 0002:00019970       ??_C@_0BH@JKAMAPCI@?4?2crypto?2asn1?2t_x509?4c?$AA@ 100a2970     libeay32_EM.0.9.8e:t_x509.obj
 0002:00019988       ??_C@_0P@FGACABCD@Bad?5time?5value?$AA@ 100a2988     libeay32_EM.0.9.8e:t_x509.obj
 0002:00019998       ??_C@_0BL@NKCHLFNC@?$CFs?5?$CF2d?5?$CF02d?3?$CF02d?3?$CF02d?5?$CFd?$CFs?$AA@ 100a2998     libeay32_EM.0.9.8e:t_x509.obj
 0002:000199b4       ??_C@_04FIEKMBKB@?5GMT?$AA@ 100a29b4     libeay32_EM.0.9.8e:t_x509.obj
 0002:000199c0       _RMD160_version            100a29c0     libeay32_EM.0.9.8e:rmd_dgst.obj
 0002:000199f0       _v3_crl_num                100a29f0     libeay32_EM.0.9.8e:v3_int.obj
 0002:00019a28       _v3_delta_crl              100a2a28     libeay32_EM.0.9.8e:v3_int.obj
 0002:00019a60       _v3_inhibit_anyp           100a2a60     libeay32_EM.0.9.8e:v3_int.obj
 0002:00019a98       ??_C@_0BA@DHPBCFFC@POLICY_MAPPINGS?$AA@ 100a2a98     libeay32_EM.0.9.8e:v3_pmaps.obj
 0002:00019aa8       ??_C@_0P@NLHMKCKF@POLICY_MAPPING?$AA@ 100a2aa8     libeay32_EM.0.9.8e:v3_pmaps.obj
 0002:00019ab8       ??_C@_0BE@FFIKMOKF@subjectDomainPolicy?$AA@ 100a2ab8     libeay32_EM.0.9.8e:v3_pmaps.obj
 0002:00019acc       ??_C@_0BD@JILOPHFL@issuerDomainPolicy?$AA@ 100a2acc     libeay32_EM.0.9.8e:v3_pmaps.obj
 0002:00019ae0       _v3_policy_mappings        100a2ae0     libeay32_EM.0.9.8e:v3_pmaps.obj
 0002:00019b8c       ??_C@_0BL@FPBGMIJF@?4?2crypto?2x509v3?2v3_pmaps?4c?$AA@ 100a2b8c     libeay32_EM.0.9.8e:v3_pmaps.obj
 0002:00019ba8       ??_C@_0BB@MLLJAFMN@NAME_CONSTRAINTS?$AA@ 100a2ba8     libeay32_EM.0.9.8e:v3_ncons.obj
 0002:00019bbc       ??_C@_0BB@HLFEMJKE@excludedSubtrees?$AA@ 100a2bbc     libeay32_EM.0.9.8e:v3_ncons.obj
 0002:00019bd0       ??_C@_0BC@FACFJLFB@permittedSubtrees?$AA@ 100a2bd0     libeay32_EM.0.9.8e:v3_ncons.obj
 0002:00019be4       ??_C@_0BA@ECMIFHDE@GENERAL_SUBTREE?$AA@ 100a2be4     libeay32_EM.0.9.8e:v3_ncons.obj
 0002:00019bf4       ??_C@_07MEIENILC@maximum?$AA@ 100a2bf4     libeay32_EM.0.9.8e:v3_ncons.obj
 0002:00019bfc       ??_C@_07CCOEHHFD@minimum?$AA@ 100a2bfc     libeay32_EM.0.9.8e:v3_ncons.obj
 0002:00019c04       _v3_name_constraints       100a2c04     libeay32_EM.0.9.8e:v3_ncons.obj
 0002:00019cd8       ??_C@_0BL@IDMCNIEC@?4?2crypto?2x509v3?2v3_ncons?4c?$AA@ 100a2cd8     libeay32_EM.0.9.8e:v3_ncons.obj
 0002:00019cf4       ??_C@_08HPCEJEEF@excluded?$AA@ 100a2cf4     libeay32_EM.0.9.8e:v3_ncons.obj
 0002:00019d00       ??_C@_09HAKFOFAM@permitted?$AA@ 100a2d00     libeay32_EM.0.9.8e:v3_ncons.obj
 0002:00019d0c       ??_C@_0BF@JMMIKJMP@IP?5Address?3?$DMinvalid?$DO?$AA@ 100a2d0c     libeay32_EM.0.9.8e:v3_ncons.obj
 0002:00019d24       ??_C@_01KMDKNFGN@?1?$AA@   100a2d24     libeay32_EM.0.9.8e:v3_ncons.obj
 0002:00019d28       ??_C@_02EMFKHFLK@?$CFX?$AA@ 100a2d28     libeay32_EM.0.9.8e:v3_ncons.obj
 0002:00019d2c       ??_C@_0BI@IFNIGPEJ@?$CFd?4?$CFd?4?$CFd?4?$CFd?1?$CFd?4?$CFd?4?$CFd?4?$CFd?$AA@ 100a2d2c     libeay32_EM.0.9.8e:v3_ncons.obj
 0002:00019d44       ??_C@_03HBLCMHJN@IP?3?$AA@ 100a2d44     libeay32_EM.0.9.8e:v3_ncons.obj
 0002:00019d48       ??_C@_08PNNFBGOG@Excluded?$AA@ 100a2d48     libeay32_EM.0.9.8e:v3_ncons.obj
 0002:00019d54       ??_C@_09DPPIOGNM@Permitted?$AA@ 100a2d54     libeay32_EM.0.9.8e:v3_ncons.obj
 0002:00019d60       _v3_pci                    100a2d60     libeay32_EM.0.9.8e:v3_pci.obj
 0002:00019d98       ??_C@_0BE@HDJEDONA@?$CF?$CKsPolicy?5Text?3?5?$CFs?6?$AA@ 100a2d98     libeay32_EM.0.9.8e:v3_pci.obj
 0002:00019dac       ??_C@_0BF@CGHJNACM@?$CF?$CKsPolicy?5Language?3?5?$AA@ 100a2dac     libeay32_EM.0.9.8e:v3_pci.obj
 0002:00019dc4       ??_C@_08MAJEGHKB@infinite?$AA@ 100a2dc4     libeay32_EM.0.9.8e:v3_pci.obj
 0002:00019dd0       ??_C@_0BM@BMCPHDD@?$CF?$CKsPath?5Length?5Constraint?3?5?$AA@ 100a2dd0     libeay32_EM.0.9.8e:v3_pci.obj
 0002:00019dec       ??_C@_05FHIGHPDA@text?3?$AA@ 100a2dec     libeay32_EM.0.9.8e:v3_pci.obj
 0002:00019df4       ??_C@_05BOPHDICO@file?3?$AA@ 100a2df4     libeay32_EM.0.9.8e:v3_pci.obj
 0002:00019dfc       ??_C@_04ODCMNEMO@hex?3?$AA@ 100a2dfc     libeay32_EM.0.9.8e:v3_pci.obj
 0002:00019e04       ??_C@_06NJNJNICG@policy?$AA@ 100a2e04     libeay32_EM.0.9.8e:v3_pci.obj
 0002:00019e0c       ??_C@_07OGCPICFF@pathlen?$AA@ 100a2e0c     libeay32_EM.0.9.8e:v3_pci.obj
 0002:00019e14       ??_C@_0BJ@KGLHOFNB@?4?2crypto?2x509v3?2v3_pci?4c?$AA@ 100a2e14     libeay32_EM.0.9.8e:v3_pci.obj
 0002:00019e30       ??_C@_08JGCCIMAA@language?$AA@ 100a2e30     libeay32_EM.0.9.8e:v3_pci.obj
 0002:00019e3c       _v3_ocsp_crlid             100a2e3c     libeay32_EM.0.9.8e:v3_ocsp.obj
 0002:00019e74       _v3_ocsp_acutoff           100a2e74     libeay32_EM.0.9.8e:v3_ocsp.obj
 0002:00019eac       _v3_crl_invdate            100a2eac     libeay32_EM.0.9.8e:v3_ocsp.obj
 0002:00019ee4       _v3_crl_hold               100a2ee4     libeay32_EM.0.9.8e:v3_ocsp.obj
 0002:00019f1c       _v3_ocsp_nonce             100a2f1c     libeay32_EM.0.9.8e:v3_ocsp.obj
 0002:00019f54       _v3_ocsp_nocheck           100a2f54     libeay32_EM.0.9.8e:v3_ocsp.obj
 0002:00019f8c       _v3_ocsp_serviceloc        100a2f8c     libeay32_EM.0.9.8e:v3_ocsp.obj
 0002:00019fc4       ??_C@_0N@IBJOMEDL@?$CF?$CKscrlTime?3?5?$AA@ 100a2fc4     libeay32_EM.0.9.8e:v3_ocsp.obj
 0002:00019fd4       ??_C@_0M@MLCMBODE@?$CF?$CKscrlNum?3?5?$AA@ 100a2fd4     libeay32_EM.0.9.8e:v3_ocsp.obj
 0002:00019fe0       ??_C@_0M@KIKBFHBJ@?$CF?$CKscrlUrl?3?5?$AA@ 100a2fe0     libeay32_EM.0.9.8e:v3_ocsp.obj
 0002:00019fec       ??_C@_0BK@FHPEGIMF@?4?2crypto?2x509v3?2v3_ocsp?4c?$AA@ 100a2fec     libeay32_EM.0.9.8e:v3_ocsp.obj
 0002:0001a008       ??_C@_03NLJIHOMM@?5?9?5?$AA@ 100a3008     libeay32_EM.0.9.8e:v3_ocsp.obj
 0002:0001a00c       ??_C@_04NFEJKGEM@?6?$CF?$CKs?$AA@ 100a300c     libeay32_EM.0.9.8e:v3_ocsp.obj
 0002:0001a014       ??_C@_0M@IHOINNJF@?$CF?$CKsIssuer?3?5?$AA@ 100a3014     libeay32_EM.0.9.8e:v3_ocsp.obj
 0002:0001a020       ??_C@_0BD@MMPNIEIJ@POLICY_CONSTRAINTS?$AA@ 100a3020     libeay32_EM.0.9.8e:v3_pcons.obj
 0002:0001a034       ??_C@_0BF@MOMLJGAL@inhibitPolicyMapping?$AA@ 100a3034     libeay32_EM.0.9.8e:v3_pcons.obj
 0002:0001a04c       ??_C@_0BG@HGJBEKFE@requireExplicitPolicy?$AA@ 100a304c     libeay32_EM.0.9.8e:v3_pcons.obj
 0002:0001a064       _v3_policy_constraints     100a3064     libeay32_EM.0.9.8e:v3_pcons.obj
 0002:0001a0e0       ??_C@_0BH@HMKHOMED@Inhibit?5Policy?5Mapping?$AA@ 100a30e0     libeay32_EM.0.9.8e:v3_pcons.obj
 0002:0001a0f8       ??_C@_0BI@HNCHDEDI@Require?5Explicit?5Policy?$AA@ 100a30f8     libeay32_EM.0.9.8e:v3_pcons.obj
 0002:0001a110       ??_C@_0BL@OKPDPLFL@?4?2crypto?2x509v3?2v3_pcons?4c?$AA@ 100a3110     libeay32_EM.0.9.8e:v3_pcons.obj
 0002:0001a12c       ??_C@_0BG@PFEKCAHJ@AUTHORITY_INFO_ACCESS?$AA@ 100a312c     libeay32_EM.0.9.8e:v3_info.obj
 0002:0001a144       ??_C@_0BD@IKHCEBLA@ACCESS_DESCRIPTION?$AA@ 100a3144     libeay32_EM.0.9.8e:v3_info.obj
 0002:0001a158       ??_C@_08CBBFJFMD@location?$AA@ 100a3158     libeay32_EM.0.9.8e:v3_info.obj
 0002:0001a164       ??_C@_06GABBCIBA@method?$AA@ 100a3164     libeay32_EM.0.9.8e:v3_info.obj
 0002:0001a16c       _v3_info                   100a316c     libeay32_EM.0.9.8e:v3_info.obj
 0002:0001a1a4       _v3_sinfo                  100a31a4     libeay32_EM.0.9.8e:v3_info.obj
 0002:0001a250       ??_C@_0BK@CIMABBBK@?4?2crypto?2x509v3?2v3_info?4c?$AA@ 100a3250     libeay32_EM.0.9.8e:v3_info.obj
 0002:0001a26c       ??_C@_0BD@CKAGEBEF@EXTENDED_KEY_USAGE?$AA@ 100a326c     libeay32_EM.0.9.8e:v3_extku.obj
 0002:0001a280       _v3_ext_ku                 100a3280     libeay32_EM.0.9.8e:v3_extku.obj
 0002:0001a2b8       _v3_ocsp_accresp           100a32b8     libeay32_EM.0.9.8e:v3_extku.obj
 0002:0001a320       ??_C@_0BL@DPOLCONE@?4?2crypto?2x509v3?2v3_extku?4c?$AA@ 100a3320     libeay32_EM.0.9.8e:v3_extku.obj
 0002:0001a33c       ??_C@_05BPAJFIHK@SXNET?$AA@ 100a333c     libeay32_EM.0.9.8e:v3_sxnet.obj
 0002:0001a344       ??_C@_03NDFJNBKD@ids?$AA@  100a3344     libeay32_EM.0.9.8e:v3_sxnet.obj
 0002:0001a348       ??_C@_07FLDOGLPN@SXNETID?$AA@ 100a3348     libeay32_EM.0.9.8e:v3_sxnet.obj
 0002:0001a350       ??_C@_04CCHAHKJA@user?$AA@ 100a3350     libeay32_EM.0.9.8e:v3_sxnet.obj
 0002:0001a358       ??_C@_04LDDJGOBB@zone?$AA@ 100a3358     libeay32_EM.0.9.8e:v3_sxnet.obj
 0002:0001a360       _v3_sxnet                  100a3360     libeay32_EM.0.9.8e:v3_sxnet.obj
 0002:0001a420       ??_C@_0BF@NMLBNADB@?6?$CF?$CKsZone?3?5?$CFs?0?5User?3?5?$AA@ 100a3420     libeay32_EM.0.9.8e:v3_sxnet.obj
 0002:0001a438       ??_C@_0BI@GOEPAKBG@?$CF?$CKsVersion?3?5?$CFld?5?$CI0x?$CFlX?$CJ?$AA@ 100a3438     libeay32_EM.0.9.8e:v3_sxnet.obj
 0002:0001a450       ??_C@_0BL@CAPOOOIB@?4?2crypto?2x509v3?2v3_sxnet?4c?$AA@ 100a3450     libeay32_EM.0.9.8e:v3_sxnet.obj
 0002:0001a46c       ??_C@_0O@BILLKPKO@removeFromCRL?$AA@ 100a346c     libeay32_EM.0.9.8e:v3_enum.obj
 0002:0001a47c       ??_C@_0BA@GLPEKBIK@Remove?5From?5CRL?$AA@ 100a347c     libeay32_EM.0.9.8e:v3_enum.obj
 0002:0001a48c       ??_C@_0BA@FBHLCNLK@certificateHold?$AA@ 100a348c     libeay32_EM.0.9.8e:v3_enum.obj
 0002:0001a49c       ??_C@_0BB@IPDHDNJD@Certificate?5Hold?$AA@ 100a349c     libeay32_EM.0.9.8e:v3_enum.obj
 0002:0001a4b0       ??_C@_0BF@IGJCOPF@cessationOfOperation?$AA@ 100a34b0     libeay32_EM.0.9.8e:v3_enum.obj
 0002:0001a4c8       ??_C@_0BH@OLCOAMGF@Cessation?5Of?5Operation?$AA@ 100a34c8     libeay32_EM.0.9.8e:v3_enum.obj
 0002:0001a4e0       ??_C@_0L@NHCKNIFL@superseded?$AA@ 100a34e0     libeay32_EM.0.9.8e:v3_enum.obj
 0002:0001a4ec       ??_C@_0L@FBLGFHIM@Superseded?$AA@ 100a34ec     libeay32_EM.0.9.8e:v3_enum.obj
 0002:0001a4f8       ??_C@_0BD@BNOFAJLL@affiliationChanged?$AA@ 100a34f8     libeay32_EM.0.9.8e:v3_enum.obj
 0002:0001a50c       ??_C@_0BE@EECEIFAP@Affiliation?5Changed?$AA@ 100a350c     libeay32_EM.0.9.8e:v3_enum.obj
 0002:0001a520       ??_C@_0N@NONEFGOE@CACompromise?$AA@ 100a3520     libeay32_EM.0.9.8e:v3_enum.obj
 0002:0001a530       ??_C@_0O@OOGICOKH@CA?5Compromise?$AA@ 100a3530     libeay32_EM.0.9.8e:v3_enum.obj
 0002:0001a540       ??_C@_0O@MCEAAJLH@keyCompromise?$AA@ 100a3540     libeay32_EM.0.9.8e:v3_enum.obj
 0002:0001a550       ??_C@_0P@JENDIECI@Key?5Compromise?$AA@ 100a3550     libeay32_EM.0.9.8e:v3_enum.obj
 0002:0001a560       ??_C@_0M@MFMDLEDN@unspecified?$AA@ 100a3560     libeay32_EM.0.9.8e:v3_enum.obj
 0002:0001a56c       ??_C@_0M@NNPCGPMF@Unspecified?$AA@ 100a356c     libeay32_EM.0.9.8e:v3_enum.obj
 0002:0001a578       _v3_crl_reason             100a3578     libeay32_EM.0.9.8e:v3_enum.obj
 0002:0001a5b0       ??_C@_0BA@BBHAIMOE@CRL_DIST_POINTS?$AA@ 100a35b0     libeay32_EM.0.9.8e:v3_crld.obj
 0002:0001a5c0       ??_C@_0BG@CHNNADAE@CRLDistributionPoints?$AA@ 100a35c0     libeay32_EM.0.9.8e:v3_crld.obj
 0002:0001a5d8       ??_C@_0L@ELIKPJIH@DIST_POINT?$AA@ 100a35d8     libeay32_EM.0.9.8e:v3_crld.obj
 0002:0001a5e4       ??_C@_09GJHADLCP@CRLissuer?$AA@ 100a35e4     libeay32_EM.0.9.8e:v3_crld.obj
 0002:0001a5f0       ??_C@_07PFOCLIJD@reasons?$AA@ 100a35f0     libeay32_EM.0.9.8e:v3_crld.obj
 0002:0001a5f8       ??_C@_09FBDFGJDL@distpoint?$AA@ 100a35f8     libeay32_EM.0.9.8e:v3_crld.obj
 0002:0001a604       ??_C@_0BA@MLHIPLLG@DIST_POINT_NAME?$AA@ 100a3604     libeay32_EM.0.9.8e:v3_crld.obj
 0002:0001a614       ??_C@_0BC@JDMJBKME@name?4relativename?$AA@ 100a3614     libeay32_EM.0.9.8e:v3_crld.obj
 0002:0001a628       ??_C@_0O@HJHJCLAE@name?4fullname?$AA@ 100a3628     libeay32_EM.0.9.8e:v3_crld.obj
 0002:0001a638       _v3_crld                   100a3638     libeay32_EM.0.9.8e:v3_crld.obj
 0002:0001a73c       ??_C@_0N@MEPBKIIA@RelativeName?$AA@ 100a373c     libeay32_EM.0.9.8e:v3_crld.obj
 0002:0001a74c       ??_C@_0O@FPIPKELN@?$DMUNSUPPORTED?$DO?$AA@ 100a374c     libeay32_EM.0.9.8e:v3_crld.obj
 0002:0001a75c       ??_C@_0BK@GFBFBDBE@?4?2crypto?2x509v3?2v3_crld?4c?$AA@ 100a375c     libeay32_EM.0.9.8e:v3_crld.obj
 0002:0001a778       _v3_akey_id                100a3778     libeay32_EM.0.9.8e:v3_akey.obj
 0002:0001a7b0       ??_C@_0BK@HJDALMFN@?4?2crypto?2x509v3?2v3_akey?4c?$AA@ 100a37b0     libeay32_EM.0.9.8e:v3_akey.obj
 0002:0001a7cc       ??_C@_06KHDOHNKC@always?$AA@ 100a37cc     libeay32_EM.0.9.8e:v3_akey.obj
 0002:0001a7d4       ??_C@_09DFHLGOKA@NOTICEREF?$AA@ 100a37d4     libeay32_EM.0.9.8e:v3_cpols.obj
 0002:0001a7e0       ??_C@_09CFGHNILC@noticenos?$AA@ 100a37e0     libeay32_EM.0.9.8e:v3_cpols.obj
 0002:0001a7ec       ??_C@_0N@HEIPMDAG@organization?$AA@ 100a37ec     libeay32_EM.0.9.8e:v3_cpols.obj
 0002:0001a7fc       ??_C@_0L@HCNDPADF@USERNOTICE?$AA@ 100a37fc     libeay32_EM.0.9.8e:v3_cpols.obj
 0002:0001a808       ??_C@_07MHGINJOA@exptext?$AA@ 100a3808     libeay32_EM.0.9.8e:v3_cpols.obj
 0002:0001a810       ??_C@_09FIKFDFH@noticeref?$AA@ 100a3810     libeay32_EM.0.9.8e:v3_cpols.obj
 0002:0001a81c       ??_C@_0P@POBJIHLD@POLICYQUALINFO?$AA@ 100a381c     libeay32_EM.0.9.8e:v3_cpols.obj
 0002:0001a82c       ??_C@_07LEEILOKB@pqualid?$AA@ 100a382c     libeay32_EM.0.9.8e:v3_cpols.obj
 0002:0001a834       ??_C@_0N@JPAHANFF@d?4usernotice?$AA@ 100a3834     libeay32_EM.0.9.8e:v3_cpols.obj
 0002:0001a844       ??_C@_08EECALGEF@d?4cpsuri?$AA@ 100a3844     libeay32_EM.0.9.8e:v3_cpols.obj
 0002:0001a850       ??_C@_0L@POLPGHJK@POLICYINFO?$AA@ 100a3850     libeay32_EM.0.9.8e:v3_cpols.obj
 0002:0001a85c       ??_C@_0L@HMNGMMJI@qualifiers?$AA@ 100a385c     libeay32_EM.0.9.8e:v3_cpols.obj
 0002:0001a868       ??_C@_08NEBFOBH@policyid?$AA@ 100a3868     libeay32_EM.0.9.8e:v3_cpols.obj
 0002:0001a874       ??_C@_0BE@GJBJOOCP@CERTIFICATEPOLICIES?$AA@ 100a3874     libeay32_EM.0.9.8e:v3_cpols.obj
 0002:0001a888       _v3_cpols                  100a3888     libeay32_EM.0.9.8e:v3_cpols.obj
 0002:0001aa60       ??_C@_0BL@DEDBBIKA@?4?2crypto?2x509v3?2v3_cpols?4c?$AA@ 100a3a60     libeay32_EM.0.9.8e:v3_cpols.obj
 0002:0001aa7c       ??_C@_0BG@IHHCDAMH@?$CF?$CKsExplicit?5Text?3?5?$CFs?6?$AA@ 100a3a7c     libeay32_EM.0.9.8e:v3_cpols.obj
 0002:0001aa94       ??_C@_0O@EFHNHHDA@?$CF?$CKsNumber?$CFs?3?5?$AA@ 100a3a94     libeay32_EM.0.9.8e:v3_cpols.obj
 0002:0001aaa4       ??_C@_0BF@OCNFPJOG@?$CF?$CKsOrganization?3?5?$CFs?6?$AA@ 100a3aa4     libeay32_EM.0.9.8e:v3_cpols.obj
 0002:0001aabc       ??_C@_0O@OKDALMJE@noticeNumbers?$AA@ 100a3abc     libeay32_EM.0.9.8e:v3_cpols.obj
 0002:0001aacc       ??_C@_0N@EALKMFB@explicitText?$AA@ 100a3acc     libeay32_EM.0.9.8e:v3_cpols.obj
 0002:0001aadc       ??_C@_0M@ICGFCJNO@?$CF?$CKsCPS?3?5?$CFs?6?$AA@ 100a3adc     libeay32_EM.0.9.8e:v3_cpols.obj
 0002:0001aae8       ??_C@_0BB@MMPKKFLI@?$CF?$CKsUser?5Notice?3?6?$AA@ 100a3ae8     libeay32_EM.0.9.8e:v3_cpols.obj
 0002:0001aafc       ??_C@_0BH@CHOAEJEJ@?$CF?$CKsUnknown?5Qualifier?3?5?$AA@ 100a3afc     libeay32_EM.0.9.8e:v3_cpols.obj
 0002:0001ab14       ??_C@_0M@BBFMFBLN@?$CF?$CKsPolicy?3?5?$AA@ 100a3b14     libeay32_EM.0.9.8e:v3_cpols.obj
 0002:0001ab20       ??_C@_0L@LADHLIJ@userNotice?$AA@ 100a3b20     libeay32_EM.0.9.8e:v3_cpols.obj
 0002:0001ab2c       ??_C@_03KKDAPHBH@CPS?$AA@  100a3b2c     libeay32_EM.0.9.8e:v3_cpols.obj
 0002:0001ab30       ??_C@_0BB@FIJMMMGE@policyIdentifier?$AA@ 100a3b30     libeay32_EM.0.9.8e:v3_cpols.obj
 0002:0001ab44       ??_C@_06MIFIGELF@ia5org?$AA@ 100a3b44     libeay32_EM.0.9.8e:v3_cpols.obj
 0002:0001ab4c       ??_C@_0BC@PKPCGCD@BASIC_CONSTRAINTS?$AA@ 100a3b4c     libeay32_EM.0.9.8e:v3_bcons.obj
 0002:0001ab60       ??_C@_02DGMJAJHC@ca?$AA@   100a3b60     libeay32_EM.0.9.8e:v3_bcons.obj
 0002:0001ab64       _v3_bcons                  100a3b64     libeay32_EM.0.9.8e:v3_bcons.obj
 0002:0001abe0       ??_C@_02JLAAGLDA@CA?$AA@   100a3be0     libeay32_EM.0.9.8e:v3_bcons.obj
 0002:0001abe4       ??_C@_0BL@NEGNMNAN@?4?2crypto?2x509v3?2v3_bcons?4c?$AA@ 100a3be4     libeay32_EM.0.9.8e:v3_bcons.obj
 0002:0001ac00       _v3_alt                    100a3c00     libeay32_EM.0.9.8e:v3_alt.obj
 0002:0001ac70       ??_C@_0O@KAIENCPE@Registered?5ID?$AA@ 100a3c70     libeay32_EM.0.9.8e:v3_alt.obj
 0002:0001ac80       ??_C@_09DPMBDOD@?$DMinvalid?$DO?$AA@ 100a3c80     libeay32_EM.0.9.8e:v3_alt.obj
 0002:0001ac8c       ??_C@_0L@NGHMMCPJ@IP?5Address?$AA@ 100a3c8c     libeay32_EM.0.9.8e:v3_alt.obj
 0002:0001ac98       ??_C@_07FDBCPIKC@DirName?$AA@ 100a3c98     libeay32_EM.0.9.8e:v3_alt.obj
 0002:0001aca0       ??_C@_03GMOLNBOB@URI?$AA@  100a3ca0     libeay32_EM.0.9.8e:v3_alt.obj
 0002:0001aca4       ??_C@_03CBFPEBNE@DNS?$AA@  100a3ca4     libeay32_EM.0.9.8e:v3_alt.obj
 0002:0001aca8       ??_C@_05HKHCDHCL@email?$AA@ 100a3ca8     libeay32_EM.0.9.8e:v3_alt.obj
 0002:0001acb0       ??_C@_0N@EEELPIKD@EdiPartyName?$AA@ 100a3cb0     libeay32_EM.0.9.8e:v3_alt.obj
 0002:0001acc0       ??_C@_08EBDOEGJI@X400Name?$AA@ 100a3cc0     libeay32_EM.0.9.8e:v3_alt.obj
 0002:0001accc       ??_C@_09PAKBLAPA@othername?$AA@ 100a3ccc     libeay32_EM.0.9.8e:v3_alt.obj
 0002:0001acd8       ??_C@_0O@NHCJKCDC@?$DMunsupported?$DO?$AA@ 100a3cd8     libeay32_EM.0.9.8e:v3_alt.obj
 0002:0001ace8       ??_C@_03NMJGLHB@?3?$CFX?$AA@ 100a3ce8     libeay32_EM.0.9.8e:v3_alt.obj
 0002:0001acec       ??_C@_0BH@OAMIHBGI@IP?5Address?3?$CFd?4?$CFd?4?$CFd?4?$CFd?$AA@ 100a3cec     libeay32_EM.0.9.8e:v3_alt.obj
 0002:0001ad04       ??_C@_09JDCPLDLD@DirName?3?5?$AA@ 100a3d04     libeay32_EM.0.9.8e:v3_alt.obj
 0002:0001ad10       ??_C@_06KCNJMDKO@URI?3?$CFs?$AA@ 100a3d10     libeay32_EM.0.9.8e:v3_alt.obj
 0002:0001ad18       ??_C@_06DNDEBJBH@DNS?3?$CFs?$AA@ 100a3d18     libeay32_EM.0.9.8e:v3_alt.obj
 0002:0001ad20       ??_C@_08LPBGKPKE@email?3?$CFs?$AA@ 100a3d20     libeay32_EM.0.9.8e:v3_alt.obj
 0002:0001ad2c       ??_C@_0BL@HEOLJEB@EdiPartyName?3?$DMunsupported?$DO?$AA@ 100a3d2c     libeay32_EM.0.9.8e:v3_alt.obj
 0002:0001ad48       ??_C@_0BH@HDOLFIDG@X400Name?3?$DMunsupported?$DO?$AA@ 100a3d48     libeay32_EM.0.9.8e:v3_alt.obj
 0002:0001ad60       ??_C@_0BI@PGFKPDEJ@othername?3?$DMunsupported?$DO?$AA@ 100a3d60     libeay32_EM.0.9.8e:v3_alt.obj
 0002:0001ad78       ??_C@_0BJ@EOBOCMHM@?4?2crypto?2x509v3?2v3_alt?4c?$AA@ 100a3d78     libeay32_EM.0.9.8e:v3_alt.obj
 0002:0001ad94       ??_C@_08LNPIPPMM@section?$DN?$AA@ 100a3d94     libeay32_EM.0.9.8e:v3_alt.obj
 0002:0001ada0       ??_C@_09DBGAJPPE@otherName?$AA@ 100a3da0     libeay32_EM.0.9.8e:v3_alt.obj
 0002:0001adac       ??_C@_07KKGEJKPE@dirName?$AA@ 100a3dac     libeay32_EM.0.9.8e:v3_alt.obj
 0002:0001adb4       ??_C@_02MFEOMNPG@IP?$AA@   100a3db4     libeay32_EM.0.9.8e:v3_alt.obj
 0002:0001adb8       ??_C@_03FEOBNLIE@RID?$AA@  100a3db8     libeay32_EM.0.9.8e:v3_alt.obj
 0002:0001adbc       ??_C@_04COAGEIMF@copy?$AA@ 100a3dbc     libeay32_EM.0.9.8e:v3_alt.obj
 0002:0001adc4       ??_C@_04HDMMNHEL@move?$AA@ 100a3dc4     libeay32_EM.0.9.8e:v3_alt.obj
 0002:0001adcc       ??_C@_0BC@CCOKACDM@PKEY_USAGE_PERIOD?$AA@ 100a3dcc     libeay32_EM.0.9.8e:v3_pku.obj
 0002:0001ade0       _v3_pkey_usage_period      100a3de0     libeay32_EM.0.9.8e:v3_pku.obj
 0002:0001ae5c       ??_C@_0M@FCHJLIHE@Not?5After?3?5?$AA@ 100a3e5c     libeay32_EM.0.9.8e:v3_pku.obj
 0002:0001ae68       ??_C@_0N@KGLJEEMK@Not?5Before?3?5?$AA@ 100a3e68     libeay32_EM.0.9.8e:v3_pku.obj
 0002:0001ae78       ??_C@_0N@LIFHMFCO@decipherOnly?$AA@ 100a3e78     libeay32_EM.0.9.8e:v3_bitst.obj
 0002:0001ae88       ??_C@_0O@FKBAPCEG@Decipher?5Only?$AA@ 100a3e88     libeay32_EM.0.9.8e:v3_bitst.obj
 0002:0001ae98       ??_C@_0N@BEFDLIKF@encipherOnly?$AA@ 100a3e98     libeay32_EM.0.9.8e:v3_bitst.obj
 0002:0001aea8       ??_C@_0O@CANGKMJD@Encipher?5Only?$AA@ 100a3ea8     libeay32_EM.0.9.8e:v3_bitst.obj
 0002:0001aeb8       ??_C@_07IHBCCDFJ@cRLSign?$AA@ 100a3eb8     libeay32_EM.0.9.8e:v3_bitst.obj
 0002:0001aec0       ??_C@_08OCJGKMAN@CRL?5Sign?$AA@ 100a3ec0     libeay32_EM.0.9.8e:v3_bitst.obj
 0002:0001aecc       ??_C@_0M@ONBOOMGI@keyCertSign?$AA@ 100a3ecc     libeay32_EM.0.9.8e:v3_bitst.obj
 0002:0001aed8       ??_C@_0BB@ELNGMDLH@Certificate?5Sign?$AA@ 100a3ed8     libeay32_EM.0.9.8e:v3_bitst.obj
 0002:0001aeec       ??_C@_0N@GONHKOEO@keyAgreement?$AA@ 100a3eec     libeay32_EM.0.9.8e:v3_bitst.obj
 0002:0001aefc       ??_C@_0O@EOJOBCHL@Key?5Agreement?$AA@ 100a3efc     libeay32_EM.0.9.8e:v3_bitst.obj
 0002:0001af0c       ??_C@_0BB@LBKKKIGO@dataEncipherment?$AA@ 100a3f0c     libeay32_EM.0.9.8e:v3_bitst.obj
 0002:0001af20       ??_C@_0BC@GNPIAJLP@Data?5Encipherment?$AA@ 100a3f20     libeay32_EM.0.9.8e:v3_bitst.obj
 0002:0001af34       ??_C@_0BA@MINCLOJG@keyEncipherment?$AA@ 100a3f34     libeay32_EM.0.9.8e:v3_bitst.obj
 0002:0001af44       ??_C@_0BB@KNACIBEN@Key?5Encipherment?$AA@ 100a3f44     libeay32_EM.0.9.8e:v3_bitst.obj
 0002:0001af58       ??_C@_0P@GPCNPOGO@nonRepudiation?$AA@ 100a3f58     libeay32_EM.0.9.8e:v3_bitst.obj
 0002:0001af68       ??_C@_0BA@DJCGBBAI@Non?5Repudiation?$AA@ 100a3f68     libeay32_EM.0.9.8e:v3_bitst.obj
 0002:0001af78       ??_C@_0BB@MFKHIIOM@digitalSignature?$AA@ 100a3f78     libeay32_EM.0.9.8e:v3_bitst.obj
 0002:0001af8c       ??_C@_0BC@DPKEIPIO@Digital?5Signature?$AA@ 100a3f8c     libeay32_EM.0.9.8e:v3_bitst.obj
 0002:0001afa0       ??_C@_05JLEIJNEE@objCA?$AA@ 100a3fa0     libeay32_EM.0.9.8e:v3_bitst.obj
 0002:0001afa8       ??_C@_0BC@FAMHGMHB@Object?5Signing?5CA?$AA@ 100a3fa8     libeay32_EM.0.9.8e:v3_bitst.obj
 0002:0001afbc       ??_C@_07FFHDGPMJ@emailCA?$AA@ 100a3fbc     libeay32_EM.0.9.8e:v3_bitst.obj
 0002:0001afc4       ??_C@_09GIEMCMEO@S?1MIME?5CA?$AA@ 100a3fc4     libeay32_EM.0.9.8e:v3_bitst.obj
 0002:0001afd0       ??_C@_05JHLHLOEK@sslCA?$AA@ 100a3fd0     libeay32_EM.0.9.8e:v3_bitst.obj
 0002:0001afd8       ??_C@_06FMDLPOFJ@SSL?5CA?$AA@ 100a3fd8     libeay32_EM.0.9.8e:v3_bitst.obj
 0002:0001afe0       ??_C@_08FINKBBAF@reserved?$AA@ 100a3fe0     libeay32_EM.0.9.8e:v3_bitst.obj
 0002:0001afec       ??_C@_06CGLFEPBO@Unused?$AA@ 100a3fec     libeay32_EM.0.9.8e:v3_bitst.obj
 0002:0001aff4       ??_C@_07GIOKFKGL@objsign?$AA@ 100a3ff4     libeay32_EM.0.9.8e:v3_bitst.obj
 0002:0001affc       ??_C@_0P@DDHLFHHK@Object?5Signing?$AA@ 100a3ffc     libeay32_EM.0.9.8e:v3_bitst.obj
 0002:0001b00c       ??_C@_06HJHJCKIO@server?$AA@ 100a400c     libeay32_EM.0.9.8e:v3_bitst.obj
 0002:0001b014       ??_C@_06DGDLPBAN@client?$AA@ 100a4014     libeay32_EM.0.9.8e:v3_bitst.obj
 0002:0001b01c       _v3_nscert                 100a401c     libeay32_EM.0.9.8e:v3_bitst.obj
 0002:0001b054       _v3_key_usage              100a4054     libeay32_EM.0.9.8e:v3_bitst.obj
 0002:0001b08c       ??_C@_0BL@BMKLALJB@?4?2crypto?2x509v3?2v3_bitst?4c?$AA@ 100a408c     libeay32_EM.0.9.8e:v3_bitst.obj
 0002:0001b0a8       _v3_skey_id                100a40a8     libeay32_EM.0.9.8e:v3_skey.obj
 0002:0001b0e0       ??_C@_0BK@IJHBDBLK@?4?2crypto?2x509v3?2v3_skey?4c?$AA@ 100a40e0     libeay32_EM.0.9.8e:v3_skey.obj
 0002:0001b0fc       ??_C@_04OIJGJDKO@hash?$AA@ 100a40fc     libeay32_EM.0.9.8e:v3_skey.obj
 0002:0001b108       _v3_ns_ia5_list            100a4108     libeay32_EM.0.9.8e:v3_ia5.obj
 0002:0001b2c8       ??_C@_0BJ@HJHFFFPI@?4?2crypto?2x509v3?2v3_ia5?4c?$AA@ 100a42c8     libeay32_EM.0.9.8e:v3_ia5.obj
 0002:0001b2e4       ??_C@_0BL@PDJKIALP@?4?2crypto?2objects?2o_names?4c?$AA@ 100a42e4     libeay32_EM.0.9.8e:o_names.obj
 0002:0001b300       ??_C@_0BH@OMCHJHAP@?4?2crypto?2evp?2evp_pbe?4c?$AA@ 100a4300     libeay32_EM.0.9.8e:evp_pbe.obj
 0002:0001b318       ??_C@_09HNNFIOJN@service?$DN?8?$AA@ 100a4318     libeay32_EM.0.9.8e:b_sock.obj
 0002:0001b324       ??_C@_01GEODFPGF@?8?$AA@   100a4324     libeay32_EM.0.9.8e:b_sock.obj
 0002:0001b328       ??_C@_06IBHFMCPJ@gopher?$AA@ 100a4328     libeay32_EM.0.9.8e:b_sock.obj
 0002:0001b330       ??_C@_03LMDBDBEG@ftp?$AA@  100a4330     libeay32_EM.0.9.8e:b_sock.obj
 0002:0001b334       ??_C@_05BCHGOAMK@https?$AA@ 100a4334     libeay32_EM.0.9.8e:b_sock.obj
 0002:0001b33c       ??_C@_05LBOKJHLG@socks?$AA@ 100a433c     libeay32_EM.0.9.8e:b_sock.obj
 0002:0001b344       ??_C@_06KAPJOFBF@telnet?$AA@ 100a4344     libeay32_EM.0.9.8e:b_sock.obj
 0002:0001b34c       ??_C@_04IAFLKNP@http?$AA@  100a434c     libeay32_EM.0.9.8e:b_sock.obj
 0002:0001b354       ??_C@_03FPEIBLKH@tcp?$AA@  100a4354     libeay32_EM.0.9.8e:b_sock.obj
 0002:0001b358       ??_C@_0BG@HKLFKFMO@?4?2crypto?2bio?2b_sock?4c?$AA@ 100a4358     libeay32_EM.0.9.8e:b_sock.obj
 0002:0001b370       ??_C@_0P@OGJLBNEC@?$CFd?4?$CFd?4?$CFd?4?$CFd?3?$CFd?$AA@ 100a4370     libeay32_EM.0.9.8e:b_sock.obj
 0002:0001b380       ??_C@_06OGGAANOH@port?$DN?8?$AA@ 100a4380     libeay32_EM.0.9.8e:b_sock.obj
 0002:0001b388       ??_C@_01NBENCBCI@?$CK?$AA@ 100a4388     libeay32_EM.0.9.8e:b_sock.obj
 0002:0001b38c       ??_C@_0BF@GGICFINI@?4?2crypto?2bn?2bn_exp?4c?$AA@ 100a438c     libeay32_EM.0.9.8e:bn_exp.obj
 0002:0001b3a4       ??_C@_0BG@OIKAEECI@?4?2crypto?2bn?2bn_mont?4c?$AA@ 100a43a4     libeay32_EM.0.9.8e:bn_mont.obj
 0002:0001b3bc       ??_C@_0BI@POHFMLMI@?4?2crypto?2rsa?2rsa_none?4c?$AA@ 100a43bc     libeay32_EM.0.9.8e:rsa_none.obj
 0002:0001b3d4       ??_C@_0BH@PMCCHOFO@?4?2crypto?2rsa?2rsa_ssl?4c?$AA@ 100a43d4     libeay32_EM.0.9.8e:rsa_ssl.obj
 0002:0001b3ec       ??_C@_0BI@HCBPDHLA@?4?2crypto?2rsa?2rsa_oaep?4c?$AA@ 100a43ec     libeay32_EM.0.9.8e:rsa_oaep.obj
 0002:0001b404       ??_C@_0BH@BDEBAHMM@?4?2crypto?2rsa?2rsa_pk1?4c?$AA@ 100a4404     libeay32_EM.0.9.8e:rsa_pk1.obj
 0002:0001b41c       ??_C@_0BI@KEEABKFJ@?4?2crypto?2rsa?2rsa_x931?4c?$AA@ 100a441c     libeay32_EM.0.9.8e:rsa_x931.obj
 0002:0001b434       ??_C@_0BK@FPJBMICP@?4?2crypto?2engine?2eng_lib?4c?$AA@ 100a4434     libeay32_EM.0.9.8e:eng_lib.obj
 0002:0001b450       ??_C@_0BM@GAEJEOPM@?4?2crypto?2engine?2eng_table?4c?$AA@ 100a4450     libeay32_EM.0.9.8e:eng_table.obj
 0002:0001b46c       ??_C@_01FDFGLJHB@2?$AA@    100a446c     libeay32_EM.0.9.8e:eng_list.obj
 0002:0001b470       ??_C@_0BG@BDCFJOOA@?4?2crypto?2bn?2bn_rand?4c?$AA@ 100a4470     libeay32_EM.0.9.8e:bn_rand.obj
 0002:0001b488       ??_C@_0BH@JMNFPMLJ@?4?2crypto?2asn1?2d2i_pu?4c?$AA@ 100a4488     libeay32_EM.0.9.8e:d2i_pu.obj
 0002:0001b4a0       ??_C@_0HB@IIAMGFOE@?6?7IPSec?1IKE?1Oakley?5curve?5?$CD4?5over@ 100a44a0     libeay32_EM.0.9.8e:ec_curve.obj
 0002:0001b514       ??_C@_0CP@NHOLPDNA@FFFFFFFFFFFFFFFFFFFFFFEDF97C44DB@ 100a4514     libeay32_EM.0.9.8e:ec_curve.obj
 0002:0001b544       ??_C@_02CFEEGNNO@0d?$AA@   100a4544     libeay32_EM.0.9.8e:ec_curve.obj
 0002:0001b548       ??_C@_02DCIIBFLB@18?$AA@   100a4548     libeay32_EM.0.9.8e:ec_curve.obj
 0002:0001b54c       ??_C@_04OJPMBKJE@1ee9?$AA@ 100a454c     libeay32_EM.0.9.8e:ec_curve.obj
 0002:0001b554       ??_C@_0DB@BCOHJGIE@02000000000000000000000000000020@ 100a4554     libeay32_EM.0.9.8e:ec_curve.obj
 0002:0001b588       ??_C@_0HB@LGGCBEEP@?6?7IPSec?1IKE?1Oakley?5curve?5?$CD3?5over@ 100a4588     libeay32_EM.0.9.8e:ec_curve.obj
 0002:0001b5fc       ??_C@_0CI@FGEFJMAC@2AAAAAAAAAAAAAAAAAAC7F3C7881BD08@ 100a45fc     libeay32_EM.0.9.8e:ec_curve.obj
 0002:0001b624       ??_C@_03MLCCHGKF@1c8?$AA@  100a4624     libeay32_EM.0.9.8e:ec_curve.obj
 0002:0001b628       ??_C@_02HGFBNMNN@7b?$AA@   100a4628     libeay32_EM.0.9.8e:ec_curve.obj
 0002:0001b62c       ??_C@_06MOEPFPNG@07338f?$AA@ 100a462c     libeay32_EM.0.9.8e:ec_curve.obj
 0002:0001b634       ??_C@_0CJ@DHALBGJP@08000000000000000000000040000000@ 100a4634     libeay32_EM.0.9.8e:ec_curve.obj
 0002:0001b660       ??_C@_0CH@PAECJHG@WTLS?5curve?5over?5a?5113?5bit?5binary@ 100a4660     libeay32_EM.0.9.8e:ec_curve.obj
 0002:0001b688       ??_C@_0BP@LLNCDEDF@00FFFFFFFFFFFFFFFDBF91AF6DEA73?$AA@ 100a4688     libeay32_EM.0.9.8e:ec_curve.obj
 0002:0001b6a8       ??_C@_0BP@MHKFDAFB@00F44B4AF1ECC2630E08785CEBCC15?$AA@ 100a46a8     libeay32_EM.0.9.8e:ec_curve.obj
 0002:0001b6c8       ??_C@_0BP@JBIOPCCD@01667979A40BA497E5D5C270780617?$AA@ 100a46c8     libeay32_EM.0.9.8e:ec_curve.obj
 0002:0001b6e8       ??_C@_0CI@PHOKEIPD@X9?462?5curve?5over?5a?5431?5bit?5binar@ 100a46e8     libeay32_EM.0.9.8e:ec_curve.obj
 0002:0001b710       ??_C@_0GL@HOIFBJKE@03403403403403403403403403403403@ 100a4710     libeay32_EM.0.9.8e:ec_curve.obj
 0002:0001b780       ??_C@_0GN@FKGAJPAI@20D0AF8903A96F8D5FA2C255745D3C45@ 100a4780     libeay32_EM.0.9.8e:ec_curve.obj
 0002:0001b7f0       ??_C@_0GN@HDLJDPHE@120FC05D3C67A99DE161D2F4092622FE@ 100a47f0     libeay32_EM.0.9.8e:ec_curve.obj
 0002:0001b860       ??_C@_0GN@GMJFKCKE@10D9B4A3D9047D8B154359ABFB1B7F54@ 100a4860     libeay32_EM.0.9.8e:ec_curve.obj
 0002:0001b8d0       ??_C@_0GN@LFOJJAJK@1A827EF00DD6FC0E234CAF046C6A5D8A@ 100a48d0     libeay32_EM.0.9.8e:ec_curve.obj
 0002:0001b940       ??_C@_0GN@LMHEGKJI@80000000000000000000000000000000@ 100a4940     libeay32_EM.0.9.8e:ec_curve.obj
 0002:0001b9b0       ??_C@_0CI@GLMEIDGJ@X9?462?5curve?5over?5a?5368?5bit?5binar@ 100a49b0     libeay32_EM.0.9.8e:ec_curve.obj
 0002:0001b9d8       ??_C@_0FN@KHOMBJGO@00010090512DA9AF72B08349D98A5DD4@ 100a49d8     libeay32_EM.0.9.8e:ec_curve.obj
 0002:0001ba38       ??_C@_0FN@JHIPHACA@7B3EB1BDDCBA62D5D8B2059B525797FC@ 100a4a38     libeay32_EM.0.9.8e:ec_curve.obj
 0002:0001ba98       ??_C@_0FN@BMGNOIGF@1085E2755381DCCCE3C1557AFA10C2F0@ 100a4a98     libeay32_EM.0.9.8e:ec_curve.obj
 0002:0001baf8       ??_C@_0FN@CPHIHHFM@FC1217D4320A90452C760A58EDCD30C8@ 100a4af8     libeay32_EM.0.9.8e:ec_curve.obj
 0002:0001bb58       ??_C@_0FN@BHEECEPM@E0D2EE25095206F5E2A4F9ED229F1F25@ 100a4b58     libeay32_EM.0.9.8e:ec_curve.obj
 0002:0001bbb8       ??_C@_0FP@FBINFPND@01000000000000000000000000000000@ 100a4bb8     libeay32_EM.0.9.8e:ec_curve.obj
 0002:0001bc18       ??_C@_0CI@BDIPEOPL@X9?462?5curve?5over?5a?5359?5bit?5binar@ 100a4c18     libeay32_EM.0.9.8e:ec_curve.obj
 0002:0001bc40       ??_C@_0FL@MNDAGIGO@01AF286BCA1AF286BCA1AF286BCA1AF2@ 100a4c40     libeay32_EM.0.9.8e:ec_curve.obj
 0002:0001bca0       ??_C@_0FL@HHFPICMF@53D7E08529547048121E9C95F3791DD8@ 100a4ca0     libeay32_EM.0.9.8e:ec_curve.obj
 0002:0001bd00       ??_C@_0FL@DKBNLODN@3C258EF3047767E7EDE0F1FDAA79DAEE@ 100a4d00     libeay32_EM.0.9.8e:ec_curve.obj
 0002:0001bd60       ??_C@_0FL@MCMIJOOI@2472E2D0197C49363F1FE7F5B6DB075D@ 100a4d60     libeay32_EM.0.9.8e:ec_curve.obj
 0002:0001bdc0       ??_C@_0FL@CFINLAGB@5667676A654B20754F356EA92017D946@ 100a4dc0     libeay32_EM.0.9.8e:ec_curve.obj
 0002:0001be20       ??_C@_0FL@FEDIHDAI@80000000000000000000000000000000@ 100a4e20     libeay32_EM.0.9.8e:ec_curve.obj
 0002:0001be7c       ??_C@_0CI@PCOAONL@X9?462?5curve?5over?5a?5304?5bit?5binar@ 100a4e7c     libeay32_EM.0.9.8e:ec_curve.obj
 0002:0001bea8       ??_C@_0EN@KBDOAOHK@000101D556572AABAC800101D556572A@ 100a4ea8     libeay32_EM.0.9.8e:ec_curve.obj
 0002:0001bef8       ??_C@_0EN@JAOFAPN@E19FBEB76E0DA171517ECF401B50289B@ 100a4ef8     libeay32_EM.0.9.8e:ec_curve.obj
 0002:0001bf48       ??_C@_0EN@KHFAELMB@197B07845E9BE2D96ADB0F5F3C7F2CFF@ 100a4f48     libeay32_EM.0.9.8e:ec_curve.obj
 0002:0001bf98       ??_C@_0EN@NCONMPAC@BDDB97E555A50A908E43B01C798EA5DA@ 100a4f98     libeay32_EM.0.9.8e:ec_curve.obj
 0002:0001bfe8       ??_C@_0EN@PLBEBKBJ@FD0D693149A118F651E6DCE680208537@ 100a4fe8     libeay32_EM.0.9.8e:ec_curve.obj
 0002:0001c038       ??_C@_0EP@OHCANPEF@01000000000000000000000000000000@ 100a5038     libeay32_EM.0.9.8e:ec_curve.obj
 0002:0001c088       ??_C@_0CI@OMGMCAMF@X9?462?5curve?5over?5a?5272?5bit?5binar@ 100a5088     libeay32_EM.0.9.8e:ec_curve.obj
 0002:0001c0b0       ??_C@_0EF@MHPJFHFL@000100FAF51354E0E39E4892DF6E319C@ 100a50b0     libeay32_EM.0.9.8e:ec_curve.obj
 0002:0001c0f8       ??_C@_0EF@IFEDEGFA@10C7695716851EEF6BA7F6872E6142FB@ 100a50f8     libeay32_EM.0.9.8e:ec_curve.obj
 0002:0001c140       ??_C@_0EF@NOFNKADI@6108BABB2CEEBCF787058A056CBE0CFE@ 100a5140     libeay32_EM.0.9.8e:ec_curve.obj
 0002:0001c188       ??_C@_0EF@HCANBPG@7167EFC92BB2E3CE7C8AAAFF34E12A9C@ 100a5188     libeay32_EM.0.9.8e:ec_curve.obj
 0002:0001c1d0       ??_C@_0EF@GLJGCFDO@91A091F03B5FBA4AB2CCF49C4EDD220F@ 100a51d0     libeay32_EM.0.9.8e:ec_curve.obj
 0002:0001c218       ??_C@_0EH@JPILHPAD@01000000000000000000000000000000@ 100a5218     libeay32_EM.0.9.8e:ec_curve.obj
 0002:0001c260       ??_C@_0DN@LDDNPNLK@0CCCCCCCCCCCCCCCCCCCCCCCCCCCCCAC@ 100a5260     libeay32_EM.0.9.8e:ec_curve.obj
 0002:0001c2a0       ??_C@_0DN@OIKGBJNJ@2E5A0EAF6E5E1305B9004DCE5C0ED7FE@ 100a52a0     libeay32_EM.0.9.8e:ec_curve.obj
 0002:0001c2e0       ??_C@_0DN@ELAKFJKE@70F6E9D04D289C4E89913CE3530BFDE9@ 100a52e0     libeay32_EM.0.9.8e:ec_curve.obj
 0002:0001c320       ??_C@_0DN@CBKIHOGD@6A941977BA9F6A435199ACFC51067ED5@ 100a5320     libeay32_EM.0.9.8e:ec_curve.obj
 0002:0001c360       ??_C@_0DN@IIJDANOM@01238774666A67766D6676F778E676B6@ 100a5360     libeay32_EM.0.9.8e:ec_curve.obj
 0002:0001c3a0       ??_C@_0DN@MLEHOGIL@1555555555555555555555555555553C@ 100a53a0     libeay32_EM.0.9.8e:ec_curve.obj
 0002:0001c3e0       ??_C@_0DN@EJEGOAGE@5667334C45AFF3B5A03BAD9DD75E2C71@ 100a53e0     libeay32_EM.0.9.8e:ec_curve.obj
 0002:0001c420       ??_C@_0DN@CLFDOGHD@28F9D04E900069C8DC47A08534FE76D2@ 100a5420     libeay32_EM.0.9.8e:ec_curve.obj
 0002:0001c460       ??_C@_0DN@FFKCHHPE@5037EA654196CFF0CD82B2C14A2FCF2E@ 100a5460     libeay32_EM.0.9.8e:ec_curve.obj
 0002:0001c4a0       ??_C@_0DN@EMPBAOJB@4230017757A767FAE42398569B746325@ 100a54a0     libeay32_EM.0.9.8e:ec_curve.obj
 0002:0001c4e0       ??_C@_0CI@IHGFALA@X9?462?5curve?5over?5a?5239?5bit?5binar@ 100a54e0     libeay32_EM.0.9.8e:ec_curve.obj
 0002:0001c508       ??_C@_0DN@MFFKAKCP@2000000000000000000000000000000F@ 100a5508     libeay32_EM.0.9.8e:ec_curve.obj
 0002:0001c548       ??_C@_0DN@ICMAIJNI@61D8EE5077C33FECF6F1A16B268DE469@ 100a5548     libeay32_EM.0.9.8e:ec_curve.obj
 0002:0001c588       ??_C@_0DN@EEEKBALN@57927098FA932E7C0A96D3FD5B706EF7@ 100a5588     libeay32_EM.0.9.8e:ec_curve.obj
 0002:0001c5c8       ??_C@_0DN@OBOFKIAC@790408F2EEDAF392B012EDEFB3392F30@ 100a55c8     libeay32_EM.0.9.8e:ec_curve.obj
 0002:0001c608       ??_C@_0DN@FBNNLDIH@32010857077C5431123A46B808906756@ 100a5608     libeay32_EM.0.9.8e:ec_curve.obj
 0002:0001c648       ??_C@_0DN@LFGLADBM@80000000000000000000000000000000@ 100a5648     libeay32_EM.0.9.8e:ec_curve.obj
 0002:0001c688       ??_C@_0CI@HADNJNCC@X9?462?5curve?5over?5a?5208?5bit?5binar@ 100a5688     libeay32_EM.0.9.8e:ec_curve.obj
 0002:0001c6b0       ??_C@_0DF@JNMENPCE@000101BAF95C9723C57B6C21DA2EFF2D@ 100a56b0     libeay32_EM.0.9.8e:ec_curve.obj
 0002:0001c6e8       ??_C@_0DF@OFJNGFCB@0F55B51A06E78E9AC38A035FF520D8B0@ 100a56e8     libeay32_EM.0.9.8e:ec_curve.obj
 0002:0001c720       ??_C@_0DF@OHLOFJLJ@89FDFBE4ABE193DF9559ECF07AC0CE78@ 100a5720     libeay32_EM.0.9.8e:ec_curve.obj
 0002:0001c758       ??_C@_0DF@BMDPEOLM@C8619ED45A62E6212E1160349E2BFA84@ 100a5758     libeay32_EM.0.9.8e:ec_curve.obj
 0002:0001c790       ??_C@_0DF@CGFHJKFP@00000000000000000000000000000000@ 100a5790     libeay32_EM.0.9.8e:ec_curve.obj
 0002:0001c7c8       ??_C@_0DH@CBHDNHIE@01000000000000000000000000000000@ 100a57c8     libeay32_EM.0.9.8e:ec_curve.obj
 0002:0001c800       ??_C@_0DB@GHFEOOGH@155555555555555555555555610C0B19@ 100a5800     libeay32_EM.0.9.8e:ec_curve.obj
 0002:0001c834       ??_C@_0DB@HMLDPOOM@545A39176196575D985999366E6AD34C@ 100a5834     libeay32_EM.0.9.8e:ec_curve.obj
 0002:0001c868       ??_C@_0DB@LPENCHHM@375D4CE24FDE434489DE8746E7178601@ 100a5868     libeay32_EM.0.9.8e:ec_curve.obj
 0002:0001c89c       ??_C@_0DB@MGLFBKJD@71FE1AF926CF847989EFEF8DB459F663@ 100a589c     libeay32_EM.0.9.8e:ec_curve.obj
 0002:0001c8d0       ??_C@_0DB@PEBNBANE@6C01074756099122221056911C77D77E@ 100a58d0     libeay32_EM.0.9.8e:ec_curve.obj
 0002:0001c904       ??_C@_0DB@BPCOOPCP@20000000000000000000000050508CB8@ 100a5904     libeay32_EM.0.9.8e:ec_curve.obj
 0002:0001c938       ??_C@_0DB@KIOIALAB@17434386626D14F3DBF01760D9213A3E@ 100a5938     libeay32_EM.0.9.8e:ec_curve.obj
 0002:0001c96c       ??_C@_0DB@PGPFEPAE@3809B2B7CC1B28CC5A87926AAD83FD28@ 100a596c     libeay32_EM.0.9.8e:ec_curve.obj
 0002:0001c9a0       ??_C@_0DB@FDLCHFID@0620048D28BCBD03B6249C99182B7C8C@ 100a59a0     libeay32_EM.0.9.8e:ec_curve.obj
 0002:0001c9d4       ??_C@_0DB@PGMMDBBH@401028774D7777C7B7666D1366EA4320@ 100a59d4     libeay32_EM.0.9.8e:ec_curve.obj
 0002:0001ca08       ??_C@_0CI@CNNMGPOI@X9?462?5curve?5over?5a?5191?5bit?5binar@ 100a5a08     libeay32_EM.0.9.8e:ec_curve.obj
 0002:0001ca30       ??_C@_0DB@LFDKFEFP@40000000000000000000000004A20E90@ 100a5a30     libeay32_EM.0.9.8e:ec_curve.obj
 0002:0001ca64       ??_C@_0DB@BEDCCOBA@765BE73433B3F95E332932E70EA245CA@ 100a5a64     libeay32_EM.0.9.8e:ec_curve.obj
 0002:0001ca98       ??_C@_0DB@JENBDMHB@36B3DAF8A23206F9C4F299D7B21A9C36@ 100a5a98     libeay32_EM.0.9.8e:ec_curve.obj
 0002:0001cacc       ??_C@_0DB@KMDDCGHO@2E45EF571F00786F67B0081B9495A3D9@ 100a5acc     libeay32_EM.0.9.8e:ec_curve.obj
 0002:0001cb00       ??_C@_0DB@KNLAMFAA@2866537B676752636A68F56554E12640@ 100a5b00     libeay32_EM.0.9.8e:ec_curve.obj
 0002:0001cb34       ??_C@_0DB@BGNOOMFI@80000000000000000000000000000000@ 100a5b34     libeay32_EM.0.9.8e:ec_curve.obj
 0002:0001cb68       ??_C@_0CI@HOBKKPME@X9?462?5curve?5over?5a?5176?5bit?5binar@ 100a5b68     libeay32_EM.0.9.8e:ec_curve.obj
 0002:0001cb90       ??_C@_0CN@IBIDHDPA@00010092537397ECA4F6145799D62B0A@ 100a5b90     libeay32_EM.0.9.8e:ec_curve.obj
 0002:0001cbc0       ??_C@_0CN@JJFEFABG@6FA4539C2DADDDD6BAB5167D61B436E1@ 100a5bc0     libeay32_EM.0.9.8e:ec_curve.obj
 0002:0001cbf0       ??_C@_0CN@FBMJJMML@8D16C2866798B600F9F08BB4A8E860F3@ 100a5bf0     libeay32_EM.0.9.8e:ec_curve.obj
 0002:0001cc20       ??_C@_0CN@GKKDGFDN@5DDA470ABE6414DE8EC133AE28E9BBD7@ 100a5c20     libeay32_EM.0.9.8e:ec_curve.obj
 0002:0001cc50       ??_C@_0CN@BCCBAODH@E4E6DB2995065C407D9D39B8D0967B96@ 100a5c50     libeay32_EM.0.9.8e:ec_curve.obj
 0002:0001cc80       ??_C@_0CP@EBFHIJKG@01000000000000000000000000000000@ 100a5c80     libeay32_EM.0.9.8e:ec_curve.obj
 0002:0001ccb0       ??_C@_0CL@NLBELIBP@03FFFFFFFFFFFFFFFFFFFE1AEE140F11@ 100a5cb0     libeay32_EM.0.9.8e:ec_curve.obj
 0002:0001ccdc       ??_C@_0CL@EFBHGKBG@05B935590C155E17EA48EB3FF3718B89@ 100a5cdc     libeay32_EM.0.9.8e:ec_curve.obj
 0002:0001cd08       ??_C@_0CL@LAOLGOPN@02F9F87B7C574D0BDECF8A22E6524775@ 100a5d08     libeay32_EM.0.9.8e:ec_curve.obj
 0002:0001cd34       ??_C@_0CL@COEBEADG@03F7061798EB99E238FD6F1BF95B48FE@ 100a5d34     libeay32_EM.0.9.8e:ec_curve.obj
 0002:0001cd60       ??_C@_0CL@JAKOALPH@07A526C63D3E25A256A007699F5447E3@ 100a5d60     libeay32_EM.0.9.8e:ec_curve.obj
 0002:0001cd8c       ??_C@_0CL@GJDOGOEM@03FFFFFFFFFFFFFFFFFFFDF64DE1151A@ 100a5d8c     libeay32_EM.0.9.8e:ec_curve.obj
 0002:0001cdb8       ??_C@_0CL@CDOIDAED@079F684DDF6684C5CD258B3890021B23@ 100a5db8     libeay32_EM.0.9.8e:ec_curve.obj
 0002:0001cde4       ??_C@_0CL@MLCIOOND@0024266E4EB5106D0A964D92C4860E26@ 100a5de4     libeay32_EM.0.9.8e:ec_curve.obj
 0002:0001ce10       ??_C@_0CL@JCNMLCJL@0667ACEB38AF4E488C407433FFAE4F1C@ 100a5e10     libeay32_EM.0.9.8e:ec_curve.obj
 0002:0001ce3c       ??_C@_0CL@OJNJAHFG@0108B39E77C4B108BED981ED0E890E11@ 100a5e3c     libeay32_EM.0.9.8e:ec_curve.obj
 0002:0001ce68       ??_C@_0CI@CFPHBJDI@X9?462?5curve?5over?5a?5163?5bit?5binar@ 100a5e68     libeay32_EM.0.9.8e:ec_curve.obj
 0002:0001ce90       ??_C@_0CL@HJCDFDPL@0400000000000000000001E60FC8821C@ 100a5e90     libeay32_EM.0.9.8e:ec_curve.obj
 0002:0001cebc       ??_C@_0CL@GBCKMBAM@01EC23211B5966ADEA1D3F87F7EA5848@ 100a5ebc     libeay32_EM.0.9.8e:ec_curve.obj
 0002:0001cee8       ??_C@_0CL@MBBIDOKC@07AF69989546103D79329FCC3D74880F@ 100a5ee8     libeay32_EM.0.9.8e:ec_curve.obj
 0002:0001cf14       ??_C@_0CL@EAGEDKEL@00C9517D06D5240D3CFF38C74B20B6CD@ 100a5f14     libeay32_EM.0.9.8e:ec_curve.obj
 0002:0001cf40       ??_C@_0CL@GEJALGC@072546B5435234A422E0789675F432C8@ 100a5f40     libeay32_EM.0.9.8e:ec_curve.obj
 0002:0001cf6c       ??_C@_0CL@FPAJFMMJ@08000000000000000000000000000000@ 100a5f6c     libeay32_EM.0.9.8e:ec_curve.obj
 0002:0001cf98       ??_C@_0JB@DDELOMEN@03FFFFFFFFFFFFFFFFFFFFFFFFFFFFFF@ 100a5f98     libeay32_EM.0.9.8e:ec_curve.obj
 0002:0001d030       ??_C@_0JB@BGGOGNH@037BF27342DA639B6DCCFFFEB73D69D7@ 100a6030     libeay32_EM.0.9.8e:ec_curve.obj
 0002:0001d0c8       ??_C@_0JB@CJJMMHGF@0303001D34B856296C16C0D40D3CD775@ 100a60c8     libeay32_EM.0.9.8e:ec_curve.obj
 0002:0001d160       ??_C@_0JB@OOBDGNJO@02F40E7E2221F295DE297117B7F3D62F@ 100a6160     libeay32_EM.0.9.8e:ec_curve.obj
 0002:0001d1f8       ??_C@_0JB@IHMKNFOJ@00000000000000000000000000000000@ 100a61f8     libeay32_EM.0.9.8e:ec_curve.obj
 0002:0001d28c       ??_C@_0CM@EACJKLC@NIST?1SECG?5curve?5over?5a?5571?5bit?5b@ 100a628c     libeay32_EM.0.9.8e:ec_curve.obj
 0002:0001d2b8       ??_C@_0JB@PPPHEALL@02000000000000000000000000000000@ 100a62b8     libeay32_EM.0.9.8e:ec_curve.obj
 0002:0001d350       ??_C@_0JB@CLBKOHGL@0349DC807F4FBF374F4AEADE3BCA9531@ 100a6350     libeay32_EM.0.9.8e:ec_curve.obj
 0002:0001d3e8       ??_C@_0JB@IGIOHLOD@026EB7A859923FBC82189631F8103FE4@ 100a63e8     libeay32_EM.0.9.8e:ec_curve.obj
 0002:0001d480       ??_C@_0JA@IMPAOLHO@80000000000000000000000000000000@ 100a6480     libeay32_EM.0.9.8e:ec_curve.obj
 0002:0001d510       ??_C@_0GJ@MAKMEDBJ@01000000000000000000000000000000@ 100a6510     libeay32_EM.0.9.8e:ec_curve.obj
 0002:0001d580       ??_C@_0GJ@DJJIPKHI@0061B1CFAB6BE5F32BBFA78324ED106A@ 100a6580     libeay32_EM.0.9.8e:ec_curve.obj
 0002:0001d5f0       ??_C@_0GJ@CLLEPAGO@015D4860D088DDB3496B0C6064756260@ 100a65f0     libeay32_EM.0.9.8e:ec_curve.obj
 0002:0001d660       ??_C@_0GJ@NBAHPFHH@0021A5C2C8EE9FEB5C4B9A753B7B476B@ 100a6660     libeay32_EM.0.9.8e:ec_curve.obj
 0002:0001d6d0       ??_C@_0GJ@LFNCJKBA@00000000000000000000000000000000@ 100a66d0     libeay32_EM.0.9.8e:ec_curve.obj
 0002:0001d73c       ??_C@_0CM@HDDNKCDK@NIST?1SECG?5curve?5over?5a?5409?5bit?5b@ 100a673c     libeay32_EM.0.9.8e:ec_curve.obj
 0002:0001d768       ??_C@_0GJ@NAANHFDL@007FFFFFFFFFFFFFFFFFFFFFFFFFFFFF@ 100a6768     libeay32_EM.0.9.8e:ec_curve.obj
 0002:0001d7d8       ??_C@_0GJ@LELALKNN@01E369050B7C4E42ACBA1DACBF04299C@ 100a67d8     libeay32_EM.0.9.8e:ec_curve.obj
 0002:0001d848       ??_C@_0GJ@JHNGHILE@0060F05F658F49C1AD3AB1890F718421@ 100a6848     libeay32_EM.0.9.8e:ec_curve.obj
 0002:0001d8b8       ??_C@_0GJ@KMBGFIOM@02000000000000000000000000000000@ 100a68b8     libeay32_EM.0.9.8e:ec_curve.obj
 0002:0001d928       ??_C@_0EJ@DNDJJNNM@03FFFFFFFFFFFFFFFFFFFFFFFFFFFFFF@ 100a6928     libeay32_EM.0.9.8e:ec_curve.obj
 0002:0001d978       ??_C@_0EJ@JNLPOLB@03676854FE24141CB98FE6D4B20D02B4@ 100a6978     libeay32_EM.0.9.8e:ec_curve.obj
 0002:0001d9c8       ??_C@_0EJ@BHGHAALC@05F939258DB7DD90E1934F8C70B0DFEC@ 100a69c8     libeay32_EM.0.9.8e:ec_curve.obj
 0002:0001da18       ??_C@_0EJ@BMCMHGKL@027B680AC8B8596DA5A4AF8A19A0303F@ 100a6a18     libeay32_EM.0.9.8e:ec_curve.obj
 0002:0001da68       ??_C@_0EJ@IJMOMPKF@00000000000000000000000000000000@ 100a6a68     libeay32_EM.0.9.8e:ec_curve.obj
 0002:0001dab4       ??_C@_0CM@GFMOGKDK@NIST?1SECG?5curve?5over?5a?5283?5bit?5b@ 100a6ab4     libeay32_EM.0.9.8e:ec_curve.obj
 0002:0001dae0       ??_C@_0EJ@BABGJLPC@01FFFFFFFFFFFFFFFFFFFFFFFFFFFFFF@ 100a6ae0     libeay32_EM.0.9.8e:ec_curve.obj
 0002:0001db30       ??_C@_0EJ@NHJKIFIC@01CCDA380F1C9E318D90F95D07E5426F@ 100a6b30     libeay32_EM.0.9.8e:ec_curve.obj
 0002:0001db80       ??_C@_0EJ@PKMPDCLH@0503213F78CA44883F1A3B8162F188E5@ 100a6b80     libeay32_EM.0.9.8e:ec_curve.obj
 0002:0001dbd0       ??_C@_0EJ@JBJAGLBF@08000000000000000000000000000000@ 100a6bd0     libeay32_EM.0.9.8e:ec_curve.obj
 0002:0001dc1c       ??_C@_0CH@CLCLBOGN@SECG?5curve?5over?5a?5239?5bit?5binary@ 100a6c1c     libeay32_EM.0.9.8e:ec_curve.obj
 0002:0001dc44       ??_C@_0DN@GMJEOECE@2000000000000000000000000000005A@ 100a6c44     libeay32_EM.0.9.8e:ec_curve.obj
 0002:0001dc84       ??_C@_0DN@CFKJLDEH@76310804F12E549BDB011C103089E735@ 100a6c84     libeay32_EM.0.9.8e:ec_curve.obj
 0002:0001dcc4       ??_C@_0DN@DICPLOOG@29A0B6A887A983E9730988A68727A8B2@ 100a6cc4     libeay32_EM.0.9.8e:ec_curve.obj
 0002:0001dd04       ??_C@_0DN@GCFJJCNK@80000000000000000000400000000000@ 100a6d04     libeay32_EM.0.9.8e:ec_curve.obj
 0002:0001dd44       ??_C@_0DN@NCBBCNPJ@01000000000000000000000000000013@ 100a6d44     libeay32_EM.0.9.8e:ec_curve.obj
 0002:0001dd84       ??_C@_0DN@NGABPGAG@01006A08A41903350678E58528BEBF8A@ 100a6d84     libeay32_EM.0.9.8e:ec_curve.obj
 0002:0001ddc4       ??_C@_0DN@FGKPOKON@00FAC9DFCBAC8313BB2139F1BB755FEF@ 100a6dc4     libeay32_EM.0.9.8e:ec_curve.obj
 0002:0001de04       ??_C@_0DN@HFMDPMGE@0066647EDE6C332C7F8C0923BB58213B@ 100a6e04     libeay32_EM.0.9.8e:ec_curve.obj
 0002:0001de44       ??_C@_0DN@CMGNLJKG@00000000000000000000000000000000@ 100a6e44     libeay32_EM.0.9.8e:ec_curve.obj
 0002:0001de84       ??_C@_0DB@PNCPLOPN@NIST?1SECG?1WTLS?5curve?5over?5a?5233?5@ 100a6e84     libeay32_EM.0.9.8e:ec_curve.obj
 0002:0001deb8       ??_C@_0DN@ICANBKHC@00800000000000000000000000000006@ 100a6eb8     libeay32_EM.0.9.8e:ec_curve.obj
 0002:0001def8       ??_C@_0DN@JNNCCFCL@01DB537DECE819B7F70F555A67C427A8@ 100a6ef8     libeay32_EM.0.9.8e:ec_curve.obj
 0002:0001df38       ??_C@_0DN@PMLLGPLO@017232BA853A7E731AF129F22FF41495@ 100a6f38     libeay32_EM.0.9.8e:ec_curve.obj
 0002:0001df78       ??_C@_0DN@CMFGEJKA@02000000000000000000000000000000@ 100a6f78     libeay32_EM.0.9.8e:ec_curve.obj
 0002:0001dfb8       ??_C@_0DD@LCNHKLC@010000000000000000000000015AAB56@ 100a6fb8     libeay32_EM.0.9.8e:ec_curve.obj
 0002:0001dfec       ??_C@_0DD@DBKONANO@01CE94335607C304AC29E7DEFBD9CA01@ 100a6fec     libeay32_EM.0.9.8e:ec_curve.obj
 0002:0001e020       ??_C@_0DD@GGAJGHND@00D9B67D192E0367C803F39E1A7E82CA@ 100a7020     libeay32_EM.0.9.8e:ec_curve.obj
 0002:0001e054       ??_C@_0DD@KHLNNION@00C9BB9E8927D4D64C377E2AB2856A5B@ 100a7054     libeay32_EM.0.9.8e:ec_curve.obj
 0002:0001e088       ??_C@_0DD@NBPCBFCI@0163F35A5137C2CE3EA6ED8667190B0B@ 100a7088     libeay32_EM.0.9.8e:ec_curve.obj
 0002:0001e0bc       ??_C@_0CH@HKDFCHME@SECG?5curve?5over?5a?5193?5bit?5binary@ 100a70bc     libeay32_EM.0.9.8e:ec_curve.obj
 0002:0001e0e4       ??_C@_0DD@JCCJKEBL@01000000000000000000000000C7F34A@ 100a70e4     libeay32_EM.0.9.8e:ec_curve.obj
 0002:0001e118       ??_C@_0DD@JJHONLME@0025E399F2903712CCF3EA9E3A1AD17F@ 100a7118     libeay32_EM.0.9.8e:ec_curve.obj
 0002:0001e14c       ??_C@_0DD@JPAKFEII@01F481BC5F0FF84A74AD6CDF6FDEF4BF@ 100a714c     libeay32_EM.0.9.8e:ec_curve.obj
 0002:0001e180       ??_C@_0DD@IIFNMAMG@00FDFB49BFE6C3A89FACADAA7A1E5BBC@ 100a7180     libeay32_EM.0.9.8e:ec_curve.obj
 0002:0001e1b4       ??_C@_0DD@DGCHJJBJ@0017858FEB7A98975169E171F77B4087@ 100a71b4     libeay32_EM.0.9.8e:ec_curve.obj
 0002:0001e1e8       ??_C@_0DD@MILNLGCC@02000000000000000000000000000000@ 100a71e8     libeay32_EM.0.9.8e:ec_curve.obj
 0002:0001e21c       ??_C@_0CM@HCIKDLO@NIST?1SECG?5curve?5over?5a?5163?5bit?5b@ 100a721c     libeay32_EM.0.9.8e:ec_curve.obj
 0002:0001e248       ??_C@_0CL@BCAGACCK@040000000000000000000292FE77E70C@ 100a7248     libeay32_EM.0.9.8e:ec_curve.obj
 0002:0001e274       ??_C@_0CL@BNIJOFII@00D51FBC6C71A0094FA2CDD545B11C5C@ 100a7274     libeay32_EM.0.9.8e:ec_curve.obj
 0002:0001e2a0       ??_C@_0CL@LINOKKFB@03F0EBA16286A2D57EA0991168D49946@ 100a72a0     libeay32_EM.0.9.8e:ec_curve.obj
 0002:0001e2cc       ??_C@_0CL@HEOEMBKD@020A601907B8C953CA1481EB10512F78@ 100a72cc     libeay32_EM.0.9.8e:ec_curve.obj
 0002:0001e2f8       ??_C@_0CH@GKKFHOF@SECG?5curve?5over?5a?5163?5bit?5binary@ 100a72f8     libeay32_EM.0.9.8e:ec_curve.obj
 0002:0001e320       ??_C@_0CL@EBHGFHPN@03FFFFFFFFFFFFFFFFFFFF48AAB689C2@ 100a7320     libeay32_EM.0.9.8e:ec_curve.obj
 0002:0001e34c       ??_C@_0CL@CKJGENIK@00435EDB42EFAFB2989D51FEFCE3C809@ 100a734c     libeay32_EM.0.9.8e:ec_curve.obj
 0002:0001e378       ??_C@_0CL@KGICMFLE@0369979697AB43897789566789567F78@ 100a7378     libeay32_EM.0.9.8e:ec_curve.obj
 0002:0001e3a4       ??_C@_0CL@LDOPLLBK@0713612DCDDCB40AAB946BDA29CA91F7@ 100a73a4     libeay32_EM.0.9.8e:ec_curve.obj
 0002:0001e3d0       ??_C@_0CL@ELGPMELM@07B6882CAAEFA84F9554FF8428BD88E2@ 100a73d0     libeay32_EM.0.9.8e:ec_curve.obj
 0002:0001e3fc       ??_C@_0DB@KNLLOMAB@NIST?1SECG?1WTLS?5curve?5over?5a?5163?5@ 100a73fc     libeay32_EM.0.9.8e:ec_curve.obj
 0002:0001e430       ??_C@_0CL@OGGJHJDP@04000000000000000000020108A2E0CC@ 100a7430     libeay32_EM.0.9.8e:ec_curve.obj
 0002:0001e45c       ??_C@_0CL@JCJOHIPK@0289070FB05D38FF58321F2E800536D5@ 100a745c     libeay32_EM.0.9.8e:ec_curve.obj
 0002:0001e488       ??_C@_0CL@NIAKCKHM@02FE13C0537BBC11ACAA07D793DE4E6D@ 100a7488     libeay32_EM.0.9.8e:ec_curve.obj
 0002:0001e4b4       ??_C@_0CL@CPIBMACL@08000000000000000000000000000000@ 100a74b4     libeay32_EM.0.9.8e:ec_curve.obj
 0002:0001e4e0       ??_C@_0CH@FJJEIBAL@SECG?5curve?5over?5a?5131?5bit?5binary@ 100a74e0     libeay32_EM.0.9.8e:ec_curve.obj
 0002:0001e508       ??_C@_0CD@CLJJMJIL@0400000000000000016954A233049BA9@ 100a7508     libeay32_EM.0.9.8e:ec_curve.obj
 0002:0001e52c       ??_C@_0CD@KHBODDIJ@0648F06D867940A5366D9E265DE9EB24@ 100a752c     libeay32_EM.0.9.8e:ec_curve.obj
 0002:0001e550       ??_C@_0CD@JGAEEFKC@0356DCD8F2F95031AD652D23951BB366@ 100a7550     libeay32_EM.0.9.8e:ec_curve.obj
 0002:0001e574       ??_C@_0CD@NOGAMHBC@04B8266A46C55657AC734CE38F018F21@ 100a7574     libeay32_EM.0.9.8e:ec_curve.obj
 0002:0001e598       ??_C@_0CD@MILHCOEH@03E5A88919D7CAFCBF415F07C2176573@ 100a7598     libeay32_EM.0.9.8e:ec_curve.obj
 0002:0001e5bc       ??_C@_0CM@EPOILLGK@SECG?1WTLS?5curve?5over?5a?5131?5bit?5b@ 100a75bc     libeay32_EM.0.9.8e:ec_curve.obj
 0002:0001e5e8       ??_C@_0CD@GPHHKHND@0400000000000000023123953A9464B5@ 100a75e8     libeay32_EM.0.9.8e:ec_curve.obj
 0002:0001e60c       ??_C@_0CD@OGBJFOMP@078C6E7EA38C001F73C8134B1B4EF9E1@ 100a760c     libeay32_EM.0.9.8e:ec_curve.obj
 0002:0001e630       ??_C@_0CD@HABOPCAK@0081BAF91FDF9833C40F9C1813436383@ 100a7630     libeay32_EM.0.9.8e:ec_curve.obj
 0002:0001e654       ??_C@_0CD@KFBHBKHN@0217C05610884B63B9C6C7291678F9D3@ 100a7654     libeay32_EM.0.9.8e:ec_curve.obj
 0002:0001e678       ??_C@_0CD@FHMNMMDO@07A11B09A76B562144418FF3FF8C2570@ 100a7678     libeay32_EM.0.9.8e:ec_curve.obj
 0002:0001e69c       ??_C@_0CD@GKFCOPNA@08000000000000000000000000000001@ 100a769c     libeay32_EM.0.9.8e:ec_curve.obj
 0002:0001e6c0       ??_C@_0BP@DKIELOEN@010000000000000108789B2496AF93?$AA@ 100a76c0     libeay32_EM.0.9.8e:ec_curve.obj
 0002:0001e6e0       ??_C@_0BP@EFNNGCLF@00B3ADC94ED1FE674C06E695BABA1D?$AA@ 100a76e0     libeay32_EM.0.9.8e:ec_curve.obj
 0002:0001e700       ??_C@_0BP@HAKEOPIF@01A57A6A7B26CA5EF52FCDB8164797?$AA@ 100a7700     libeay32_EM.0.9.8e:ec_curve.obj
 0002:0001e720       ??_C@_0BP@OBAKANML@0095E9A9EC9B297BD4BF36E059184F?$AA@ 100a7720     libeay32_EM.0.9.8e:ec_curve.obj
 0002:0001e740       ??_C@_0BP@EJCIAAKB@00689918DBEC7E5A0DD6DFC0AA55C7?$AA@ 100a7740     libeay32_EM.0.9.8e:ec_curve.obj
 0002:0001e760       ??_C@_0CH@OHOOPBHG@SECG?5curve?5over?5a?5113?5bit?5binary@ 100a7760     libeay32_EM.0.9.8e:ec_curve.obj
 0002:0001e788       ??_C@_0BP@EAAKHCEK@0100000000000000D9CCEC8A39E56F?$AA@ 100a7788     libeay32_EM.0.9.8e:ec_curve.obj
 0002:0001e7a8       ??_C@_0BP@FBCJDMN@00A52830277958EE84D1315ED31886?$AA@ 100a77a8     libeay32_EM.0.9.8e:ec_curve.obj
 0002:0001e7c8       ??_C@_0BP@EGACAFFM@009D73616F35F4AB1407D73562C10F?$AA@ 100a77c8     libeay32_EM.0.9.8e:ec_curve.obj
 0002:0001e7e8       ??_C@_0BP@BLIPCLGH@00E8BEE4D3E2260744188BE0E9C723?$AA@ 100a77e8     libeay32_EM.0.9.8e:ec_curve.obj
 0002:0001e808       ??_C@_0BP@NFPAPFFB@003088250CA6E7C7FE649CE85820F7?$AA@ 100a7808     libeay32_EM.0.9.8e:ec_curve.obj
 0002:0001e828       ??_C@_0BP@OFOPCIHP@020000000000000000000000000201?$AA@ 100a7828     libeay32_EM.0.9.8e:ec_curve.obj
 0002:0001e848       ??_C@_0CG@MLNHEHNL@WTLS?5curvs?5over?5a?5224?5bit?5prime?5@ 100a7848     libeay32_EM.0.9.8e:ec_curve.obj
 0002:0001e870       ??_C@_0CG@JBBHINGJ@WTLS?5curve?5over?5a?5160?5bit?5prime?5@ 100a7870     libeay32_EM.0.9.8e:ec_curve.obj
 0002:0001e898       ??_C@_0CL@MBOJCOAH@0100000000000000000001CDC98AE0E2@ 100a7898     libeay32_EM.0.9.8e:ec_curve.obj
 0002:0001e8c4       ??_C@_0CJ@BGGLPJAH@FFFFFFFFFFFFFFFFFFFFFFFFFFFFFFFF@ 100a78c4     libeay32_EM.0.9.8e:ec_curve.obj
 0002:0001e8f0       ??_C@_0CG@NOPNGNKB@WTLS?5curve?5over?5a?5112?5bit?5prime?5@ 100a78f0     libeay32_EM.0.9.8e:ec_curve.obj
 0002:0001e918       ??_C@_0BP@EKNBFCAM@0100000000000001ECEA551AD837E9?$AA@ 100a7918     libeay32_EM.0.9.8e:ec_curve.obj
 0002:0001e938       ??_C@_0BN@HPHHPBAK@FFFFFFFFFFFFFFFFFFFFFFFFFDE7?$AA@ 100a7938     libeay32_EM.0.9.8e:ec_curve.obj
 0002:0001e958       ??_C@_0CG@MBJIMJMI@SECG?5curve?5over?5a?5256?5bit?5prime?5@ 100a7958     libeay32_EM.0.9.8e:ec_curve.obj
 0002:0001e980       ??_C@_0EB@DCCHFIKD@FFFFFFFFFFFFFFFFFFFFFFFFFFFFFFFE@ 100a7980     libeay32_EM.0.9.8e:ec_curve.obj
 0002:0001e9c8       ??_C@_0EB@HDDLKPFM@483ada7726a3c4655da4fbfc0e1108a8@ 100a79c8     libeay32_EM.0.9.8e:ec_curve.obj
 0002:0001ea10       ??_C@_0EB@CBGMKGCA@79BE667EF9DCBBAC55A06295CE870B07@ 100a7a10     libeay32_EM.0.9.8e:ec_curve.obj
 0002:0001ea58       ??_C@_0EB@IHGCLEDH@FFFFFFFFFFFFFFFFFFFFFFFFFFFFFFFF@ 100a7a58     libeay32_EM.0.9.8e:ec_curve.obj
 0002:0001ea9c       ??_C@_0CG@IOHCCJAA@SECG?5curve?5over?5a?5224?5bit?5prime?5@ 100a7a9c     libeay32_EM.0.9.8e:ec_curve.obj
 0002:0001eac4       ??_C@_0DL@GKKGGOEP@010000000000000000000000000001DC@ 100a7ac4     libeay32_EM.0.9.8e:ec_curve.obj
 0002:0001eb00       ??_C@_0DJ@GDNLEEBB@7e089fed7fba344282cafbd6f7e319f7@ 100a7b00     libeay32_EM.0.9.8e:ec_curve.obj
 0002:0001eb3c       ??_C@_0DJ@LDDJKHDH@A1455B334DF099DF30FC28A169A467E9@ 100a7b3c     libeay32_EM.0.9.8e:ec_curve.obj
 0002:0001eb78       ??_C@_01BMBHCPLG@5?$AA@    100a7b78     libeay32_EM.0.9.8e:ec_curve.obj
 0002:0001eb7c       ??_C@_0DJ@OIEDBGO@FFFFFFFFFFFFFFFFFFFFFFFFFFFFFFFF@ 100a7b7c     libeay32_EM.0.9.8e:ec_curve.obj
 0002:0001ebb8       ??_C@_0CG@IFFAEDGD@SECG?5curve?5over?5a?5192?5bit?5prime?5@ 100a7bb8     libeay32_EM.0.9.8e:ec_curve.obj
 0002:0001ebe0       ??_C@_0DB@OCOPPFHC@FFFFFFFFFFFFFFFFFFFFFFFE26F2FC17@ 100a7be0     libeay32_EM.0.9.8e:ec_curve.obj
 0002:0001ec14       ??_C@_0DB@CMKOFGHJ@9b2f2f6d9c5628a7844163d015be8634@ 100a7c14     libeay32_EM.0.9.8e:ec_curve.obj
 0002:0001ec48       ??_C@_0DB@MNEBEDDM@DB4FF10EC057E9AE26B07D0280B7F434@ 100a7c48     libeay32_EM.0.9.8e:ec_curve.obj
 0002:0001ec7c       ??_C@_01EKENIIDA@3?$AA@    100a7c7c     libeay32_EM.0.9.8e:ec_curve.obj
 0002:0001ec80       ??_C@_0DB@IEGIPAN@FFFFFFFFFFFFFFFFFFFFFFFFFFFFFFFF@ 100a7c80     libeay32_EM.0.9.8e:ec_curve.obj
 0002:0001ecb4       ??_C@_0CL@NDOOJKPB@SECG?1WTLS?5curve?5over?5a?5160?5bit?5p@ 100a7cb4     libeay32_EM.0.9.8e:ec_curve.obj
 0002:0001ece0       ??_C@_0CL@KKNCFHBD@0100000000000000000000351EE786A8@ 100a7ce0     libeay32_EM.0.9.8e:ec_curve.obj
 0002:0001ed0c       ??_C@_0CJ@FLCBFAOB@feaffef2e331f296e071fa0df9982cfe@ 100a7d0c     libeay32_EM.0.9.8e:ec_curve.obj
 0002:0001ed38       ??_C@_0CJ@MNNAHMPB@52DCB034293A117E1F4FF11B30F7199D@ 100a7d38     libeay32_EM.0.9.8e:ec_curve.obj
 0002:0001ed64       ??_C@_0CJ@HICFNNJG@B4E134D3FB59EB8BAB57274904664D5A@ 100a7d64     libeay32_EM.0.9.8e:ec_curve.obj
 0002:0001ed90       ??_C@_0CJ@FCOAMHDG@FFFFFFFFFFFFFFFFFFFFFFFFFFFFFFFE@ 100a7d90     libeay32_EM.0.9.8e:ec_curve.obj
 0002:0001edbc       ??_C@_0CL@EDKAMPLM@0100000000000000000001F4C8F927AE@ 100a7dbc     libeay32_EM.0.9.8e:ec_curve.obj
 0002:0001ede8       ??_C@_0CJ@IFNODPPM@23a628553168947d59dcc91204235137@ 100a7de8     libeay32_EM.0.9.8e:ec_curve.obj
 0002:0001ee14       ??_C@_0CJ@MIDIAOCP@4A96B5688EF573284664698968C38BB9@ 100a7e14     libeay32_EM.0.9.8e:ec_curve.obj
 0002:0001ee40       ??_C@_0CJ@CGMIEEHD@1C97BEFC54BD7A8B65ACF89F81D4D4AD@ 100a7e40     libeay32_EM.0.9.8e:ec_curve.obj
 0002:0001ee6c       ??_C@_0CJ@IKNAKPND@FFFFFFFFFFFFFFFFFFFFFFFFFFFFFFFF@ 100a7e6c     libeay32_EM.0.9.8e:ec_curve.obj
 0002:0001ee98       ??_C@_0CJ@PHKHFLJG@FFFFFFFFFFFFFFFFFFFFFFFFFFFFFFFF@ 100a7e98     libeay32_EM.0.9.8e:ec_curve.obj
 0002:0001eec4       ??_C@_0CG@MDBLLOCO@SECG?5curve?5over?5a?5160?5bit?5prime?5@ 100a7ec4     libeay32_EM.0.9.8e:ec_curve.obj
 0002:0001eeec       ??_C@_0CL@BDAFGJP@0100000000000000000001B8FA16DFAB@ 100a7eec     libeay32_EM.0.9.8e:ec_curve.obj
 0002:0001ef18       ??_C@_0CJ@FNGEGBI@938cf935318fdced6bc28286531733c3@ 100a7f18     libeay32_EM.0.9.8e:ec_curve.obj
 0002:0001ef44       ??_C@_0CJ@KLDELOPN@3B4C382CE37AA192A4019E763036F4F5@ 100a7f44     libeay32_EM.0.9.8e:ec_curve.obj
 0002:0001ef70       ??_C@_01COCBENDE@7?$AA@    100a7f70     libeay32_EM.0.9.8e:ec_curve.obj
 0002:0001ef74       ??_C@_0CJ@HJMNJEPF@FFFFFFFFFFFFFFFFFFFFFFFFFFFFFFFE@ 100a7f74     libeay32_EM.0.9.8e:ec_curve.obj
 0002:0001efa0       ??_C@_0CB@JAEMBEGB@3FFFFFFF7FFFFFFFBE0024720613B5A3@ 100a7fa0     libeay32_EM.0.9.8e:ec_curve.obj
 0002:0001efc4       ??_C@_0CB@BCFJIPBP@27b6916a894d3aee7106fe805fc34b44@ 100a7fc4     libeay32_EM.0.9.8e:ec_curve.obj
 0002:0001efe8       ??_C@_0CB@IMEOLIDL@7B6AA5D85E572983E6FB32A7CDEBC140@ 100a7fe8     libeay32_EM.0.9.8e:ec_curve.obj
 0002:0001f00c       ??_C@_0CB@NLFHILLM@5EEEFCA380D02919DC2C6558BB6D8A5D@ 100a800c     libeay32_EM.0.9.8e:ec_curve.obj
 0002:0001f030       ??_C@_0CB@MCNCHMKC@D6031998D1B3BBFEBF59CC9BBFF9AEE1@ 100a8030     libeay32_EM.0.9.8e:ec_curve.obj
 0002:0001f054       ??_C@_0CG@DNCCBNMA@SECG?5curve?5over?5a?5128?5bit?5prime?5@ 100a8054     libeay32_EM.0.9.8e:ec_curve.obj
 0002:0001f07c       ??_C@_0CB@HIDHDGFG@FFFFFFFE0000000075A30D1B9038A115@ 100a807c     libeay32_EM.0.9.8e:ec_curve.obj
 0002:0001f0a0       ??_C@_0CB@JFJDIAHA@cf5ac8395bafeb13c02da292dded7a83@ 100a80a0     libeay32_EM.0.9.8e:ec_curve.obj
 0002:0001f0c4       ??_C@_0CB@JLJJCNEF@161FF7528B899B2D0C28607CA52C5B86@ 100a80c4     libeay32_EM.0.9.8e:ec_curve.obj
 0002:0001f0e8       ??_C@_0CB@IGKEJLG@E87579C11079F43DD824993C2CEE5ED3@ 100a80e8     libeay32_EM.0.9.8e:ec_curve.obj
 0002:0001f10c       ??_C@_0CB@BLAJLFEI@FFFFFFFDFFFFFFFFFFFFFFFFFFFFFFFC@ 100a810c     libeay32_EM.0.9.8e:ec_curve.obj
 0002:0001f130       ??_C@_0CB@GGHOEBAN@FFFFFFFDFFFFFFFFFFFFFFFFFFFFFFFF@ 100a8130     libeay32_EM.0.9.8e:ec_curve.obj
 0002:0001f154       ??_C@_0CG@IMPBFOOG@SECG?5curve?5over?5a?5112?5bit?5prime?5@ 100a8154     libeay32_EM.0.9.8e:ec_curve.obj
 0002:0001f17c       ??_C@_0BN@LFOGMMAM@36DF0AAFD8B8D7597CA10520D04B?$AA@ 100a817c     libeay32_EM.0.9.8e:ec_curve.obj
 0002:0001f19c       ??_C@_0BN@EGMMPFGK@adcd46f5882e3747def36e956e97?$AA@ 100a819c     libeay32_EM.0.9.8e:ec_curve.obj
 0002:0001f1bc       ??_C@_0BN@DODNCDHM@4BA30AB5E892B4E1649DD0928643?$AA@ 100a81bc     libeay32_EM.0.9.8e:ec_curve.obj
 0002:0001f1dc       ??_C@_0BN@MGKDLOHA@51DEF1815DB5ED74FCC34C85D709?$AA@ 100a81dc     libeay32_EM.0.9.8e:ec_curve.obj
 0002:0001f1fc       ??_C@_0BN@IJKPAIIP@6127C24C05F38A0AAAF65C0EF02C?$AA@ 100a81fc     libeay32_EM.0.9.8e:ec_curve.obj
 0002:0001f21c       ??_C@_0CL@JMAEHKDJ@SECG?1WTLS?5curve?5over?5a?5112?5bit?5p@ 100a821c     libeay32_EM.0.9.8e:ec_curve.obj
 0002:0001f248       ??_C@_0BN@JIPMFBKH@DB7C2ABF62E35E7628DFAC6561C5?$AA@ 100a8248     libeay32_EM.0.9.8e:ec_curve.obj
 0002:0001f268       ??_C@_0BN@DILIPKGG@a89ce5af8724c0a23e0e0ff77500?$AA@ 100a8268     libeay32_EM.0.9.8e:ec_curve.obj
 0002:0001f288       ??_C@_0BN@NKFNPOOI@09487239995A5EE76B55F9C2F098?$AA@ 100a8288     libeay32_EM.0.9.8e:ec_curve.obj
 0002:0001f2a8       ??_C@_0BN@FBKBJNAD@659EF8BA043916EEDE8911702B22?$AA@ 100a82a8     libeay32_EM.0.9.8e:ec_curve.obj
 0002:0001f2c8       ??_C@_0BN@DKLIBGCH@DB7C2ABF62E35E668076BEAD2088?$AA@ 100a82c8     libeay32_EM.0.9.8e:ec_curve.obj
 0002:0001f2e8       ??_C@_0BN@OPGIIHFL@DB7C2ABF62E35E668076BEAD208B?$AA@ 100a82e8     libeay32_EM.0.9.8e:ec_curve.obj
 0002:0001f308       ??_C@_0CM@IACJENLF@X9?462?1SECG?5curve?5over?5a?5256?5bit?5@ 100a8308     libeay32_EM.0.9.8e:ec_curve.obj
 0002:0001f338       ??_C@_0EB@MIJLAMHG@FFFFFFFF00000000FFFFFFFFFFFFFFFF@ 100a8338     libeay32_EM.0.9.8e:ec_curve.obj
 0002:0001f380       ??_C@_0EB@HOMILGKF@4fe342e2fe1a7f9b8ee7eb4a7c0f9e16@ 100a8380     libeay32_EM.0.9.8e:ec_curve.obj
 0002:0001f3c8       ??_C@_0EB@OLPMACDN@6B17D1F2E12C4247F8BCE6E563A440F2@ 100a83c8     libeay32_EM.0.9.8e:ec_curve.obj
 0002:0001f410       ??_C@_0EB@CGMLNBOM@5AC635D8AA3A93E7B3EBBD55769886BC@ 100a8410     libeay32_EM.0.9.8e:ec_curve.obj
 0002:0001f458       ??_C@_0EB@KHNFKCPI@FFFFFFFF000000010000000000000000@ 100a8458     libeay32_EM.0.9.8e:ec_curve.obj
 0002:0001f4a0       ??_C@_0EB@NKKCFGLN@FFFFFFFF000000010000000000000000@ 100a84a0     libeay32_EM.0.9.8e:ec_curve.obj
 0002:0001f4e4       ??_C@_0DN@IPJCFAPE@7FFFFFFFFFFFFFFFFFFFFFFF7FFFFF97@ 100a84e4     libeay32_EM.0.9.8e:ec_curve.obj
 0002:0001f524       ??_C@_0DN@OLOGAMGN@1607e6898f390c06bc1d552bad226f3b@ 100a8524     libeay32_EM.0.9.8e:ec_curve.obj
 0002:0001f564       ??_C@_0DN@PODFINOL@6768AE8E18BB92CFCF005C949AA2C6D9@ 100a8564     libeay32_EM.0.9.8e:ec_curve.obj
 0002:0001f5a4       ??_C@_0DN@LKNPDOHD@255705FA2A306654B1F4CB03D6A750A3@ 100a85a4     libeay32_EM.0.9.8e:ec_curve.obj
 0002:0001f5e4       ??_C@_0DN@KMAAMHLF@7FFFFFFFFFFFFFFFFFFFFFFF800000CF@ 100a85e4     libeay32_EM.0.9.8e:ec_curve.obj
 0002:0001f624       ??_C@_0DN@CBMBEOIB@5b0125e4dbea0ec7206da0fc01d9b081@ 100a8624     libeay32_EM.0.9.8e:ec_curve.obj
 0002:0001f664       ??_C@_0DN@LJAFBLJN@38AF09D98727705120C921BB5E9E2629@ 100a8664     libeay32_EM.0.9.8e:ec_curve.obj
 0002:0001f6a4       ??_C@_0DN@LEAKOGCI@617FAB6832576CBBFED50D99F0249C3F@ 100a86a4     libeay32_EM.0.9.8e:ec_curve.obj
 0002:0001f6e4       ??_C@_0CH@COBCAEEE@X9?462?5curve?5over?5a?5239?5bit?5prime@ 100a86e4     libeay32_EM.0.9.8e:ec_curve.obj
 0002:0001f70c       ??_C@_0DN@OJHJIMAL@7FFFFFFFFFFFFFFFFFFFFFFF7FFFFF9E@ 100a870c     libeay32_EM.0.9.8e:ec_curve.obj
 0002:0001f74c       ??_C@_0DN@OJKAHBB@7debe8e4e90a5dae6e4054ca530ba046@ 100a874c     libeay32_EM.0.9.8e:ec_curve.obj
 0002:0001f78c       ??_C@_0DN@OHEBNAGB@0FFA963CDCA8816CCC33B8642BEDF905@ 100a878c     libeay32_EM.0.9.8e:ec_curve.obj
 0002:0001f7cc       ??_C@_0DN@FNBIJBPA@6B016C3BDCF18941D0D654921475CA71@ 100a87cc     libeay32_EM.0.9.8e:ec_curve.obj
 0002:0001f80c       ??_C@_0DN@DHKDNKLN@7FFFFFFFFFFFFFFFFFFFFFFF7FFFFFFF@ 100a880c     libeay32_EM.0.9.8e:ec_curve.obj
 0002:0001f84c       ??_C@_0DN@EKNECOPI@7FFFFFFFFFFFFFFFFFFFFFFF7FFFFFFF@ 100a884c     libeay32_EM.0.9.8e:ec_curve.obj
 0002:0001f88c       ??_C@_0DB@EAEHFCJI@FFFFFFFFFFFFFFFFFFFFFFFF7A62D031@ 100a888c     libeay32_EM.0.9.8e:ec_curve.obj
 0002:0001f8c0       ??_C@_0DB@IFCEMDKF@38a90f22637337334b49dcb66a6dc8f9@ 100a88c0     libeay32_EM.0.9.8e:ec_curve.obj
 0002:0001f8f4       ??_C@_0DB@EMKNMOBM@7D29778100C65A1DA1783716588DCE2B@ 100a88f4     libeay32_EM.0.9.8e:ec_curve.obj
 0002:0001f928       ??_C@_0DB@DCDDKDI@22123DC2395A05CAA7423DAECCC94760@ 100a8928     libeay32_EM.0.9.8e:ec_curve.obj
 0002:0001f95c       ??_C@_0CH@BHJCBJE@X9?462?5curve?5over?5a?5192?5bit?5prime@ 100a895c     libeay32_EM.0.9.8e:ec_curve.obj
 0002:0001f984       ??_C@_0DB@PCBKJKFJ@FFFFFFFFFFFFFFFFFFFFFFFE5FB1A724@ 100a8984     libeay32_EM.0.9.8e:ec_curve.obj
 0002:0001f9b8       ??_C@_0DB@OFGGDEB@6574d11d69b6ec7a672bb82a083df2f2@ 100a89b8     libeay32_EM.0.9.8e:ec_curve.obj
 0002:0001f9ec       ??_C@_0DB@JAAMMCPO@EEA2BAE7E1497842F2DE7769CFE9C989@ 100a89ec     libeay32_EM.0.9.8e:ec_curve.obj
 0002:0001fa20       ??_C@_0DB@JMJNBCM@CC22D6DFB95C6B25E49C0D6364A4E598@ 100a8a20     libeay32_EM.0.9.8e:ec_curve.obj
 0002:0001fa54       ??_C@_0CL@NCEJLDDF@NIST?1SECG?5curve?5over?5a?5521?5bit?5p@ 100a8a54     libeay32_EM.0.9.8e:ec_curve.obj
 0002:0001fa80       ??_C@_0IE@DDIDDIA@1FFFFFFFFFFFFFFFFFFFFFFFFFFFFFFF@ 100a8a80     libeay32_EM.0.9.8e:ec_curve.obj
 0002:0001fb08       ??_C@_0IF@IFBOMNNL@011839296a789a3bc0045c8a5fb42c7d@ 100a8b08     libeay32_EM.0.9.8e:ec_curve.obj
 0002:0001fb90       ??_C@_0ID@OOGMNGNF@C6858E06B70404E9CD9E3ECB662395B4@ 100a8b90     libeay32_EM.0.9.8e:ec_curve.obj
 0002:0001fc18       ??_C@_0IE@GOJLJCKA@051953EB9618E1C9A1F929A21A0B6854@ 100a8c18     libeay32_EM.0.9.8e:ec_curve.obj
 0002:0001fca0       ??_C@_0IE@MECPOLCO@1FFFFFFFFFFFFFFFFFFFFFFFFFFFFFFF@ 100a8ca0     libeay32_EM.0.9.8e:ec_curve.obj
 0002:0001fd28       ??_C@_0IE@LJFIBPGL@1FFFFFFFFFFFFFFFFFFFFFFFFFFFFFFF@ 100a8d28     libeay32_EM.0.9.8e:ec_curve.obj
 0002:0001fdac       ??_C@_0CL@MPIFFEHD@NIST?1SECG?5curve?5over?5a?5384?5bit?5p@ 100a8dac     libeay32_EM.0.9.8e:ec_curve.obj
 0002:0001fdd8       ??_C@_0GB@IJGNFOHD@FFFFFFFFFFFFFFFFFFFFFFFFFFFFFFFF@ 100a8dd8     libeay32_EM.0.9.8e:ec_curve.obj
 0002:0001fe40       ??_C@_0GB@JOFNDMIE@3617de4a96262c6f5d9e98bf9292dc29@ 100a8e40     libeay32_EM.0.9.8e:ec_curve.obj
 0002:0001fea8       ??_C@_0GB@GJBBIIPB@AA87CA22BE8B05378EB1C71EF320AD74@ 100a8ea8     libeay32_EM.0.9.8e:ec_curve.obj
 0002:0001ff10       ??_C@_0GB@GBMGBGKN@B3312FA7E23EE7E4988E056BE3F82D19@ 100a8f10     libeay32_EM.0.9.8e:ec_curve.obj
 0002:0001ff78       ??_C@_0GB@KNLAOKCG@FFFFFFFFFFFFFFFFFFFFFFFFFFFFFFFF@ 100a8f78     libeay32_EM.0.9.8e:ec_curve.obj
 0002:0001ffe0       ??_C@_0GB@NAMHBOGD@FFFFFFFFFFFFFFFFFFFFFFFFFFFFFFFF@ 100a8fe0     libeay32_EM.0.9.8e:ec_curve.obj
 0002:00020044       ??_C@_0CL@NHPHHEEB@NIST?1SECG?5curve?5over?5a?5224?5bit?5p@ 100a9044     libeay32_EM.0.9.8e:ec_curve.obj
 0002:00020070       ??_C@_0DJ@BHCANMNE@FFFFFFFFFFFFFFFFFFFFFFFFFFFF16A2@ 100a9070     libeay32_EM.0.9.8e:ec_curve.obj
 0002:000200ac       ??_C@_0DJ@KNLKNOLF@bd376388b5f723fb4c22dfe6cd4375a0@ 100a90ac     libeay32_EM.0.9.8e:ec_curve.obj
 0002:000200e8       ??_C@_0DJ@NPHLCOHI@B70E0CBD6BB4BF7F321390B94A03C1D3@ 100a90e8     libeay32_EM.0.9.8e:ec_curve.obj
 0002:00020124       ??_C@_0DJ@KCHEMFFJ@B4050A850C04B3ABF54132565044B0B7@ 100a9124     libeay32_EM.0.9.8e:ec_curve.obj
 0002:00020160       ??_C@_0DJ@GECEELCG@FFFFFFFFFFFFFFFFFFFFFFFFFFFFFFFE@ 100a9160     libeay32_EM.0.9.8e:ec_curve.obj
 0002:0002019c       ??_C@_0DJ@KBMBLOHP@FFFFFFFFFFFFFFFFFFFFFFFFFFFFFFFF@ 100a919c     libeay32_EM.0.9.8e:ec_curve.obj
 0002:000201d8       ??_C@_0DB@HJIMEGJL@NIST?1X9?462?1SECG?5curve?5over?5a?5192@ 100a91d8     libeay32_EM.0.9.8e:ec_curve.obj
 0002:0002020c       ??_C@_0DB@EHFHEEFE@FFFFFFFFFFFFFFFFFFFFFFFF99DEF836@ 100a920c     libeay32_EM.0.9.8e:ec_curve.obj
 0002:00020240       ??_C@_0DB@BFJADMLB@07192b95ffc8da78631011ed6b24cdd5@ 100a9240     libeay32_EM.0.9.8e:ec_curve.obj
 0002:00020274       ??_C@_0DB@LHIGDGHO@188DA80EB03090F67CBF20EB43A18800@ 100a9274     libeay32_EM.0.9.8e:ec_curve.obj
 0002:000202a8       ??_C@_0DB@PLBGALEH@64210519E59C80E70FA7E9AB72243049@ 100a92a8     libeay32_EM.0.9.8e:ec_curve.obj
 0002:000202dc       ??_C@_0DB@EFILCKBL@FFFFFFFFFFFFFFFFFFFFFFFFFFFFFFFE@ 100a92dc     libeay32_EM.0.9.8e:ec_curve.obj
 0002:00020310       ??_C@_0DB@DIPMNOFO@FFFFFFFFFFFFFFFFFFFFFFFFFFFFFFFE@ 100a9310     libeay32_EM.0.9.8e:ec_curve.obj
 0002:000212a8       ??_C@_0BH@GJAOOFMK@?4?2crypto?2ec?2ec_curve?4c?$AA@ 100aa2a8     libeay32_EM.0.9.8e:ec_curve.obj
 0002:000212c0       ??_C@_0BL@EFACHDEK@?4?2crypto?2x509v3?2pcy_data?4c?$AA@ 100aa2c0     libeay32_EM.0.9.8e:pcy_data.obj
 0002:000212dc       ??_C@_0BK@JPOIDCOF@?4?2crypto?2x509v3?2pcy_map?4c?$AA@ 100aa2dc     libeay32_EM.0.9.8e:pcy_map.obj
 0002:000212f8       ??_C@_0BD@IBKHKBJA@OpenSSL?5DSA?5method?$AA@ 100aa2f8     libeay32_EM.0.9.8e:dsa_ossl.obj
 0002:0002130c       ??_C@_0BI@OJLFFLBA@?4?2crypto?2dsa?2dsa_ossl?4c?$AA@ 100aa30c     libeay32_EM.0.9.8e:dsa_ossl.obj
 0002:000213c0       ??_C@_0BH@HFFIPKFF@?4?2crypto?2ec?2ec2_smpl?4c?$AA@ 100aa3c0     libeay32_EM.0.9.8e:ec2_smpl.obj
 0002:000213d8       ??_C@_0EG@KJOGONJI@h?3?2sat?2desarrollo?2libs3os?2openss@ 100aa3d8     libeay32_EM.0.9.8e:ec2_smpl.obj
 0002:00021420       ??_C@_0BK@PILNOGHK@PROXY_CERT_INFO_EXTENSION?$AA@ 100aa420     libeay32_EM.0.9.8e:v3_pcia.obj
 0002:0002143c       ??_C@_0M@KKFBCGOG@proxyPolicy?$AA@ 100aa43c     libeay32_EM.0.9.8e:v3_pcia.obj
 0002:00021448       ??_C@_0BH@JBGKCLHC@pcPathLengthConstraint?$AA@ 100aa448     libeay32_EM.0.9.8e:v3_pcia.obj
 0002:00021460       ??_C@_0N@CLKEFBDI@PROXY_POLICY?$AA@ 100aa460     libeay32_EM.0.9.8e:v3_pcia.obj
 0002:00021470       ??_C@_0P@BLMEJDMO@policyLanguage?$AA@ 100aa470     libeay32_EM.0.9.8e:v3_pcia.obj
 0002:00021508       ??_C@_0BL@GDMBNEK@?4?2crypto?2pkcs12?2p12_decr?4c?$AA@ 100aa508     libeay32_EM.0.9.8e:p12_decr.obj
 0002:00021524       ??_C@_0BJ@FELOIPJL@niv?5?$DM?$DN?5EVP_MAX_IV_LENGTH?$AA@ 100aa524     libeay32_EM.0.9.8e:evp_key.obj
 0002:00021540       ??_C@_0BH@CNNJFBGA@?4?2crypto?2evp?2evp_key?4c?$AA@ 100aa540     libeay32_EM.0.9.8e:evp_key.obj
 0002:00021558       ??_C@_0BL@MDAAPAJN@nkey?5?$DM?$DN?5EVP_MAX_KEY_LENGTH?$AA@ 100aa558     libeay32_EM.0.9.8e:evp_key.obj
 0002:00021574       ??_C@_0BG@FMGDOINB@?4?2crypto?2evp?2encode?4c?$AA@ 100aa574     libeay32_EM.0.9.8e:encode.obj
 0002:0002158c       ??_C@_0CK@NJACHFBA@ctx?9?$DOlength?5?$DM?$DN?5?$CIint?$CJsizeof?$CIctx?9?$DO@ 100aa58c     libeay32_EM.0.9.8e:encode.obj
 0002:000215b8       ??_C@_0BP@KGJPJK@n?5?$DM?5?$CIint?$CJsizeof?$CIctx?9?$DOenc_data?$CJ?$AA@ 100aa5b8     libeay32_EM.0.9.8e:encode.obj
 0002:000215d8       ??_C@_08CKLJFNPB@PBEPARAM?$AA@ 100aa5d8     libeay32_EM.0.9.8e:p5_pbe.obj
 0002:00021628       ??_C@_0M@DPMJHKGH@PBKDF2PARAM?$AA@ 100aa628     libeay32_EM.0.9.8e:p5_pbev2.obj
 0002:00021634       ??_C@_03NBFGPAGA@prf?$AA@  100aa634     libeay32_EM.0.9.8e:p5_pbev2.obj
 0002:00021638       ??_C@_09PKJJLJJD@keylength?$AA@ 100aa638     libeay32_EM.0.9.8e:p5_pbev2.obj
 0002:00021644       ??_C@_09DHBCCKCK@PBE2PARAM?$AA@ 100aa644     libeay32_EM.0.9.8e:p5_pbev2.obj
 0002:00021650       ??_C@_0L@HBBFMHKN@encryption?$AA@ 100aa650     libeay32_EM.0.9.8e:p5_pbev2.obj
 0002:0002165c       ??_C@_07KEPFKPDN@keyfunc?$AA@ 100aa65c     libeay32_EM.0.9.8e:p5_pbev2.obj
 0002:00021718       ??_C@_0BG@MAGCMNCN@?4?2crypto?2ec?2ec_mult?4c?$AA@ 100aa718     libeay32_EM.0.9.8e:ec_mult.obj
 0002:00021730       ??_C@_0BF@DJKLHCAL@OpenSSL?5ECDSA?5method?$AA@ 100aa730     libeay32_EM.0.9.8e:ecs_ossl.obj
 0002:00021748       ??_C@_0BK@JICBNKGE@?4?2crypto?2ecdsa?2ecs_ossl?4c?$AA@ 100aa748     libeay32_EM.0.9.8e:ecs_ossl.obj
 0002:00021768       ??_C@_0BC@MGHKLCAP@OpenSSL?5DH?5Method?$AA@ 100aa768     libeay32_EM.0.9.8e:dh_key.obj
 0002:0002177c       ??_C@_0BF@LANDKLP@?4?2crypto?2dh?2dh_key?4c?$AA@ 100aa77c     libeay32_EM.0.9.8e:dh_key.obj
 0002:00021798       ??_C@_0BL@DEPKENKB@?4?2crypto?2x509v3?2pcy_node?4c?$AA@ 100aa798     libeay32_EM.0.9.8e:pcy_node.obj
 0002:000217b4       ??_C@_0BF@MONENDDD@?1usr?1local?1ssl?1certs?$AA@ 100aa7b4     libeay32_EM.0.9.8e:x509_def.obj
 0002:000217cc       ??_C@_0BI@DIHFGMNB@?1usr?1local?1ssl?1cert?4pem?$AA@ 100aa7cc     libeay32_EM.0.9.8e:x509_def.obj
 0002:000217e4       ??_C@_0N@GHKHGDAO@SSL_CERT_DIR?$AA@ 100aa7e4     libeay32_EM.0.9.8e:x509_def.obj
 0002:000217f4       ??_C@_0O@GKJOMDO@SSL_CERT_FILE?$AA@ 100aa7f4     libeay32_EM.0.9.8e:x509_def.obj
 0002:00021804       ??_C@_0BH@ICONPJGH@?4?2crypto?2asn1?2x_info?4c?$AA@ 100aa804     libeay32_EM.0.9.8e:x_info.obj
 0002:0002181c       ??_C@_0BI@JHOHEJIM@?4?2crypto?2pem?2pem_info?4c?$AA@ 100aa81c     libeay32_EM.0.9.8e:pem_info.obj
 0002:00021834       ??_C@_05LKMDHMJN@WIN32?$AA@ 100aa834     libeay32_EM.0.9.8e:conf_def.obj
 0002:0002183c       ??_C@_0BA@EEIGDPJJ@OpenSSL?5default?$AA@ 100aa83c     libeay32_EM.0.9.8e:conf_def.obj
 0002:0002184c       _CONF_def_version          100aa84c     libeay32_EM.0.9.8e:conf_def.obj
 0002:00021878       ??_C@_0BJ@HNHBHKLJ@?4?2crypto?2conf?2conf_def?4c?$AA@ 100aa878     libeay32_EM.0.9.8e:conf_def.obj
 0002:00021894       ??_C@_07PNLMPOMH@?$FL?$FL?$CFs?$FN?$FN?6?$AA@ 100aa894     libeay32_EM.0.9.8e:conf_def.obj
 0002:0002189c       ??_C@_0M@CLCLGKAH@?$FL?$CFs?$FN?5?$CFs?$DN?$CFs?6?$AA@ 100aa89c     libeay32_EM.0.9.8e:conf_def.obj
 0002:000218a8       ??_C@_05KFEICJBI@line?5?$AA@ 100aa8a8     libeay32_EM.0.9.8e:conf_def.obj
 0002:000218b0       ??_C@_03OEJENCPE@ENV?$AA@  100aa8b0     libeay32_EM.0.9.8e:conf_api.obj
 0002:000218b4       ??_C@_0BJ@NNNPODKO@?4?2crypto?2conf?2conf_api?4c?$AA@ 100aa8b4     libeay32_EM.0.9.8e:conf_api.obj
 0002:000218d0       ??_C@_0BH@MIGHECOA@?4?2crypto?2asn1?2a_enum?4c?$AA@ 100aa8d0     libeay32_EM.0.9.8e:a_enum.obj
 0002:000218e8       ??_C@_0CF@JFAAPJDH@len?$DO?$DN0?5?$CG?$CG?5len?$DM?$DN?$CIint?$CJsizeof?$CIctx?9?$DO@ 100aa8e8     libeay32_EM.0.9.8e:hmac.obj
 0002:00021910       ??_C@_0BF@PGACILEA@?4?2crypto?2hmac?2hmac?4c?$AA@ 100aa910     libeay32_EM.0.9.8e:hmac.obj
 0002:00021928       ??_C@_0BL@OKHNPHMK@j?5?$DM?$DN?5?$CIint?$CJsizeof?$CIctx?9?$DOkey?$CJ?$AA@ 100aa928     libeay32_EM.0.9.8e:hmac.obj
 0002:00021944       ??_C@_0BK@LAJAIGBF@?4?2crypto?2pkcs12?2p12_key?4c?$AA@ 100aa944     libeay32_EM.0.9.8e:p12_key.obj
 0002:000219a8       ??_C@_0CD@HMFJNEFL@EVP_CIPHER_iv_length?$CIcipher?$CJ?5?$DM?$DN?5@ 100aa9a8     libeay32_EM.0.9.8e:p5_crpt.obj
 0002:000219cc       ??_C@_0DF@FHOHFFEB@EVP_CIPHER_key_length?$CIcipher?$CJ?5?$DM?$DN@ 100aa9cc     libeay32_EM.0.9.8e:p5_crpt.obj
 0002:00021a04       ??_C@_0BH@DKGHAIKO@?4?2crypto?2evp?2p5_crpt?4c?$AA@ 100aaa04     libeay32_EM.0.9.8e:p5_crpt.obj
 0002:00021a1c       ??_C@_0BL@NPGDKDGJ@?4?2crypto?2pkcs12?2p12_crpt?4c?$AA@ 100aaa1c     libeay32_EM.0.9.8e:p12_crpt.obj
 0002:00021de0       ??_C@_0BK@GBILIGIN@?4?2crypto?2evp?2e_camellia?4c?$AA@ 100aade0     libeay32_EM.0.9.8e:e_camellia.obj
 0002:00021dfc       ??_C@_0BE@FPCNHCIJ@Generator?5?$CIhybrid?$CJ?3?$AA@ 100aadfc     libeay32_EM.0.9.8e:t_pkey.obj
 0002:00021e10       ??_C@_0BK@DOCPEENO@Generator?5?$CIuncompressed?$CJ?3?$AA@ 100aae10     libeay32_EM.0.9.8e:t_pkey.obj
 0002:00021e2c       ??_C@_0BI@DFFFIKFB@Generator?5?$CIcompressed?$CJ?3?$AA@ 100aae2c     libeay32_EM.0.9.8e:t_pkey.obj
 0002:00021e44       ??_C@_02JPPHBJLD@?2?6?$AA@ 100aae44     libeay32_EM.0.9.8e:f_int.obj
 0002:00021e48       ??_C@_0BA@JLGHGCLL@OCSP_SERVICELOC?$AA@ 100aae48     libeay32_EM.0.9.8e:ocsp_asn.obj
 0002:00021e58       ??_C@_07PAIKCKMF@locator?$AA@ 100aae58     libeay32_EM.0.9.8e:ocsp_asn.obj
 0002:00021e60       ??_C@_0L@JOKCDHBA@OCSP_CRLID?$AA@ 100aae60     libeay32_EM.0.9.8e:ocsp_asn.obj
 0002:00021e6c       ??_C@_07BDEAJPPO@crlTime?$AA@ 100aae6c     libeay32_EM.0.9.8e:ocsp_asn.obj
 0002:00021e74       ??_C@_06DLEHNACA@crlNum?$AA@ 100aae74     libeay32_EM.0.9.8e:ocsp_asn.obj
 0002:00021e7c       ??_C@_06KAALCHHK@crlUrl?$AA@ 100aae7c     libeay32_EM.0.9.8e:ocsp_asn.obj
 0002:00021e84       ??_C@_0P@CPCDLAO@OCSP_BASICRESP?$AA@ 100aae84     libeay32_EM.0.9.8e:ocsp_asn.obj
 0002:00021e94       ??_C@_0BA@OOPOFNLG@tbsResponseData?$AA@ 100aae94     libeay32_EM.0.9.8e:ocsp_asn.obj
 0002:00021ea4       ??_C@_0O@GNAMNHBK@OCSP_RESPDATA?$AA@ 100aaea4     libeay32_EM.0.9.8e:ocsp_asn.obj
 0002:00021eb4       ??_C@_0BD@LEANHDON@responseExtensions?$AA@ 100aaeb4     libeay32_EM.0.9.8e:ocsp_asn.obj
 0002:00021ec8       ??_C@_09NKKOBILA@responses?$AA@ 100aaec8     libeay32_EM.0.9.8e:ocsp_asn.obj
 0002:00021ed4       ??_C@_0L@KADAOIGF@producedAt?$AA@ 100aaed4     libeay32_EM.0.9.8e:ocsp_asn.obj
 0002:00021ee0       ??_C@_0M@CPBMKBOK@responderId?$AA@ 100aaee0     libeay32_EM.0.9.8e:ocsp_asn.obj
 0002:00021eec       ??_C@_0BA@CEMENBMB@OCSP_SINGLERESP?$AA@ 100aaeec     libeay32_EM.0.9.8e:ocsp_asn.obj
 0002:00021efc       ??_C@_0BB@BHCHCCEI@singleExtensions?$AA@ 100aaefc     libeay32_EM.0.9.8e:ocsp_asn.obj
 0002:00021f10       ??_C@_0L@BEDJFPDO@thisUpdate?$AA@ 100aaf10     libeay32_EM.0.9.8e:ocsp_asn.obj
 0002:00021f1c       ??_C@_0L@IGGFAGC@certStatus?$AA@ 100aaf1c     libeay32_EM.0.9.8e:ocsp_asn.obj
 0002:00021f28       ??_C@_06JJGBHEJI@certId?$AA@ 100aaf28     libeay32_EM.0.9.8e:ocsp_asn.obj
 0002:00021f30       ??_C@_0BA@JBJHLNOJ@OCSP_CERTSTATUS?$AA@ 100aaf30     libeay32_EM.0.9.8e:ocsp_asn.obj
 0002:00021f40       ??_C@_0O@ICNBHFHN@value?4unknown?$AA@ 100aaf40     libeay32_EM.0.9.8e:ocsp_asn.obj
 0002:00021f50       ??_C@_0O@GCBEBIKI@value?4revoked?$AA@ 100aaf50     libeay32_EM.0.9.8e:ocsp_asn.obj
 0002:00021f60       ??_C@_0L@MEIDNBL@value?4good?$AA@ 100aaf60     libeay32_EM.0.9.8e:ocsp_asn.obj
 0002:00021f6c       ??_C@_0BB@CFNKINIP@OCSP_REVOKEDINFO?$AA@ 100aaf6c     libeay32_EM.0.9.8e:ocsp_asn.obj
 0002:00021f80       ??_C@_0BB@JHENKMOK@revocationReason?$AA@ 100aaf80     libeay32_EM.0.9.8e:ocsp_asn.obj
 0002:00021f94       ??_C@_0P@MHJPNEEK@revocationTime?$AA@ 100aaf94     libeay32_EM.0.9.8e:ocsp_asn.obj
 0002:00021fa4       ??_C@_0M@JBDPBGBO@OCSP_RESPID?$AA@ 100aafa4     libeay32_EM.0.9.8e:ocsp_asn.obj
 0002:00021fb0       ??_C@_0M@OFGLOCKB@value?4byKey?$AA@ 100aafb0     libeay32_EM.0.9.8e:ocsp_asn.obj
 0002:00021fbc       ??_C@_0N@OFBDHEPF@value?4byName?$AA@ 100aafbc     libeay32_EM.0.9.8e:ocsp_asn.obj
 0002:00021fcc       ??_C@_0O@CDJMCFNM@OCSP_RESPONSE?$AA@ 100aafcc     libeay32_EM.0.9.8e:ocsp_asn.obj
 0002:00021fdc       ??_C@_0O@MMHCFEHM@responseBytes?$AA@ 100aafdc     libeay32_EM.0.9.8e:ocsp_asn.obj
 0002:00021fec       ??_C@_0P@GEHCLFGI@responseStatus?$AA@ 100aafec     libeay32_EM.0.9.8e:ocsp_asn.obj
 0002:00021ffc       ??_C@_0P@ONFJGMLI@OCSP_RESPBYTES?$AA@ 100aaffc     libeay32_EM.0.9.8e:ocsp_asn.obj
 0002:0002200c       ??_C@_08HKMEAON@response?$AA@ 100ab00c     libeay32_EM.0.9.8e:ocsp_asn.obj
 0002:00022018       ??_C@_0N@FPIGADMM@responseType?$AA@ 100ab018     libeay32_EM.0.9.8e:ocsp_asn.obj
 0002:00022028       ??_C@_0N@PCNOLOBD@OCSP_REQUEST?$AA@ 100ab028     libeay32_EM.0.9.8e:ocsp_asn.obj
 0002:00022038       ??_C@_0BC@GKDKILGO@optionalSignature?$AA@ 100ab038     libeay32_EM.0.9.8e:ocsp_asn.obj
 0002:0002204c       ??_C@_0L@OIGCAPNH@tbsRequest?$AA@ 100ab04c     libeay32_EM.0.9.8e:ocsp_asn.obj
 0002:00022058       ??_C@_0N@DDBEOJJA@OCSP_REQINFO?$AA@ 100ab058     libeay32_EM.0.9.8e:ocsp_asn.obj
 0002:00022068       ??_C@_0BC@CPAMEDLH@requestExtensions?$AA@ 100ab068     libeay32_EM.0.9.8e:ocsp_asn.obj
 0002:0002207c       ??_C@_0M@NNJGDIDJ@requestList?$AA@ 100ab07c     libeay32_EM.0.9.8e:ocsp_asn.obj
 0002:00022088       ??_C@_0O@NHDBCFOA@requestorName?$AA@ 100ab088     libeay32_EM.0.9.8e:ocsp_asn.obj
 0002:00022098       ??_C@_0M@IGPHKOAK@OCSP_ONEREQ?$AA@ 100ab098     libeay32_EM.0.9.8e:ocsp_asn.obj
 0002:000220a4       ??_C@_0BI@PPJDGJOP@singleRequestExtensions?$AA@ 100ab0a4     libeay32_EM.0.9.8e:ocsp_asn.obj
 0002:000220bc       ??_C@_07GCNFCODJ@reqCert?$AA@ 100ab0bc     libeay32_EM.0.9.8e:ocsp_asn.obj
 0002:000220c4       ??_C@_0M@OCJEDPID@OCSP_CERTID?$AA@ 100ab0c4     libeay32_EM.0.9.8e:ocsp_asn.obj
 0002:000220d0       ??_C@_0O@KPBFDKHB@issuerKeyHash?$AA@ 100ab0d0     libeay32_EM.0.9.8e:ocsp_asn.obj
 0002:000220e0       ??_C@_0P@EKEFMOEP@issuerNameHash?$AA@ 100ab0e0     libeay32_EM.0.9.8e:ocsp_asn.obj
 0002:000220f0       ??_C@_0O@DHJLLKEK@hashAlgorithm?$AA@ 100ab0f0     libeay32_EM.0.9.8e:ocsp_asn.obj
 0002:00022100       ??_C@_0P@OIPGPNII@OCSP_SIGNATURE?$AA@ 100ab100     libeay32_EM.0.9.8e:ocsp_asn.obj
 0002:00022110       ??_C@_0BD@CBMBFDMH@signatureAlgorithm?$AA@ 100ab110     libeay32_EM.0.9.8e:ocsp_asn.obj
 0002:00022650       ??_C@_0BG@KPFPNIIP@?4?2crypto?2bn?2bn_recp?4c?$AA@ 100ab650     libeay32_EM.0.9.8e:bn_recp.obj
 0002:00022668       ??_C@_09FLJPBFIA@ECDSA_SIG?$AA@ 100ab668     libeay32_EM.0.9.8e:ecs_asn1.obj
 0002:000226b8       ??_C@_0BG@KEDDBGGO@?4?2crypto?2bn?2bn_exp2?4c?$AA@ 100ab6b8     libeay32_EM.0.9.8e:bn_exp2.obj
 0002:000226d0       ??_C@_0BH@JNIBJIMD@?4?2crypto?2ec?2ec2_mult?4c?$AA@ 100ab6d0     libeay32_EM.0.9.8e:ec2_mult.obj
 0002:00022728       ??_C@_0BG@LLCNHAHB@?4?2crypto?2bn?2bn_gf2m?4c?$AA@ 100ab728     libeay32_EM.0.9.8e:bn_gf2m.obj
 0002:000227d8       ??_C@_0BH@LFGIMBNP@?4?2crypto?2ec?2ecp_mont?4c?$AA@ 100ab7d8     libeay32_EM.0.9.8e:ecp_mont.obj
 0002:00022888       ??_C@_0BH@MKKJGLGM@?4?2crypto?2ec?2ecp_nist?4c?$AA@ 100ab888     libeay32_EM.0.9.8e:ecp_nist.obj
 0002:000228a0       ??_C@_0BF@HFMCBPGH@?4?2crypto?2ui?2ui_lib?4c?$AA@ 100ab8a0     libeay32_EM.0.9.8e:ui_lib.obj
 0002:000228b8       ??_C@_0BC@FIPJHCII@You?5must?5type?5in?5?$AA@ 100ab8b8     libeay32_EM.0.9.8e:ui_lib.obj
 0002:000228cc       ??_C@_04MKEOLIJC@?5to?5?$AA@ 100ab8cc     libeay32_EM.0.9.8e:ui_lib.obj
 0002:000228d4       ??_C@_0M@MCBMLIEP@?5characters?$AA@ 100ab8d4     libeay32_EM.0.9.8e:ui_lib.obj
 0002:000228e0       ??_C@_0BH@BCLEMDFK@?4?2crypto?2asn1?2x_pkey?4c?$AA@ 100ab8e0     libeay32_EM.0.9.8e:x_pkey.obj
 0002:000228f8       ??_C@_0BH@IMFGHBFJ@?4?2crypto?2dso?2dso_lib?4c?$AA@ 100ab8f8     libeay32_EM.0.9.8e:dso_lib.obj
 0002:00022910       ??_C@_0BF@JMOFLBJO@keylen?5?$DM?$DN?5sizeof?5key?$AA@ 100ab910     libeay32_EM.0.9.8e:p5_crpt2.obj
 0002:00022928       ??_C@_0BI@BNAJCHDH@?4?2crypto?2evp?2p5_crpt2?4c?$AA@ 100ab928     libeay32_EM.0.9.8e:p5_crpt2.obj
 0002:00022940       _CAMELLIA_version          100ab940     libeay32_EM.0.9.8e:cmll_misc.obj
 0002:00022a08       ??_C@_0BH@IFDMNBNE@?4?2crypto?2ec?2ecp_smpl?4c?$AA@ 100aba08     libeay32_EM.0.9.8e:ecp_smpl.obj
 0002:00022aec       ??_C@_0BG@JHGBOOJL@?4?2crypto?2bn?2bn_nist?4c?$AA@ 100abaec     libeay32_EM.0.9.8e:bn_nist.obj
 0002:00022b04       ??_C@_0BP@JCDKFDNH@OpenSSL?5default?5user?5interface?$AA@ 100abb04     libeay32_EM.0.9.8e:ui_openssl.obj
 0002:00022b24       ??_C@_03EPNNLCDK@con?$AA@  100abb24     libeay32_EM.0.9.8e:ui_openssl.obj
 0002:00022b28       ??_C@_0BJ@HNOFKLHA@?4?2crypto?2ui?2ui_openssl?4c?$AA@ 100abb28     libeay32_EM.0.9.8e:ui_openssl.obj
 0002:00022b44       ??_C@_0BA@GANIJHKH@Verify?5failure?6?$AA@ 100abb44     libeay32_EM.0.9.8e:ui_openssl.obj
 0002:00022b54       ??_C@_0P@IOLEFIHN@Verifying?5?9?5?$CFs?$AA@ 100abb54     libeay32_EM.0.9.8e:ui_openssl.obj
 0002:00023b88       ??_C@_0BG@EDINLKND@?4?2crypto?2bn?2bn_sqrt?4c?$AA@ 100acb88     libeay32_EM.0.9.8e:bn_sqrt.obj
 0002:00023ba0       ??_C@_0CG@ELPNGFCJ@OpenSSL?5?8win32?8?5shared?5library?5m@ 100acba0     libeay32_EM.0.9.8e:dso_win32.obj
 0002:00023bc8       ??_C@_09CCCHLKJP@filename?$CI?$AA@ 100acbc8     libeay32_EM.0.9.8e:dso_win32.obj
 0002:00023bd4       ??_C@_01PKGAHCOL@?$CJ?$AA@ 100acbd4     libeay32_EM.0.9.8e:dso_win32.obj
 0002:00023bd8       ??_C@_0BJ@INKKKOJN@?4?2crypto?2dso?2dso_win32?4c?$AA@ 100acbd8     libeay32_EM.0.9.8e:dso_win32.obj
 0002:00023bf4       ??_C@_08MFAHALLH@symname?$CI?$AA@ 100acbf4     libeay32_EM.0.9.8e:dso_win32.obj
 0002:00023c00       ??_C@_06DAJAKOAL@?$CFs?4dll?$AA@ 100acc00     libeay32_EM.0.9.8e:dso_win32.obj
 0002:00023c08       ??_C@_02HDBGODGB@?2?2?$AA@ 100acc08     libeay32_EM.0.9.8e:dso_win32.obj
 0002:00023c0c       ??_C@_0BL@LJLENDCP@OpenSSL?50?49?48e?523?5Feb?52007?$AA@ 100acc0c     ssleay32_EM.0.9.8e:ssl_lib.obj
 0002:00023c28       ??_C@_0BA@KBOIMHCO@?4?2ssl?2ssl_lib?4c?$AA@ 100acc28     ssleay32_EM.0.9.8e:ssl_lib.obj
 0002:00023c38       ??_C@_0CF@CEHHFEH@AES?3CAMELLIA?3ALL?3?$CBADH?3?$CLRC4?3?$EASTRE@ 100acc38     ssleay32_EM.0.9.8e:ssl_lib.obj
 0002:00023c60       ??_C@_05NHFKDGAI@SSLv2?$AA@ 100acc60     ssleay32_EM.0.9.8e:ssl_lib.obj
 0002:00023c68       ??_C@_05MOEBAHEJ@SSLv3?$AA@ 100acc68     ssleay32_EM.0.9.8e:ssl_lib.obj
 0002:00023c70       ??_C@_05LLIBCOJ@TLSv1?$AA@ 100acc70     ssleay32_EM.0.9.8e:ssl_lib.obj
 0002:00023c78       ??_C@_0CH@MEMCPFFG@s?9?$DOsid_ctx_length?5?$DM?$DN?5sizeof?5s?9?$DOs@ 100acc78     ssleay32_EM.0.9.8e:ssl_lib.obj
 0002:00023ca0       ??_C@_0BA@KANBIEAI@?4?2ssl?2ssl_rsa?4c?$AA@ 100acca0     ssleay32_EM.0.9.8e:ssl_rsa.obj
 0002:00023cb0       ??_C@_0CB@IPKKKBFF@x509?5verification?5setup?5problems@ 100accb0     ssleay32_EM.0.9.8e:ssl_err.obj
 0002:00023cd4       ??_C@_08LEEKLKIH@x509?5lib?$AA@ 100accd4     ssleay32_EM.0.9.8e:ssl_err.obj
 0002:00023ce0       ??_C@_0BF@IIJIOCLO@wrong?5version?5number?$AA@ 100acce0     ssleay32_EM.0.9.8e:ssl_err.obj
 0002:00023cf8       ??_C@_0BC@IKGOJHIL@wrong?5ssl?5version?$AA@ 100accf8     ssleay32_EM.0.9.8e:ssl_err.obj
 0002:00023d0c       ??_C@_0BF@LCACIEAJ@wrong?5signature?5size?$AA@ 100acd0c     ssleay32_EM.0.9.8e:ssl_err.obj
 0002:00023d24       ??_C@_0BJ@LOOCOMJP@wrong?5number?5of?5key?5bits?$AA@ 100acd24     ssleay32_EM.0.9.8e:ssl_err.obj
 0002:00023d40       ??_C@_0BD@PJNOGBDL@wrong?5message?5type?$AA@ 100acd40     ssleay32_EM.0.9.8e:ssl_err.obj
 0002:00023d54       ??_C@_0BG@EAEEJHLO@wrong?5cipher?5returned?$AA@ 100acd54     ssleay32_EM.0.9.8e:ssl_err.obj
 0002:00023d6c       ??_C@_0BC@LPFLFGE@write?5bio?5not?5set?$AA@ 100acd6c     ssleay32_EM.0.9.8e:ssl_err.obj
 0002:00023d80       ??_C@_0BI@MINADGB@unsupported?5ssl?5version?$AA@ 100acd80     ssleay32_EM.0.9.8e:ssl_err.obj
 0002:00023d98       ??_C@_0BF@FDMDPPGG@unsupported?5protocol?$AA@ 100acd98     ssleay32_EM.0.9.8e:ssl_err.obj
 0002:00023db0       ??_C@_0BL@EABDDLEE@unsupported?5elliptic?5curve?$AA@ 100acdb0     ssleay32_EM.0.9.8e:ssl_err.obj
 0002:00023dcc       ??_C@_0CC@EGPPFAKP@unsupported?5compression?5algorith@ 100acdcc     ssleay32_EM.0.9.8e:ssl_err.obj
 0002:00023df0       ??_C@_0O@BIABHEFK@unknown?5state?$AA@ 100acdf0     ssleay32_EM.0.9.8e:ssl_err.obj
 0002:00023e00       ??_C@_0BE@NFEMGHJI@unknown?5ssl?5version?$AA@ 100ace00     ssleay32_EM.0.9.8e:ssl_err.obj
 0002:00023e14       ??_C@_0BK@PMMINFEG@unknown?5remote?5error?5type?$AA@ 100ace14     ssleay32_EM.0.9.8e:ssl_err.obj
 0002:00023e30       ??_C@_0BB@BLECIBPP@unknown?5protocol?$AA@ 100ace30     ssleay32_EM.0.9.8e:ssl_err.obj
 0002:00023e44       ??_C@_0BC@IJGHBKLA@unknown?5pkey?5type?$AA@ 100ace44     ssleay32_EM.0.9.8e:ssl_err.obj
 0002:00023e58       ??_C@_0BK@PFADFKII@unknown?5key?5exchange?5type?$AA@ 100ace58     ssleay32_EM.0.9.8e:ssl_err.obj
 0002:00023e74       ??_C@_0BE@MKGJFNCP@unknown?5cipher?5type?$AA@ 100ace74     ssleay32_EM.0.9.8e:ssl_err.obj
 0002:00023e88       ??_C@_0BI@OLEKBGFK@unknown?5cipher?5returned?$AA@ 100ace88     ssleay32_EM.0.9.8e:ssl_err.obj
 0002:00023ea0       ??_C@_0BJ@HADFAIFE@unknown?5certificate?5type?$AA@ 100acea0     ssleay32_EM.0.9.8e:ssl_err.obj
 0002:00023ebc       ??_C@_0BD@NMFMDKLF@unknown?5alert?5type?$AA@ 100acebc     ssleay32_EM.0.9.8e:ssl_err.obj
 0002:00023ed0       ??_C@_0BC@OCDELDMK@unexpected?5record?$AA@ 100aced0     ssleay32_EM.0.9.8e:ssl_err.obj
 0002:00023ee4       ??_C@_0BD@CAGOJNEI@unexpected?5message?$AA@ 100acee4     ssleay32_EM.0.9.8e:ssl_err.obj
 0002:00023ef8       ??_C@_0CC@LEBAAANA@unable?5to?5load?5ssl3?5sha1?5routine@ 100acef8     ssleay32_EM.0.9.8e:ssl_err.obj
 0002:00023f1c       ??_C@_0CB@DPNAAIHC@unable?5to?5load?5ssl3?5md5?5routines@ 100acf1c     ssleay32_EM.0.9.8e:ssl_err.obj
 0002:00023f40       ??_C@_0CB@IGCLNDJK@unable?5to?5load?5ssl2?5md5?5routines@ 100acf40     ssleay32_EM.0.9.8e:ssl_err.obj
 0002:00023f64       ??_C@_0BK@IKEKCMIO@unable?5to?5find?5ssl?5method?$AA@ 100acf64     ssleay32_EM.0.9.8e:ssl_err.obj
 0002:00023f80       ??_C@_0CF@PJOPKJID@unable?5to?5find?5public?5key?5parame@ 100acf80     ssleay32_EM.0.9.8e:ssl_err.obj
 0002:00023fa8       ??_C@_0BP@HPLCLAIO@unable?5to?5find?5ecdh?5parameters?$AA@ 100acfa8     ssleay32_EM.0.9.8e:ssl_err.obj
 0002:00023fc8       ??_C@_0BN@HDOPKHKA@unable?5to?5find?5dh?5parameters?$AA@ 100acfc8     ssleay32_EM.0.9.8e:ssl_err.obj
 0002:00023fe8       ??_C@_0BN@EMKPDNKB@unable?5to?5extract?5public?5key?$AA@ 100acfe8     ssleay32_EM.0.9.8e:ssl_err.obj
 0002:00024008       ??_C@_0BM@DLKLNLJI@unable?5to?5decode?5ecdh?5certs?$AA@ 100ad008     ssleay32_EM.0.9.8e:ssl_err.obj
 0002:00024024       ??_C@_0BK@PKNIJNJH@unable?5to?5decode?5dh?5certs?$AA@ 100ad024     ssleay32_EM.0.9.8e:ssl_err.obj
 0002:00024040       ??_C@_0CA@LGMOAOLJ@tried?5to?5use?5unsupported?5cipher?$AA@ 100ad040     ssleay32_EM.0.9.8e:ssl_err.obj
 0002:00024060       ??_C@_0CI@NFLDIHCM@tls?5rsa?5encrypted?5value?5length?5i@ 100ad060     ssleay32_EM.0.9.8e:ssl_err.obj
 0002:00024088       ??_C@_0CP@GDNKKNLH@tls?5peer?5did?5not?5respond?5with?5ce@ 100ad088     ssleay32_EM.0.9.8e:ssl_err.obj
 0002:000240b8       ??_C@_0CF@PCOEGFEO@tls?5client?5cert?5req?5with?5anon?5ci@ 100ad0b8     ssleay32_EM.0.9.8e:ssl_err.obj
 0002:000240e0       ??_C@_0BL@MCPLBBPM@tlsv1?5alert?5user?5cancelled?$AA@ 100ad0e0     ssleay32_EM.0.9.8e:ssl_err.obj
 0002:000240fc       ??_C@_0BH@HJELAKGH@tlsv1?5alert?5unknown?5ca?$AA@ 100ad0fc     ssleay32_EM.0.9.8e:ssl_err.obj
 0002:00024114       ??_C@_0BM@ONCNNJGO@tlsv1?5alert?5record?5overflow?$AA@ 100ad114     ssleay32_EM.0.9.8e:ssl_err.obj
 0002:00024130       ??_C@_0BN@MHJMOHFJ@tlsv1?5alert?5protocol?5version?$AA@ 100ad130     ssleay32_EM.0.9.8e:ssl_err.obj
 0002:00024150       ??_C@_0BN@BFEGMAGC@tlsv1?5alert?5no?5renegotiation?$AA@ 100ad150     ssleay32_EM.0.9.8e:ssl_err.obj
 0002:00024170       ??_C@_0BL@JPMGKOMO@tlsv1?5alert?5internal?5error?$AA@ 100ad170     ssleay32_EM.0.9.8e:ssl_err.obj
 0002:0002418c       ??_C@_0CC@ENMFDKCL@tlsv1?5alert?5insufficient?5securit@ 100ad18c     ssleay32_EM.0.9.8e:ssl_err.obj
 0002:000241b0       ??_C@_0BP@GJBIAHFO@tlsv1?5alert?5export?5restriction?$AA@ 100ad1b0     ssleay32_EM.0.9.8e:ssl_err.obj
 0002:000241d0       ??_C@_0BK@CFOKKPLB@tlsv1?5alert?5decrypt?5error?$AA@ 100ad1d0     ssleay32_EM.0.9.8e:ssl_err.obj
 0002:000241ec       ??_C@_0BO@MFCKMBPH@tlsv1?5alert?5decryption?5failed?$AA@ 100ad1ec     ssleay32_EM.0.9.8e:ssl_err.obj
 0002:0002420c       ??_C@_0BJ@DBKPNAEF@tlsv1?5alert?5decode?5error?$AA@ 100ad20c     ssleay32_EM.0.9.8e:ssl_err.obj
 0002:00024228       ??_C@_0BK@PKOBFFAP@tlsv1?5alert?5access?5denied?$AA@ 100ad228     ssleay32_EM.0.9.8e:ssl_err.obj
 0002:00024244       ??_C@_0BM@DCDBNMPH@ssl?5session?5id?5is?5different?$AA@ 100ad244     ssleay32_EM.0.9.8e:ssl_err.obj
 0002:00024260       ??_C@_0BO@GIHNGJFO@ssl?5session?5id?5has?5bad?5length?$AA@ 100ad260     ssleay32_EM.0.9.8e:ssl_err.obj
 0002:00024280       ??_C@_0CA@NGOBKNKA@ssl?5session?5id?5context?5too?5long?$AA@ 100ad280     ssleay32_EM.0.9.8e:ssl_err.obj
 0002:000242a0       ??_C@_0BI@KMJPKKOG@ssl?5session?5id?5conflict?$AA@ 100ad2a0     ssleay32_EM.0.9.8e:ssl_err.obj
 0002:000242b8       ??_C@_0BP@OCDCIPEF@ssl?5session?5id?5callback?5failed?$AA@ 100ad2b8     ssleay32_EM.0.9.8e:ssl_err.obj
 0002:000242d8       ??_C@_0BL@LCFIJDNB@ssl?5library?5has?5no?5ciphers?$AA@ 100ad2d8     ssleay32_EM.0.9.8e:ssl_err.obj
 0002:000242f4       ??_C@_0BG@DFBEEAID@ssl?5handshake?5failure?$AA@ 100ad2f4     ssleay32_EM.0.9.8e:ssl_err.obj
 0002:0002430c       ??_C@_0CD@DNPGODIL@ssl?5ctx?5has?5no?5default?5ssl?5versi@ 100ad30c     ssleay32_EM.0.9.8e:ssl_err.obj
 0002:00024330       ??_C@_0CE@ILKLAJOG@sslv3?5alert?5unsupported?5certific@ 100ad330     ssleay32_EM.0.9.8e:ssl_err.obj
 0002:00024354       ??_C@_0BP@NNNCIAEG@sslv3?5alert?5unexpected?5message?$AA@ 100ad354     ssleay32_EM.0.9.8e:ssl_err.obj
 0002:00024374       ??_C@_0BL@FDFMNPFB@sslv3?5alert?5no?5certificate?$AA@ 100ad374     ssleay32_EM.0.9.8e:ssl_err.obj
 0002:00024390       ??_C@_0BO@ONELIGAP@sslv3?5alert?5illegal?5parameter?$AA@ 100ad390     ssleay32_EM.0.9.8e:ssl_err.obj
 0002:000243b0       ??_C@_0BO@HPPJFPPF@sslv3?5alert?5handshake?5failure?$AA@ 100ad3b0     ssleay32_EM.0.9.8e:ssl_err.obj
 0002:000243d0       ??_C@_0CC@JAMGHFLG@sslv3?5alert?5decompression?5failur@ 100ad3d0     ssleay32_EM.0.9.8e:ssl_err.obj
 0002:000243f4       ??_C@_0CA@PGDGJACO@sslv3?5alert?5certificate?5unknown?$AA@ 100ad3f4     ssleay32_EM.0.9.8e:ssl_err.obj
 0002:00024414       ??_C@_0CA@BGPDPNPL@sslv3?5alert?5certificate?5revoked?$AA@ 100ad414     ssleay32_EM.0.9.8e:ssl_err.obj
 0002:00024434       ??_C@_0CA@BCIMDGGP@sslv3?5alert?5certificate?5expired?$AA@ 100ad434     ssleay32_EM.0.9.8e:ssl_err.obj
 0002:00024454       ??_C@_0BL@JNLHCANB@sslv3?5alert?5bad?5record?5mac?$AA@ 100ad454     ssleay32_EM.0.9.8e:ssl_err.obj
 0002:00024470       ??_C@_0BM@KAMHDBAN@sslv3?5alert?5bad?5certificate?$AA@ 100ad470     ssleay32_EM.0.9.8e:ssl_err.obj
 0002:0002448c       ??_C@_0BK@BGMBAFAC@ssl3?5session?5id?5too?5short?$AA@ 100ad48c     ssleay32_EM.0.9.8e:ssl_err.obj
 0002:000244a8       ??_C@_0BJ@LDLCEGDD@ssl3?5session?5id?5too?5long?$AA@ 100ad4a8     ssleay32_EM.0.9.8e:ssl_err.obj
 0002:000244c4       ??_C@_0BM@MPIIPGFI@ssl2?5connection?5id?5too?5long?$AA@ 100ad4c4     ssleay32_EM.0.9.8e:ssl_err.obj
 0002:000244e0       ??_C@_0BN@JEHCHDGJ@ssl23?5doing?5session?5id?5reuse?$AA@ 100ad4e0     ssleay32_EM.0.9.8e:ssl_err.obj
 0002:00024500       ??_C@_0CG@NDJLKBOF@signature?5for?5non?5signing?5certif@ 100ad500     ssleay32_EM.0.9.8e:ssl_err.obj
 0002:00024528       ??_C@_0L@IEMCKMNJ@short?5read?$AA@ 100ad528     ssleay32_EM.0.9.8e:ssl_err.obj
 0002:00024534       ??_C@_0CB@LGCONELE@session?5id?5context?5uninitialized@ 100ad534     ssleay32_EM.0.9.8e:ssl_err.obj
 0002:00024558       ??_C@_0BL@PNCDKNKJ@reuse?5cipher?5list?5not?5zero?$AA@ 100ad558     ssleay32_EM.0.9.8e:ssl_err.obj
 0002:00024574       ??_C@_0BJ@KKBNBOKM@reuse?5cert?5type?5not?5zero?$AA@ 100ad574     ssleay32_EM.0.9.8e:ssl_err.obj
 0002:00024590       ??_C@_0BL@DFDGEAIE@reuse?5cert?5length?5not?5zero?$AA@ 100ad590     ssleay32_EM.0.9.8e:ssl_err.obj
 0002:000245ac       ??_C@_0BI@NENGIIJP@required?5cipher?5missing?$AA@ 100ad5ac     ssleay32_EM.0.9.8e:ssl_err.obj
 0002:000245c4       ??_C@_0BB@GGOPKPEL@record?5too?5small?$AA@ 100ad5c4     ssleay32_EM.0.9.8e:ssl_err.obj
 0002:000245d8       ??_C@_0BB@MOKEFONN@record?5too?5large?$AA@ 100ad5d8     ssleay32_EM.0.9.8e:ssl_err.obj
 0002:000245ec       ??_C@_0BH@BPBIKGPA@record?5length?5mismatch?$AA@ 100ad5ec     ssleay32_EM.0.9.8e:ssl_err.obj
 0002:00024604       ??_C@_0BH@IOHMCLEG@read?5wrong?5packet?5type?$AA@ 100ad604     ssleay32_EM.0.9.8e:ssl_err.obj
 0002:0002461c       ??_C@_0BF@OBOFCALD@read?5timeout?5expired?$AA@ 100ad61c     ssleay32_EM.0.9.8e:ssl_err.obj
 0002:00024634       ??_C@_0BB@MAIPAGMC@read?5bio?5not?5set?$AA@ 100ad634     ssleay32_EM.0.9.8e:ssl_err.obj
 0002:00024648       ??_C@_0BG@FIGBFCNM@public?5key?5is?5not?5rsa?$AA@ 100ad648     ssleay32_EM.0.9.8e:ssl_err.obj
 0002:00024660       ??_C@_0BJ@HDGFJADK@public?5key?5encrypt?5error?$AA@ 100ad660     ssleay32_EM.0.9.8e:ssl_err.obj
 0002:0002467c       ??_C@_0BF@DHFDHEC@protocol?5is?5shutdown?$AA@ 100ad67c     ssleay32_EM.0.9.8e:ssl_err.obj
 0002:00024694       ??_C@_0CC@IFJCDPHD@problems?5mapping?5cipher?5function@ 100ad694     ssleay32_EM.0.9.8e:ssl_err.obj
 0002:000246b8       ??_C@_0BI@FIGPLECJ@pre?5mac?5length?5too?5long?$AA@ 100ad6b8     ssleay32_EM.0.9.8e:ssl_err.obj
 0002:000246d0       ??_C@_0CI@GDCHOICH@peer?5error?5unsupported?5certifica@ 100ad6d0     ssleay32_EM.0.9.8e:ssl_err.obj
 0002:000246f8       ??_C@_0BF@NAHOFEAB@peer?5error?5no?5cipher?$AA@ 100ad6f8     ssleay32_EM.0.9.8e:ssl_err.obj
 0002:00024710       ??_C@_0BK@BPPMPDAK@peer?5error?5no?5certificate?$AA@ 100ad710     ssleay32_EM.0.9.8e:ssl_err.obj
 0002:0002472c       ??_C@_0BH@DFJBHMJL@peer?5error?5certificate?$AA@ 100ad72c     ssleay32_EM.0.9.8e:ssl_err.obj
 0002:00024744       ??_C@_0L@CODHGKHG@peer?5error?$AA@ 100ad744     ssleay32_EM.0.9.8e:ssl_err.obj
 0002:00024750       ??_C@_0CC@KGOAEFEB@peer?5did?5not?5return?5a?5certificat@ 100ad750     ssleay32_EM.0.9.8e:ssl_err.obj
 0002:00024774       ??_C@_0O@BMOMIHCH@path?5too?5long?$AA@ 100ad774     ssleay32_EM.0.9.8e:ssl_err.obj
 0002:00024784       ??_C@_0BH@LCGBGIAP@packet?5length?5too?5long?$AA@ 100ad784     ssleay32_EM.0.9.8e:ssl_err.obj
 0002:0002479c       ??_C@_0BO@ENMPBFDK@only?5tls?5allowed?5in?5fips?5mode?$AA@ 100ad79c     ssleay32_EM.0.9.8e:ssl_err.obj
 0002:000247bc       ??_C@_0CA@FOKCBPLN@old?5session?5cipher?5not?5returned?$AA@ 100ad7bc     ssleay32_EM.0.9.8e:ssl_err.obj
 0002:000247dc       ??_C@_0BH@NBFOBJNL@null?5ssl?5method?5passed?$AA@ 100ad7dc     ssleay32_EM.0.9.8e:ssl_err.obj
 0002:000247f4       ??_C@_0N@HHLGCMKK@null?5ssl?5ctx?$AA@ 100ad7f4     ssleay32_EM.0.9.8e:ssl_err.obj
 0002:00024804       ??_C@_0BD@HBBKEDNH@no?5verify?5callback?$AA@ 100ad804     ssleay32_EM.0.9.8e:ssl_err.obj
 0002:00024818       ??_C@_0BB@OCDPHJLN@no?5shared?5cipher?$AA@ 100ad818     ssleay32_EM.0.9.8e:ssl_err.obj
 0002:0002482c       ??_C@_0N@OHMOHJBB@no?5publickey?$AA@ 100ad82c     ssleay32_EM.0.9.8e:ssl_err.obj
 0002:0002483c       ??_C@_0BH@HIGPDENG@no?5protocols?5available?$AA@ 100ad83c     ssleay32_EM.0.9.8e:ssl_err.obj
 0002:00024854       ??_C@_0BI@LEEEJBNF@no?5private?5key?5assigned?$AA@ 100ad854     ssleay32_EM.0.9.8e:ssl_err.obj
 0002:0002486c       ??_C@_0O@HOLHGLHB@no?5privatekey?$AA@ 100ad86c     ssleay32_EM.0.9.8e:ssl_err.obj
 0002:0002487c       ??_C@_0BE@NJINPACL@no?5method?5specified?$AA@ 100ad87c     ssleay32_EM.0.9.8e:ssl_err.obj
 0002:00024890       ??_C@_0BJ@MPDKAONM@no?5compression?5specified?$AA@ 100ad890     ssleay32_EM.0.9.8e:ssl_err.obj
 0002:000248ac       ??_C@_0BI@OHGJNKJD@no?5client?5cert?5received?$AA@ 100ad8ac     ssleay32_EM.0.9.8e:ssl_err.obj
 0002:000248c4       ??_C@_0BA@MPGJENKA@no?5cipher?5match?$AA@ 100ad8c4     ssleay32_EM.0.9.8e:ssl_err.obj
 0002:000248d4       ??_C@_0P@GIKJEDBA@no?5cipher?5list?$AA@ 100ad8d4     ssleay32_EM.0.9.8e:ssl_err.obj
 0002:000248e4       ??_C@_0BF@MOPBGGHG@no?5ciphers?5specified?$AA@ 100ad8e4     ssleay32_EM.0.9.8e:ssl_err.obj
 0002:000248fc       ??_C@_0BC@GFOKAAAE@no?5ciphers?5passed?$AA@ 100ad8fc     ssleay32_EM.0.9.8e:ssl_err.obj
 0002:00024910       ??_C@_0BF@JNKMNPPB@no?5ciphers?5available?$AA@ 100ad910     ssleay32_EM.0.9.8e:ssl_err.obj
 0002:00024928       ??_C@_0BJ@LMCABMHP@no?5certificate?5specified?$AA@ 100ad928     ssleay32_EM.0.9.8e:ssl_err.obj
 0002:00024944       ??_C@_0BD@FBLAIAJN@no?5certificate?5set?$AA@ 100ad944     ssleay32_EM.0.9.8e:ssl_err.obj
 0002:00024958       ??_C@_0BI@PJMDNLFJ@no?5certificate?5returned?$AA@ 100ad958     ssleay32_EM.0.9.8e:ssl_err.obj
 0002:00024970       ??_C@_0BI@MPOJHJNN@no?5certificate?5assigned?$AA@ 100ad970     ssleay32_EM.0.9.8e:ssl_err.obj
 0002:00024988       ??_C@_0BJ@PPHDNLMM@no?5certificates?5returned?$AA@ 100ad988     ssleay32_EM.0.9.8e:ssl_err.obj
 0002:000249a4       ??_C@_0BJ@BFKAJPHF@non?5sslv2?5initial?5packet?$AA@ 100ad9a4     ssleay32_EM.0.9.8e:ssl_err.obj
 0002:000249c0       ??_C@_0BH@MFOOLHNN@missing?5verify?5message?$AA@ 100ad9c0     ssleay32_EM.0.9.8e:ssl_err.obj
 0002:000249d8       ??_C@_0BF@ELDKHLKF@missing?5tmp?5rsa?5pkey?$AA@ 100ad9d8     ssleay32_EM.0.9.8e:ssl_err.obj
 0002:000249f0       ??_C@_0BE@HMIHILHE@missing?5tmp?5rsa?5key?$AA@ 100ad9f0     ssleay32_EM.0.9.8e:ssl_err.obj
 0002:00024a04       ??_C@_0BF@HGAAANFL@missing?5tmp?5ecdh?5key?$AA@ 100ada04     ssleay32_EM.0.9.8e:ssl_err.obj
 0002:00024a1c       ??_C@_0BD@NKMNIPGI@missing?5tmp?5dh?5key?$AA@ 100ada1c     ssleay32_EM.0.9.8e:ssl_err.obj
 0002:00024a30       ??_C@_0BJ@BDBAIKAN@missing?5rsa?5signing?5cert?$AA@ 100ada30     ssleay32_EM.0.9.8e:ssl_err.obj
 0002:00024a4c       ??_C@_0BM@MFHFHFC@missing?5rsa?5encrypting?5cert?$AA@ 100ada4c     ssleay32_EM.0.9.8e:ssl_err.obj
 0002:00024a68       ??_C@_0BI@HBMJJLJB@missing?5rsa?5certificate?$AA@ 100ada68     ssleay32_EM.0.9.8e:ssl_err.obj
 0002:00024a80       ??_C@_0BL@EACAJEGB@missing?5export?5tmp?5rsa?5key?$AA@ 100ada80     ssleay32_EM.0.9.8e:ssl_err.obj
 0002:00024a9c       ??_C@_0BK@HODGELEM@missing?5export?5tmp?5dh?5key?$AA@ 100ada9c     ssleay32_EM.0.9.8e:ssl_err.obj
 0002:00024ab8       ??_C@_0BJ@KDHFKEHI@missing?5dsa?5signing?5cert?$AA@ 100adab8     ssleay32_EM.0.9.8e:ssl_err.obj
 0002:00024ad4       ??_C@_0BE@EPNMOPNA@missing?5dh?5rsa?5cert?$AA@ 100adad4     ssleay32_EM.0.9.8e:ssl_err.obj
 0002:00024ae8       ??_C@_0P@MDOHJLCG@missing?5dh?5key?$AA@ 100adae8     ssleay32_EM.0.9.8e:ssl_err.obj
 0002:00024af8       ??_C@_0BE@JAAGNECL@missing?5dh?5dsa?5cert?$AA@ 100adaf8     ssleay32_EM.0.9.8e:ssl_err.obj
 0002:00024b0c       ??_C@_0BB@PNKJEMNF@message?5too?5long?$AA@ 100adb0c     ssleay32_EM.0.9.8e:ssl_err.obj
 0002:00024b20       ??_C@_0BH@BIEBANAO@library?5has?5no?5ciphers?$AA@ 100adb20     ssleay32_EM.0.9.8e:ssl_err.obj
 0002:00024b38       ??_C@_0M@OKFPPFMD@library?5bug?$AA@ 100adb38     ssleay32_EM.0.9.8e:ssl_err.obj
 0002:00024b44       ??_C@_0BB@OGLONOKG@length?5too?5short?$AA@ 100adb44     ssleay32_EM.0.9.8e:ssl_err.obj
 0002:00024b58       ??_C@_0BA@OGIGCPLF@length?5mismatch?$AA@ 100adb58     ssleay32_EM.0.9.8e:ssl_err.obj
 0002:00024b68       ??_C@_0BF@KMCBNHJB@krb5?5server?5tkt?5skew?$AA@ 100adb68     ssleay32_EM.0.9.8e:ssl_err.obj
 0002:00024b80       ??_C@_0BO@LEKKOPIJ@krb5?5server?5tkt?5not?5yet?5valid?$AA@ 100adb80     ssleay32_EM.0.9.8e:ssl_err.obj
 0002:00024ba0       ??_C@_0BI@JAFDFKKG@krb5?5server?5tkt?5expired?$AA@ 100adba0     ssleay32_EM.0.9.8e:ssl_err.obj
 0002:00024bb8       ??_C@_0CD@GGIEKBMG@krb5?5server?5rd_req?5?$CIkeytab?5perms@ 100adbb8     ssleay32_EM.0.9.8e:ssl_err.obj
 0002:00024bdc       ??_C@_0BB@HKIGHLEM@krb5?5server?5init?$AA@ 100adbdc     ssleay32_EM.0.9.8e:ssl_err.obj
 0002:00024bf0       ??_C@_0BH@JFODLLAG@krb5?5server?5bad?5ticket?$AA@ 100adbf0     ssleay32_EM.0.9.8e:ssl_err.obj
 0002:00024c08       ??_C@_0CC@KGMMOPBB@krb5?5client?5mk_req?5?$CIexpired?5tkt?$DP@ 100adc08     ssleay32_EM.0.9.8e:ssl_err.obj
 0002:00024c2c       ??_C@_0BB@HJGKIFPC@krb5?5client?5init?$AA@ 100adc2c     ssleay32_EM.0.9.8e:ssl_err.obj
 0002:00024c40       ??_C@_0BF@CJMNPPDL@krb5?5client?5get?5cred?$AA@ 100adc40     ssleay32_EM.0.9.8e:ssl_err.obj
 0002:00024c58       ??_C@_0CD@OGLAJFEN@krb5?5client?5cc?5principal?5?$CIno?5tkt@ 100adc58     ssleay32_EM.0.9.8e:ssl_err.obj
 0002:00024c7c       ??_C@_04PPGLPLFB@krb5?$AA@ 100adc7c     ssleay32_EM.0.9.8e:ssl_err.obj
 0002:00024c84       ??_C@_0BB@KKCPELKA@key?5arg?5too?5long?$AA@ 100adc84     ssleay32_EM.0.9.8e:ssl_err.obj
 0002:00024c98       ??_C@_0BA@PDNHNCBD@invalid?5command?$AA@ 100adc98     ssleay32_EM.0.9.8e:ssl_err.obj
 0002:00024ca8       ??_C@_0BJ@GLLMFDMD@invalid?5challenge?5length?$AA@ 100adca8     ssleay32_EM.0.9.8e:ssl_err.obj
 0002:00024cc4       ??_C@_0BA@JBGGOPFM@illegal?5padding?$AA@ 100adcc4     ssleay32_EM.0.9.8e:ssl_err.obj
 0002:00024cd4       ??_C@_0N@GONPAFDB@http?5request?$AA@ 100adcd4     ssleay32_EM.0.9.8e:ssl_err.obj
 0002:00024ce4       ??_C@_0BE@HKKKGFEL@https?5proxy?5request?$AA@ 100adce4     ssleay32_EM.0.9.8e:ssl_err.obj
 0002:00024cf8       ??_C@_0BH@FLOJMKAI@got?5a?5fin?5before?5a?5ccs?$AA@ 100adcf8     ssleay32_EM.0.9.8e:ssl_err.obj
 0002:00024d10       ??_C@_0BG@MHJGGEFH@extra?5data?5in?5message?$AA@ 100add10     ssleay32_EM.0.9.8e:ssl_err.obj
 0002:00024d28       ??_C@_0BH@PALINHGA@excessive?5message?5size?$AA@ 100add28     ssleay32_EM.0.9.8e:ssl_err.obj
 0002:00024d40       ??_C@_0BO@IHCHDINC@error?5in?5received?5cipher?5list?$AA@ 100add40     ssleay32_EM.0.9.8e:ssl_err.obj
 0002:00024d60       ??_C@_0BN@COAONKKP@error?5generating?5tmp?5rsa?5key?$AA@ 100add60     ssleay32_EM.0.9.8e:ssl_err.obj
 0002:00024d80       ??_C@_0BK@FKEODKMK@encrypted?5length?5too?5long?$AA@ 100add80     ssleay32_EM.0.9.8e:ssl_err.obj
 0002:00024d9c       ??_C@_0BN@HGIKDNAB@ecgroup?5too?5large?5for?5cipher?$AA@ 100add9c     ssleay32_EM.0.9.8e:ssl_err.obj
 0002:00024dbc       ??_C@_0BJ@GBBFBFE@duplicate?5compression?5id?$AA@ 100addbc     ssleay32_EM.0.9.8e:ssl_err.obj
 0002:00024dd8       ??_C@_0BE@DCKNMKBC@digest?5check?5failed?$AA@ 100addd8     ssleay32_EM.0.9.8e:ssl_err.obj
 0002:00024dec       ??_C@_0CA@PINADIPN@dh?5public?5value?5length?5is?5wrong?$AA@ 100addec     ssleay32_EM.0.9.8e:ssl_err.obj
 0002:00024e0c       ??_C@_0CE@CCAPMDCB@decryption?5failed?5or?5bad?5record?5@ 100ade0c     ssleay32_EM.0.9.8e:ssl_err.obj
 0002:00024e30       ??_C@_0BC@HDCNNMML@decryption?5failed?$AA@ 100ade30     ssleay32_EM.0.9.8e:ssl_err.obj
 0002:00024e44       ??_C@_0BF@OCGKGPCL@data?5length?5too?5long?$AA@ 100ade44     ssleay32_EM.0.9.8e:ssl_err.obj
 0002:00024e5c       ??_C@_0BO@KKMKMAOH@data?5between?5ccs?5and?5finished?$AA@ 100ade5c     ssleay32_EM.0.9.8e:ssl_err.obj
 0002:00024e7c       ??_C@_0BA@FBPFMMAB@cookie?5mismatch?$AA@ 100ade7c     ssleay32_EM.0.9.8e:ssl_err.obj
 0002:00024e8c       ??_C@_0BI@EAFOHKPC@connection?5type?5not?5set?$AA@ 100ade8c     ssleay32_EM.0.9.8e:ssl_err.obj
 0002:00024ea4       ??_C@_0BL@DPPBJNBN@connection?5id?5is?5different?$AA@ 100adea4     ssleay32_EM.0.9.8e:ssl_err.obj
 0002:00024ec0       ??_C@_0BK@NKGILOBF@compression?5library?5error?$AA@ 100adec0     ssleay32_EM.0.9.8e:ssl_err.obj
 0002:00024edc       ??_C@_0CI@FLIAIKMG@compression?5id?5not?5within?5privat@ 100adedc     ssleay32_EM.0.9.8e:ssl_err.obj
 0002:00024f04       ??_C@_0BE@PAGFCMJP@compression?5failure?$AA@ 100adf04     ssleay32_EM.0.9.8e:ssl_err.obj
 0002:00024f18       ??_C@_0BL@MGLCNLJD@compressed?5length?5too?5long?$AA@ 100adf18     ssleay32_EM.0.9.8e:ssl_err.obj
 0002:00024f34       ??_C@_0BH@BEEMMGHI@cipher?5table?5src?5error?$AA@ 100adf34     ssleay32_EM.0.9.8e:ssl_err.obj
 0002:00024f4c       ??_C@_0BL@CPNJGHBJ@cipher?5or?5hash?5unavailable?$AA@ 100adf4c     ssleay32_EM.0.9.8e:ssl_err.obj
 0002:00024f68       ??_C@_0BJ@NCLGGODJ@cipher?5code?5wrong?5length?$AA@ 100adf68     ssleay32_EM.0.9.8e:ssl_err.obj
 0002:00024f84       ??_C@_0BH@JBNPADIB@challenge?5is?5different?$AA@ 100adf84     ssleay32_EM.0.9.8e:ssl_err.obj
 0002:00024f9c       ??_C@_0BF@LHJJLNNA@cert?5length?5mismatch?$AA@ 100adf9c     ssleay32_EM.0.9.8e:ssl_err.obj
 0002:00024fb4       ??_C@_0BK@GMJGINOA@certificate?5verify?5failed?$AA@ 100adfb4     ssleay32_EM.0.9.8e:ssl_err.obj
 0002:00024fd0       ??_C@_0BD@LKFGKAOA@ccs?5received?5early?$AA@ 100adfd0     ssleay32_EM.0.9.8e:ssl_err.obj
 0002:00024fe4       ??_C@_0P@DGMMGABG@ca?5dn?5too?5long?$AA@ 100adfe4     ssleay32_EM.0.9.8e:ssl_err.obj
 0002:00024ff4       ??_C@_0BG@GNBDANAF@ca?5dn?5length?5mismatch?$AA@ 100adff4     ssleay32_EM.0.9.8e:ssl_err.obj
 0002:0002500c       ??_C@_0BK@KBDJMIJM@block?5cipher?5pad?5is?5wrong?$AA@ 100ae00c     ssleay32_EM.0.9.8e:ssl_err.obj
 0002:00025028       ??_C@_0M@FMOPOKPJ@bio?5not?5set?$AA@ 100ae028     ssleay32_EM.0.9.8e:ssl_err.obj
 0002:00025034       ??_C@_0BA@LBFHNFG@bad?5write?5retry?$AA@ 100ae034     ssleay32_EM.0.9.8e:ssl_err.obj
 0002:00025044       ??_C@_09FAGPLHJG@bad?5state?$AA@ 100ae044     ssleay32_EM.0.9.8e:ssl_err.obj
 0002:00025050       ??_C@_0BK@PONKBDAO@bad?5ssl?5session?5id?5length?$AA@ 100ae050     ssleay32_EM.0.9.8e:ssl_err.obj
 0002:0002506c       ??_C@_0BB@OAFDGMMJ@bad?5ssl?5filetype?$AA@ 100ae06c     ssleay32_EM.0.9.8e:ssl_err.obj
 0002:00025080       ??_C@_0BC@OCKEEGFM@bad?5rsa?5signature?$AA@ 100ae080     ssleay32_EM.0.9.8e:ssl_err.obj
 0002:00025094       ??_C@_0BH@JDPHPPMO@bad?5rsa?5modulus?5length?$AA@ 100ae094     ssleay32_EM.0.9.8e:ssl_err.obj
 0002:000250ac       ??_C@_0BB@NBDPGEFG@bad?5rsa?5e?5length?$AA@ 100ae0ac     ssleay32_EM.0.9.8e:ssl_err.obj
 0002:000250c0       ??_C@_0BA@CEGPGDHO@bad?5rsa?5encrypt?$AA@ 100ae0c0     ssleay32_EM.0.9.8e:ssl_err.obj
 0002:000250d0       ??_C@_0BA@OKMCDHBK@bad?5rsa?5decrypt?$AA@ 100ae0d0     ssleay32_EM.0.9.8e:ssl_err.obj
 0002:000250e0       ??_C@_0BG@PMEJKNOL@bad?5response?5argument?$AA@ 100ae0e0     ssleay32_EM.0.9.8e:ssl_err.obj
 0002:000250f8       ??_C@_0BM@PFENKICE@bad?5protocol?5version?5number?$AA@ 100ae0f8     ssleay32_EM.0.9.8e:ssl_err.obj
 0002:00025114       ??_C@_0BC@PHMJEPNO@bad?5packet?5length?$AA@ 100ae114     ssleay32_EM.0.9.8e:ssl_err.obj
 0002:00025128       ??_C@_0BB@JJFMCCAO@bad?5message?5type?$AA@ 100ae128     ssleay32_EM.0.9.8e:ssl_err.obj
 0002:0002513c       ??_C@_0P@PBIDIGIK@bad?5mac?5decode?$AA@ 100ae13c     ssleay32_EM.0.9.8e:ssl_err.obj
 0002:0002514c       ??_C@_0L@DABMCDJH@bad?5length?$AA@ 100ae14c     ssleay32_EM.0.9.8e:ssl_err.obj
 0002:00025158       ??_C@_0BC@EFHFNJHG@bad?5hello?5request?$AA@ 100ae158     ssleay32_EM.0.9.8e:ssl_err.obj
 0002:0002516c       ??_C@_0M@PGMFFDPN@bad?5ecpoint?$AA@ 100ae16c     ssleay32_EM.0.9.8e:ssl_err.obj
 0002:00025178       ??_C@_0BE@OMMMGLBE@bad?5ecdsa?5signature?$AA@ 100ae178     ssleay32_EM.0.9.8e:ssl_err.obj
 0002:0002518c       ??_C@_0N@LJKNCKPI@bad?5ecc?5cert?$AA@ 100ae18c     ssleay32_EM.0.9.8e:ssl_err.obj
 0002:0002519c       ??_C@_0BC@HMNEDBIG@bad?5dsa?5signature?$AA@ 100ae19c     ssleay32_EM.0.9.8e:ssl_err.obj
 0002:000251b0       ??_C@_0BC@KJBEMOBC@bad?5digest?5length?$AA@ 100ae1b0     ssleay32_EM.0.9.8e:ssl_err.obj
 0002:000251c4       ??_C@_0BA@JNKENEBG@bad?5dh?5p?5length?$AA@ 100ae1c4     ssleay32_EM.0.9.8e:ssl_err.obj
 0002:000251d4       ??_C@_0BG@HLCDCJPD@bad?5dh?5pub?5key?5length?$AA@ 100ae1d4     ssleay32_EM.0.9.8e:ssl_err.obj
 0002:000251ec       ??_C@_0BA@FFAFPLKO@bad?5dh?5g?5length?$AA@ 100ae1ec     ssleay32_EM.0.9.8e:ssl_err.obj
 0002:000251fc       ??_C@_0BC@NPBOGLLM@bad?5decompression?$AA@ 100ae1fc     ssleay32_EM.0.9.8e:ssl_err.obj
 0002:00025210       ??_C@_0BO@CLFGDFIJ@bad?5data?5returned?5by?5callback?$AA@ 100ae210     ssleay32_EM.0.9.8e:ssl_err.obj
 0002:00025230       ??_C@_0N@KGIMPOMD@bad?5checksum?$AA@ 100ae230     ssleay32_EM.0.9.8e:ssl_err.obj
 0002:00025240       ??_C@_0BH@LKLKFIOB@bad?5change?5cipher?5spec?$AA@ 100ae240     ssleay32_EM.0.9.8e:ssl_err.obj
 0002:00025258       ??_C@_0BI@MHANGDHG@bad?5authentication?5type?$AA@ 100ae258     ssleay32_EM.0.9.8e:ssl_err.obj
 0002:00025270       ??_C@_0BB@LCAAJHHJ@bad?5alert?5record?$AA@ 100ae270     ssleay32_EM.0.9.8e:ssl_err.obj
 0002:00025284       ??_C@_0CO@IIGODPEP@attempt?5to?5reuse?5session?5in?5diff@ 100ae284     ssleay32_EM.0.9.8e:ssl_err.obj
 0002:000252b4       ??_C@_0BG@OADNNFKJ@app?5data?5in?5handshake?$AA@ 100ae2b4     ssleay32_EM.0.9.8e:ssl_err.obj
 0002:000252cc       ??_C@_0O@ENJFFGOJ@WRITE_PENDING?$AA@ 100ae2cc     ssleay32_EM.0.9.8e:ssl_err.obj
 0002:000252dc       ??_C@_0BF@ONDLACOE@TLS1_SETUP_KEY_BLOCK?$AA@ 100ae2dc     ssleay32_EM.0.9.8e:ssl_err.obj
 0002:000252f4       ??_C@_08CCLIEHLC@TLS1_ENC?$AA@ 100ae2f4     ssleay32_EM.0.9.8e:ssl_err.obj
 0002:00025300       ??_C@_0BJ@GEBDLGAH@TLS1_CHANGE_CIPHER_STATE?$AA@ 100ae300     ssleay32_EM.0.9.8e:ssl_err.obj
 0002:0002531c       ??_C@_09DGEPPALM@SSL_write?$AA@ 100ae31c     ssleay32_EM.0.9.8e:ssl_err.obj
 0002:00025328       ??_C@_0BG@DHGMGJEL@SSL_VERIFY_CERT_CHAIN?$AA@ 100ae328     ssleay32_EM.0.9.8e:ssl_err.obj
 0002:00025340       ??_C@_0BL@LLDFDMAI@SSL_use_RSAPrivateKey_file?$AA@ 100ae340     ssleay32_EM.0.9.8e:ssl_err.obj
 0002:0002535c       ??_C@_0BL@LCFMNNAH@SSL_use_RSAPrivateKey_ASN1?$AA@ 100ae35c     ssleay32_EM.0.9.8e:ssl_err.obj
 0002:00025378       ??_C@_0BG@GIOIPANK@SSL_use_RSAPrivateKey?$AA@ 100ae378     ssleay32_EM.0.9.8e:ssl_err.obj
 0002:00025390       ??_C@_0BI@JOCGAGMP@SSL_use_PrivateKey_file?$AA@ 100ae390     ssleay32_EM.0.9.8e:ssl_err.obj
 0002:000253a8       ??_C@_0BI@JHEPOHMA@SSL_use_PrivateKey_ASN1?$AA@ 100ae3a8     ssleay32_EM.0.9.8e:ssl_err.obj
 0002:000253c0       ??_C@_0BD@NGOBKJOJ@SSL_use_PrivateKey?$AA@ 100ae3c0     ssleay32_EM.0.9.8e:ssl_err.obj
 0002:000253d4       ??_C@_0BJ@KGOBGIBE@SSL_use_certificate_file?$AA@ 100ae3d4     ssleay32_EM.0.9.8e:ssl_err.obj
 0002:000253f0       ??_C@_0BJ@KPIIIJBL@SSL_use_certificate_ASN1?$AA@ 100ae3f0     ssleay32_EM.0.9.8e:ssl_err.obj
 0002:0002540c       ??_C@_0BE@PGCFHFFK@SSL_use_certificate?$AA@ 100ae40c     ssleay32_EM.0.9.8e:ssl_err.obj
 0002:00025420       ??_C@_0BM@JFMHPEGO@SSL_UNDEFINED_VOID_FUNCTION?$AA@ 100ae420     ssleay32_EM.0.9.8e:ssl_err.obj
 0002:0002543c       ??_C@_0BH@KDEPLJNK@SSL_UNDEFINED_FUNCTION?$AA@ 100ae43c     ssleay32_EM.0.9.8e:ssl_err.obj
 0002:00025454       ??_C@_0BN@DJKIIBFL@SSL_UNDEFINED_CONST_FUNCTION?$AA@ 100ae454     ssleay32_EM.0.9.8e:ssl_err.obj
 0002:00025474       ??_C@_0N@NKJHMGLC@SSL_shutdown?$AA@ 100ae474     ssleay32_EM.0.9.8e:ssl_err.obj
 0002:00025484       ??_C@_0M@GNHMAACI@SSL_set_wfd?$AA@ 100ae484     ssleay32_EM.0.9.8e:ssl_err.obj
 0002:00025490       ??_C@_0O@LLOINKDL@SSL_set_trust?$AA@ 100ae490     ssleay32_EM.0.9.8e:ssl_err.obj
 0002:000254a0       ??_C@_0BL@BJICKBFH@SSL_set_session_id_context?$AA@ 100ae4a0     ssleay32_EM.0.9.8e:ssl_err.obj
 0002:000254bc       ??_C@_0BA@DONHGCCI@SSL_set_session?$AA@ 100ae4bc     ssleay32_EM.0.9.8e:ssl_err.obj
 0002:000254cc       ??_C@_0M@FKKCPABK@SSL_set_rfd?$AA@ 100ae4cc     ssleay32_EM.0.9.8e:ssl_err.obj
 0002:000254d8       ??_C@_0BA@IINJIMHD@SSL_set_purpose?$AA@ 100ae4d8     ssleay32_EM.0.9.8e:ssl_err.obj
 0002:000254e8       ??_C@_0N@PCKNEDKO@SSL_SET_PKEY?$AA@ 100ae4e8     ssleay32_EM.0.9.8e:ssl_err.obj
 0002:000254f8       ??_C@_0L@MEOJMNJB@SSL_set_fd?$AA@ 100ae4f8     ssleay32_EM.0.9.8e:ssl_err.obj
 0002:00025504       ??_C@_0BE@HLOFLKAP@SSL_set_cipher_list?$AA@ 100ae504     ssleay32_EM.0.9.8e:ssl_err.obj
 0002:00025518       ??_C@_0N@JJPFBCHH@SSL_SET_CERT?$AA@ 100ae518     ssleay32_EM.0.9.8e:ssl_err.obj
 0002:00025528       ??_C@_0BC@FCPGPEEC@SSL_SESS_CERT_NEW?$AA@ 100ae528     ssleay32_EM.0.9.8e:ssl_err.obj
 0002:0002553c       ??_C@_0BF@DMFCMAJF@SSL_SESSION_print_fp?$AA@ 100ae53c     ssleay32_EM.0.9.8e:ssl_err.obj
 0002:00025554       ??_C@_0BA@CDJKDGNM@SSL_SESSION_new?$AA@ 100ae554     ssleay32_EM.0.9.8e:ssl_err.obj
 0002:00025564       ??_C@_0BH@NFPPJAD@SSL_RSA_PUBLIC_ENCRYPT?$AA@ 100ae564     ssleay32_EM.0.9.8e:ssl_err.obj
 0002:0002557c       ??_C@_0BI@KCFKDCOL@SSL_RSA_PRIVATE_DECRYPT?$AA@ 100ae57c     ssleay32_EM.0.9.8e:ssl_err.obj
 0002:00025594       ??_C@_08DAJNHMMC@SSL_read?$AA@ 100ae594     ssleay32_EM.0.9.8e:ssl_err.obj
 0002:000255a0       ??_C@_08MKMMJLLB@SSL_peek?$AA@ 100ae5a0     ssleay32_EM.0.9.8e:ssl_err.obj
 0002:000255ac       ??_C@_0BI@EECKODII@SSL_load_client_CA_file?$AA@ 100ae5ac     ssleay32_EM.0.9.8e:ssl_err.obj
 0002:000255c4       ??_C@_0BF@GALNMLBO@SSL_INIT_WBIO_BUFFER?$AA@ 100ae5c4     ssleay32_EM.0.9.8e:ssl_err.obj
 0002:000255dc       ??_C@_0BC@HPOJBNAE@SSL_GET_SIGN_PKEY?$AA@ 100ae5dc     ssleay32_EM.0.9.8e:ssl_err.obj
 0002:000255f0       ??_C@_0BJ@LHEGIKAL@SSL_GET_SERVER_SEND_CERT?$AA@ 100ae5f0     ssleay32_EM.0.9.8e:ssl_err.obj
 0002:0002560c       ??_C@_0BF@DPEJPJNK@SSL_GET_PREV_SESSION?$AA@ 100ae60c     ssleay32_EM.0.9.8e:ssl_err.obj
 0002:00025624       ??_C@_0BE@CEJLMECA@SSL_GET_NEW_SESSION?$AA@ 100ae624     ssleay32_EM.0.9.8e:ssl_err.obj
 0002:00025638       ??_C@_0BB@IHIBHBMC@SSL_do_handshake?$AA@ 100ae638     ssleay32_EM.0.9.8e:ssl_err.obj
 0002:0002564c       ??_C@_0BP@MDBMAIJA@SSL_CTX_use_RSAPrivateKey_file?$AA@ 100ae64c     ssleay32_EM.0.9.8e:ssl_err.obj
 0002:0002566c       ??_C@_0BP@MKHFOJJP@SSL_CTX_use_RSAPrivateKey_ASN1?$AA@ 100ae66c     ssleay32_EM.0.9.8e:ssl_err.obj
 0002:0002568c       ??_C@_0BK@KEHBLEKK@SSL_CTX_use_RSAPrivateKey?$AA@ 100ae68c     ssleay32_EM.0.9.8e:ssl_err.obj
 0002:000256a8       ??_C@_0BM@MAKIDGCJ@SSL_CTX_use_PrivateKey_file?$AA@ 100ae6a8     ssleay32_EM.0.9.8e:ssl_err.obj
 0002:000256c4       ??_C@_0BM@MJMBNHCG@SSL_CTX_use_PrivateKey_ASN1?$AA@ 100ae6c4     ssleay32_EM.0.9.8e:ssl_err.obj
 0002:000256e0       ??_C@_0BH@KKKLJCLH@SSL_CTX_use_PrivateKey?$AA@ 100ae6e0     ssleay32_EM.0.9.8e:ssl_err.obj
 0002:000256f8       ??_C@_0BN@OPNGKBGJ@SSL_CTX_use_certificate_file?$AA@ 100ae6f8     ssleay32_EM.0.9.8e:ssl_err.obj
 0002:00025718       ??_C@_0CD@NEACLGFA@SSL_CTX_use_certificate_chain_fi@ 100ae718     ssleay32_EM.0.9.8e:ssl_err.obj
 0002:0002573c       ??_C@_0BN@OGLPEAGG@SSL_CTX_use_certificate_ASN1?$AA@ 100ae73c     ssleay32_EM.0.9.8e:ssl_err.obj
 0002:0002575c       ??_C@_0BI@HKIKEDJC@SSL_CTX_use_certificate?$AA@ 100ae75c     ssleay32_EM.0.9.8e:ssl_err.obj
 0002:00025774       ??_C@_0BC@CNPPNEIM@SSL_CTX_set_trust?$AA@ 100ae774     ssleay32_EM.0.9.8e:ssl_err.obj
 0002:00025788       ??_C@_0BI@GMBHBDPF@SSL_CTX_set_ssl_version?$AA@ 100ae788     ssleay32_EM.0.9.8e:ssl_err.obj
 0002:000257a0       ??_C@_0BP@GBKLJFMP@SSL_CTX_set_session_id_context?$AA@ 100ae7a0     ssleay32_EM.0.9.8e:ssl_err.obj
 0002:000257c0       ??_C@_0BE@MEOFAPBM@SSL_CTX_set_purpose?$AA@ 100ae7c0     ssleay32_EM.0.9.8e:ssl_err.obj
 0002:000257d4       ??_C@_0BI@PHEKIMMH@SSL_CTX_set_cipher_list?$AA@ 100ae7d4     ssleay32_EM.0.9.8e:ssl_err.obj
 0002:000257ec       ??_C@_0M@NIHDNPCA@SSL_CTX_new?$AA@ 100ae7ec     ssleay32_EM.0.9.8e:ssl_err.obj
 0002:000257f8       ??_C@_0BK@NOHDNNE@SSL_CTX_check_private_key?$AA@ 100ae7f8     ssleay32_EM.0.9.8e:ssl_err.obj
 0002:00025814       ??_C@_08FDABGFCL@SSL_ctrl?$AA@ 100ae814     ssleay32_EM.0.9.8e:ssl_err.obj
 0002:00025820       ??_C@_0BH@KDKMPKLM@SSL_CREATE_CIPHER_LIST?$AA@ 100ae820     ssleay32_EM.0.9.8e:ssl_err.obj
 0002:00025838       ??_C@_0CA@MOMIKDDA@SSL_COMP_add_compression_method?$AA@ 100ae838     ssleay32_EM.0.9.8e:ssl_err.obj
 0002:00025858       ??_C@_09CEGAMDGH@SSL_clear?$AA@ 100ae858     ssleay32_EM.0.9.8e:ssl_err.obj
 0002:00025864       ??_C@_0BJ@HPJCONIF@SSL_CIPHER_STRENGTH_SORT?$AA@ 100ae864     ssleay32_EM.0.9.8e:ssl_err.obj
 0002:00025880       ??_C@_0BL@HFHOMBOB@SSL_CIPHER_PROCESS_RULESTR?$AA@ 100ae880     ssleay32_EM.0.9.8e:ssl_err.obj
 0002:0002589c       ??_C@_0BG@MBHOHJKE@SSL_check_private_key?$AA@ 100ae89c     ssleay32_EM.0.9.8e:ssl_err.obj
 0002:000258b4       ??_C@_0N@HMHHIOEL@SSL_CERT_NEW?$AA@ 100ae8b4     ssleay32_EM.0.9.8e:ssl_err.obj
 0002:000258c4       ??_C@_0BF@BNLBPJC@SSL_CERT_INSTANTIATE?$AA@ 100ae8c4     ssleay32_EM.0.9.8e:ssl_err.obj
 0002:000258dc       ??_C@_0O@FNINIEAL@SSL_CERT_INST?$AA@ 100ae8dc     ssleay32_EM.0.9.8e:ssl_err.obj
 0002:000258ec       ??_C@_0N@EAKNFLJI@SSL_CERT_DUP?$AA@ 100ae8ec     ssleay32_EM.0.9.8e:ssl_err.obj
 0002:000258fc       ??_C@_0BJ@BIMHFFFE@SSL_BYTES_TO_CIPHER_LIST?$AA@ 100ae8fc     ssleay32_EM.0.9.8e:ssl_err.obj
 0002:00025918       ??_C@_0P@HDPHNIKK@SSL_BAD_METHOD?$AA@ 100ae918     ssleay32_EM.0.9.8e:ssl_err.obj
 0002:00025928       ??_C@_0CE@OBNAFHD@SSL_add_file_cert_subjects_to_st@ 100ae928     ssleay32_EM.0.9.8e:ssl_err.obj
 0002:0002594c       ??_C@_0CD@CINMCBHH@SSL_add_dir_cert_subjects_to_sta@ 100ae94c     ssleay32_EM.0.9.8e:ssl_err.obj
 0002:00025970       ??_C@_0BD@PANJNML@SSL3_WRITE_PENDING?$AA@ 100ae970     ssleay32_EM.0.9.8e:ssl_err.obj
 0002:00025984       ??_C@_0BB@PNLEOFFO@SSL3_WRITE_BYTES?$AA@ 100ae984     ssleay32_EM.0.9.8e:ssl_err.obj
 0002:00025998       ??_C@_0BF@ENIMJJPP@SSL3_SETUP_KEY_BLOCK?$AA@ 100ae998     ssleay32_EM.0.9.8e:ssl_err.obj
 0002:000259b0       ??_C@_0BD@PDPMICEA@SSL3_SETUP_BUFFERS?$AA@ 100ae9b0     ssleay32_EM.0.9.8e:ssl_err.obj
 0002:000259c4       ??_C@_0BO@GKKKJJIC@SSL3_SEND_SERVER_KEY_EXCHANGE?$AA@ 100ae9c4     ssleay32_EM.0.9.8e:ssl_err.obj
 0002:000259e4       ??_C@_0BH@LELDKKIF@SSL3_SEND_SERVER_HELLO?$AA@ 100ae9e4     ssleay32_EM.0.9.8e:ssl_err.obj
 0002:000259fc       ??_C@_0BN@PFDEHCFF@SSL3_SEND_SERVER_CERTIFICATE?$AA@ 100ae9fc     ssleay32_EM.0.9.8e:ssl_err.obj
 0002:00025a1c       ??_C@_0BI@GGCHIBE@SSL3_SEND_CLIENT_VERIFY?$AA@ 100aea1c     ssleay32_EM.0.9.8e:ssl_err.obj
 0002:00025a34       ??_C@_0BO@LLLBLNLK@SSL3_SEND_CLIENT_KEY_EXCHANGE?$AA@ 100aea34     ssleay32_EM.0.9.8e:ssl_err.obj
 0002:00025a54       ??_C@_0BN@FFHHLLPB@SSL3_SEND_CLIENT_CERTIFICATE?$AA@ 100aea54     ssleay32_EM.0.9.8e:ssl_err.obj
 0002:00025a74       ??_C@_0BO@OOLBGENL@SSL3_SEND_CERTIFICATE_REQUEST?$AA@ 100aea74     ssleay32_EM.0.9.8e:ssl_err.obj
 0002:00025a94       ??_C@_0M@KCIPCGMO@SSL3_READ_N?$AA@ 100aea94     ssleay32_EM.0.9.8e:ssl_err.obj
 0002:00025aa0       ??_C@_0BA@MPPIFBKP@SSL3_READ_BYTES?$AA@ 100aeaa0     ssleay32_EM.0.9.8e:ssl_err.obj
 0002:00025ab0       ??_C@_09OOONLLBP@SSL3_PEEK?$AA@ 100aeab0     ssleay32_EM.0.9.8e:ssl_err.obj
 0002:00025abc       ??_C@_0BH@NGJLKJPA@SSL3_OUTPUT_CERT_CHAIN?$AA@ 100aeabc     ssleay32_EM.0.9.8e:ssl_err.obj
 0002:00025ad4       ??_C@_0BG@PFPCPINP@SSL3_GET_SERVER_HELLO?$AA@ 100aead4     ssleay32_EM.0.9.8e:ssl_err.obj
 0002:00025aec       ??_C@_0BF@GDFELGBE@SSL3_GET_SERVER_DONE?$AA@ 100aeaec     ssleay32_EM.0.9.8e:ssl_err.obj
 0002:00025b04       ??_C@_0BM@EIACBNMA@SSL3_GET_SERVER_CERTIFICATE?$AA@ 100aeb04     ssleay32_EM.0.9.8e:ssl_err.obj
 0002:00025b20       ??_C@_0BA@BKKPCMMD@SSL3_GET_RECORD?$AA@ 100aeb20     ssleay32_EM.0.9.8e:ssl_err.obj
 0002:00025b30       ??_C@_0BB@MMMOJKNB@SSL3_GET_MESSAGE?$AA@ 100aeb30     ssleay32_EM.0.9.8e:ssl_err.obj
 0002:00025b44       ??_C@_0BG@FMEPKCLE@SSL3_GET_KEY_EXCHANGE?$AA@ 100aeb44     ssleay32_EM.0.9.8e:ssl_err.obj
 0002:00025b5c       ??_C@_0BC@FGPACFAM@SSL3_GET_FINISHED?$AA@ 100aeb5c     ssleay32_EM.0.9.8e:ssl_err.obj
 0002:00025b70       ??_C@_0BN@DLGJOMBO@SSL3_GET_CLIENT_KEY_EXCHANGE?$AA@ 100aeb70     ssleay32_EM.0.9.8e:ssl_err.obj
 0002:00025b90       ??_C@_0BG@NJCIIKKK@SSL3_GET_CLIENT_HELLO?$AA@ 100aeb90     ssleay32_EM.0.9.8e:ssl_err.obj
 0002:00025ba8       ??_C@_0BM@OIEBNEGE@SSL3_GET_CLIENT_CERTIFICATE?$AA@ 100aeba8     ssleay32_EM.0.9.8e:ssl_err.obj
 0002:00025bc4       ??_C@_0BF@NIGMGKHI@SSL3_GET_CERT_VERIFY?$AA@ 100aebc4     ssleay32_EM.0.9.8e:ssl_err.obj
 0002:00025bdc       ??_C@_0BN@GOGJDFHP@SSL3_GET_CERTIFICATE_REQUEST?$AA@ 100aebdc     ssleay32_EM.0.9.8e:ssl_err.obj
 0002:00025bfc       ??_C@_0BI@HPPDOICI@SSL3_GENERATE_KEY_BLOCK?$AA@ 100aebfc     ssleay32_EM.0.9.8e:ssl_err.obj
 0002:00025c14       ??_C@_08DPBMEENA@SSL3_ENC?$AA@ 100aec14     ssleay32_EM.0.9.8e:ssl_err.obj
 0002:00025c20       ??_C@_0O@LOMJKGNP@SSL3_CTX_CTRL?$AA@ 100aec20     ssleay32_EM.0.9.8e:ssl_err.obj
 0002:00025c30       ??_C@_09HHCAEFIF@SSL3_CTRL?$AA@ 100aec30     ssleay32_EM.0.9.8e:ssl_err.obj
 0002:00025c3c       ??_C@_0N@DKFCBIOG@SSL3_CONNECT?$AA@ 100aec3c     ssleay32_EM.0.9.8e:ssl_err.obj
 0002:00025c4c       ??_C@_0BC@IEHKDIOK@SSL3_CLIENT_HELLO?$AA@ 100aec4c     ssleay32_EM.0.9.8e:ssl_err.obj
 0002:00025c60       ??_C@_0BO@FONALDLM@SSL3_CHECK_CERT_AND_ALGORITHM?$AA@ 100aec60     ssleay32_EM.0.9.8e:ssl_err.obj
 0002:00025c80       ??_C@_0BJ@GPBPKKBP@SSL3_CHANGE_CIPHER_STATE?$AA@ 100aec80     ssleay32_EM.0.9.8e:ssl_err.obj
 0002:00025c9c       ??_C@_0BD@PPIMHIIK@SSL3_CALLBACK_CTRL?$AA@ 100aec9c     ssleay32_EM.0.9.8e:ssl_err.obj
 0002:00025cb0       ??_C@_0M@FLONMKGD@SSL3_ACCEPT?$AA@ 100aecb0     ssleay32_EM.0.9.8e:ssl_err.obj
 0002:00025cbc       ??_C@_0L@FOCLHLEP@SSL2_WRITE?$AA@ 100aecbc     ssleay32_EM.0.9.8e:ssl_err.obj
 0002:00025cc8       ??_C@_0BF@MOABHGAH@SSL2_SET_CERTIFICATE?$AA@ 100aecc8     ssleay32_EM.0.9.8e:ssl_err.obj
 0002:00025ce0       ??_C@_0BD@PDJONKJH@SSL2_READ_INTERNAL?$AA@ 100aece0     ssleay32_EM.0.9.8e:ssl_err.obj
 0002:00025cf4       ??_C@_09LCMLFHNI@SSL2_READ?$AA@ 100aecf4     ssleay32_EM.0.9.8e:ssl_err.obj
 0002:00025d00       ??_C@_09EIJKLAKL@SSL2_PEEK?$AA@ 100aed00     ssleay32_EM.0.9.8e:ssl_err.obj
 0002:00025d0c       ??_C@_0BL@FECMFMNB@SSL2_GENERATE_KEY_MATERIAL?$AA@ 100aed0c     ssleay32_EM.0.9.8e:ssl_err.obj
 0002:00025d28       ??_C@_0O@GDIDJONA@SSL2_ENC_INIT?$AA@ 100aed28     ssleay32_EM.0.9.8e:ssl_err.obj
 0002:00025d38       ??_C@_0N@NFJAHDNI@SSL2_CONNECT?$AA@ 100aed38     ssleay32_EM.0.9.8e:ssl_err.obj
 0002:00025d48       ??_C@_0M@EMJGNOCA@SSL2_ACCEPT?$AA@ 100aed48     ssleay32_EM.0.9.8e:ssl_err.obj
 0002:00025d54       ??_C@_0M@CHPCEGIM@SSL23_WRITE?$AA@ 100aed54     ssleay32_EM.0.9.8e:ssl_err.obj
 0002:00025d60       ??_C@_0L@LHEODANB@SSL23_READ?$AA@ 100aed60     ssleay32_EM.0.9.8e:ssl_err.obj
 0002:00025d6c       ??_C@_0L@ENBPNHKC@SSL23_PEEK?$AA@ 100aed6c     ssleay32_EM.0.9.8e:ssl_err.obj
 0002:00025d78       ??_C@_0BH@IMONEGKH@SSL23_GET_SERVER_HELLO?$AA@ 100aed78     ssleay32_EM.0.9.8e:ssl_err.obj
 0002:00025d90       ??_C@_0BH@KADHDENC@SSL23_GET_CLIENT_HELLO?$AA@ 100aed90     ssleay32_EM.0.9.8e:ssl_err.obj
 0002:00025da8       ??_C@_0O@GNCPMCJN@SSL23_CONNECT?$AA@ 100aeda8     ssleay32_EM.0.9.8e:ssl_err.obj
 0002:00025db8       ??_C@_0BD@OKECIAFJ@SSL23_CLIENT_HELLO?$AA@ 100aedb8     ssleay32_EM.0.9.8e:ssl_err.obj
 0002:00025dcc       ??_C@_0N@EOICJEBH@SSL23_ACCEPT?$AA@ 100aedcc     ssleay32_EM.0.9.8e:ssl_err.obj
 0002:00025ddc       ??_C@_0O@JJMHAGGN@SERVER_VERIFY?$AA@ 100aeddc     ssleay32_EM.0.9.8e:ssl_err.obj
 0002:00025dec       ??_C@_0N@ICPDAELG@SERVER_HELLO?$AA@ 100aedec     ssleay32_EM.0.9.8e:ssl_err.obj
 0002:00025dfc       ??_C@_0O@GFPPGCNA@SERVER_FINISH?$AA@ 100aedfc     ssleay32_EM.0.9.8e:ssl_err.obj
 0002:00025e0c       ??_C@_0BE@BDKAIFMI@REQUEST_CERTIFICATE?$AA@ 100aee0c     ssleay32_EM.0.9.8e:ssl_err.obj
 0002:00025e20       ??_C@_06PBLDPGFF@READ_N?$AA@ 100aee20     ssleay32_EM.0.9.8e:ssl_err.obj
 0002:00025e28       ??_C@_0BA@GABDEBON@i2d_SSL_SESSION?$AA@ 100aee28     ssleay32_EM.0.9.8e:ssl_err.obj
 0002:00025e38       ??_C@_0BC@BLFFOANH@GET_SERVER_VERIFY?$AA@ 100aee38     ssleay32_EM.0.9.8e:ssl_err.obj
 0002:00025e4c       ??_C@_0BB@BIOBHPOA@GET_SERVER_HELLO?$AA@ 100aee4c     ssleay32_EM.0.9.8e:ssl_err.obj
 0002:00025e60       ??_C@_0BE@JHIDOGFD@GET_SERVER_FINISHED?$AA@ 100aee60     ssleay32_EM.0.9.8e:ssl_err.obj
 0002:00025e74       ??_C@_0BG@NCELPKJP@GET_CLIENT_MASTER_KEY?$AA@ 100aee74     ssleay32_EM.0.9.8e:ssl_err.obj
 0002:00025e8c       ??_C@_0BB@DEDLANJF@GET_CLIENT_HELLO?$AA@ 100aee8c     ssleay32_EM.0.9.8e:ssl_err.obj
 0002:00025ea0       ??_C@_0BE@LOLGGMHK@GET_CLIENT_FINISHED?$AA@ 100aeea0     ssleay32_EM.0.9.8e:ssl_err.obj
 0002:00025eb4       ??_C@_0BL@MNKCLLCJ@DTLS1_WRITE_APP_DATA_BYTES?$AA@ 100aeeb4     ssleay32_EM.0.9.8e:ssl_err.obj
 0002:00025ed0       ??_C@_0BP@JHJBIEMK@DTLS1_SEND_SERVER_KEY_EXCHANGE?$AA@ 100aeed0     ssleay32_EM.0.9.8e:ssl_err.obj
 0002:00025ef0       ??_C@_0BI@OEODABOK@DTLS1_SEND_SERVER_HELLO?$AA@ 100aeef0     ssleay32_EM.0.9.8e:ssl_err.obj
 0002:00025f08       ??_C@_0BO@KMNAEAEP@DTLS1_SEND_SERVER_CERTIFICATE?$AA@ 100aef08     ssleay32_EM.0.9.8e:ssl_err.obj
 0002:00025f28       ??_C@_0CA@LDMJIIEM@DTLS1_SEND_HELLO_VERIFY_REQUEST?$AA@ 100aef28     ssleay32_EM.0.9.8e:ssl_err.obj
 0002:00025f48       ??_C@_0BJ@NLDPFEHG@DTLS1_SEND_CLIENT_VERIFY?$AA@ 100aef48     ssleay32_EM.0.9.8e:ssl_err.obj
 0002:00025f64       ??_C@_0BP@EGIKKAPC@DTLS1_SEND_CLIENT_KEY_EXCHANGE?$AA@ 100aef64     ssleay32_EM.0.9.8e:ssl_err.obj
 0002:00025f84       ??_C@_0BO@MJDIJOL@DTLS1_SEND_CLIENT_CERTIFICATE?$AA@ 100aef84     ssleay32_EM.0.9.8e:ssl_err.obj
 0002:00025fa4       ??_C@_0BP@BDIKHJJD@DTLS1_SEND_CERTIFICATE_REQUEST?$AA@ 100aefa4     ssleay32_EM.0.9.8e:ssl_err.obj
 0002:00025fc4       ??_C@_0BC@JCKAIPLB@DTLS1_READ_FAILED?$AA@ 100aefc4     ssleay32_EM.0.9.8e:ssl_err.obj
 0002:00025fd8       ??_C@_0BB@HJILDAAK@DTLS1_READ_BYTES?$AA@ 100aefd8     ssleay32_EM.0.9.8e:ssl_err.obj
 0002:00025fec       ??_C@_0BF@IDHBPGFE@DTLS1_PROCESS_RECORD?$AA@ 100aefec     ssleay32_EM.0.9.8e:ssl_err.obj
 0002:00026004       ??_C@_0CB@CJDIPKCC@DTLS1_PROCESS_OUT_OF_SEQ_MESSAGE@ 100af004     ssleay32_EM.0.9.8e:ssl_err.obj
 0002:00026028       ??_C@_0BI@IGMLACJP@DTLS1_OUTPUT_CERT_CHAIN?$AA@ 100af028     ssleay32_EM.0.9.8e:ssl_err.obj
 0002:00026040       ??_C@_0BB@KMNMENGG@DTLS1_GET_RECORD?$AA@ 100af040     ssleay32_EM.0.9.8e:ssl_err.obj
 0002:00026054       ??_C@_0BL@IIOIGEEG@DTLS1_GET_MESSAGE_FRAGMENT?$AA@ 100af054     ssleay32_EM.0.9.8e:ssl_err.obj
 0002:00026070       ??_C@_0BC@GKMELONH@DTLS1_GET_MESSAGE?$AA@ 100af070     ssleay32_EM.0.9.8e:ssl_err.obj
 0002:00026084       ??_C@_0BH@OMNGAONJ@DTLS1_GET_HELLO_VERIFY?$AA@ 100af084     ssleay32_EM.0.9.8e:ssl_err.obj
 0002:0002609c       ??_C@_09LAGKJMLA@DTLS1_ENC?$AA@ 100af09c     ssleay32_EM.0.9.8e:ssl_err.obj
 0002:000260a8       ??_C@_0O@IGIMMLKM@DTLS1_CONNECT?$AA@ 100af0a8     ssleay32_EM.0.9.8e:ssl_err.obj
 0002:000260b8       ??_C@_0BD@GNLPJHPL@DTLS1_CLIENT_HELLO?$AA@ 100af0b8     ssleay32_EM.0.9.8e:ssl_err.obj
 0002:000260cc       ??_C@_0BE@DHLDODNH@DTLS1_BUFFER_RECORD?$AA@ 100af0cc     ssleay32_EM.0.9.8e:ssl_err.obj
 0002:000260e0       ??_C@_0N@ODLNJKNC@DTLS1_ACCEPT?$AA@ 100af0e0     ssleay32_EM.0.9.8e:ssl_err.obj
 0002:000260f0       ??_C@_0O@KELKEKPD@DO_SSL3_WRITE?$AA@ 100af0f0     ssleay32_EM.0.9.8e:ssl_err.obj
 0002:00026100       ??_C@_0P@KKCCLPDD@DO_DTLS1_WRITE?$AA@ 100af100     ssleay32_EM.0.9.8e:ssl_err.obj
 0002:00026110       ??_C@_0BA@NOKDHDOP@d2i_SSL_SESSION?$AA@ 100af110     ssleay32_EM.0.9.8e:ssl_err.obj
 0002:00026120       ??_C@_0BC@ENCKPCOH@CLIENT_MASTER_KEY?$AA@ 100af120     ssleay32_EM.0.9.8e:ssl_err.obj
 0002:00026134       ??_C@_0N@KOCJHGMD@CLIENT_HELLO?$AA@ 100af134     ssleay32_EM.0.9.8e:ssl_err.obj
 0002:00026144       ??_C@_0BA@OJPFOPJH@CLIENT_FINISHED?$AA@ 100af144     ssleay32_EM.0.9.8e:ssl_err.obj
 0002:00026154       ??_C@_0BD@KDHMCOBK@CLIENT_CERTIFICATE?$AA@ 100af154     ssleay32_EM.0.9.8e:ssl_err.obj
 0002:00026168       ??_C@_0CO@JKDHGEMK@?$CF?923s?5?$CFs?5Kx?$DN?$CF?98s?5Au?$DN?$CF?94s?5Enc?$DN?$CF?99@ 100af168     ssleay32_EM.0.9.8e:ssl_ciph.obj
 0002:00026198       ??_C@_04PKDHFCJF@HIGH?$AA@ 100af198     ssleay32_EM.0.9.8e:ssl_ciph.obj
 0002:000261a0       ??_C@_06HMBFJLMK@MEDIUM?$AA@ 100af1a0     ssleay32_EM.0.9.8e:ssl_ciph.obj
 0002:000261a8       ??_C@_03IBEFMGAI@LOW?$AA@  100af1a8     ssleay32_EM.0.9.8e:ssl_ciph.obj
 0002:000261ac       ??_C@_08HLOLKGDE@EXPORT56?$AA@ 100af1ac     ssleay32_EM.0.9.8e:ssl_ciph.obj
 0002:000261b8       ??_C@_08CMHDGLIF@EXPORT40?$AA@ 100af1b8     ssleay32_EM.0.9.8e:ssl_ciph.obj
 0002:000261c4       ??_C@_06NOPGBFOL@EXPORT?$AA@ 100af1c4     ssleay32_EM.0.9.8e:ssl_ciph.obj
 0002:000261cc       ??_C@_03OIINPCCA@FZA?$AA@  100af1cc     ssleay32_EM.0.9.8e:ssl_ciph.obj
 0002:000261d0       ??_C@_03LCCAPPKK@ADH?$AA@  100af1d0     ssleay32_EM.0.9.8e:ssl_ciph.obj
 0002:000261d4       ??_C@_04KGNFDNIL@KRB5?$AA@ 100af1d4     ssleay32_EM.0.9.8e:ssl_ciph.obj
 0002:000261dc       ??_C@_08LLHPADEA@CAMELLIA?$AA@ 100af1dc     ssleay32_EM.0.9.8e:ssl_ciph.obj
 0002:000261e8       ??_C@_03BKNEFOAH@AES?$AA@  100af1e8     ssleay32_EM.0.9.8e:ssl_ciph.obj
 0002:000261ec       ??_C@_04FODJCCBM@eFZA?$AA@ 100af1ec     ssleay32_EM.0.9.8e:ssl_ciph.obj
 0002:000261f4       ??_C@_05CIFIKNKA@eNULL?$AA@ 100af1f4     ssleay32_EM.0.9.8e:ssl_ciph.obj
 0002:000261fc       ??_C@_04CMONEEGC@3DES?$AA@ 100af1fc     ssleay32_EM.0.9.8e:ssl_ciph.obj
 0002:00026204       ??_C@_03DFKBHBPH@DSS?$AA@  100af204     ssleay32_EM.0.9.8e:ssl_ciph.obj
 0002:00026208       ??_C@_03BCBCFAJE@aDH?$AA@  100af208     ssleay32_EM.0.9.8e:ssl_ciph.obj
 0002:0002620c       ??_C@_05LDMJOPLG@aNULL?$AA@ 100af20c     ssleay32_EM.0.9.8e:ssl_ciph.obj
 0002:00026214       ??_C@_04KLLJIENM@aFZA?$AA@ 100af214     ssleay32_EM.0.9.8e:ssl_ciph.obj
 0002:0002621c       ??_C@_04HGJFAHAL@aDSS?$AA@ 100af21c     ssleay32_EM.0.9.8e:ssl_ciph.obj
 0002:00026224       ??_C@_04HLBDHPJL@aRSA?$AA@ 100af224     ssleay32_EM.0.9.8e:ssl_ciph.obj
 0002:0002622c       ??_C@_05BCJNLHMK@aKRB5?$AA@ 100af22c     ssleay32_EM.0.9.8e:ssl_ciph.obj
 0002:00026234       ??_C@_03DNECGIPN@EDH?$AA@  100af234     ssleay32_EM.0.9.8e:ssl_ciph.obj
 0002:00026238       ??_C@_08MLOGGCBG@ECCdraft?$AA@ 100af238     ssleay32_EM.0.9.8e:ssl_ciph.obj
 0002:00026244       ??_C@_04OBAJJMHN@kFZA?$AA@ 100af244     ssleay32_EM.0.9.8e:ssl_ciph.obj
 0002:0002624c       ??_C@_04DEMGAGKA@kEDH?$AA@ 100af24c     ssleay32_EM.0.9.8e:ssl_ciph.obj
 0002:00026254       ??_C@_04LMFBPDAP@kDHd?$AA@ 100af254     ssleay32_EM.0.9.8e:ssl_ciph.obj
 0002:0002625c       ??_C@_04KAMJEGNI@kDHr?$AA@ 100af25c     ssleay32_EM.0.9.8e:ssl_ciph.obj
 0002:00026264       ??_C@_04DBKDGHDK@kRSA?$AA@ 100af264     ssleay32_EM.0.9.8e:ssl_ciph.obj
 0002:0002626c       ??_C@_05LDAGJEKM@kKRB5?$AA@ 100af26c     ssleay32_EM.0.9.8e:ssl_ciph.obj
 0002:00026274       ??_C@_0BE@MOOCAEFB@COMPLEMENTOFDEFAULT?$AA@ 100af274     ssleay32_EM.0.9.8e:ssl_ciph.obj
 0002:00026288       ??_C@_0BA@NMKLDIMD@COMPLEMENTOFALL?$AA@ 100af288     ssleay32_EM.0.9.8e:ssl_ciph.obj
 0002:00026298       ??_C@_03NIFPGLBG@ALL?$AA@  100af298     ssleay32_EM.0.9.8e:ssl_ciph.obj
 0002:000269d0       ??_C@_0BB@LIPCHABF@?4?2ssl?2ssl_ciph?4c?$AA@ 100af9d0     ssleay32_EM.0.9.8e:ssl_ciph.obj
 0002:000269e4       ??_C@_08NKIPMNFC@STRENGTH?$AA@ 100af9e4     ssleay32_EM.0.9.8e:ssl_ciph.obj
 0002:000269f0       ??_C@_07MGCPDNLD@DEFAULT?$AA@ 100af9f0     ssleay32_EM.0.9.8e:ssl_ciph.obj
 0002:000269f8       ??_C@_0BI@GCIOAHAF@SSL?5for?5verify?5callback?$AA@ 100af9f8     ssleay32_EM.0.9.8e:ssl_cert.obj
 0002:00026a10       ??_C@_0BB@KPDPALCJ@?4?2ssl?2ssl_cert?4c?$AA@ 100afa10     ssleay32_EM.0.9.8e:ssl_cert.obj
 0002:00026a24       ??_C@_0BB@GIFGIGOO@?4?2ssl?2ssl_sess?4c?$AA@ 100afa24     ssleay32_EM.0.9.8e:ssl_sess.obj
 0002:00026a38       ??_C@_0BA@MMNFJFNM@?4?2ssl?2s3_both?4c?$AA@ 100afa38     ssleay32_EM.0.9.8e:s3_both.obj
 0002:00026a48       ??_C@_04MHNGBHAE@SRVR?$AA@ 100afa48     ssleay32_EM.0.9.8e:s3_lib.obj
 0002:00026a50       ??_C@_04FDJPPFGE@CLNT?$AA@ 100afa50     ssleay32_EM.0.9.8e:s3_lib.obj
 0002:00026a58       ??_C@_0BB@OGEMNONP@AECDH?9AES256?9SHA?$AA@ 100afa58     ssleay32_EM.0.9.8e:s3_lib.obj
 0002:00026a6c       ??_C@_0BB@JHGOIGMC@AECDH?9AES128?9SHA?$AA@ 100afa6c     ssleay32_EM.0.9.8e:s3_lib.obj
 0002:00026a80       ??_C@_0BD@OILGHBPL@AECDH?9DES?9CBC3?9SHA?$AA@ 100afa80     ssleay32_EM.0.9.8e:s3_lib.obj
 0002:00026a94       ??_C@_0O@HOGKIOL@AECDH?9RC4?9SHA?$AA@ 100afa94     ssleay32_EM.0.9.8e:s3_lib.obj
 0002:00026aa4       ??_C@_0P@PMJJNNNJ@AECDH?9NULL?9SHA?$AA@ 100afaa4     ssleay32_EM.0.9.8e:s3_lib.obj
 0002:00026ab4       ??_C@_0BF@MEKBBPKD@ECDHE?9RSA?9AES256?9SHA?$AA@ 100afab4     ssleay32_EM.0.9.8e:s3_lib.obj
 0002:00026acc       ??_C@_0BF@LFIDEHLO@ECDHE?9RSA?9AES128?9SHA?$AA@ 100afacc     ssleay32_EM.0.9.8e:s3_lib.obj
 0002:00026ae4       ??_C@_0BH@IHFPJHMK@ECDHE?9RSA?9DES?9CBC3?9SHA?$AA@ 100afae4     ssleay32_EM.0.9.8e:s3_lib.obj
 0002:00026afc       ??_C@_0BC@LPOJOBCI@ECDHE?9RSA?9RC4?9SHA?$AA@ 100afafc     ssleay32_EM.0.9.8e:s3_lib.obj
 0002:00026b10       ??_C@_0BD@POEMEBJK@ECDHE?9RSA?9NULL?9SHA?$AA@ 100afb10     ssleay32_EM.0.9.8e:s3_lib.obj
 0002:00026b24       ??_C@_0BE@DDOIEHPH@ECDH?9RSA?9AES256?9SHA?$AA@ 100afb24     ssleay32_EM.0.9.8e:s3_lib.obj
 0002:00026b38       ??_C@_0BE@ECMKBPOK@ECDH?9RSA?9AES128?9SHA?$AA@ 100afb38     ssleay32_EM.0.9.8e:s3_lib.obj
 0002:00026b4c       ??_C@_0BG@DMDICBBF@ECDH?9RSA?9DES?9CBC3?9SHA?$AA@ 100afb4c     ssleay32_EM.0.9.8e:s3_lib.obj
 0002:00026b64       ??_C@_0BB@OHKIFIJN@ECDH?9RSA?9RC4?9SHA?$AA@ 100afb64     ssleay32_EM.0.9.8e:s3_lib.obj
 0002:00026b78       ??_C@_0BC@EFBPEHCA@ECDH?9RSA?9NULL?9SHA?$AA@ 100afb78     ssleay32_EM.0.9.8e:s3_lib.obj
 0002:00026b8c       ??_C@_0BH@JMPGCDAE@ECDHE?9ECDSA?9AES256?9SHA?$AA@ 100afb8c     ssleay32_EM.0.9.8e:s3_lib.obj
 0002:00026ba4       ??_C@_0BH@ONNEHLBJ@ECDHE?9ECDSA?9AES128?9SHA?$AA@ 100afba4     ssleay32_EM.0.9.8e:s3_lib.obj
 0002:00026bbc       ??_C@_0BJ@EJHGJJDE@ECDHE?9ECDSA?9DES?9CBC3?9SHA?$AA@ 100afbbc     ssleay32_EM.0.9.8e:s3_lib.obj
 0002:00026bd8       ??_C@_0BE@LFDCPJJA@ECDHE?9ECDSA?9RC4?9SHA?$AA@ 100afbd8     ssleay32_EM.0.9.8e:s3_lib.obj
 0002:00026bec       ??_C@_0BF@DLPMKBDM@ECDHE?9ECDSA?9NULL?9SHA?$AA@ 100afbec     ssleay32_EM.0.9.8e:s3_lib.obj
 0002:00026c04       ??_C@_0BG@CHJBJFNL@ECDH?9ECDSA?9AES256?9SHA?$AA@ 100afc04     ssleay32_EM.0.9.8e:s3_lib.obj
 0002:00026c1c       ??_C@_0BG@FGLDMNMG@ECDH?9ECDSA?9AES128?9SHA?$AA@ 100afc1c     ssleay32_EM.0.9.8e:s3_lib.obj
 0002:00026c34       ??_C@_0BI@GNNEONDK@ECDH?9ECDSA?9DES?9CBC3?9SHA?$AA@ 100afc34     ssleay32_EM.0.9.8e:s3_lib.obj
 0002:00026c4c       ??_C@_0BD@JODNPAAE@ECDH?9ECDSA?9RC4?9SHA?$AA@ 100afc4c     ssleay32_EM.0.9.8e:s3_lib.obj
 0002:00026c60       ??_C@_0BE@MMLFPJGI@ECDH?9ECDSA?9NULL?9SHA?$AA@ 100afc60     ssleay32_EM.0.9.8e:s3_lib.obj
 0002:00026c74       ??_C@_0BE@GNKMIPBE@ADH?9CAMELLIA256?9SHA?$AA@ 100afc74     ssleay32_EM.0.9.8e:s3_lib.obj
 0002:00026c88       ??_C@_0BI@NLNPNBIK@DHE?9RSA?9CAMELLIA256?9SHA?$AA@ 100afc88     ssleay32_EM.0.9.8e:s3_lib.obj
 0002:00026ca0       ??_C@_0BI@JEENNAOB@DHE?9DSS?9CAMELLIA256?9SHA?$AA@ 100afca0     ssleay32_EM.0.9.8e:s3_lib.obj
 0002:00026cb8       ??_C@_0BH@LHELGIHB@DH?9RSA?9CAMELLIA256?9SHA?$AA@ 100afcb8     ssleay32_EM.0.9.8e:s3_lib.obj
 0002:00026cd0       ??_C@_0BH@PINJGJBK@DH?9DSS?9CAMELLIA256?9SHA?$AA@ 100afcd0     ssleay32_EM.0.9.8e:s3_lib.obj
 0002:00026ce8       ??_C@_0BA@OLPMGKNC@CAMELLIA256?9SHA?$AA@ 100afce8     ssleay32_EM.0.9.8e:s3_lib.obj
 0002:00026cf8       ??_C@_0BE@BMIONHAJ@ADH?9CAMELLIA128?9SHA?$AA@ 100afcf8     ssleay32_EM.0.9.8e:s3_lib.obj
 0002:00026d0c       ??_C@_0BI@KKPNIJJH@DHE?9RSA?9CAMELLIA128?9SHA?$AA@ 100afd0c     ssleay32_EM.0.9.8e:s3_lib.obj
 0002:00026d24       ??_C@_0BI@OFGPIIPM@DHE?9DSS?9CAMELLIA128?9SHA?$AA@ 100afd24     ssleay32_EM.0.9.8e:s3_lib.obj
 0002:00026d3c       ??_C@_0BH@MGGJDAGM@DH?9RSA?9CAMELLIA128?9SHA?$AA@ 100afd3c     ssleay32_EM.0.9.8e:s3_lib.obj
 0002:00026d54       ??_C@_0BH@IJPLDBAH@DH?9DSS?9CAMELLIA128?9SHA?$AA@ 100afd54     ssleay32_EM.0.9.8e:s3_lib.obj
 0002:00026d6c       ??_C@_0BA@JKNODCMP@CAMELLIA128?9SHA?$AA@ 100afd6c     ssleay32_EM.0.9.8e:s3_lib.obj
 0002:00026d7c       ??_C@_0P@NODBBIEP@ADH?9AES256?9SHA?$AA@ 100afd7c     ssleay32_EM.0.9.8e:s3_lib.obj
 0002:00026d8c       ??_C@_0BD@LMDODEEP@DHE?9RSA?9AES256?9SHA?$AA@ 100afd8c     ssleay32_EM.0.9.8e:s3_lib.obj
 0002:00026da0       ??_C@_0BD@OPNGMGD@DHE?9DSS?9AES256?9SHA?$AA@ 100afda0     ssleay32_EM.0.9.8e:s3_lib.obj
 0002:00026db4       ??_C@_0BC@KLAKAJLP@DH?9RSA?9AES256?9SHA?$AA@ 100afdb4     ssleay32_EM.0.9.8e:s3_lib.obj
 0002:00026dc8       ??_C@_0BC@BJMJFBJD@DH?9DSS?9AES256?9SHA?$AA@ 100afdc8     ssleay32_EM.0.9.8e:s3_lib.obj
 0002:00026ddc       ??_C@_0L@CIGAOKOL@AES256?9SHA?$AA@ 100afddc     ssleay32_EM.0.9.8e:s3_lib.obj
 0002:00026de8       ??_C@_0P@KPBDEAFC@ADH?9AES128?9SHA?$AA@ 100afde8     ssleay32_EM.0.9.8e:s3_lib.obj
 0002:00026df8       ??_C@_0BD@MNBMGMFC@DHE?9RSA?9AES128?9SHA?$AA@ 100afdf8     ssleay32_EM.0.9.8e:s3_lib.obj
 0002:00026e0c       ??_C@_0BD@HPNPDEHO@DHE?9DSS?9AES128?9SHA?$AA@ 100afe0c     ssleay32_EM.0.9.8e:s3_lib.obj
 0002:00026e20       ??_C@_0BC@NKCIFBKC@DH?9RSA?9AES128?9SHA?$AA@ 100afe20     ssleay32_EM.0.9.8e:s3_lib.obj
 0002:00026e34       ??_C@_0BC@GIOLAJIO@DH?9DSS?9AES128?9SHA?$AA@ 100afe34     ssleay32_EM.0.9.8e:s3_lib.obj
 0002:00026e48       ??_C@_0L@FJECLCPG@AES128?9SHA?$AA@ 100afe48     ssleay32_EM.0.9.8e:s3_lib.obj
 0002:00026e54       ??_C@_0BA@GCBICBBP@FZA?9FZA?9CBC?9SHA?$AA@ 100afe54     ssleay32_EM.0.9.8e:s3_lib.obj
 0002:00026e64       ??_C@_0N@BBGPBCMB@FZA?9NULL?9SHA?$AA@ 100afe64     ssleay32_EM.0.9.8e:s3_lib.obj
 0002:00026e74       ??_C@_0BB@OLPAKEBJ@ADH?9DES?9CBC3?9SHA?$AA@ 100afe74     ssleay32_EM.0.9.8e:s3_lib.obj
 0002:00026e88       ??_C@_0BA@GKMIFOFH@ADH?9DES?9CBC?9SHA?$AA@ 100afe88     ssleay32_EM.0.9.8e:s3_lib.obj
 0002:00026e98       ??_C@_0BE@GIAMIJLB@EXP?9ADH?9DES?9CBC?9SHA?$AA@ 100afe98     ssleay32_EM.0.9.8e:s3_lib.obj
 0002:00026eac       ??_C@_0M@MPCININJ@ADH?9RC4?9MD5?$AA@ 100afeac     ssleay32_EM.0.9.8e:s3_lib.obj
 0002:00026eb8       ??_C@_0BA@JOCILGKM@EXP?9ADH?9RC4?9MD5?$AA@ 100afeb8     ssleay32_EM.0.9.8e:s3_lib.obj
 0002:00026ec8       ??_C@_0BF@KCOPIELP@EDH?9RSA?9DES?9CBC3?9SHA?$AA@ 100afec8     ssleay32_EM.0.9.8e:s3_lib.obj
 0002:00026ee0       ??_C@_0BE@BMKPLFLB@EDH?9RSA?9DES?9CBC?9SHA?$AA@ 100afee0     ssleay32_EM.0.9.8e:s3_lib.obj
 0002:00026ef4       ??_C@_0BI@CGOFPLIG@EXP?9EDH?9RSA?9DES?9CBC?9SHA?$AA@ 100afef4     ssleay32_EM.0.9.8e:s3_lib.obj
 0002:00026f0c       ??_C@_0BF@POGOIEBE@EDH?9DSS?9DES?9CBC3?9SHA?$AA@ 100aff0c     ssleay32_EM.0.9.8e:s3_lib.obj
 0002:00026f24       ??_C@_0BE@COMFBKAK@EDH?9DSS?9DES?9CBC?9SHA?$AA@ 100aff24     ssleay32_EM.0.9.8e:s3_lib.obj
 0002:00026f38       ??_C@_0BI@BEIPFEDN@EXP?9EDH?9DSS?9DES?9CBC?9SHA?$AA@ 100aff38     ssleay32_EM.0.9.8e:s3_lib.obj
 0002:00026f50       ??_C@_0BE@JFPMBAGN@DH?9RSA?9DES?9CBC3?9SHA?$AA@ 100aff50     ssleay32_EM.0.9.8e:s3_lib.obj
 0002:00026f64       ??_C@_0BD@NHAAJHFK@DH?9RSA?9DES?9CBC?9SHA?$AA@ 100aff64     ssleay32_EM.0.9.8e:s3_lib.obj
 0002:00026f78       ??_C@_0BH@CIBPGODL@EXP?9DH?9RSA?9DES?9CBC?9SHA?$AA@ 100aff78     ssleay32_EM.0.9.8e:s3_lib.obj
 0002:00026f90       ??_C@_0BE@MJHNBAMG@DH?9DSS?9DES?9CBC3?9SHA?$AA@ 100aff90     ssleay32_EM.0.9.8e:s3_lib.obj
 0002:00026fa4       ??_C@_0BD@OFGKDIOB@DH?9DSS?9DES?9CBC?9SHA?$AA@ 100affa4     ssleay32_EM.0.9.8e:s3_lib.obj
 0002:00026fb8       ??_C@_0BH@BKHFMBIA@EXP?9DH?9DSS?9DES?9CBC?9SHA?$AA@ 100affb8     ssleay32_EM.0.9.8e:s3_lib.obj
 0002:00026fd0       ??_C@_0N@HCCILIJF@DES?9CBC3?9SHA?$AA@ 100affd0     ssleay32_EM.0.9.8e:s3_lib.obj
 0002:00026fe0       ??_C@_0M@LLIFGIFE@DES?9CBC?9SHA?$AA@ 100affe0     ssleay32_EM.0.9.8e:s3_lib.obj
 0002:00026fec       ??_C@_0BA@OKIFAGCB@EXP?9DES?9CBC?9SHA?$AA@ 100affec     ssleay32_EM.0.9.8e:s3_lib.obj
 0002:00026ffc       ??_C@_0N@NGGHCCCP@IDEA?9CBC?9SHA?$AA@ 100afffc     ssleay32_EM.0.9.8e:s3_lib.obj
 0002:0002700c       ??_C@_0BA@CNLPIOAK@EXP?9RC2?9CBC?9MD5?$AA@ 100b000c     ssleay32_EM.0.9.8e:s3_lib.obj
 0002:0002701c       ??_C@_07BANEBHLH@RC4?9SHA?$AA@ 100b001c     ssleay32_EM.0.9.8e:s3_lib.obj
 0002:00027024       ??_C@_07OCFLHCIN@RC4?9MD5?$AA@ 100b0024     ssleay32_EM.0.9.8e:s3_lib.obj
 0002:0002702c       ??_C@_0M@FMLLHELG@EXP?9RC4?9MD5?$AA@ 100b002c     ssleay32_EM.0.9.8e:s3_lib.obj
 0002:00027038       ??_C@_08JOFDPCLJ@NULL?9SHA?$AA@ 100b0038     ssleay32_EM.0.9.8e:s3_lib.obj
 0002:00027044       ??_C@_08GMNMJHID@NULL?9MD5?$AA@ 100b0044     ssleay32_EM.0.9.8e:s3_lib.obj
 0002:00027050       _ssl3_version_str          100b0050     ssleay32_EM.0.9.8e:s3_lib.obj
 0002:0002707c       ??_C@_0P@PMKBCFPP@?4?2ssl?2s3_lib?4c?$AA@ 100b007c     ssleay32_EM.0.9.8e:s3_lib.obj
 0002:0002708c       ??_C@_0P@IHAHLMDM@?4?2ssl?2s3_pkt?4c?$AA@ 100b008c     ssleay32_EM.0.9.8e:s3_pkt.obj
 0002:0002709c       ??_C@_0BC@PCIPMNJJ@SSL?5alert?5number?5?$AA@ 100b009c     ssleay32_EM.0.9.8e:s3_pkt.obj
 0002:000270b0       ??_C@_0BA@NMKJILMC@?4?2ssl?2s3_clnt?4c?$AA@ 100b00b0     ssleay32_EM.0.9.8e:s3_clnt.obj
 0002:000270c0       ??_C@_0BA@PHFAPHHI@?4?2ssl?2s3_srvr?4c?$AA@ 100b00c0     ssleay32_EM.0.9.8e:s3_srvr.obj
 0002:000270d0       ??_C@_03POJCPIGP@CCC?$AA@  100b00d0     ssleay32_EM.0.9.8e:s3_enc.obj
 0002:000270d4       ??_C@_02LBOPFCME@BB?$AA@   100b00d4     ssleay32_EM.0.9.8e:s3_enc.obj
 0002:000270d8       ??_C@_01FHEEJDEE@A?$AA@    100b00d8     ssleay32_EM.0.9.8e:s3_enc.obj
 0002:000270dc       ??_C@_0P@NBDCMPEC@?4?2ssl?2s3_enc?4c?$AA@ 100b00dc     ssleay32_EM.0.9.8e:s3_enc.obj
 0002:000270f0       ??_7type_info@@6B@         100b00f0     MSVCRT:ti_inst.obj
 0002:000270f4       __pRawDllMain              100b00f4     MSVCRT:crtdll.obj
 0002:000270f4       __pDefaultRawDllMain       100b00f4     MSVCRT:crtdll.obj
 0002:00027100       ??_C@_0BJ@DAGKNKDH@?4?2crypto?2comp?2comp_lib?4c?$AA@ 100b0100     libeay32_EM.0.9.8e:comp_lib.obj
 0002:0002711c       ??_C@_07FELGDGBG@?$CIundef?$CJ?$AA@ 100b011c     libeay32_EM.0.9.8e:c_zlib.obj
 0002:00027158       _ECDH_version              100b0158     libeay32_EM.0.9.8e:ech_lib.obj
 0002:00027180       ??_C@_0BI@LFHHMGOE@?4?2crypto?2ecdh?2ech_lib?4c?$AA@ 100b0180     libeay32_EM.0.9.8e:ech_lib.obj
 0002:00027198       ??_C@_0BE@LILBBPKE@OpenSSL?5ECDH?5method?$AA@ 100b0198     libeay32_EM.0.9.8e:ech_ossl.obj
 0002:000271ac       ??_C@_0BJ@GOHIGCLE@?4?2crypto?2ecdh?2ech_ossl?4c?$AA@ 100b01ac     libeay32_EM.0.9.8e:ech_ossl.obj
 0002:000271cc       ??_C@_0P@GHFPNOJB@bad?5allocation?$AA@ 100b01cc     SgiCripto.obj
 0002:000271dc       ??_C@_0BP@HHOIEPNJ@Proceso?5concluido?5exitosamente?$AA@ 100b01dc     SgiCripto.obj
 0002:000271fc       ??_C@_0CB@MBGNKMGO@Certificado?5da?qado?5o?5mal?5formado@ 100b01fc     SgiCripto.obj
 0002:00027220       ??_C@_0CD@DPMOPCCG@Error?5al?5procesar?5la?5llave?5p?zbli@ 100b0220     SgiCripto.obj
 0002:00027244       ??_C@_0DB@OMPJGDBN@Llaves?5?$CIpublica?5?$DM?9?$DO?5privada?$CJ?5no?5@ 100b0244     SgiCripto.obj
 0002:00027278       ??_C@_0CG@CEOHOIIF@Error?5al?5abrir?5archivo?5de?5certif@ 100b0278     SgiCripto.obj
 0002:000272a0       ??_C@_0CD@EIGBJIEL@Llave?5privada?5da?qada?5o?5mal?5forma@ 100b02a0     SgiCripto.obj
 0002:000272c4       ??_C@_0CL@NBLCFENB@Error?5al?5abrir?5archivo?5de?5la?5lla@ 100b02c4     SgiCripto.obj
 0002:000272f0       ??_C@_0CL@EGCBGPDJ@Constrase?qa?5de?5la?5llave?5privada?5@ 100b02f0     SgiCripto.obj
 0002:0002731c       ??_C@_0BG@HNCOEHNB@Cadena?5B64?5incorrecta?$AA@ 100b031c     SgiCripto.obj
 0002:00027334       ??_C@_0CA@LBLKDGIL@Error?5al?5convertir?5cadena?5a?5B64?$AA@ 100b0334     SgiCripto.obj
 0002:00027354       ??_C@_0BK@LCHCOLPN@Error?5al?5generar?5la?5firma?$AA@ 100b0354     SgiCripto.obj
 0002:00027370       ??_C@_0BP@FBPEECHC@Error?5al?5desencriptar?5la?5firma?$AA@ 100b0370     SgiCripto.obj
 0002:00027390       ??_C@_0DA@GJGOPMKG@No?5se?5ha?5iniciado?5el?5objeto?5para@ 100b0390     SgiCripto.obj
 0002:000273c0       ??_C@_0DC@IEIHAPMA@Firma?5incorrecta?5?$CIno?5corresponde@ 100b03c0     SgiCripto.obj
 0002:000273f4       ??_C@_0DA@DCFKHDBK@Identificador?5de?5digesti?sn?5inv?al@ 100b03f4     SgiCripto.obj
 0002:00027424       ??_C@_0BM@KIIGMCII@No?5se?5pudo?5generar?5el?5PKCS7?$AA@ 100b0424     SgiCripto.obj
 0002:00027440       ??_C@_0EH@MDJJNAIE@Error?5al?5decodificar?5el?5PKCS7?0?5p@ 100b0440     SgiCripto.obj
 0002:00027488       ??_C@_0CO@PLEONLJL@Error?5al?5extraer?5datos?5del?5firma@ 100b0488     SgiCripto.obj
 0002:000274b8       ??_C@_0CK@DFMINIML@El?5PKCS7?5no?5cuenta?5con?5datos?5del@ 100b04b8     SgiCripto.obj
 0002:000274e4       ??_C@_0BN@CGJNGAON@Error?5al?5abrir?5archivo?5PKCS7?$AA@ 100b04e4     SgiCripto.obj
 0002:00027504       ??_C@_0BN@NGIMDEIJ@Error?5al?5crear?5archivo?5PKCS7?$AA@ 100b0504     SgiCripto.obj
 0002:00027524       ??_C@_0BL@NKFEHAJJ@Error?5al?5verificar?5archivo?$AA@ 100b0524     SgiCripto.obj
 0002:00027540       ??_C@_0DP@BJEGCLFO@El?5PKCS7?5no?5est?a?5firmado?5con?5un?5@ 100b0540     SgiCripto.obj
 0002:00027580       ??_C@_0DM@JINIPICC@El?5PKCS7?5est?a?5firmado?5con?5un?5cer@ 100b0580     SgiCripto.obj
 0002:000275bc       ??_C@_0CI@INNOKIPL@Error?5al?5extraer?5datos?5del?5desti@ 100b05bc     SgiCripto.obj
 0002:000275e4       ??_C@_0CN@ICFEKFEB@El?5PKCS7?5no?5cuenta?5con?5datos?5de?5@ 100b05e4     SgiCripto.obj
 0002:00027614       ??_C@_0BN@ILKMPFNF@No?5se?5pudo?5procesar?5el?5PKCS7?$AA@ 100b0614     SgiCripto.obj
 0002:00027634       ??_C@_0BN@GBOEEPOJ@Error?5al?5a?qadir?5destinatario?$AA@ 100b0634     SgiCripto.obj
 0002:00027654       ??_C@_0BJ@LJBLMOCB@Error?5al?5a?qadir?5firmante?$AA@ 100b0654     SgiCripto.obj
 0002:00027670       ??_C@_0DB@ENIFHPKM@Error?5al?5iniciar?5datos?5para?5el?5p@ 100b0670     SgiCripto.obj
 0002:000276a4       ??_C@_0CB@DBJBEFJG@Tipo?5de?5operaci?sn?5PKCS7?5inv?alida@ 100b06a4     SgiCripto.obj
 0002:000276c8       ??_C@_0CI@HHJOHPDL@Error?5al?5cargar?5algoritmo?5de?5enc@ 100b06c8     SgiCripto.obj
 0002:000276f0       ??_C@_0CI@LLOHKML@Error?5al?5iniciar?5contexto?5de?5enc@ 100b06f0     SgiCripto.obj
 0002:00027718       ??_C@_0CC@IDJHIDGE@Error?5en?5el?5proceso?5de?5encripci?s@ 100b0718     SgiCripto.obj
 0002:0002773c       ??_C@_0CA@PPGBEFME@Error?5al?5establecer?5el?5cifrador?$AA@ 100b073c     SgiCripto.obj
 0002:0002775c       ??_C@_0CA@EIOIIHOE@Algoritmo?5de?5digesti?sn?5inv?alido?$AA@ 100b075c     SgiCripto.obj
 0002:0002777c       ??_C@_0BJ@BNKJKDPA@Interfase?5de?5objeto?5nula?$AA@ 100b077c     SgiCripto.obj
 0002:00027798       ??_C@_0BF@ECMBPNGI@Memoria?5insuficiente?$AA@ 100b0798     SgiCripto.obj
 0002:000277b0       ??_C@_0CB@KIGCCNIH@Par?ametro?5sin?5espacio?5suficiente@ 100b07b0     SgiCripto.obj
 0002:000277d4       ??_C@_0P@PCFCAFJG@Par?ametro?5nulo?$AA@ 100b07d4     SgiCripto.obj
 0002:000277e4       ??_C@_0CC@MJGAHANF@Objeto?5de?5Certificado?5no?5iniciad@ 100b07e4     SgiCripto.obj
 0002:00027808       ??_C@_0BP@OCCHFBKG@No?5requiere?5consultar?5a?5la?5ARA?$AA@ 100b0808     SgiCripto.obj
 0002:00027828       ??_C@_0DB@KAPNNPAO@No?5se?5ha?5iniciado?5el?5objeto?5de?5c@ 100b0828     SgiCripto.obj
 0002:0002785c       ??_C@_0CH@DDGLCHL@No?5se?5ha?5establecido?5conexi?sn?5a?5@ 100b085c     SgiCripto.obj
 0002:00027884       ??_C@_0DH@KCOAODOP@No?5se?5ha?5cargado?5la?5configuraci?s@ 100b0884     SgiCripto.obj
 0002:000278c0       ??_C@_0ED@OIFKLHAE@Error?5al?5leer?5los?5parametros?5de?5@ 100b08c0     SgiCripto.obj
 0002:00027904       ??_C@_0DH@DAKDLHA@No?5se?5pudo?5establecer?5la?5bit?acor@ 100b0904     SgiCripto.obj
 0002:00027940       ??_C@_0EF@IHFIKCND@No?5se?5pudo?5iniciar?5la?5librer?ma?5d@ 100b0940     SgiCripto.obj
 0002:00027988       ??_C@_0BO@GAGPDPPP@No?5se?5puede?5conectar?5a?5la?5ARA?$AA@ 100b0988     SgiCripto.obj
 0002:000279a8       ??_C@_0DF@JGEGCAFB@No?5se?5pudo?5crear?5el?5mensaje?5de?5s@ 100b09a8     SgiCripto.obj
 0002:000279e0       ??_C@_0EA@ENLCMHOH@No?5se?5pudo?5extraer?5los?5datos?5del@ 100b09e0     SgiCripto.obj
 0002:00027a20       ??_C@_0CM@ICLPKGC@No?5se?5pudo?5transmitir?5la?5solicit@ 100b0a20     SgiCripto.obj
 0002:00027a4c       ??_C@_0CH@CBFCODBM@No?5se?5pudo?5recibir?5respuesta?5de?5@ 100b0a4c     SgiCripto.obj
 0002:00027a74       ??_C@_0BO@GJKMNGGL@Se?5recibi?s?5un?5error?5de?5la?5ARA?$AA@ 100b0a74     SgiCripto.obj
 0002:00027a94       ??_C@_0DI@GALMDPID@Se?5recibi?s?5un?5mensaje?5de?5respues@ 100b0a94     SgiCripto.obj
 0002:00027acc       ??_C@_0CK@HAMGBDPD@No?5est?a?5registra?5el?5certificado?5@ 100b0acc     SgiCripto.obj
 0002:00027af8       ??_C@_0DJ@LIEHLACP@Por?5el?5momento?5el?5certificado?5no@ 100b0af8     SgiCripto.obj
 0002:00027b34       ??_C@_0CP@DHCPOMFJ@El?5n?zmero?5de?5serie?5de?5la?5solicit@ 100b0b34     SgiCripto.obj
 0002:00027b64       ??_C@_0CD@MBJBKKEJ@El?5RFC?5de?5la?5solicitud?5es?5inv?ali@ 100b0b64     SgiCripto.obj
 0002:00027b88       ??_C@_0DH@PEIFBMDO@La?5informaci?sn?5solicitada?5no?5est@ 100b0b88     SgiCripto.obj
 0002:00027bc0       ??_C@_0BG@OFDIGEO@Error?5no?5identificado?$AA@ 100b0bc0     SgiCripto.obj
 0002:00027bd8       ??_C@_0BE@MLJEJHEI@Error?5no?5catalogado?$AA@ 100b0bd8     SgiCripto.obj
 0002:00027bec       ??_C@_00CNPNBAHC@?$AA@     100b0bec     Sgi_ARA.obj
 0002:00027bf0       ??_C@_0BA@JNGDMAB@C?3?2SAT?2PKI?2ARA?2?$AA@ 100b0bf0     Sgi_ARA.obj
 0002:00027c00       ??_C@_08FLEIJFKP@Inicia?$CI?$CJ?$AA@ 100b0c00     Sgi_ARA.obj
 0002:00027c10       ??_C@_0EP@HFHICLMG@Par?ametros?5de?5configuraci?sn?3?5Cer@ 100b0c10     Sgi_ARA.obj
 0002:00027c60       ??_C@_0BL@NNPNFEOK@C?3?2SAT?2PKI?2ARA?2Sgi_ARA?4cfg?$AA@ 100b0c60     Sgi_ARA.obj
 0002:00027c7c       ??_C@_04DLKLOAPK@CERT?$AA@ 100b0c7c     Sgi_ARA.obj
 0002:00027c84       ??_C@_0M@FJMPKFEE@?$FLLLAVE_SRV?$FN?$AA@ 100b0c84     Sgi_ARA.obj
 0002:00027c90       ??_C@_04CCAEFLLI@HOST?$AA@ 100b0c90     Sgi_ARA.obj
 0002:00027c98       ??_C@_05FCKONEFG@?$FLARA?$FN?$AA@ 100b0c98     Sgi_ARA.obj
 0002:00027ca0       ??_C@_08IJCBGBHB@SERVICIO?$AA@ 100b0ca0     Sgi_ARA.obj
 0002:00027cac       ??_C@_05LHCNKMMH@BITAC?$AA@ 100b0cac     Sgi_ARA.obj
 0002:00027cb4       ??_C@_0L@FIKPEBNO@?$FLBITACORA?$FN?$AA@ 100b0cb4     Sgi_ARA.obj
 0002:00027cc0       ??_C@_08CLGGKGLB@NIVELBIT?$AA@ 100b0cc0     Sgi_ARA.obj
 0002:00027ccc       ??_C@_09IFHNJHLK@Conecta?$CI?$CJ?$AA@ 100b0ccc     Sgi_ARA.obj
 0002:00027cd8       ??_C@_0CD@GPFGGNHD@INICIAOBJ?9?$DO?5Se?5present?s?5el?5error@ 100b0cd8     Sgi_ARA.obj
 0002:00027cfc       ??_C@_0CK@ILLKLLFD@INICIAOBJ?9?$DO?5Se?5present?s?5el?5error@ 100b0cfc     Sgi_ARA.obj
 0002:00027d28       ??_C@_0DF@LFGLJEHB@INICIAOBJ?9?$DO?5Se?5present?s?5el?5error@ 100b0d28     Sgi_ARA.obj
 0002:00027d60       ??_C@_0N@IMNLGOEJ@Desconecta?$CI?$CJ?$AA@ 100b0d60     Sgi_ARA.obj
 0002:00027d70       ??_C@_0CA@BBENPAIH@No?5se?5ha?5inicializado?5el?5objeto?$AA@ 100b0d70     Sgi_ARA.obj
 0002:00027d90       ??_C@_0BN@ECNEOIKF@No?5se?5ha?5conectado?5el?5objeto?$AA@ 100b0d90     Sgi_ARA.obj
 0002:00027db0       ??_C@_0HL@EGLKFHGN@No?5se?5carg?s?5correctamente?5el?5arc@ 100b0db0     Sgi_ARA.obj
 0002:00027e30       ??_C@_0EH@HBHGLMEE@No?5se?5leyeron?5correctamente?5los?5@ 100b0e30     Sgi_ARA.obj
 0002:00027e78       ??_C@_0GO@CBFELOJN@No?5se?5estableci?s?5la?5bit?acora?5cor@ 100b0e78     Sgi_ARA.obj
 0002:00027ee8       ??_C@_0DF@IAPGGCNO@No?5se?5inicializ?s?5correctamente?5e@ 100b0ee8     Sgi_ARA.obj
 0002:00027f20       ??_C@_0GC@GNPAPLEB@No?5se?5inicializ?s?5correctamente?5e@ 100b0f20     Sgi_ARA.obj
 0002:00027f88       ??_C@_0KD@OHGDFGHL@No?5se?5conect?s?5correctamente?5el?5c@ 100b0f88     Sgi_ARA.obj
 0002:00028030       ??_C@_0EB@MOLIIPIG@No?5se?5recibio?5correctamente?5la?5i@ 100b1030     Sgi_ARA.obj
 0002:00028074       ??_C@_0DN@NEDGHLAN@No?5se?5carg?s?5correctamente?5la?5inf@ 100b1074     Sgi_ARA.obj
 0002:000280b4       ??_C@_0CK@PIEBJPOO@No?5se?5pudo?5transmitir?5el?5mensaje@ 100b10b4     Sgi_ARA.obj
 0002:000280e0       ??_C@_0CJ@KFBCAFHL@Se?5recibi?s?5un?5mensaje?5de?5error?5d@ 100b10e0     Sgi_ARA.obj
 0002:0002810c       ??_C@_0CC@HDPEMKGM@Se?5recibi?s?5un?5mensaje?5no?5esperad@ 100b110c     Sgi_ARA.obj
 0002:00028130       ??_C@_0DM@DEMBMCFL@Por?5el?5momento?5el?5certificado?5so@ 100b1130     Sgi_ARA.obj
 0002:0002816c       ??_C@_0CE@JDEHMKBC@El?5Certificado?5solicitado?5no?5exi@ 100b116c     Sgi_ARA.obj
 0002:00028190       ??_C@_0CD@OAIFIGCD@Se?5recibi?s?5un?5mensaje?5de?5KEEPALI@ 100b1190     Sgi_ARA.obj
 0002:000281b4       ??_C@_0BF@HOHLDKBO@Error?5no?5determinado?$AA@ 100b11b4     Sgi_ARA.obj
 0002:000281cc       ??_C@_0L@DCKGKMIB@?$CFs?5?$CI?$CFi?$CJ?5?$CFs?$AA@ 100b11cc     Sgi_ARA.obj
 0002:000281d8       ??_C@_0CL@NDKCFPMK@Error?0?5memoria?5insuficiente?5RecM@ 100b11d8     Sgi_ARA.obj
 0002:00028208       ??_C@_0EE@MCAACEPM@Al?5recibir?5el?5mensaje?5?$CIERROR_ARA@ 100b1208     Sgi_ARA.obj
 0002:0002824c       ??_C@_0P@OMAMGIOC@?$CFs?0?5error?$CI?$CFs?$CJ?4?$AA@ 100b124c     Sgi_ARA.obj
 0002:0002825c       ??_C@_0CC@CFCGICMA@?$CFs?5La?5ARA?5env?mo?5el?5error?5?$CI?$CFi?$CJ?3?5?$CF@ 100b125c     Sgi_ARA.obj
 0002:00028280       ??_C@_01POHCFINO@Z?$AA@    100b1280     Sgi_ARA.obj
 0002:00028284       ??_C@_0N@CHAHHHJP@SolCDxNS?$CI?$CFs?$CJ?$AA@ 100b1284     Sgi_ARA.obj
 0002:00028298       ??_C@_0EA@NJPLJLNN@SOLCDxNS?9?$DO?5En?5la?5validaci?sn?5de?5c@ 100b1298     Sgi_ARA.obj
 0002:000282d8       ??_C@_0EP@JPODEIIE@SOLCDxNS?9?$DO?5En?5la?5carga?5del?5mensa@ 100b12d8     Sgi_ARA.obj
 0002:00028328       ??_C@_0EL@NFCDOMBE@SOLCDxNS?9?$DO?5En?5la?5transmisi?sn?5del@ 100b1328     Sgi_ARA.obj
 0002:00028374       ??_C@_0DN@LHIFFKLN@SolCDxNS?$CI?$CFs?$CJ?3?5estado?$CI?$CFc?$CJ?0?5tipo?$CI?$CF@ 100b1374     Sgi_ARA.obj
 0002:000283b8       ??_C@_0EN@KJCJDINC@SOLCDxNS?9?$DO?5Al?5recibir?5el?5mensaje@ 100b13b8     Sgi_ARA.obj
 0002:00028408       ??_C@_0DP@FBODHJBP@SolCDxNS?$CI?$CFs?$CJ?3?5estado?$CI?$CFc?$CJ?0?5tipo?$CI?$CF@ 100b1408     Sgi_ARA.obj
 0002:00028448       ??_C@_0EO@CHKJPJLL@SOLCDxNS?9?$DO?5Al?5recibir?5el?5mensaje@ 100b1448     Sgi_ARA.obj
 0002:00028498       ??_C@_0M@DIHOJDCO@SOLCDxNS?9?$DO?5?$AA@ 100b1498     Sgi_ARA.obj
 0002:000284a4       ??_C@_0BA@GJFFCFKM@SolEdoCDxNS?$CI?$CFs?$CJ?$AA@ 100b14a4     Sgi_ARA.obj
 0002:000284b8       ??_C@_0ED@OONLLNBF@SOLEDOCDxNS?9?$DO?5En?5la?5validaci?sn?5d@ 100b14b8     Sgi_ARA.obj
 0002:00028500       ??_C@_0FF@PIKLJFAD@SOLEDOCDxNS?9?$DO?5En?5la?5carga?5del?5me@ 100b1500     Sgi_ARA.obj
 0002:00028558       ??_C@_0FB@OMKAICAD@SOLEDOCDxNS?9?$DO?5En?5la?5transmisi?sn?5@ 100b1558     Sgi_ARA.obj
 0002:000285ac       ??_C@_0DF@NEEBIGAI@SolEdoCDxNS?$CI?$CFs?$CJ?3?5estado?$CI?$CFc?$CJ?0?5tip@ 100b15ac     Sgi_ARA.obj
 0002:000285e8       ??_C@_0FD@MGJEDCBP@SOLEDOCDxNS?9?$DO?5Al?5recibir?5el?5mens@ 100b15e8     Sgi_ARA.obj
 0002:0002863c       ??_C@_0DH@PKDOFKCB@SolEdoCDxNS?$CI?$CFs?$CJ?3?5estado?$CI?$CFc?$CJ?0?5tip@ 100b163c     Sgi_ARA.obj
 0002:00028678       ??_C@_0FE@MCBDPKLM@SOLEDOCDxNS?9?$DO?5Al?5recibir?5el?5mens@ 100b1678     Sgi_ARA.obj
 0002:000286cc       ??_C@_0P@BALFMHOB@SOLEDOCDxNS?9?$DO?5?$AA@ 100b16cc     Sgi_ARA.obj
 0002:000286dc       ??_C@_0BD@HBKMIHIO@SolNSCDFEAxRFC?$CI?$CFs?$CJ?$AA@ 100b16dc     Sgi_ARA.obj
 0002:000286f0       ??_C@_0EG@BBHEEBEL@SOLNSCDFEAXRFC?9?$DO?5En?5la?5validaci?s@ 100b16f0     Sgi_ARA.obj
 0002:00028738       ??_C@_0FI@DBFPEAOC@SOLNSCDFEAXRFC?9?$DO?5En?5la?5carga?5del@ 100b1738     Sgi_ARA.obj
 0002:00028790       ??_C@_0FE@FLMIHKMN@SOLNSCDFEAXRFC?9?$DO?5En?5la?5transmisi@ 100b1790     Sgi_ARA.obj
 0002:000287e8       ??_C@_0FD@PAOFKDPH@SOLNSCDFEAXRFC?9?$DO?5Al?5recibir?5el?5m@ 100b17e8     Sgi_ARA.obj
 0002:0002883c       ??_C@_0BH@LNHLNPGF@SolNSCDFEAxRFC?$CI?$CFs?$CJ?3?5?$CFs?$AA@ 100b183c     Sgi_ARA.obj
 0002:00028854       ??_C@_0BF@FOJALGLA@SOLNSCDFEAxRFCxNS?9?$DO?5?$AA@ 100b1854     Sgi_ARA.obj
 0002:0002886c       ??_C@_0BP@JDJCNNAI@SolListaCDxRFC?$CI?$CFs?0?5?$CFc?0?5?$CFd?0?5?$CFd?$CJ?$AA@ 100b186c     Sgi_ARA.obj
 0002:0002888c       ??_C@_0CN@JAMMJNCK@SolListaCDxRFC?9?$DO?5Error?0?5memoria?5@ 100b188c     Sgi_ARA.obj
 0002:000288bc       ??_C@_02DPKJAMEF@?$CFd?$AA@ 100b18bc     Sgi_ARA.obj
 0002:000288c0       ??_C@_02HAOIJKIC@?$CFc?$AA@ 100b18c0     Sgi_ARA.obj
 0002:000288c8       ??_C@_0EG@NENNAEPK@SOLLISTACDxRFC?9?$DO?5En?5la?5validaci?s@ 100b18c8     Sgi_ARA.obj
 0002:00028910       ??_C@_0FN@DHFBOOHE@SOLLISTACDxRFC?9?$DO?5En?5la?5carga?5del@ 100b1910     Sgi_ARA.obj
 0002:00028970       ??_C@_0FK@KGHNEDBC@SOLLISTACDxRFC?9?$DO?5En?5la?5transmisi@ 100b1970     Sgi_ARA.obj
 0002:000289d0       ??_C@_0FE@CEKLNDPI@SOLLISTACDxRFC?9?$DO?5Al?5recibir?5el?5m@ 100b19d0     Sgi_ARA.obj
 0002:00028a24       ??_C@_0BH@DJOOIJLL@SolListaCDxRFC?$CI?$CFs?$CJ?3?5?$CFs?$AA@ 100b1a24     Sgi_ARA.obj
 0002:00028a3c       ??_C@_0BC@BKLJFIFA@SOLLISTACDxRFC?9?$DO?5?$AA@ 100b1a3c     Sgi_ARA.obj
 0002:00028a50       ??_C@_09IOKGKBMN@KeepAlive?$AA@ 100b1a50     Sgi_ARA.obj
 0002:00028a60       ??_C@_0EB@MEGGDELM@KEEPALIVE?9?$DO?5En?5la?5validaci?sn?5de?5@ 100b1a60     Sgi_ARA.obj
 0002:00028aa8       ??_C@_0FC@BIFHCJFD@KEEPALIVE?9?$DO?5En?5la?5carga?5del?5mens@ 100b1aa8     Sgi_ARA.obj
 0002:00028b00       ??_C@_0EN@KBDEOGFG@KEEPALIVE?9?$DO?5En?5la?5transmisi?sn?5de@ 100b1b00     Sgi_ARA.obj
 0002:00028b50       ??_C@_0N@NJKBDDDE@KEEPALIVE?9?$DO?5?$AA@ 100b1b50     Sgi_ARA.obj
 0002:00028b60       ??_C@_0BM@PAPJHAGI@invalid?5map?1set?$DMT?$DO?5iterator?$AA@ 100b1b60     Sgi_ARA.obj
 0002:00028b80       ??_7logic_error@std@@6B@   100b1b80     Sgi_ARA.obj
 0002:00028b8c       ??_7out_of_range@std@@6B@  100b1b8c     Sgi_ARA.obj
 0002:00028b98       ??_7CArchivo@@6B@          100b1b98     Sgi_Archivo.obj
 0002:00028ba0       ??_C@_01OHGJGJJP@?$FL?$AA@ 100b1ba0     Sgi_Bitacora.obj
 0002:00028ba4       ??_C@_01EEMJAFIK@?6?$AA@   100b1ba4     Sgi_Bitacora.obj
 0002:00028ba8       ??_C@_02LMMGGCAJ@?3?5?$AA@ 100b1ba8     Sgi_Bitacora.obj
 0002:00028bac       ??_C@_07FHDJLJDO@?5NIVEL?$DN?$AA@ 100b1bac     Sgi_Bitacora.obj
 0002:00028bb4       ??_C@_02PBFOLPKM@?$FN?5?$AA@ 100b1bb4     Sgi_Bitacora.obj
 0002:00028bb8       ??_C@_0EP@HGGGIGJP@Error?5en?5CBitacora?3?3escribePV?5al@ 100b1bb8     Sgi_Bitacora.obj
 0002:00028c08       ??_C@_0CB@DHPHONNP@?$CF10lld?5?$CF04d?$CF02d?$CF02d?9?$CF02d?$CF02d?$CF02d@ 100b1c08     Sgi_Bitacora.obj
 0002:00028c2c       ??_C@_06EOPONJBP@ERROR?5?$AA@ 100b1c2c     Sgi_Bitacora.obj
 0002:00028c34       ??_C@_06DPFPPMPH@INFO?5?5?$AA@ 100b1c34     Sgi_Bitacora.obj
 0002:00028c3c       ??_C@_06GLLDLMFH@EXITO?5?$AA@ 100b1c3c     Sgi_Bitacora.obj
 0002:00028c44       ??_C@_06ILLFHMGD@ALERTA?$AA@ 100b1c44     Sgi_Bitacora.obj
 0002:00028c4c       ??_C@_06LDPDKBGK@DEBUG?5?$AA@ 100b1c4c     Sgi_Bitacora.obj
 0002:00028c54       ??_C@_06MLAHNBLJ@DEBUG2?$AA@ 100b1c54     Sgi_Bitacora.obj
 0002:00028c5c       ??_C@_0BE@JONHPENG@map?1set?$DMT?$DO?5too?5long?$AA@ 100b1c5c     Sgi_ConfigFile.obj
 0002:00028c74       ??_S?$basic_fstream@DU?$char_traits@D@std@@@std@@6B@ 100b1c74     Sgi_ConfigFile.obj
 0002:00028c7c       ??_7length_error@std@@6B@  100b1c7c     Sgi_ConfigFile.obj
 0002:00028c84       ??_C@_01HIHLOKLC@1?$AA@    100b1c84     Sgi_MsgPKI.obj
 0002:00028c88       ??_C@_1CA@BPLEPMIN@?$AAM?$AAU?$AAT?$AAE?$AAX?$AA_?$AAL?$AAI?$AAB?$AA_?$AAO?$AAP?$AAS?$AAS?$AAL?$AA?$AA@ 100b1c88     Sgi_OpenSSL.obj
 0002:00028ca8       ??_C@_01MCMALHOG@a?$AA@    100b1ca8     Sgi_OpenSSL.obj
 0002:00028cac       ??_C@_0P@BPDMANMH@SgiOpenSSL?4log?$AA@ 100b1cac     Sgi_OpenSSL.obj
 0002:00028cbc       ??_C@_01NOFIACDB@w?$AA@    100b1cbc     Sgi_OpenSSL.obj
 0002:00028cc0       ??_C@_02GMLFBBN@wb?$AA@    100b1cc0     Sgi_OpenSSL.obj
 0002:00028cc4       ??_C@_01KDCPPGHE@r?$AA@    100b1cc4     Sgi_OpenSSL.obj
 0002:00028cc8       ??_C@_0BB@IKNGJCLO@basicConstraints?$AA@ 100b1cc8     Sgi_OpenSSL.obj
 0002:00028cdc       ??_C@_08BCICBOHF@keyUsage?$AA@ 100b1cdc     Sgi_OpenSSL.obj
 0002:00028ce8       ??_C@_0L@IICLKDNB@nsCertType?$AA@ 100b1ce8     Sgi_OpenSSL.obj
 0002:00028cf4       ??_C@_0BB@DGDLKPHD@extendedKeyUsage?$AA@ 100b1cf4     Sgi_OpenSSL.obj
 0002:00028d08       ??_C@_02JDPG@rb?$AA@       100b1d08     Sgi_OpenSSL.obj
 0002:00028d0c       ??_C@_05HKPGCKL@?$CFs?3?$CFd?$AA@ 100b1d0c     Sgi_SSL.obj
 0002:00028d18       ??_7CSSL_Skt@@6B@          100b1d18     Sgi_SSL.obj
 0002:00028d2c       ??_7CSSL_Skt_Ssl@@6B@      100b1d2c     Sgi_SSL.obj
 0002:00028d40       ??_7CSSL_Skt_Bio@@6B@      100b1d40     Sgi_SSL.obj
 0002:00028dc4       ??_C@_01IHBHIGKO@?0?$AA@   100b1dc4     sgi_cripto.obj
 0002:00028dc8       ??_C@_0CM@IINFABNI@?4?4?2?4?4?2SgiCripto2_base?2SgiOpenSSL@ 100b1dc8     SgiOpenSSL_AraFnc.obj
 0002:00028df4       ??_C@_0O@HFNJECFC@Verify?5error?3?$AA@ 100b1df4     SgiOpenSSL_AraFnc.obj
 0002:00028e04       ??_R4type_info@@6B@        100b1e04     MSVCRT:ti_inst.obj
 0002:00028e18       ??_R3type_info@@8          100b1e18     MSVCRT:ti_inst.obj
 0002:00028e28       ??_R2type_info@@8          100b1e28     MSVCRT:ti_inst.obj
 0002:00028e30       ??_R1A@?0A@EA@type_info@@8 100b1e30     MSVCRT:ti_inst.obj
 0002:00028e4c       ??_R4out_of_range@std@@6B@ 100b1e4c     Sgi_ARA.obj
 0002:00028e60       ??_R3out_of_range@std@@8   100b1e60     Sgi_ARA.obj
 0002:00028e70       ??_R2out_of_range@std@@8   100b1e70     Sgi_ARA.obj
 0002:00028e80       ??_R1A@?0A@EA@out_of_range@std@@8 100b1e80     Sgi_ARA.obj
 0002:00028e9c       ??_R4logic_error@std@@6B@  100b1e9c     Sgi_ARA.obj
 0002:00028eb0       ??_R3logic_error@std@@8    100b1eb0     Sgi_ARA.obj
 0002:00028ec0       ??_R2logic_error@std@@8    100b1ec0     Sgi_ARA.obj
 0002:00028ecc       ??_R1A@?0A@EA@exception@std@@8 100b1ecc     Sgi_ARA.obj
 0002:00028ee8       ??_R3exception@std@@8      100b1ee8     Sgi_ARA.obj
 0002:00028ef8       ??_R2exception@std@@8      100b1ef8     Sgi_ARA.obj
 0002:00028f00       ??_R1A@?0A@EA@logic_error@std@@8 100b1f00     Sgi_ARA.obj
 0002:00028f1c       ??_R4CArchivo@@6B@         100b1f1c     Sgi_Archivo.obj
 0002:00028f30       ??_R3CArchivo@@8           100b1f30     Sgi_Archivo.obj
 0002:00028f40       ??_R2CArchivo@@8           100b1f40     Sgi_Archivo.obj
 0002:00028f48       ??_R1A@?0A@EA@CArchivo@@8  100b1f48     Sgi_Archivo.obj
 0002:00028f64       ??_R4length_error@std@@6B@ 100b1f64     Sgi_ConfigFile.obj
 0002:00028f78       ??_R3length_error@std@@8   100b1f78     Sgi_ConfigFile.obj
 0002:00028f88       ??_R2length_error@std@@8   100b1f88     Sgi_ConfigFile.obj
 0002:00028f98       ??_R1A@?0A@EA@length_error@std@@8 100b1f98     Sgi_ConfigFile.obj
 0002:00028fb4       ??_R4?$basic_fstream@DU?$char_traits@D@std@@@std@@6B@ 100b1fb4     Sgi_ConfigFile.obj
 0002:00028fc8       ??_R3?$basic_fstream@DU?$char_traits@D@std@@@std@@8 100b1fc8     Sgi_ConfigFile.obj
 0002:00028fd8       ??_R2?$basic_fstream@DU?$char_traits@D@std@@@std@@8 100b1fd8     Sgi_ConfigFile.obj
 0002:00029004       ??_R1A@?0A@EA@?$basic_iostream@DU?$char_traits@D@std@@@std@@8 100b2004     Sgi_ConfigFile.obj
 0002:00029020       ??_R3?$basic_iostream@DU?$char_traits@D@std@@@std@@8 100b2020     Sgi_ConfigFile.obj
 0002:00029030       ??_R2?$basic_iostream@DU?$char_traits@D@std@@@std@@8 100b2030     Sgi_ConfigFile.obj
 0002:00029058       ??_R17?0A@EA@?$basic_ostream@DU?$char_traits@D@std@@@std@@8 100b2058     Sgi_ConfigFile.obj
 0002:00029074       ??_R3?$basic_ostream@DU?$char_traits@D@std@@@std@@8 100b2074     Sgi_ConfigFile.obj
 0002:00029084       ??_R2?$basic_ostream@DU?$char_traits@D@std@@@std@@8 100b2084     Sgi_ConfigFile.obj
 0002:00029098       ??_R1A@?0A@EA@?$basic_ostream@DU?$char_traits@D@std@@@std@@8 100b2098     Sgi_ConfigFile.obj
 0002:000290b4       ??_R1A@?0A@EA@?$basic_istream@DU?$char_traits@D@std@@@std@@8 100b20b4     Sgi_ConfigFile.obj
 0002:000290d0       ??_R3?$basic_istream@DU?$char_traits@D@std@@@std@@8 100b20d0     Sgi_ConfigFile.obj
 0002:000290e0       ??_R2?$basic_istream@DU?$char_traits@D@std@@@std@@8 100b20e0     Sgi_ConfigFile.obj
 0002:000290f4       ??_R13A@3EA@?$_Iosb@H@std@@8 100b20f4     Sgi_ConfigFile.obj
 0002:00029110       ??_R1A@A@3EA@ios_base@std@@8 100b2110     Sgi_ConfigFile.obj
 0002:0002912c       ??_R1A@A@3FA@?$basic_ios@DU?$char_traits@D@std@@@std@@8 100b212c     Sgi_ConfigFile.obj
 0002:00029148       ??_R3?$basic_ios@DU?$char_traits@D@std@@@std@@8 100b2148     Sgi_ConfigFile.obj
 0002:00029158       ??_R2?$basic_ios@DU?$char_traits@D@std@@@std@@8 100b2158     Sgi_ConfigFile.obj
 0002:00029168       ??_R1A@?0A@EA@ios_base@std@@8 100b2168     Sgi_ConfigFile.obj
 0002:00029184       ??_R3ios_base@std@@8       100b2184     Sgi_ConfigFile.obj
 0002:00029194       ??_R2ios_base@std@@8       100b2194     Sgi_ConfigFile.obj
 0002:000291a0       ??_R13?0A@EA@?$_Iosb@H@std@@8 100b21a0     Sgi_ConfigFile.obj
 0002:000291bc       ??_R3?$_Iosb@H@std@@8      100b21bc     Sgi_ConfigFile.obj
 0002:000291cc       ??_R2?$_Iosb@H@std@@8      100b21cc     Sgi_ConfigFile.obj
 0002:000291d4       ??_R1A@?0A@EA@?$_Iosb@H@std@@8 100b21d4     Sgi_ConfigFile.obj
 0002:000291f0       ??_R1A@?0A@EA@?$basic_ios@DU?$char_traits@D@std@@@std@@8 100b21f0     Sgi_ConfigFile.obj
 0002:0002920c       ??_R1A@?0A@EA@?$basic_fstream@DU?$char_traits@D@std@@@std@@8 100b220c     Sgi_ConfigFile.obj
 0002:00029228       ??_R4CSSL_Skt_Bio@@6B@     100b2228     Sgi_SSL.obj
 0002:0002923c       ??_R3CSSL_Skt_Bio@@8       100b223c     Sgi_SSL.obj
 0002:0002924c       ??_R2CSSL_Skt_Bio@@8       100b224c     Sgi_SSL.obj
 0002:00029258       ??_R1A@?0A@EA@CSSL_Skt_Bio@@8 100b2258     Sgi_SSL.obj
 0002:00029274       ??_R4CSSL_Skt_Ssl@@6B@     100b2274     Sgi_SSL.obj
 0002:00029288       ??_R3CSSL_Skt_Ssl@@8       100b2288     Sgi_SSL.obj
 0002:00029298       ??_R2CSSL_Skt_Ssl@@8       100b2298     Sgi_SSL.obj
 0002:000292a4       ??_R1A@?0A@EA@CSSL_Skt_Ssl@@8 100b22a4     Sgi_SSL.obj
 0002:000292c0       ??_R4CSSL_Skt@@6B@         100b22c0     Sgi_SSL.obj
 0002:000292d4       ??_R3CSSL_Skt@@8           100b22d4     Sgi_SSL.obj
 0002:000292e4       ??_R2CSSL_Skt@@8           100b22e4     Sgi_SSL.obj
 0002:000292ec       ??_R1A@?0A@EA@CSSL_Skt@@8  100b22ec     Sgi_SSL.obj
 0002:00029308       ___rtc_iaa                 100b2308     MSVCRT:initsect.obj
 0002:0002930c       ___rtc_izz                 100b230c     MSVCRT:initsect.obj
 0002:00029310       ___rtc_taa                 100b2310     MSVCRT:initsect.obj
 0002:00029314       ___rtc_tzz                 100b2314     MSVCRT:initsect.obj
 0002:000293fc       __CT??_R0?AVexception@std@@@8??0exception@std@@QAE@ABV01@@Z12 100b23fc     Sgi_ARA.obj
 0002:00029418       __CT??_R0?AVout_of_range@std@@@8??0out_of_range@std@@QAE@ABV01@@Z40 100b2418     Sgi_ARA.obj
 0002:00029434       __CT??_R0?AVlogic_error@std@@@8??0logic_error@std@@QAE@ABV01@@Z40 100b2434     Sgi_ARA.obj
 0002:00029450       __CTA3?AVout_of_range@std@@ 100b2450     Sgi_ARA.obj
 0002:00029460       __TI3?AVout_of_range@std@@ 100b2460     Sgi_ARA.obj
 0002:00029470       __CT??_R0?AVlength_error@std@@@8??0length_error@std@@QAE@ABV01@@Z40 100b2470     Sgi_ConfigFile.obj
 0002:0002948c       __CTA3?AVlength_error@std@@ 100b248c     Sgi_ConfigFile.obj
 0002:0002949c       __TI3?AVlength_error@std@@ 100b249c     Sgi_ConfigFile.obj
 0002:00029ed8       __IMPORT_DESCRIPTOR_KERNEL32 100b2ed8     kernel32:KERNEL32.dll
 0002:00029eec       __IMPORT_DESCRIPTOR_WSOCK32 100b2eec     WSock32:WSOCK32.dll
 0002:00029f00       __IMPORT_DESCRIPTOR_MSVCP80 100b2f00     msvcprt:MSVCP80.dll
 0002:00029f14       __IMPORT_DESCRIPTOR_MSVCR80 100b2f14     MSVCRT:MSVCR80.dll
 0002:00029f28       __IMPORT_DESCRIPTOR_USER32 100b2f28     user32:USER32.dll
 0002:00029f3c       __IMPORT_DESCRIPTOR_GDI32  100b2f3c     gdi32:GDI32.dll
 0002:00029f50       __IMPORT_DESCRIPTOR_ADVAPI32 100b2f50     advapi32:ADVAPI32.dll
 0002:00029f64       __NULL_IMPORT_DESCRIPTOR   100b2f64     kernel32:KERNEL32.dll
 0003:0000b498       _rand_ssleay_meth          100c1498     libeay32_EM.0.9.8e:md_rand.obj
 0003:0000b9b0       _x509_dir_lookup           100c19b0     libeay32_EM.0.9.8e:by_dir.obj
 0003:0000b9d8       _x509_file_lookup          100c19d8     libeay32_EM.0.9.8e:by_file.obj
 0003:0000c544       _SSL_version_str           100c2544     ssleay32_EM.0.9.8e:ssl_lib.obj
 0003:0000c548       _ssl3_undef_enc_method     100c2548     ssleay32_EM.0.9.8e:ssl_lib.obj
 0003:0000d2b0       _ssl3_ciphers              100c32b0     ssleay32_EM.0.9.8e:s3_lib.obj
 0003:0000dee0       _SSLv3_enc_data            100c3ee0     ssleay32_EM.0.9.8e:s3_lib.obj
 0003:0000e154       ??_R0?AVtype_info@@@8      100c4154     MSVCRT:ti_inst.obj
 0003:0000e170       ___security_cookie         100c4170     MSVCRT:gs_cookie.obj
 0003:0000e174       ___security_cookie_complement 100c4174     MSVCRT:gs_cookie.obj
 0003:0000e180       ___native_dllmain_reason   100c4180     MSVCRT:natstart.obj
 0003:0000e184       ___native_vcclrit_reason   100c4184     MSVCRT:natstart.obj
 0003:0000e7f8       ?B64_Mapa@@3PADA           100c47f8     Sgi_B64.obj
 0003:0000e840       ??_R0?AVexception@std@@@8  100c4840     Sgi_ARA.obj
 0003:0000e85c       ??_R0?AVout_of_range@std@@@8 100c485c     Sgi_ARA.obj
 0003:0000e87c       ??_R0?AVlogic_error@std@@@8 100c487c     Sgi_ARA.obj
 0003:0000e89c       ??_R0?AVCArchivo@@@8       100c489c     Sgi_Archivo.obj
 0003:0000e8b4       ??_R0?AV?$basic_ostream@DU?$char_traits@D@std@@@std@@@8 100c48b4     Sgi_ConfigFile.obj
 0003:0000e8f0       ??_R0?AV?$_Iosb@H@std@@@8  100c48f0     Sgi_ConfigFile.obj
 0003:0000e90c       ??_R0?AVios_base@std@@@8   100c490c     Sgi_ConfigFile.obj
 0003:0000e928       ??_R0?AV?$basic_ios@DU?$char_traits@D@std@@@std@@@8 100c4928     Sgi_ConfigFile.obj
 0003:0000e960       ??_R0?AV?$basic_istream@DU?$char_traits@D@std@@@std@@@8 100c4960     Sgi_ConfigFile.obj
 0003:0000e99c       ??_R0?AV?$basic_iostream@DU?$char_traits@D@std@@@std@@@8 100c499c     Sgi_ConfigFile.obj
 0003:0000e9d8       ??_R0?AV?$basic_fstream@DU?$char_traits@D@std@@@std@@@8 100c49d8     Sgi_ConfigFile.obj
 0003:0000ea14       ??_R0?AVlength_error@std@@@8 100c4a14     Sgi_ConfigFile.obj
 0003:0000ea34       ??_R0?AVCSSL_Skt_Bio@@@8   100c4a34     Sgi_SSL.obj
 0003:0000ea50       ??_R0?AVCSSL_Skt_Ssl@@@8   100c4a50     Sgi_SSL.obj
 0003:0000ea6c       ??_R0?AVCSSL_Skt@@@8       100c4a6c     Sgi_SSL.obj
 0003:000101d4       _cleanse_ctr               100c61d4     libeay32_EM.0.9.8e:mem_clr.obj
 0003:00010208       _OPENSSL_ia32cap_P         100c6208     libeay32_EM.0.9.8e:cryptlib.obj
 0003:0001020c       _OPENSSL_NONPIC_relocated  100c620c     libeay32_EM.0.9.8e:cryptlib.obj
 0003:0001104c       __forceCRTManifest         100c704c     MSVCRT:crtmanifest.obj
 0003:00011050       ?__type_info_root_node@@3U__type_info_node@@A 100c7050     MSVCRT:tncleanup.obj
 0003:00011060       ?B64_Error@@3IA            100c7060     Sgi_B64.obj
 0003:00011064       ?ERR_str@@3HA              100c7064     Sgi_OpenSSL.obj
 0003:00011068       ?Iniciado@Sgi_SSL@@0_NA    100c7068     Sgi_SSL.obj
 0003:0001106c       ___sse2_available          100c706c     <common>
 0003:00011070       __adjust_fdiv              100c7070     <common>
 0003:00011074       ___native_startup_state    100c7074     <common>
 0003:00011078       ___native_startup_lock     100c7078     <common>
 0003:0001107c       ___onexitend               100c707c     <common>
 0003:00011080       ___onexitbegin             100c7080     <common>
 0003:00011084       ___dyn_tls_init_callback   100c7084     <common>

 entry point at        0001:00086154

 Static symbols

 0001:00003c39       __catch$??$?6U?$char_traits@D@std@@@std@@YAAAV?$basic_ostream@DU?$char_traits@D@std@@@0@AAV10@PBD@Z$0 10004c39 f i  CIL library: CIL module
 0001:00004a5e       __catch$?_Buynode@?$_Tree@V?$_Tmap_traits@V?$basic_string@DU?$char_traits@D@std@@V?$allocator@D@2@@std@@V12@U?$less@V?$basic_string@DU?$char_traits@D@std@@V?$allocator@D@2@@std@@@2@V?$allocator@U?$pair@$$CBV?$basic_string@DU?$char_traits@D@std@@V?$allocator@D@2@@std@@V12@@std@@@2@$00@std@@@std@@IAEPAU_Node@?$_Tree_nod@V?$_Tmap_traits@V?$basic_string@DU?$char_traits@D@std@@V?$allocator@D@2@@std@@V12@U?$less@V?$basic_string@DU?$char_traits@D@std@@V?$allocator@D@2@@std@@@2@V?$allocator@U?$pair@$$CBV?$basic_string@DU?$char_traits@D@std@@V?$allocator@D@2@@std@@V12@@std@@@2@$00@std@@@2@PAU342@00ABU?$pair@$$CBV?$basic_string@DU?$char_traits@D@std@@V?$allocator@D@2@@std@@V12@@2@D@Z$0 10005a5e f i  CIL library: CIL module
 0001:0000c420       _rsa_get_public_exp        1000d420 f   libeay32_EM.0.9.8e:rsa_lib.obj
 0001:0000c660       _PKCS7_get_octet_string    1000d660 f   libeay32_EM.0.9.8e:pk7_doit.obj
 0001:0000c6a0       _PKCS7_bio_add_digest      1000d6a0 f   libeay32_EM.0.9.8e:pk7_doit.obj
 0001:0000d250       _PKCS7_find_digest         1000e250 f   libeay32_EM.0.9.8e:pk7_doit.obj
 0001:0000d2f0       _get_attribute             1000e2f0 f   libeay32_EM.0.9.8e:pk7_doit.obj
 0001:0000d380       _add_attribute             1000e380 f   libeay32_EM.0.9.8e:pk7_doit.obj
 0001:0000eb30       _x509_cb                   1000fb30 f   libeay32_EM.0.9.8e:x_x509.obj
 0001:0000ece0       _rinf_cb                   1000fce0 f   libeay32_EM.0.9.8e:x_req.obj
 0001:0000efa0       _nocase_cmp                1000ffa0 f   libeay32_EM.0.9.8e:x509_cmp.obj
 0001:0000f000       _nocase_spacenorm_cmp      10010000 f   libeay32_EM.0.9.8e:x509_cmp.obj
 0001:0000f180       _asn1_string_memcmp        10010180 f   libeay32_EM.0.9.8e:x509_cmp.obj
 0001:000103d0       _internal_find             100113d0 f   libeay32_EM.0.9.8e:stack.obj
 0001:00010640       _update                    10011640 f   libeay32_EM.0.9.8e:m_sha1.obj
 0001:00010640       _update                    10011640 f   libeay32_EM.0.9.8e:m_sha1.obj
 0001:00010640       _update                    10011640 f   libeay32_EM.0.9.8e:m_sha1.obj
 0001:00010640       _update                    10011640 f   libeay32_EM.0.9.8e:m_sha1.obj
 0001:00010650       _final                     10011650 f   libeay32_EM.0.9.8e:m_sha1.obj
 0001:00010650       _final                     10011650 f   libeay32_EM.0.9.8e:m_sha1.obj
 0001:00010650       _final                     10011650 f   libeay32_EM.0.9.8e:m_sha1.obj
 0001:00010650       _final                     10011650 f   libeay32_EM.0.9.8e:m_sha1.obj
 0001:00010680       _init224                   10011680 f   libeay32_EM.0.9.8e:m_sha1.obj
 0001:00010690       _init256                   10011690 f   libeay32_EM.0.9.8e:m_sha1.obj
 0001:000106a0       _update256                 100116a0 f   libeay32_EM.0.9.8e:m_sha1.obj
 0001:000106b0       _final256                  100116b0 f   libeay32_EM.0.9.8e:m_sha1.obj
 0001:000106f0       _init384                   100116f0 f   libeay32_EM.0.9.8e:m_sha1.obj
 0001:00010700       _init512                   10011700 f   libeay32_EM.0.9.8e:m_sha1.obj
 0001:00010710       _update512                 10011710 f   libeay32_EM.0.9.8e:m_sha1.obj
 0001:00010720       _final512                  10011720 f   libeay32_EM.0.9.8e:m_sha1.obj
 0001:00010cd0       _des_ede_ecb_cipher        10011cd0 f   libeay32_EM.0.9.8e:e_des3.obj
 0001:00010d40       _des_ede_ofb_cipher        10011d40 f   libeay32_EM.0.9.8e:e_des3.obj
 0001:00010d80       _des_ede_cbc_cipher        10011d80 f   libeay32_EM.0.9.8e:e_des3.obj
 0001:00010dc0       _des_ede_cfb64_cipher      10011dc0 f   libeay32_EM.0.9.8e:e_des3.obj
 0001:00010e00       _des_ede3_cfb1_cipher      10011e00 f   libeay32_EM.0.9.8e:e_des3.obj
 0001:00010ec0       _des_ede3_cfb8_cipher      10011ec0 f   libeay32_EM.0.9.8e:e_des3.obj
 0001:00010f60       _des_ede_init_key          10011f60 f   libeay32_EM.0.9.8e:e_des3.obj
 0001:00010fb0       _des_ede3_init_key         10011fb0 f   libeay32_EM.0.9.8e:e_des3.obj
 0001:00011000       _des3_ctrl                 10012000 f   libeay32_EM.0.9.8e:e_des3.obj
 0001:000110e0       _aes_128_cbc_cipher        100120e0 f   libeay32_EM.0.9.8e:e_aes.obj
 0001:000110e0       _aes_256_cbc_cipher        100120e0 f   libeay32_EM.0.9.8e:e_aes.obj
 0001:000110e0       _aes_192_cbc_cipher        100120e0 f   libeay32_EM.0.9.8e:e_aes.obj
 0001:00011110       _aes_192_cfb128_cipher     10012110 f   libeay32_EM.0.9.8e:e_aes.obj
 0001:00011110       _aes_256_cfb128_cipher     10012110 f   libeay32_EM.0.9.8e:e_aes.obj
 0001:00011110       _aes_128_cfb128_cipher     10012110 f   libeay32_EM.0.9.8e:e_aes.obj
 0001:00011150       _aes_128_ofb_cipher        10012150 f   libeay32_EM.0.9.8e:e_aes.obj
 0001:00011150       _aes_192_ofb_cipher        10012150 f   libeay32_EM.0.9.8e:e_aes.obj
 0001:00011150       _aes_256_ofb_cipher        10012150 f   libeay32_EM.0.9.8e:e_aes.obj
 0001:000111c0       _aes_192_ecb_cipher        100121c0 f   libeay32_EM.0.9.8e:e_aes.obj
 0001:000111c0       _aes_256_ecb_cipher        100121c0 f   libeay32_EM.0.9.8e:e_aes.obj
 0001:000111c0       _aes_128_ecb_cipher        100121c0 f   libeay32_EM.0.9.8e:e_aes.obj
 0001:000112b0       _aes_192_cfb1_cipher       100122b0 f   libeay32_EM.0.9.8e:e_aes.obj
 0001:000112b0       _aes_128_cfb1_cipher       100122b0 f   libeay32_EM.0.9.8e:e_aes.obj
 0001:000112b0       _aes_256_cfb1_cipher       100122b0 f   libeay32_EM.0.9.8e:e_aes.obj
 0001:00011330       _aes_192_cfb8_cipher       10012330 f   libeay32_EM.0.9.8e:e_aes.obj
 0001:00011330       _aes_128_cfb8_cipher       10012330 f   libeay32_EM.0.9.8e:e_aes.obj
 0001:00011330       _aes_256_cfb8_cipher       10012330 f   libeay32_EM.0.9.8e:e_aes.obj
 0001:00011380       _aes_init_key              10012380 f   libeay32_EM.0.9.8e:e_aes.obj
 0001:00011900       _update                    10012900 f   libeay32_EM.0.9.8e:m_sha.obj
 0001:00011910       _final                     10012910 f   libeay32_EM.0.9.8e:m_sha.obj
 0001:00012ae0       _rsa_cb                    10013ae0 f   libeay32_EM.0.9.8e:rsa_asn1.obj
 0001:00012bd0       _rc2_cbc_cipher            10013bd0 f   libeay32_EM.0.9.8e:e_rc2.obj
 0001:00012c00       _rc2_cfb64_cipher          10013c00 f   libeay32_EM.0.9.8e:e_rc2.obj
 0001:00012c40       _rc2_ecb_cipher            10013c40 f   libeay32_EM.0.9.8e:e_rc2.obj
 0001:00012ca0       _rc2_ofb_cipher            10013ca0 f   libeay32_EM.0.9.8e:e_rc2.obj
 0001:00012d30       _rc2_init_key              10013d30 f   libeay32_EM.0.9.8e:e_rc2.obj
 0001:00012d60       _rc2_meth_to_magic         10013d60 f   libeay32_EM.0.9.8e:e_rc2.obj
 0001:00012db0       _rc2_magic_to_meth         10013db0 f   libeay32_EM.0.9.8e:e_rc2.obj
 0001:00012e00       _rc2_get_asn1_type_and_iv  10013e00 f   libeay32_EM.0.9.8e:e_rc2.obj
 0001:00012ef0       _rc2_set_asn1_type_and_iv  10013ef0 f   libeay32_EM.0.9.8e:e_rc2.obj
 0001:00012f30       _rc2_ctrl                  10013f30 f   libeay32_EM.0.9.8e:e_rc2.obj
 0001:00012fc0       _rc4_init_key              10013fc0 f   libeay32_EM.0.9.8e:e_rc4.obj
 0001:00012ff0       _rc4_cipher                10013ff0 f   libeay32_EM.0.9.8e:e_rc4.obj
 0001:000131c0       _bn_expand_internal        100141c0 f   libeay32_EM.0.9.8e:bn_lib.obj
 0001:00013ce0       _EVP_PKEY_free_it          10014ce0 f   libeay32_EM.0.9.8e:p_lib.obj
 0001:00013f90       _readtimer                 10014f90 f   libeay32_EM.0.9.8e:rand_win.obj
 0001:00014010       _readscreen                10015010 f   libeay32_EM.0.9.8e:rand_win.obj
 0001:00014930       _asn1_get_length           10015930 f   libeay32_EM.0.9.8e:asn1_lib.obj
 0001:00015000       _update                    10016000 f   libeay32_EM.0.9.8e:m_md4.obj
 0001:00015010       _final                     10016010 f   libeay32_EM.0.9.8e:m_md4.obj
 0001:000154c0       _rc5_32_12_16_cbc_cipher   100164c0 f   libeay32_EM.0.9.8e:e_rc5.obj
 0001:000154f0       _rc5_32_12_16_cfb64_cipher 100164f0 f   libeay32_EM.0.9.8e:e_rc5.obj
 0001:00015530       _rc5_32_12_16_ecb_cipher   10016530 f   libeay32_EM.0.9.8e:e_rc5.obj
 0001:00015590       _rc5_32_12_16_ofb_cipher   10016590 f   libeay32_EM.0.9.8e:e_rc5.obj
 0001:00015600       _rc5_ctrl                  10016600 f   libeay32_EM.0.9.8e:e_rc5.obj
 0001:00015680       _r_32_12_16_init_key       10016680 f   libeay32_EM.0.9.8e:e_rc5.obj
 0001:000156b0       _int_err_del               100166b0 f   libeay32_EM.0.9.8e:err.obj
 0001:00015700       _int_err_get_item          10016700 f   libeay32_EM.0.9.8e:err.obj
 0001:000157a0       _int_err_set_item          100167a0 f   libeay32_EM.0.9.8e:err.obj
 0001:00015840       _int_err_del_item          10016840 f   libeay32_EM.0.9.8e:err.obj
 0001:000158e0       _int_thread_release        100168e0 f   libeay32_EM.0.9.8e:err.obj
 0001:00015920       _int_thread_get_item       10016920 f   libeay32_EM.0.9.8e:err.obj
 0001:000159e0       _int_thread_set_item       100169e0 f   libeay32_EM.0.9.8e:err.obj
 0001:00015aa0       _int_err_get_next_lib      10016aa0 f   libeay32_EM.0.9.8e:err.obj
 0001:00015ae0       _build_SYS_str_reasons     10016ae0 f   libeay32_EM.0.9.8e:err.obj
 0001:00015be0       _ERR_STATE_free            10016be0 f   libeay32_EM.0.9.8e:err.obj
 0001:00015c30       _err_load_strings          10016c30 f   libeay32_EM.0.9.8e:err.obj
 0001:00015e80       _err_hash                  10016e80 f   libeay32_EM.0.9.8e:err.obj
 0001:00015ec0       _nid_cmp                   10016ec0 f   libeay32_EM.0.9.8e:err.obj
 0001:00015ec0       _ex_cmp_cb                 10016ec0 f   libeay32_EM.0.9.8e:err.obj
 0001:00015ec0       _err_cmp                   10016ec0 f   libeay32_EM.0.9.8e:err.obj
 0001:00015ec0       _pid_cmp                   10016ec0 f   libeay32_EM.0.9.8e:err.obj
 0001:00015ec0       _table_cmp                 10016ec0 f   libeay32_EM.0.9.8e:err.obj
 0001:00015ed0       _pid_hash                  10016ed0 f   libeay32_EM.0.9.8e:err.obj
 0001:00016160       _int_err_get               10017160 f   libeay32_EM.0.9.8e:err.obj
 0001:000161e0       _int_thread_get            100171e0 f   libeay32_EM.0.9.8e:err.obj
 0001:00016270       _int_thread_del_item       10017270 f   libeay32_EM.0.9.8e:err.obj
 0001:00016a00       _null_callback             10017a00 f   libeay32_EM.0.9.8e:x509_vfy.obj
 0001:00016a10       _find_issuer               10017a10 f   libeay32_EM.0.9.8e:x509_vfy.obj
 0001:00016a60       _check_issued              10017a60 f   libeay32_EM.0.9.8e:x509_vfy.obj
 0001:00016ab0       _check_chain_extensions    10017ab0 f   libeay32_EM.0.9.8e:x509_vfy.obj
 0001:00016cb0       _check_trust               10017cb0 f   libeay32_EM.0.9.8e:x509_vfy.obj
 0001:00016d10       _check_cert                10017d10 f   libeay32_EM.0.9.8e:x509_vfy.obj
 0001:00016da0       _cert_crl                  10017da0 f   libeay32_EM.0.9.8e:x509_vfy.obj
 0001:00016eb0       _check_policy              10017eb0 f   libeay32_EM.0.9.8e:x509_vfy.obj
 0001:00017250       _check_revocation          10018250 f   libeay32_EM.0.9.8e:x509_vfy.obj
 0001:000175b0       _get_crl_sk                100185b0 f   libeay32_EM.0.9.8e:x509_vfy.obj
 0001:000176d0       _get_crl                   100186d0 f   libeay32_EM.0.9.8e:x509_vfy.obj
 0001:00017780       _check_crl                 10018780 f   libeay32_EM.0.9.8e:x509_vfy.obj
 0001:00017960       _check_cert_time           10018960 f   libeay32_EM.0.9.8e:x509_vfy.obj
 0001:00017a20       _internal_verify           10018a20 f   libeay32_EM.0.9.8e:x509_vfy.obj
 0001:00018340       _default_malloc_ex         10019340 f   libeay32_EM.0.9.8e:mem.obj
 0001:00018350       _default_realloc_ex        10019350 f   libeay32_EM.0.9.8e:mem.obj
 0001:00018370       _default_malloc_locked_ex  10019370 f   libeay32_EM.0.9.8e:mem.obj
 0001:00018630       _mem_new                   10019630 f   libeay32_EM.0.9.8e:bss_mem.obj
 0001:00018660       _mem_free                  10019660 f   libeay32_EM.0.9.8e:bss_mem.obj
 0001:000186b0       _mem_read                  100196b0 f   libeay32_EM.0.9.8e:bss_mem.obj
 0001:00018750       _mem_write                 10019750 f   libeay32_EM.0.9.8e:bss_mem.obj
 0001:000187f0       _mem_ctrl                  100197f0 f   libeay32_EM.0.9.8e:bss_mem.obj
 0001:000189a0       _mem_gets                  100199a0 f   libeay32_EM.0.9.8e:bss_mem.obj
 0001:00018a20       _mem_puts                  10019a20 f   libeay32_EM.0.9.8e:bss_mem.obj
 0001:00018b60       _x509_name_ex_new          10019b60 f   libeay32_EM.0.9.8e:x_name.obj
 0001:00018be0       _x509_name_ex_free         10019be0 f   libeay32_EM.0.9.8e:x_name.obj
 0001:00018c20       _sk_internal_free          10019c20 f   libeay32_EM.0.9.8e:x_name.obj
 0001:00018c30       _x509_name_ex_d2i          10019c30 f   libeay32_EM.0.9.8e:x_name.obj
 0001:00018de0       _x509_name_encode          10019de0 f   libeay32_EM.0.9.8e:x_name.obj
 0001:00018f70       _x509_name_ex_i2d          10019f70 f   libeay32_EM.0.9.8e:x_name.obj
 0001:00018fb0       _init                      10019fb0 f   libeay32_EM.0.9.8e:m_md5.obj
 0001:00018fb0       _init                      10019fb0 f   libeay32_EM.0.9.8e:m_md5.obj
 0001:00018fc0       _update                    10019fc0 f   libeay32_EM.0.9.8e:m_md5.obj
 0001:00018fd0       _final                     10019fd0 f   libeay32_EM.0.9.8e:m_md5.obj
 0001:00019080       _ex_data_check             1001a080 f   libeay32_EM.0.9.8e:ex_data.obj
 0001:000190e0       _def_cleanup_cb            1001a0e0 f   libeay32_EM.0.9.8e:ex_data.obj
 0001:00019100       _def_get_class             1001a100 f   libeay32_EM.0.9.8e:ex_data.obj
 0001:000191e0       _def_add_index             1001a1e0 f   libeay32_EM.0.9.8e:ex_data.obj
 0001:000192e0       _int_new_class             1001a2e0 f   libeay32_EM.0.9.8e:ex_data.obj
 0001:00019320       _int_cleanup               1001a320 f   libeay32_EM.0.9.8e:ex_data.obj
 0001:00019370       _int_get_new_index         1001a370 f   libeay32_EM.0.9.8e:ex_data.obj
 0001:00019630       _int_new_ex_data           1001a630 f   libeay32_EM.0.9.8e:ex_data.obj
 0001:00019770       _int_dup_ex_data           1001a770 f   libeay32_EM.0.9.8e:ex_data.obj
 0001:000198f0       _int_free_ex_data          1001a8f0 f   libeay32_EM.0.9.8e:ex_data.obj
 0001:0001a360       _obj_cmp                   1001b360 f   libeay32_EM.0.9.8e:obj_dat.obj
 0001:0001ab60       _asn1_template_ex_i2d      1001bb60 f   libeay32_EM.0.9.8e:tasn_enc.obj
 0001:0001afb0       _asn1_i2d_ex_primitive     1001bfb0 f   libeay32_EM.0.9.8e:tasn_enc.obj
 0001:0001b3e0       _asn1_set_seq_out          1001c3e0 f   libeay32_EM.0.9.8e:tasn_enc.obj
 0001:0001b5e0       _asn1_item_flags_i2d       1001c5e0 f   libeay32_EM.0.9.8e:tasn_enc.obj
 0001:0001b7b0       _print_fp                  1001c7b0 f   libeay32_EM.0.9.8e:err_prn.obj
 0001:0001b820       _init                      1001c820 f   libeay32_EM.0.9.8e:m_md2.obj
 0001:0001b830       _update                    1001c830 f   libeay32_EM.0.9.8e:m_md2.obj
 0001:0001b840       _final                     1001c840 f   libeay32_EM.0.9.8e:m_md2.obj
 0001:0001b870       _idea_ecb_cipher           1001c870 f   libeay32_EM.0.9.8e:e_idea.obj
 0001:0001b8c0       _idea_cbc_cipher           1001c8c0 f   libeay32_EM.0.9.8e:e_idea.obj
 0001:0001b8f0       _idea_ofb_cipher           1001c8f0 f   libeay32_EM.0.9.8e:e_idea.obj
 0001:0001b920       _idea_cfb64_cipher         1001c920 f   libeay32_EM.0.9.8e:e_idea.obj
 0001:0001b9a0       _idea_init_key             1001c9a0 f   libeay32_EM.0.9.8e:e_idea.obj
 0001:0001ba50       _PKCS12_BAGS_adb           1001ca50 f   libeay32_EM.0.9.8e:p12_asn.obj
 0001:0001ba70       _PKCS12_SAFEBAG_adb        1001ca70 f   libeay32_EM.0.9.8e:p12_asn.obj
 0001:0001ba90       _PKCS7_adb                 1001ca90 f   libeay32_EM.0.9.8e:pk7_asn1.obj
 0001:0001bb40       _si_cb                     1001cb40 f   libeay32_EM.0.9.8e:pk7_asn1.obj
 0001:0001bbd0       _ri_cb                     1001cbd0 f   libeay32_EM.0.9.8e:pk7_asn1.obj
 0001:0001c220       _bf_cbc_cipher             1001d220 f   libeay32_EM.0.9.8e:e_bf.obj
 0001:0001c250       _bf_cfb64_cipher           1001d250 f   libeay32_EM.0.9.8e:e_bf.obj
 0001:0001c290       _bf_ecb_cipher             1001d290 f   libeay32_EM.0.9.8e:e_bf.obj
 0001:0001c2f0       _bf_ofb_cipher             1001d2f0 f   libeay32_EM.0.9.8e:e_bf.obj
 0001:0001c360       _bf_init_key               1001d360 f   libeay32_EM.0.9.8e:e_bf.obj
 0001:0001c390       _init                      1001d390 f   libeay32_EM.0.9.8e:m_mdc2.obj
 0001:0001c3a0       _update                    1001d3a0 f   libeay32_EM.0.9.8e:m_mdc2.obj
 0001:0001c3b0       _final                     1001d3b0 f   libeay32_EM.0.9.8e:m_mdc2.obj
 0001:0001c3f0       _desx_cbc_init_key         1001d3f0 f   libeay32_EM.0.9.8e:e_xcbc_d.obj
 0001:0001c440       _desx_cbc_cipher           1001d440 f   libeay32_EM.0.9.8e:e_xcbc_d.obj
 0001:0001c480       _cast5_cbc_cipher          1001d480 f   libeay32_EM.0.9.8e:e_cast.obj
 0001:0001c4b0       _cast5_cfb64_cipher        1001d4b0 f   libeay32_EM.0.9.8e:e_cast.obj
 0001:0001c4f0       _cast5_ecb_cipher          1001d4f0 f   libeay32_EM.0.9.8e:e_cast.obj
 0001:0001c550       _cast5_ofb_cipher          1001d550 f   libeay32_EM.0.9.8e:e_cast.obj
 0001:0001c5c0       _cast_init_key             1001d5c0 f   libeay32_EM.0.9.8e:e_cast.obj
 0001:0001c6d0       _traverse_string           1001d6d0 f   libeay32_EM.0.9.8e:a_mbstr.obj
 0001:0001c7c0       _in_utf8                   1001d7c0 f   libeay32_EM.0.9.8e:a_mbstr.obj
 0001:0001c7d0       _out_utf8                  1001d7d0 f   libeay32_EM.0.9.8e:a_mbstr.obj
 0001:0001c7f0       _cpy_asc                   1001d7f0 f   libeay32_EM.0.9.8e:a_mbstr.obj
 0001:0001c810       _cpy_bmp                   1001d810 f   libeay32_EM.0.9.8e:a_mbstr.obj
 0001:0001c830       _cpy_univ                  1001d830 f   libeay32_EM.0.9.8e:a_mbstr.obj
 0001:0001c870       _cpy_utf8                  1001d870 f   libeay32_EM.0.9.8e:a_mbstr.obj
 0001:0001c8a0       _is_printable              1001d8a0 f   libeay32_EM.0.9.8e:a_mbstr.obj
 0001:0001c8f0       _type_str                  1001d8f0 f   libeay32_EM.0.9.8e:a_mbstr.obj
 0001:0001cdb0       _des_ecb_cipher            1001ddb0 f   libeay32_EM.0.9.8e:e_des.obj
 0001:0001ce10       _des_ofb_cipher            1001de10 f   libeay32_EM.0.9.8e:e_des.obj
 0001:0001ce40       _des_cbc_cipher            1001de40 f   libeay32_EM.0.9.8e:e_des.obj
 0001:0001ce70       _des_cfb64_cipher          1001de70 f   libeay32_EM.0.9.8e:e_des.obj
 0001:0001ceb0       _des_cfb1_cipher           1001deb0 f   libeay32_EM.0.9.8e:e_des.obj
 0001:0001cf60       _des_cfb8_cipher           1001df60 f   libeay32_EM.0.9.8e:e_des.obj
 0001:0001cff0       _des_init_key              1001dff0 f   libeay32_EM.0.9.8e:e_des.obj
 0001:0001d010       _des_ctrl                  1001e010 f   libeay32_EM.0.9.8e:e_des.obj
 0001:0001d6e0       _nconf_get_string          1001e6e0 f   libeay32_EM.0.9.8e:v3_conf.obj
 0001:0001d6f0       _nconf_get_section         1001e6f0 f   libeay32_EM.0.9.8e:v3_conf.obj
 0001:0001d700       _conf_lhash_get_string     1001e700 f   libeay32_EM.0.9.8e:v3_conf.obj
 0001:0001d710       _conf_lhash_get_section    1001e710 f   libeay32_EM.0.9.8e:v3_conf.obj
 0001:0001d720       _strip_start               1001e720 f   libeay32_EM.0.9.8e:pk7_mime.obj
 0001:0001d770       _strip_end                 1001e770 f   libeay32_EM.0.9.8e:pk7_mime.obj
 0001:0001d7e0       _mime_hdr_addparam         1001e7e0 f   libeay32_EM.0.9.8e:pk7_mime.obj
 0001:0001d890       _mime_hdr_cmp              1001e890 f   libeay32_EM.0.9.8e:pk7_mime.obj
 0001:0001d890       _mime_param_cmp            1001e890 f   libeay32_EM.0.9.8e:pk7_mime.obj
 0001:0001d8d0       _mime_param_free           1001e8d0 f   libeay32_EM.0.9.8e:pk7_mime.obj
 0001:0001da30       _mime_hdr_new              1001ea30 f   libeay32_EM.0.9.8e:pk7_mime.obj
 0001:0001db10       _mime_hdr_free             1001eb10 f   libeay32_EM.0.9.8e:pk7_mime.obj
 0001:0001db60       _mime_parse_hdr            1001eb60 f   libeay32_EM.0.9.8e:pk7_mime.obj
 0001:0001dfe0       _file_free                 1001efe0 f   libeay32_EM.0.9.8e:bss_file.obj
 0001:0001e030       _file_read                 1001f030 f   libeay32_EM.0.9.8e:bss_file.obj
 0001:0001e0b0       _file_write                1001f0b0 f   libeay32_EM.0.9.8e:bss_file.obj
 0001:0001e0f0       _file_ctrl                 1001f0f0 f   libeay32_EM.0.9.8e:bss_file.obj
 0001:0001e400       _file_gets                 1001f400 f   libeay32_EM.0.9.8e:bss_file.obj
 0001:0001e450       _file_puts                 1001f450 f   libeay32_EM.0.9.8e:bss_file.obj
 0001:0001eb50       _update                    1001fb50 f   libeay32_EM.0.9.8e:m_ripemd.obj
 0001:0001eb60       _final                     1001fb60 f   libeay32_EM.0.9.8e:m_ripemd.obj
 0001:0001ebc0       _x509_object_cmp           1001fbc0 f   libeay32_EM.0.9.8e:x509_lu.obj
 0001:0001eca0       _cleanup                   1001fca0 f   libeay32_EM.0.9.8e:x509_lu.obj
 0001:0001f850       _acpt_close_socket         10020850 f   libeay32_EM.0.9.8e:bss_acpt.obj
 0001:0001f880       _acpt_free                 10020880 f   libeay32_EM.0.9.8e:bss_acpt.obj
 0001:0001f8f0       _acpt_state                100208f0 f   libeay32_EM.0.9.8e:bss_acpt.obj
 0001:0001fac0       _acpt_read                 10020ac0 f   libeay32_EM.0.9.8e:bss_acpt.obj
 0001:0001fb20       _acpt_write                10020b20 f   libeay32_EM.0.9.8e:bss_acpt.obj
 0001:0001fb80       _acpt_ctrl                 10020b80 f   libeay32_EM.0.9.8e:bss_acpt.obj
 0001:0001fdb0       _acpt_puts                 10020db0 f   libeay32_EM.0.9.8e:bss_acpt.obj
 0001:0001fde0       _acpt_new                  10020de0 f   libeay32_EM.0.9.8e:bss_acpt.obj
 0001:0001fe50       _conn_state                10020e50 f   libeay32_EM.0.9.8e:bss_conn.obj
 0001:00020320       _conn_new                  10021320 f   libeay32_EM.0.9.8e:bss_conn.obj
 0001:00020350       _conn_close_socket         10021350 f   libeay32_EM.0.9.8e:bss_conn.obj
 0001:00020380       _conn_free                 10021380 f   libeay32_EM.0.9.8e:bss_conn.obj
 0001:00020410       _conn_read                 10021410 f   libeay32_EM.0.9.8e:bss_conn.obj
 0001:00020480       _conn_write                10021480 f   libeay32_EM.0.9.8e:bss_conn.obj
 0001:000204f0       _conn_ctrl                 100214f0 f   libeay32_EM.0.9.8e:bss_conn.obj
 0001:000208f0       _conn_callback_ctrl        100218f0 f   libeay32_EM.0.9.8e:bss_conn.obj
 0001:00020910       _conn_puts                 10021910 f   libeay32_EM.0.9.8e:bss_conn.obj
 0001:000209b0       _file_new                  100219b0 f   libeay32_EM.0.9.8e:bss_sock.obj
 0001:000209b0       _sock_new                  100219b0 f   libeay32_EM.0.9.8e:bss_sock.obj
 0001:000209d0       _sock_free                 100219d0 f   libeay32_EM.0.9.8e:bss_sock.obj
 0001:00020a20       _sock_ctrl                 10021a20 f   libeay32_EM.0.9.8e:bss_sock.obj
 0001:00020b90       _sock_read                 10021b90 f   libeay32_EM.0.9.8e:bss_sock.obj
 0001:00020c00       _sock_write                10021c00 f   libeay32_EM.0.9.8e:bss_sock.obj
 0001:00020c60       _sock_puts                 10021c60 f   libeay32_EM.0.9.8e:bss_sock.obj
 0001:00020ce0       _ex_hash_cb                10021ce0 f   libeay32_EM.0.9.8e:evp_lib.obj
 0001:000212a0       _enc_new                   100222a0 f   libeay32_EM.0.9.8e:bio_enc.obj
 0001:00021300       _enc_free                  10022300 f   libeay32_EM.0.9.8e:bio_enc.obj
 0001:00021350       _enc_read                  10022350 f   libeay32_EM.0.9.8e:bio_enc.obj
 0001:000214f0       _enc_write                 100224f0 f   libeay32_EM.0.9.8e:bio_enc.obj
 0001:00021630       _enc_ctrl                  10022630 f   libeay32_EM.0.9.8e:bio_enc.obj
 0001:00021960       _md_new                    10022960 f   libeay32_EM.0.9.8e:bio_md.obj
 0001:00021990       _md_free                   10022990 f   libeay32_EM.0.9.8e:bio_md.obj
 0001:000219d0       _md_read                   100229d0 f   libeay32_EM.0.9.8e:bio_md.obj
 0001:00021a40       _md_write                  10022a40 f   libeay32_EM.0.9.8e:bio_md.obj
 0001:00021ab0       _md_ctrl                   10022ab0 f   libeay32_EM.0.9.8e:bio_md.obj
 0001:00021ca0       _md_gets                   10022ca0 f   libeay32_EM.0.9.8e:bio_md.obj
 0001:00021ce0       _buffer_new                10022ce0 f   libeay32_EM.0.9.8e:bf_buff.obj
 0001:00021d90       _buffer_free               10022d90 f   libeay32_EM.0.9.8e:bf_buff.obj
 0001:00021df0       _buffer_read               10022df0 f   libeay32_EM.0.9.8e:bf_buff.obj
 0001:00021f20       _buffer_write              10022f20 f   libeay32_EM.0.9.8e:bf_buff.obj
 0001:00022090       _buffer_ctrl               10023090 f   libeay32_EM.0.9.8e:bf_buff.obj
 0001:000224c0       _enc_callback_ctrl         100234c0 f   libeay32_EM.0.9.8e:bf_buff.obj
 0001:000224c0       _buffer_callback_ctrl      100234c0 f   libeay32_EM.0.9.8e:bf_buff.obj
 0001:000224c0       _md_callback_ctrl          100234c0 f   libeay32_EM.0.9.8e:bf_buff.obj
 0001:000224c0       _b64_callback_ctrl         100234c0 f   libeay32_EM.0.9.8e:bf_buff.obj
 0001:000224e0       _buffer_gets               100234e0 f   libeay32_EM.0.9.8e:bf_buff.obj
 0001:000225c0       _buffer_puts               100235c0 f   libeay32_EM.0.9.8e:bf_buff.obj
 0001:00022600       _RSA_eay_public_encrypt    10023600 f   libeay32_EM.0.9.8e:rsa_eay.obj
 0001:000228d0       _rsa_get_blinding          100238d0 f   libeay32_EM.0.9.8e:rsa_eay.obj
 0001:00022a00       _rsa_blinding_convert      10023a00 f   libeay32_EM.0.9.8e:rsa_eay.obj
 0001:00022a60       _rsa_blinding_invert       10023a60 f   libeay32_EM.0.9.8e:rsa_eay.obj
 0001:00022ac0       _RSA_eay_private_encrypt   10023ac0 f   libeay32_EM.0.9.8e:rsa_eay.obj
 0001:00022e70       _RSA_eay_private_decrypt   10023e70 f   libeay32_EM.0.9.8e:rsa_eay.obj
 0001:00023200       _RSA_eay_public_decrypt    10024200 f   libeay32_EM.0.9.8e:rsa_eay.obj
 0001:000234c0       _RSA_eay_mod_exp           100244c0 f   libeay32_EM.0.9.8e:rsa_eay.obj
 0001:00023840       _RSA_eay_init              10024840 f   libeay32_EM.0.9.8e:rsa_eay.obj
 0001:00023850       _RSA_eay_finish            10024850 f   libeay32_EM.0.9.8e:rsa_eay.obj
 0001:00024330       _BN_STACK_push             10025330 f   libeay32_EM.0.9.8e:bn_ctx.obj
 0001:000243c0       _BN_POOL_finish            100253c0 f   libeay32_EM.0.9.8e:bn_ctx.obj
 0001:00024410       _BN_POOL_get               10025410 f   libeay32_EM.0.9.8e:bn_ctx.obj
 0001:000244c0       _BN_POOL_release           100254c0 f   libeay32_EM.0.9.8e:bn_ctx.obj
 0001:00025dd0       _null_new                  10026dd0 f   libeay32_EM.0.9.8e:bss_null.obj
 0001:00025df0       _null_free                 10026df0 f   libeay32_EM.0.9.8e:bss_null.obj
 0001:00025e00       _null_write                10026e00 f   libeay32_EM.0.9.8e:bss_null.obj
 0001:00025e10       _null_ctrl                 10026e10 f   libeay32_EM.0.9.8e:bss_null.obj
 0001:00025e50       _null_gets                 10026e50 f   libeay32_EM.0.9.8e:bss_null.obj
 0001:00025e50       _null_read                 10026e50 f   libeay32_EM.0.9.8e:bss_null.obj
 0001:00025e60       _null_puts                 10026e60 f   libeay32_EM.0.9.8e:bss_null.obj
 0001:00026560       _init                      10027560 f   libeay32_EM.0.9.8e:m_ecdsa.obj
 0001:00026560       _init                      10027560 f   libeay32_EM.0.9.8e:m_ecdsa.obj
 0001:00026560       _init                      10027560 f   libeay32_EM.0.9.8e:m_ecdsa.obj
 0001:00026560       _init                      10027560 f   libeay32_EM.0.9.8e:m_ecdsa.obj
 0001:00026560       _init                      10027560 f   libeay32_EM.0.9.8e:m_ecdsa.obj
 0001:00026560       _init                      10027560 f   libeay32_EM.0.9.8e:m_ecdsa.obj
 0001:00026a10       _der_cmp                   10027a10 f   libeay32_EM.0.9.8e:a_set.obj
 0001:00026a10       _SetBlobCmp                10027a10 f   libeay32_EM.0.9.8e:a_set.obj
 0001:00026f30       _pubkey_cb                 10027f30 f   libeay32_EM.0.9.8e:x_pubkey.obj
 0001:000274b0       _asn1_check_eoc            100284b0 f   libeay32_EM.0.9.8e:tasn_dec.obj
 0001:000274e0       _asn1_check_tlen           100284e0 f   libeay32_EM.0.9.8e:tasn_dec.obj
 0001:000276a0       _asn1_template_ex_d2i      100286a0 f   libeay32_EM.0.9.8e:tasn_dec.obj
 0001:00027810       _asn1_find_end             10028810 f   libeay32_EM.0.9.8e:tasn_dec.obj
 0001:00027930       _asn1_collect              10028930 f   libeay32_EM.0.9.8e:tasn_dec.obj
 0001:00027b50       _asn1_d2i_ex_primitive     10028b50 f   libeay32_EM.0.9.8e:tasn_dec.obj
 0001:000285a0       _asn1_template_noexp_d2i   100295a0 f   libeay32_EM.0.9.8e:tasn_dec.obj
 0001:000289d0       _asn1_item_ex_combine_new  100299d0 f   libeay32_EM.0.9.8e:tasn_new.obj
 0001:00028bf0       _asn1_item_clear           10029bf0 f   libeay32_EM.0.9.8e:tasn_new.obj
 0001:00028e60       _asn1_item_combine_free    10029e60 f   libeay32_EM.0.9.8e:tasn_fre.obj
 0001:000291d0       _policy_data_cmp           1002a1d0 f   libeay32_EM.0.9.8e:pcy_cache.obj
 0001:000291f0       _policy_cache_set_int      1002a1f0 f   libeay32_EM.0.9.8e:pcy_cache.obj
 0001:00029220       _policy_cache_create       1002a220 f   libeay32_EM.0.9.8e:pcy_cache.obj
 0001:00029340       _policy_cache_new          1002a340 f   libeay32_EM.0.9.8e:pcy_cache.obj
 0001:00029c10       _X509_REVOKED_cmp          1002ac10 f   libeay32_EM.0.9.8e:x_crl.obj
 0001:00029c30       _crl_inf_cb                1002ac30 f   libeay32_EM.0.9.8e:x_crl.obj
 0001:00029c70       _asn1_d2i_read_bio         1002ac70 f   libeay32_EM.0.9.8e:a_d2i_fp.obj
 0001:0002a370       _sig_cb                    1002b370 f   libeay32_EM.0.9.8e:dsa_asn1.obj
 0001:0002a420       _dsa_cb                    1002b420 f   libeay32_EM.0.9.8e:dsa_asn1.obj
 0001:0002a9e0       _X9_62_CHARACTERISTIC_TWO_adb 1002b9e0 f   libeay32_EM.0.9.8e:ec_asn1.obj
 0001:0002aa00       _X9_62_FIELDID_adb         1002ba00 f   libeay32_EM.0.9.8e:ec_asn1.obj
 0001:0002aa50       _ec_asn1_parameters2group  1002ba50 f   libeay32_EM.0.9.8e:ec_asn1.obj
 0001:0002b0f0       _ec_asn1_pkparameters2group 1002c0f0 f   libeay32_EM.0.9.8e:ec_asn1.obj
 0001:0002b680       _pkey_cb                   1002c680 f   libeay32_EM.0.9.8e:p8_pkey.obj
 0001:0002bf10       _x509v3_cache_extensions   1002cf10 f   libeay32_EM.0.9.8e:v3_purp.obj
 0001:0002c2d0       _check_ca                  1002d2d0 f   libeay32_EM.0.9.8e:v3_purp.obj
 0001:0002c3b0       _check_ssl_ca              1002d3b0 f   libeay32_EM.0.9.8e:v3_purp.obj
 0001:0002c410       _check_purpose_ssl_client  1002d410 f   libeay32_EM.0.9.8e:v3_purp.obj
 0001:0002c450       _check_purpose_ssl_server  1002d450 f   libeay32_EM.0.9.8e:v3_purp.obj
 0001:0002c490       _check_purpose_ns_ssl_server 1002d490 f   libeay32_EM.0.9.8e:v3_purp.obj
 0001:0002c4e0       _check_purpose_smime_sign  1002d4e0 f   libeay32_EM.0.9.8e:v3_purp.obj
 0001:0002c540       _check_purpose_smime_encrypt 1002d540 f   libeay32_EM.0.9.8e:v3_purp.obj
 0001:0002c5a0       _check_purpose_crl_sign    1002d5a0 f   libeay32_EM.0.9.8e:v3_purp.obj
 0001:0002c5e0       _ocsp_helper               1002d5e0 f   libeay32_EM.0.9.8e:v3_purp.obj
 0001:0002c600       _i2r_ocsp_nocheck          1002d600 f   libeay32_EM.0.9.8e:v3_purp.obj
 0001:0002c600       _no_check                  1002d600 f   libeay32_EM.0.9.8e:v3_purp.obj
 0001:0002c600       _null_init_key             1002d600 f   libeay32_EM.0.9.8e:v3_purp.obj
 0001:0002c980       _check_pem                 1002d980 f   libeay32_EM.0.9.8e:pem_lib.obj
 0001:0002cd20       _load_iv                   1002dd20 f   libeay32_EM.0.9.8e:pem_lib.obj
 0001:0002dd00       _sha256_block              1002ed00 f   libeay32_EM.0.9.8e:sha256.obj
 0001:0002fd40       _sha512_block              10030d40 f   libeay32_EM.0.9.8e:sha512.obj
 0001:0003e4d0       _bn_new                    1003f4d0 f   libeay32_EM.0.9.8e:x_bignum.obj
 0001:0003e4f0       _bn_free                   1003f4f0 f   libeay32_EM.0.9.8e:x_bignum.obj
 0001:0003e530       _bn_i2c                    1003f530 f   libeay32_EM.0.9.8e:x_bignum.obj
 0001:0003e590       _bn_c2i                    1003f590 f   libeay32_EM.0.9.8e:x_bignum.obj
 0001:0003e620       _long_new                  1003f620 f   libeay32_EM.0.9.8e:x_long.obj
 0001:0003e640       _long_free                 1003f640 f   libeay32_EM.0.9.8e:x_long.obj
 0001:0003e650       _long_i2c                  1003f650 f   libeay32_EM.0.9.8e:x_long.obj
 0001:0003e6e0       _long_c2i                  1003f6e0 f   libeay32_EM.0.9.8e:x_long.obj
 0001:0003fd70       _doapr_outch               10040d70 f   libeay32_EM.0.9.8e:b_print.obj
 0001:0003fe10       _fmtstr                    10040e10 f   libeay32_EM.0.9.8e:b_print.obj
 0001:0003fef0       _fmtint                    10040ef0 f   libeay32_EM.0.9.8e:b_print.obj
 0001:000401b0       _fmtfp                     100411b0 f   libeay32_EM.0.9.8e:b_print.obj
 0001:00040510       __dopr                     10041510 f   libeay32_EM.0.9.8e:b_print.obj
 0001:00042220       _ECDSA_DATA_new_method     10043220 f   libeay32_EM.0.9.8e:ecs_lib.obj
 0001:000422e0       _ecdsa_data_dup            100432e0 f   libeay32_EM.0.9.8e:ecs_lib.obj
 0001:00042300       _ecdsa_data_free           10043300 f   libeay32_EM.0.9.8e:ecs_lib.obj
 0001:00042f70       _nsseq_cb                  10043f70 f   libeay32_EM.0.9.8e:nsseq.obj
 0001:00042fa0       _dh_cb                     10043fa0 f   libeay32_EM.0.9.8e:dh_asn1.obj
 0001:00043d30       _doall_util_fn             10044d30 f   libeay32_EM.0.9.8e:lhash.obj
 0001:00043e00       _expand                    10044e00 f   libeay32_EM.0.9.8e:lhash.obj
 0001:00043ee0       _contract                  10044ee0 f   libeay32_EM.0.9.8e:lhash.obj
 0001:00043f70       _getrn                     10044f70 f   libeay32_EM.0.9.8e:lhash.obj
 0001:00044400       _app_info_cmp              10045400 f   libeay32_EM.0.9.8e:mem_dbg.obj
 0001:00044420       _app_info_hash             10045420 f   libeay32_EM.0.9.8e:mem_dbg.obj
 0001:00044450       _pop_info                  10045450 f   libeay32_EM.0.9.8e:mem_dbg.obj
 0001:00044840       _trust_compat              10045840 f   libeay32_EM.0.9.8e:x509_trs.obj
 0001:00044870       _obj_trust                 10045870 f   libeay32_EM.0.9.8e:x509_trs.obj
 0001:000449b0       _trust_1oidany             100459b0 f   libeay32_EM.0.9.8e:x509_trs.obj
 0001:00044a00       _trust_1oid                10045a00 f   libeay32_EM.0.9.8e:x509_trs.obj
 0001:00044a30       _tree_link_nodes           10045a30 f   libeay32_EM.0.9.8e:pcy_tree.obj
 0001:00044ac0       _tree_link_any             10045ac0 f   libeay32_EM.0.9.8e:pcy_tree.obj
 0001:00044b80       _tree_prune                10045b80 f   libeay32_EM.0.9.8e:pcy_tree.obj
 0001:00044c60       _tree_calculate_authority_set 10045c60 f   libeay32_EM.0.9.8e:pcy_tree.obj
 0001:00044dc0       _tree_calculate_user_set   10045dc0 f   libeay32_EM.0.9.8e:pcy_tree.obj
 0001:00044f10       _tree_evaluate             10045f10 f   libeay32_EM.0.9.8e:pcy_tree.obj
 0001:00044f80       _exnode_free               10045f80 f   libeay32_EM.0.9.8e:pcy_tree.obj
 0001:00045040       _tree_init                 10046040 f   libeay32_EM.0.9.8e:pcy_tree.obj
 0001:00045b50       _table_cmp                 10046b50 f   libeay32_EM.0.9.8e:x509_vpm.obj
 0001:00045cf0       _ssleay_rand_cleanup       10046cf0 f   libeay32_EM.0.9.8e:md_rand.obj
 0001:00045d40       _ssleay_rand_add           10046d40 f   libeay32_EM.0.9.8e:md_rand.obj
 0001:000460a0       _ssleay_rand_seed          100470a0 f   libeay32_EM.0.9.8e:md_rand.obj
 0001:000460d0       _ssleay_rand_bytes         100470d0 f   libeay32_EM.0.9.8e:md_rand.obj
 0001:00046520       _ssleay_rand_pseudo_bytes  10047520 f   libeay32_EM.0.9.8e:md_rand.obj
 0001:00046570       _ssleay_rand_status        10047570 f   libeay32_EM.0.9.8e:md_rand.obj
 0001:00047900       _md2_block                 10048900 f   libeay32_EM.0.9.8e:md2_dgst.obj
 0001:00048fe0       _inverse                   10049fe0 f   libeay32_EM.0.9.8e:i_skey.obj
 0001:0004a4b0       _mdc2_body                 1004b4b0 f   libeay32_EM.0.9.8e:mdc2dgst.obj
 0001:0004d190       _new_dir                   1004e190 f   libeay32_EM.0.9.8e:by_dir.obj
 0001:0004d1f0       _free_dir                  1004e1f0 f   libeay32_EM.0.9.8e:by_dir.obj
 0001:0004d260       _add_cert_dir              1004e260 f   libeay32_EM.0.9.8e:by_dir.obj
 0001:0004d470       _get_cert_by_subject       1004e470 f   libeay32_EM.0.9.8e:by_dir.obj
 0001:0004d710       _dir_ctrl                  1004e710 f   libeay32_EM.0.9.8e:by_dir.obj
 0001:0004dbf0       _by_file_ctrl              1004ebf0 f   libeay32_EM.0.9.8e:by_file.obj
 0001:0004ec80       _parse_tagging             1004fc80 f   libeay32_EM.0.9.8e:asn1_gen.obj
 0001:0004edd0       _append_exp                1004fdd0 f   libeay32_EM.0.9.8e:asn1_gen.obj
 0001:0004eea0       _asn1_str2tag              1004fea0 f   libeay32_EM.0.9.8e:asn1_gen.obj
 0001:0004ef20       _bitstr_cb                 1004ff20 f   libeay32_EM.0.9.8e:asn1_gen.obj
 0001:0004efc0       _asn1_cb                   1004ffc0 f   libeay32_EM.0.9.8e:asn1_gen.obj
 0001:0004f290       _asn1_str2type             10050290 f   libeay32_EM.0.9.8e:asn1_gen.obj
 0001:0004f9c0       _asn1_multi                100509c0 f   libeay32_EM.0.9.8e:asn1_gen.obj
 0001:00050280       _strip_spaces              10051280 f   libeay32_EM.0.9.8e:v3_utl.obj
 0001:000505c0       _ipv4_from_asc             100515c0 f   libeay32_EM.0.9.8e:v3_utl.obj
 0001:00050650       _ipv6_hex                  10051650 f   libeay32_EM.0.9.8e:v3_utl.obj
 0001:00050920       _ipv6_cb                   10051920 f   libeay32_EM.0.9.8e:v3_utl.obj
 0001:000509b0       _ipv6_from_asc             100519b0 f   libeay32_EM.0.9.8e:v3_utl.obj
 0001:00050ce0       _b64_new                   10051ce0 f   libeay32_EM.0.9.8e:bio_b64.obj
 0001:00050d30       _b64_free                  10051d30 f   libeay32_EM.0.9.8e:bio_b64.obj
 0001:00050d70       _b64_read                  10051d70 f   libeay32_EM.0.9.8e:bio_b64.obj
 0001:00051140       _b64_write                 10052140 f   libeay32_EM.0.9.8e:bio_b64.obj
 0001:00051340       _b64_ctrl                  10052340 f   libeay32_EM.0.9.8e:bio_b64.obj
 0001:00051cb0       _witness                   10052cb0 f   libeay32_EM.0.9.8e:bn_prime.obj
 0001:00051d50       _probable_prime            10052d50 f   libeay32_EM.0.9.8e:bn_prime.obj
 0001:00051e00       _probable_prime_dh         10052e00 f   libeay32_EM.0.9.8e:bn_prime.obj
 0001:00051f00       _probable_prime_dh_safe    10052f00 f   libeay32_EM.0.9.8e:bn_prime.obj
 0001:00052700       _send_bio_chars            10053700 f   libeay32_EM.0.9.8e:a_strex.obj
 0001:00052730       _do_esc_char               10053730 f   libeay32_EM.0.9.8e:a_strex.obj
 0001:000528c0       _do_buf                    100538c0 f   libeay32_EM.0.9.8e:a_strex.obj
 0001:00052ac0       _do_hex_dump               10053ac0 f   libeay32_EM.0.9.8e:a_strex.obj
 0001:00052b30       _do_dump                   10053b30 f   libeay32_EM.0.9.8e:a_strex.obj
 0001:00052c00       _do_print_ex               10053c00 f   libeay32_EM.0.9.8e:a_strex.obj
 0001:00052d90       _do_indent                 10053d90 f   libeay32_EM.0.9.8e:a_strex.obj
 0001:00052dd0       _do_name_ex                10053dd0 f   libeay32_EM.0.9.8e:a_strex.obj
 0001:00054130       _s2i_asn1_int              10055130 f   libeay32_EM.0.9.8e:v3_int.obj
 0001:00054190       _i2v_POLICY_MAPPINGS       10055190 f   libeay32_EM.0.9.8e:v3_pmaps.obj
 0001:00054240       _v2i_POLICY_MAPPINGS       10055240 f   libeay32_EM.0.9.8e:v3_pmaps.obj
 0001:00054400       _v2i_NAME_CONSTRAINTS      10055400 f   libeay32_EM.0.9.8e:v3_ncons.obj
 0001:000545a0       _print_nc_ipadd            100555a0 f   libeay32_EM.0.9.8e:v3_ncons.obj
 0001:00054660       _do_i2r_name_constraints   10055660 f   libeay32_EM.0.9.8e:v3_ncons.obj
 0001:00054720       _i2r_NAME_CONSTRAINTS      10055720 f   libeay32_EM.0.9.8e:v3_ncons.obj
 0001:00054760       _i2r_pci                   10055760 f   libeay32_EM.0.9.8e:v3_pci.obj
 0001:00054810       _process_pci_value         10055810 f   libeay32_EM.0.9.8e:v3_pci.obj
 0001:00054c50       _r2i_pci                   10055c50 f   libeay32_EM.0.9.8e:v3_pci.obj
 0001:00054f20       _i2r_ocsp_crlid            10055f20 f   libeay32_EM.0.9.8e:v3_ocsp.obj
 0001:00055020       _i2r_ocsp_acutoff          10056020 f   libeay32_EM.0.9.8e:v3_ocsp.obj
 0001:00055060       _i2r_object                10056060 f   libeay32_EM.0.9.8e:v3_ocsp.obj
 0001:000550a0       _ocsp_nonce_new            100560a0 f   libeay32_EM.0.9.8e:v3_ocsp.obj
 0001:000550b0       _i2d_ocsp_nonce            100560b0 f   libeay32_EM.0.9.8e:v3_ocsp.obj
 0001:000550f0       _d2i_ocsp_nonce            100560f0 f   libeay32_EM.0.9.8e:v3_ocsp.obj
 0001:00055170       _ocsp_nonce_free           10056170 f   libeay32_EM.0.9.8e:v3_ocsp.obj
 0001:00055180       _i2r_ocsp_nonce            10056180 f   libeay32_EM.0.9.8e:v3_ocsp.obj
 0001:000551c0       _s2i_ocsp_nocheck          100561c0 f   libeay32_EM.0.9.8e:v3_ocsp.obj
 0001:000551d0       _i2r_ocsp_serviceloc       100561d0 f   libeay32_EM.0.9.8e:v3_ocsp.obj
 0001:000552e0       _i2v_POLICY_CONSTRAINTS    100562e0 f   libeay32_EM.0.9.8e:v3_pcons.obj
 0001:00055320       _v2i_POLICY_CONSTRAINTS    10056320 f   libeay32_EM.0.9.8e:v3_pcons.obj
 0001:000554b0       _i2v_AUTHORITY_INFO_ACCESS 100564b0 f   libeay32_EM.0.9.8e:v3_info.obj
 0001:00055630       _v2i_AUTHORITY_INFO_ACCESS 10056630 f   libeay32_EM.0.9.8e:v3_info.obj
 0001:00055820       _i2v_EXTENDED_KEY_USAGE    10056820 f   libeay32_EM.0.9.8e:v3_extku.obj
 0001:000558a0       _v2i_EXTENDED_KEY_USAGE    100568a0 f   libeay32_EM.0.9.8e:v3_extku.obj
 0001:00055990       _sxnet_i2r                 10056990 f   libeay32_EM.0.9.8e:v3_sxnet.obj
 0001:00055c30       _sxnet_v2i                 10056c30 f   libeay32_EM.0.9.8e:v3_sxnet.obj
 0001:00055d20       _i2v_crld                  10056d20 f   libeay32_EM.0.9.8e:v3_crld.obj
 0001:00055e30       _v2i_crld                  10056e30 f   libeay32_EM.0.9.8e:v3_crld.obj
 0001:00055f70       _i2v_AUTHORITY_KEYID       10056f70 f   libeay32_EM.0.9.8e:v3_akey.obj
 0001:00056000       _v2i_AUTHORITY_KEYID       10057000 f   libeay32_EM.0.9.8e:v3_akey.obj
 0001:000562e0       _POLICYQUALINFO_adb        100572e0 f   libeay32_EM.0.9.8e:v3_cpols.obj
 0001:00056340       _nref_nos                  10057340 f   libeay32_EM.0.9.8e:v3_cpols.obj
 0001:000563d0       _print_notice              100573d0 f   libeay32_EM.0.9.8e:v3_cpols.obj
 0001:000564d0       _notice_section            100574d0 f   libeay32_EM.0.9.8e:v3_cpols.obj
 0001:00056760       _print_qualifiers          10057760 f   libeay32_EM.0.9.8e:v3_cpols.obj
 0001:00056830       _policy_section            10057830 f   libeay32_EM.0.9.8e:v3_cpols.obj
 0001:00056ab0       _i2r_certpol               10057ab0 f   libeay32_EM.0.9.8e:v3_cpols.obj
 0001:00056b40       _r2i_certpol               10057b40 f   libeay32_EM.0.9.8e:v3_cpols.obj
 0001:00056d80       _i2v_BASIC_CONSTRAINTS     10057d80 f   libeay32_EM.0.9.8e:v3_bcons.obj
 0001:00056dc0       _v2i_BASIC_CONSTRAINTS     10057dc0 f   libeay32_EM.0.9.8e:v3_bcons.obj
 0001:00057350       _copy_issuer               10058350 f   libeay32_EM.0.9.8e:v3_alt.obj
 0001:00057440       _copy_email                10058440 f   libeay32_EM.0.9.8e:v3_alt.obj
 0001:00057560       _do_othername              10058560 f   libeay32_EM.0.9.8e:v3_alt.obj
 0001:00057600       _do_dirname                10058600 f   libeay32_EM.0.9.8e:v3_alt.obj
 0001:000579b0       _v2i_issuer_alt            100589b0 f   libeay32_EM.0.9.8e:v3_alt.obj
 0001:00057ac0       _v2i_subject_alt           10058ac0 f   libeay32_EM.0.9.8e:v3_alt.obj
 0001:00057c20       _i2r_PKEY_USAGE_PERIOD     10058c20 f   libeay32_EM.0.9.8e:v3_pku.obj
 0001:00057f30       _s2i_skey_id               10058f30 f   libeay32_EM.0.9.8e:v3_skey.obj
 0001:00058090       _i2s_ASN1_IA5STRING        10059090 f   libeay32_EM.0.9.8e:v3_ia5.obj
 0001:00058100       _s2i_ASN1_IA5STRING        10059100 f   libeay32_EM.0.9.8e:v3_ia5.obj
 0001:00058180       _obj_name_cmp              10059180 f   libeay32_EM.0.9.8e:o_names.obj
 0001:00058200       _obj_name_hash             10059200 f   libeay32_EM.0.9.8e:o_names.obj
 0001:00058300       _names_lh_free_LHASH_DOALL 10059300 f   libeay32_EM.0.9.8e:o_names.obj
 0001:00058330       _def_cleanup_util_cb       10059330 f   libeay32_EM.0.9.8e:o_names.obj
 0001:00058330       _name_funcs_free           10059330 f   libeay32_EM.0.9.8e:o_names.obj
 0001:000586f0       _pbe_cmp                   100596f0 f   libeay32_EM.0.9.8e:evp_pbe.obj
 0001:000586f0       _sk_comp_cmp               100596f0 f   libeay32_EM.0.9.8e:evp_pbe.obj
 0001:000586f0       _ext_cmp                   100596f0 f   libeay32_EM.0.9.8e:evp_pbe.obj
 0001:00058a20       _get_ip                    10059a20 f   libeay32_EM.0.9.8e:b_sock.obj
 0001:00059470       _MOD_EXP_CTIME_COPY_TO_PREBUF 1005a470 f   libeay32_EM.0.9.8e:bn_exp.obj
 0001:00059500       _MOD_EXP_CTIME_COPY_FROM_PREBUF 1005a500 f   libeay32_EM.0.9.8e:bn_exp.obj
 0001:0005b6a0       _bnrand                    1005c6a0 f   libeay32_EM.0.9.8e:bn_rand.obj
 0001:0005b8b0       _bn_rand_range             1005c8b0 f   libeay32_EM.0.9.8e:bn_rand.obj
 0001:0005d1f0       _ec_group_new_from_data    1005e1f0 f   libeay32_EM.0.9.8e:ec_curve.obj
 0001:0005d660       _ref_cmp                   1005e660 f   libeay32_EM.0.9.8e:pcy_map.obj
 0001:0005d680       _policy_map_free           1005e680 f   libeay32_EM.0.9.8e:pcy_map.obj
 0001:0005d8c0       _dsa_do_sign               1005e8c0 f   libeay32_EM.0.9.8e:dsa_ossl.obj
 0001:0005dad0       _dsa_sign_setup            1005ead0 f   libeay32_EM.0.9.8e:dsa_ossl.obj
 0001:0005dd50       _dsa_do_verify             1005ed50 f   libeay32_EM.0.9.8e:dsa_ossl.obj
 0001:0005e010       _dsa_init                  1005f010 f   libeay32_EM.0.9.8e:dsa_ossl.obj
 0001:0005e020       _dsa_finish                1005f020 f   libeay32_EM.0.9.8e:dsa_ossl.obj
 0001:000613f0       _ec_pre_comp_dup           100623f0 f   libeay32_EM.0.9.8e:ec_mult.obj
 0001:00061410       _ec_pre_comp_free          10062410 f   libeay32_EM.0.9.8e:ec_mult.obj
 0001:00061470       _ec_pre_comp_clear_free    10062470 f   libeay32_EM.0.9.8e:ec_mult.obj
 0001:000614f0       _compute_wNAF              100624f0 f   libeay32_EM.0.9.8e:ec_mult.obj
 0001:00062520       _ecdsa_sign_setup          10063520 f   libeay32_EM.0.9.8e:ecs_ossl.obj
 0001:00062800       _ecdsa_do_sign             10063800 f   libeay32_EM.0.9.8e:ecs_ossl.obj
 0001:00062ae0       _ecdsa_do_verify           10063ae0 f   libeay32_EM.0.9.8e:ecs_ossl.obj
 0001:00062e90       _generate_key              10063e90 f   libeay32_EM.0.9.8e:dh_key.obj
 0001:00063020       _compute_key               10064020 f   libeay32_EM.0.9.8e:dh_key.obj
 0001:00063170       _dh_bn_mod_exp             10064170 f   libeay32_EM.0.9.8e:dh_key.obj
 0001:000631d0       _dh_init                   100641d0 f   libeay32_EM.0.9.8e:dh_key.obj
 0001:000631e0       _dh_finish                 100641e0 f   libeay32_EM.0.9.8e:dh_key.obj
 0001:00063210       _node_cmp                  10064210 f   libeay32_EM.0.9.8e:pcy_node.obj
 0001:000641b0       _def_create                100651b0 f   libeay32_EM.0.9.8e:conf_def.obj
 0001:000641f0       _def_init_default          100651f0 f   libeay32_EM.0.9.8e:conf_def.obj
 0001:00064220       _def_init_WIN32            10065220 f   libeay32_EM.0.9.8e:conf_def.obj
 0001:00064250       _def_destroy_data          10065250 f   libeay32_EM.0.9.8e:conf_def.obj
 0001:00064270       _str_copy                  10065270 f   libeay32_EM.0.9.8e:conf_def.obj
 0001:00064610       _eat_ws                    10065610 f   libeay32_EM.0.9.8e:conf_def.obj
 0001:00064640       _eat_alpha_numeric         10065640 f   libeay32_EM.0.9.8e:conf_def.obj
 0001:00064680       _scan_quote                10065680 f   libeay32_EM.0.9.8e:conf_def.obj
 0001:000646e0       _scan_dquote               100656e0 f   libeay32_EM.0.9.8e:conf_def.obj
 0001:00064730       _dump_value_LHASH_DOALL_ARG 10065730 f   libeay32_EM.0.9.8e:conf_def.obj
 0001:00064770       _def_dump                  10065770 f   libeay32_EM.0.9.8e:conf_def.obj
 0001:00064790       _def_is_number             10065790 f   libeay32_EM.0.9.8e:conf_def.obj
 0001:000647b0       _def_to_int                100657b0 f   libeay32_EM.0.9.8e:conf_def.obj
 0001:000647c0       _def_destroy               100657c0 f   libeay32_EM.0.9.8e:conf_def.obj
 0001:000647f0       _clear_comments            100657f0 f   libeay32_EM.0.9.8e:conf_def.obj
 0001:00064890       _def_load_bio              10065890 f   libeay32_EM.0.9.8e:conf_def.obj
 0001:00064e80       _def_load                  10065e80 f   libeay32_EM.0.9.8e:conf_def.obj
 0001:000650c0       _value_free_stack          100660c0 f   libeay32_EM.0.9.8e:conf_api.obj
 0001:00065130       _hash                      10066130 f   libeay32_EM.0.9.8e:conf_api.obj
 0001:00065160       _cmp_conf                  10066160 f   libeay32_EM.0.9.8e:conf_api.obj
 0001:000652a0       _value_free_hash_LHASH_DOALL_ARG 100662a0 f   libeay32_EM.0.9.8e:conf_api.obj
 0001:000652c0       _value_free_stack_LHASH_DOALL_ARG 100662c0 f   libeay32_EM.0.9.8e:conf_api.obj
 0001:000666d0       _camellia_128_ecb_cipher   100676d0 f   libeay32_EM.0.9.8e:e_camellia.obj
 0001:000666d0       _camellia_256_ecb_cipher   100676d0 f   libeay32_EM.0.9.8e:e_camellia.obj
 0001:000666d0       _camellia_192_ecb_cipher   100676d0 f   libeay32_EM.0.9.8e:e_camellia.obj
 0001:00066730       _camellia_128_ofb_cipher   10067730 f   libeay32_EM.0.9.8e:e_camellia.obj
 0001:00066730       _camellia_192_ofb_cipher   10067730 f   libeay32_EM.0.9.8e:e_camellia.obj
 0001:00066730       _camellia_256_ofb_cipher   10067730 f   libeay32_EM.0.9.8e:e_camellia.obj
 0001:000667a0       _camellia_128_cfb128_cipher 100677a0 f   libeay32_EM.0.9.8e:e_camellia.obj
 0001:000667a0       _camellia_256_cfb128_cipher 100677a0 f   libeay32_EM.0.9.8e:e_camellia.obj
 0001:000667a0       _camellia_192_cfb128_cipher 100677a0 f   libeay32_EM.0.9.8e:e_camellia.obj
 0001:00066820       _camellia_192_cbc_cipher   10067820 f   libeay32_EM.0.9.8e:e_camellia.obj
 0001:00066820       _camellia_256_cbc_cipher   10067820 f   libeay32_EM.0.9.8e:e_camellia.obj
 0001:00066820       _camellia_128_cbc_cipher   10067820 f   libeay32_EM.0.9.8e:e_camellia.obj
 0001:000668b0       _camellia_128_cfb1_cipher  100678b0 f   libeay32_EM.0.9.8e:e_camellia.obj
 0001:000668b0       _camellia_256_cfb1_cipher  100678b0 f   libeay32_EM.0.9.8e:e_camellia.obj
 0001:000668b0       _camellia_192_cfb1_cipher  100678b0 f   libeay32_EM.0.9.8e:e_camellia.obj
 0001:00066910       _camellia_128_cfb8_cipher  10067910 f   libeay32_EM.0.9.8e:e_camellia.obj
 0001:00066910       _camellia_192_cfb8_cipher  10067910 f   libeay32_EM.0.9.8e:e_camellia.obj
 0001:00066910       _camellia_256_cfb8_cipher  10067910 f   libeay32_EM.0.9.8e:e_camellia.obj
 0001:00066970       _camellia_init_key         10067970 f   libeay32_EM.0.9.8e:e_camellia.obj
 0001:00068c00       _gf2m_Mdouble              10069c00 f   libeay32_EM.0.9.8e:ec2_mult.obj
 0001:00068cf0       _gf2m_Madd                 10069cf0 f   libeay32_EM.0.9.8e:ec2_mult.obj
 0001:00068e10       _gf2m_Mxy                  10069e10 f   libeay32_EM.0.9.8e:ec2_mult.obj
 0001:000690e0       _ec_GF2m_montgomery_point_multiply 1006a0e0 f   libeay32_EM.0.9.8e:ec2_mult.obj
 0001:000695e0       _bn_GF2m_mul_1x1           1006a5e0 f   libeay32_EM.0.9.8e:bn_gf2m.obj
 0001:0006aa20       _free_string               1006ba20 f   libeay32_EM.0.9.8e:ui_lib.obj
 0001:0006aaa0       _general_allocate_prompt   1006baa0 f   libeay32_EM.0.9.8e:ui_lib.obj
 0001:0006ab30       _general_allocate_string   1006bb30 f   libeay32_EM.0.9.8e:ui_lib.obj
 0001:0006ac30       _print_error               1006bc30 f   libeay32_EM.0.9.8e:ui_lib.obj
 0001:0006fa60       _nist_cp_bn_0              10070a60 f   libeay32_EM.0.9.8e:bn_nist.obj
 0001:0006ff80       __init_256_data            10070f80 f   libeay32_EM.0.9.8e:bn_nist.obj
 0001:00070480       __init_384_data            10071480 f   libeay32_EM.0.9.8e:bn_nist.obj
 0001:00070b80       _write_string              10071b80 f   libeay32_EM.0.9.8e:ui_openssl.obj
 0001:00070bd0       _read_till_nl              10071bd0 f   libeay32_EM.0.9.8e:ui_openssl.obj
 0001:00070c20       _open_console              10071c20 f   libeay32_EM.0.9.8e:ui_openssl.obj
 0001:00070ca0       _close_console             10071ca0 f   libeay32_EM.0.9.8e:ui_openssl.obj
 0001:00070d00       _popsig                    10071d00 f   libeay32_EM.0.9.8e:ui_openssl.obj
 0001:00070d50       _recsig                    10071d50 f   libeay32_EM.0.9.8e:ui_openssl.obj
 0001:00070d60       _noecho_fgets              10071d60 f   libeay32_EM.0.9.8e:ui_openssl.obj
 0001:00070dc0       _pushsig                   10071dc0 f   libeay32_EM.0.9.8e:ui_openssl.obj
 0001:00070e20       _read_string_inner         10071e20 f   libeay32_EM.0.9.8e:ui_openssl.obj
 0001:00070f70       _read_string               10071f70 f   libeay32_EM.0.9.8e:ui_openssl.obj
 0001:00077250       _win32_load                10078250 f   libeay32_EM.0.9.8e:dso_win32.obj
 0001:00077350       _win32_unload              10078350 f   libeay32_EM.0.9.8e:dso_win32.obj
 0001:00077410       _win32_bind_var            10078410 f   libeay32_EM.0.9.8e:dso_win32.obj
 0001:000774f0       _win32_bind_func           100784f0 f   libeay32_EM.0.9.8e:dso_win32.obj
 0001:000775d0       _win32_splitter            100785d0 f   libeay32_EM.0.9.8e:dso_win32.obj
 0001:000777f0       _win32_name_converter      100787f0 f   libeay32_EM.0.9.8e:dso_win32.obj
 0001:000778c0       _win32_joiner              100788c0 f   libeay32_EM.0.9.8e:dso_win32.obj
 0001:00077b40       _win32_merger              10078b40 f   libeay32_EM.0.9.8e:dso_win32.obj
 0001:00078520       _SSL_SESSION_hash_LHASH_HASH 10079520 f   ssleay32_EM.0.9.8e:ssl_lib.obj
 0001:00078540       _SSL_SESSION_cmp_LHASH_COMP 10079540 f   ssleay32_EM.0.9.8e:ssl_lib.obj
 0001:00079990       _ssl_set_pkey              1007a990 f   ssleay32_EM.0.9.8e:ssl_rsa.obj
 0001:00079af0       _ssl_set_cert              1007aaf0 f   ssleay32_EM.0.9.8e:ssl_rsa.obj
 0001:00079fe0       _ssl3_get_method           1007afe0 f   ssleay32_EM.0.9.8e:s3_meth.obj
 0001:0007a0f0       _load_builtin_compressions 1007b0f0 f   ssleay32_EM.0.9.8e:ssl_ciph.obj
 0001:0007a520       _ssl_cipher_collect_ciphers 1007b520 f   ssleay32_EM.0.9.8e:ssl_ciph.obj
 0001:0007a5e0       _ssl_cipher_collect_aliases 1007b5e0 f   ssleay32_EM.0.9.8e:ssl_ciph.obj
 0001:0007a620       _ssl_cipher_apply_rule     1007b620 f   ssleay32_EM.0.9.8e:ssl_ciph.obj
 0001:0007a800       _ssl_cipher_strength_sort  1007b800 f   ssleay32_EM.0.9.8e:ssl_ciph.obj
 0001:0007a8e0       _ssl_cipher_process_rulestr 1007b8e0 f   ssleay32_EM.0.9.8e:ssl_ciph.obj
 0001:0007b6e0       _def_generate_session_id   1007c6e0 f   ssleay32_EM.0.9.8e:ssl_sess.obj
 0001:0007b800       _SSL_SESSION_list_remove   1007c800 f   ssleay32_EM.0.9.8e:ssl_sess.obj
 0001:0007b890       _SSL_SESSION_list_add      1007c890 f   ssleay32_EM.0.9.8e:ssl_sess.obj
 0001:0007baf0       _remove_session_lock       1007caf0 f   ssleay32_EM.0.9.8e:ssl_sess.obj
 0001:0007bba0       _timeout                   1007cba0 f   ssleay32_EM.0.9.8e:ssl_sess.obj
 0001:0007bc00       _timeout_LHASH_DOALL_ARG   1007cc00 f   ssleay32_EM.0.9.8e:ssl_sess.obj
 0001:0007d910       _ssl3_read_internal        1007e910 f   ssleay32_EM.0.9.8e:s3_lib.obj
 0001:0007de80       _ssl3_get_record           1007ee80 f   ssleay32_EM.0.9.8e:s3_pkt.obj
 0001:0007e2c0       _do_ssl3_write             1007f2c0 f   ssleay32_EM.0.9.8e:s3_pkt.obj
 0001:0007f320       _ssl3_get_client_method    10080320 f   ssleay32_EM.0.9.8e:s3_clnt.obj
 0001:0007fe10       _ca_dn_cmp                 10080e10 f   ssleay32_EM.0.9.8e:s3_clnt.obj
 0001:00081f80       _ssl3_get_server_method    10082f80 f   ssleay32_EM.0.9.8e:s3_srvr.obj
 0001:00083880       _nid2curve_id              10084880 f   ssleay32_EM.0.9.8e:s3_srvr.obj
 0001:00084c30       _ssl3_generate_key_block   10085c30 f   ssleay32_EM.0.9.8e:s3_enc.obj
 0001:000854d0       _ssl3_handshake_mac        100864d0 f   ssleay32_EM.0.9.8e:s3_enc.obj
 0001:00085e2e       _pre_c_init                10086e2e f   MSVCRT:crtdll.obj
 0001:0008603e       ___DllMainCRTStartup       1008703e f   MSVCRT:crtdll.obj
 0001:00086918       _has_osfxsr_set            10087918 f   MSVCRT:cpu_disp.obj
 0001:00086b30       _null_cipher               10087b30 f   libeay32_EM.0.9.8e:e_null.obj
 0001:00086c70       _ECDH_DATA_new_method      10087c70 f   libeay32_EM.0.9.8e:ech_lib.obj
 0001:00086d30       _ecdh_data_dup             10087d30 f   libeay32_EM.0.9.8e:ech_lib.obj
 0001:00086d50       _ecdh_data_free            10087d50 f   libeay32_EM.0.9.8e:ech_lib.obj
 0001:00086e00       _ecdh_compute_key          10087e00 f   libeay32_EM.0.9.8e:ech_ossl.obj
 0001:000870f0       __unwindfunclet$??0CSSL_parms@@QAE@XZ$0 100880f0 f    CIL library: CIL module
 0001:000870fc       __unwindfunclet$??0CSSL_parms@@QAE@XZ$1 100880fc f    CIL library: CIL module
 0001:00087108       __unwindfunclet$??0CSSL_parms@@QAE@XZ$2 10088108 f    CIL library: CIL module
 0001:00087114       __unwindfunclet$??0CSSL_parms@@QAE@XZ$3 10088114 f    CIL library: CIL module
 0001:00087120       __ehhandler$??0CSSL_parms@@QAE@XZ 10088120 f    CIL library: CIL module
 0001:00087140       __unwindfunclet$?formCadena@CConfigFile@@AAE_NV?$basic_string@DU?$char_traits@D@std@@V?$allocator@D@2@@std@@PAV23@@Z$0 10088140 f    CIL library: CIL module
 0001:00087149       __ehhandler$?formCadena@CConfigFile@@AAE_NV?$basic_string@DU?$char_traits@D@std@@V?$allocator@D@2@@std@@PAV23@@Z 10088149 f    CIL library: CIL module
 0001:00087180       __unwindfunclet$??1sentry@?$basic_ostream@DU?$char_traits@D@std@@@std@@QAE@XZ$0 10088180 f    CIL library: CIL module
 0001:00087180       __unwindfunclet$??0sentry@?$basic_ostream@DU?$char_traits@D@std@@@std@@QAE@AAV12@@Z$0 10088180 f    CIL library: CIL module
 0001:00087188       __ehhandler$??1sentry@?$basic_ostream@DU?$char_traits@D@std@@@std@@QAE@XZ 10088188 f    CIL library: CIL module
 0001:00087188       __ehhandler$??0sentry@?$basic_ostream@DU?$char_traits@D@std@@@std@@QAE@AAV12@@Z 10088188 f    CIL library: CIL module
 0001:000871b0       __unwindfunclet$??0CBitacora@@QAE@V?$basic_string@DU?$char_traits@D@std@@V?$allocator@D@2@@std@@@Z$0 100881b0 f    CIL library: CIL module
 0001:000871b9       __unwindfunclet$??0CBitacora@@QAE@V?$basic_string@DU?$char_traits@D@std@@V?$allocator@D@2@@std@@@Z$1 100881b9 f    CIL library: CIL module
 0001:000871c2       __ehhandler$??0CBitacora@@QAE@V?$basic_string@DU?$char_traits@D@std@@V?$allocator@D@2@@std@@@Z 100881c2 f    CIL library: CIL module
 0001:000871e0       __unwindfunclet$??1?$pair@$$CBV?$basic_string@DU?$char_traits@D@std@@V?$allocator@D@2@@std@@V12@@std@@QAE@XZ$0 100881e0 f    CIL library: CIL module
 0001:000871e9       __ehhandler$??1?$pair@$$CBV?$basic_string@DU?$char_traits@D@std@@V?$allocator@D@2@@std@@V12@@std@@QAE@XZ 100881e9 f    CIL library: CIL module
 0001:00087210       __unwindfunclet$??0CSSL_parms@@QAE@ABU0@@Z$0 10088210 f    CIL library: CIL module
 0001:00087210       __unwindfunclet$??1CSSL_parms@@QAE@XZ$0 10088210 f    CIL library: CIL module
 0001:0008721c       __unwindfunclet$??0CSSL_parms@@QAE@ABU0@@Z$1 1008821c f    CIL library: CIL module
 0001:0008721c       __unwindfunclet$??1CSSL_parms@@QAE@XZ$1 1008821c f    CIL library: CIL module
 0001:00087228       __unwindfunclet$??1CSSL_parms@@QAE@XZ$2 10088228 f    CIL library: CIL module
 0001:00087228       __unwindfunclet$??0CSSL_parms@@QAE@ABU0@@Z$2 10088228 f    CIL library: CIL module
 0001:00087234       __unwindfunclet$??1CSSL_parms@@QAE@XZ$3 10088234 f    CIL library: CIL module
 0001:00087234       __unwindfunclet$??0CSSL_parms@@QAE@ABU0@@Z$3 10088234 f    CIL library: CIL module
 0001:00087240       __ehhandler$??0CSSL_parms@@QAE@ABU0@@Z 10088240 f    CIL library: CIL module
 0001:00087240       __ehhandler$??1CSSL_parms@@QAE@XZ 10088240 f    CIL library: CIL module
 0001:00087260       __unwindfunclet$?Crea_Bitacora@CSgiARA@@IAEPAVCBitacora@@PBD@Z$0 10088260 f    CIL library: CIL module
 0001:0008726b       __ehhandler$?Crea_Bitacora@CSgiARA@@IAEPAVCBitacora@@PBD@Z 1008826b f    CIL library: CIL module
 0001:00087290       __unwindfunclet$??0logic_error@std@@QAE@ABV01@@Z$0 10088290 f    CIL library: CIL module
 0001:00087299       __ehhandler$??0logic_error@std@@QAE@ABV01@@Z 10088299 f    CIL library: CIL module
 0001:000872c0       __unwindfunclet$?new_SgiCripto@SgiCripto@@YAPAXXZ$0 100882c0 f    CIL library: CIL module
 0001:000872cb       __ehhandler$?new_SgiCripto@SgiCripto@@YAPAXXZ 100882cb f    CIL library: CIL module
 0001:000872f0       __unwindfunclet$?Set_CTX@Sgi_SSL@@CAIAAPAUssl_ctx_st@@_NUCSSL_parms@@@Z$0 100882f0 f    CIL library: CIL module
 0001:000872fa       __ehhandler$?Set_CTX@Sgi_SSL@@CAIAAPAUssl_ctx_st@@_NUCSSL_parms@@@Z 100882fa f    CIL library: CIL module
 0001:00087320       __unwindfunclet$??1Mensajes@@QAE@XZ$0 10088320 f    CIL library: CIL module
 0001:00087320       __unwindfunclet$??0Mensajes@@QAE@XZ$0 10088320 f    CIL library: CIL module
 0001:0008732b       __unwindfunclet$??1Mensajes@@QAE@XZ$1 1008832b f    CIL library: CIL module
 0001:0008732b       __unwindfunclet$??0Mensajes@@QAE@XZ$1 1008832b f    CIL library: CIL module
 0001:00087336       __unwindfunclet$??1Mensajes@@QAE@XZ$2 10088336 f    CIL library: CIL module
 0001:00087336       __unwindfunclet$??0Mensajes@@QAE@XZ$2 10088336 f    CIL library: CIL module
 0001:00087344       __ehhandler$??0Mensajes@@QAE@XZ 10088344 f    CIL library: CIL module
 0001:00087344       __ehhandler$??1Mensajes@@QAE@XZ 10088344 f    CIL library: CIL module
 0001:00087360       __unwindfunclet$??0_Node@?$_Tree_nod@V?$_Tmap_traits@V?$basic_string@DU?$char_traits@D@std@@V?$allocator@D@2@@std@@V12@U?$less@V?$basic_string@DU?$char_traits@D@std@@V?$allocator@D@2@@std@@@2@V?$allocator@U?$pair@$$CBV?$basic_string@DU?$char_traits@D@std@@V?$allocator@D@2@@std@@V12@@std@@@2@$00@std@@@std@@QAE@PAU012@00ABU?$pair@$$CBV?$basic_string@DU?$char_traits@D@std@@V?$allocator@D@2@@std@@V12@@2@D@Z$1 10088360 f    CIL library: CIL module
 0001:00087369       __ehhandler$??0_Node@?$_Tree_nod@V?$_Tmap_traits@V?$basic_string@DU?$char_traits@D@std@@V?$allocator@D@2@@std@@V12@U?$less@V?$basic_string@DU?$char_traits@D@std@@V?$allocator@D@2@@std@@@2@V?$allocator@U?$pair@$$CBV?$basic_string@DU?$char_traits@D@std@@V?$allocator@D@2@@std@@V12@@std@@@2@$00@std@@@std@@QAE@PAU012@00ABU?$pair@$$CBV?$basic_string@DU?$char_traits@D@std@@V?$allocator@D@2@@std@@V12@@2@D@Z 10088369 f    CIL library: CIL module
 0001:00087390       __unwindfunclet$?_Buynode@?$_Tree@V?$_Tmap_traits@V?$basic_string@DU?$char_traits@D@std@@V?$allocator@D@2@@std@@V12@U?$less@V?$basic_string@DU?$char_traits@D@std@@V?$allocator@D@2@@std@@@2@V?$allocator@U?$pair@$$CBV?$basic_string@DU?$char_traits@D@std@@V?$allocator@D@2@@std@@V12@@std@@@2@$00@std@@@std@@IAEPAU_Node@?$_Tree_nod@V?$_Tmap_traits@V?$basic_string@DU?$char_traits@D@std@@V?$allocator@D@2@@std@@V12@U?$less@V?$basic_string@DU?$char_traits@D@std@@V?$allocator@D@2@@std@@@2@V?$allocator@U?$pair@$$CBV?$basic_string@DU?$char_traits@D@std@@V?$allocator@D@2@@std@@V12@@std@@@2@$00@std@@@2@PAU342@00ABU?$pair@$$CBV?$basic_string@DU?$char_traits@D@std@@V?$allocator@D@2@@std@@V12@@2@D@Z$2 10088390 f    CIL library: CIL module
 0001:00087395       __ehhandler$?_Buynode@?$_Tree@V?$_Tmap_traits@V?$basic_string@DU?$char_traits@D@std@@V?$allocator@D@2@@std@@V12@U?$less@V?$basic_string@DU?$char_traits@D@std@@V?$allocator@D@2@@std@@@2@V?$allocator@U?$pair@$$CBV?$basic_string@DU?$char_traits@D@std@@V?$allocator@D@2@@std@@V12@@std@@@2@$00@std@@@std@@IAEPAU_Node@?$_Tree_nod@V?$_Tmap_traits@V?$basic_string@DU?$char_traits@D@std@@V?$allocator@D@2@@std@@V12@U?$less@V?$basic_string@DU?$char_traits@D@std@@V?$allocator@D@2@@std@@@2@V?$allocator@U?$pair@$$CBV?$basic_string@DU?$char_traits@D@std@@V?$allocator@D@2@@std@@V12@@std@@@2@$00@std@@@2@PAU342@00ABU?$pair@$$CBV?$basic_string@DU?$char_traits@D@std@@V?$allocator@D@2@@std@@V12@@2@D@Z 10088395 f    CIL library: CIL module
 0001:000873b0       __unwindfunclet$??$?6U?$char_traits@D@std@@@std@@YAAAV?$basic_ostream@DU?$char_traits@D@std@@@0@AAV10@PBD@Z$2 100883b0 f    CIL library: CIL module
 0001:000873ba       __unwindfunclet$??$?6U?$char_traits@D@std@@@std@@YAAAV?$basic_ostream@DU?$char_traits@D@std@@@0@AAV10@PBD@Z$3 100883ba f    CIL library: CIL module
 0001:000873c2       __ehhandler$??$?6U?$char_traits@D@std@@@std@@YAAAV?$basic_ostream@DU?$char_traits@D@std@@@0@AAV10@PBD@Z 100883c2 f    CIL library: CIL module
 0001:000873e0       __unwindfunclet$?escribe@CBitacora@@QAEXW4BIT_NIVEL@@PBD@Z$0 100883e0 f    CIL library: CIL module
 0001:000873ec       __ehhandler$?escribe@CBitacora@@QAEXW4BIT_NIVEL@@PBD@Z 100883ec f    CIL library: CIL module
 0001:00087420       __unwindfunclet$?Lee@CArchivo@@UAEIPBD@Z$0 10088420 f    CIL library: CIL module
 0001:0008742c       __ehhandler$?Lee@CArchivo@@UAEIPBD@Z 1008842c f    CIL library: CIL module
 0001:00087450       __unwindfunclet$?_Erase@?$_Tree@V?$_Tmap_traits@V?$basic_string@DU?$char_traits@D@std@@V?$allocator@D@2@@std@@V12@U?$less@V?$basic_string@DU?$char_traits@D@std@@V?$allocator@D@2@@std@@@2@V?$allocator@U?$pair@$$CBV?$basic_string@DU?$char_traits@D@std@@V?$allocator@D@2@@std@@V12@@std@@@2@$00@std@@@std@@IAEXPAU_Node@?$_Tree_nod@V?$_Tmap_traits@V?$basic_string@DU?$char_traits@D@std@@V?$allocator@D@2@@std@@V12@U?$less@V?$basic_string@DU?$char_traits@D@std@@V?$allocator@D@2@@std@@@2@V?$allocator@U?$pair@$$CBV?$basic_string@DU?$char_traits@D@std@@V?$allocator@D@2@@std@@V12@@std@@@2@$00@std@@@2@@Z$1 10088450 f    CIL library: CIL module
 0001:00087459       __ehhandler$?_Erase@?$_Tree@V?$_Tmap_traits@V?$basic_string@DU?$char_traits@D@std@@V?$allocator@D@2@@std@@V12@U?$less@V?$basic_string@DU?$char_traits@D@std@@V?$allocator@D@2@@std@@@2@V?$allocator@U?$pair@$$CBV?$basic_string@DU?$char_traits@D@std@@V?$allocator@D@2@@std@@V12@@std@@@2@$00@std@@@std@@IAEXPAU_Node@?$_Tree_nod@V?$_Tmap_traits@V?$basic_string@DU?$char_traits@D@std@@V?$allocator@D@2@@std@@V12@U?$less@V?$basic_string@DU?$char_traits@D@std@@V?$allocator@D@2@@std@@@2@V?$allocator@U?$pair@$$CBV?$basic_string@DU?$char_traits@D@std@@V?$allocator@D@2@@std@@V12@@std@@@2@$00@std@@@2@@Z 10088459 f    CIL library: CIL module
 0001:00087480       __unwindfunclet$??0CSgi_Certificado@SgiCripto@@QAE@XZ$0 10088480 f    CIL library: CIL module
 0001:00087480       __unwindfunclet$??1CSgi_Certificado@SgiCripto@@QAE@XZ$0 10088480 f    CIL library: CIL module
 0001:00087488       __unwindfunclet$??0CSgi_Certificado@SgiCripto@@QAE@XZ$1 10088488 f    CIL library: CIL module
 0001:00087488       __unwindfunclet$??1CSgi_Certificado@SgiCripto@@QAE@XZ$1 10088488 f    CIL library: CIL module
 0001:00087494       __unwindfunclet$??0CSgi_Certificado@SgiCripto@@QAE@XZ$2 10088494 f    CIL library: CIL module
 0001:00087494       __unwindfunclet$??1CSgi_Certificado@SgiCripto@@QAE@XZ$2 10088494 f    CIL library: CIL module
 0001:000874a0       __unwindfunclet$??0CSgi_Certificado@SgiCripto@@QAE@XZ$3 100884a0 f    CIL library: CIL module
 0001:000874a0       __unwindfunclet$??1CSgi_Certificado@SgiCripto@@QAE@XZ$3 100884a0 f    CIL library: CIL module
 0001:000874ac       __unwindfunclet$??0CSgi_Certificado@SgiCripto@@QAE@XZ$4 100884ac f    CIL library: CIL module
 0001:000874ac       __unwindfunclet$??1CSgi_Certificado@SgiCripto@@QAE@XZ$4 100884ac f    CIL library: CIL module
 0001:000874b8       __ehhandler$??0CSgi_Certificado@SgiCripto@@QAE@XZ 100884b8 f    CIL library: CIL module
 0001:000874b8       __ehhandler$??1CSgi_Certificado@SgiCripto@@QAE@XZ 100884b8 f    CIL library: CIL module
 0001:000874e0       __unwindfunclet$?Inicia@MensajesARA@@QAEHPBD@Z$0 100884e0 f    CIL library: CIL module
 0001:000874eb       __unwindfunclet$?Inicia@MensajesARA@@QAEHPBD@Z$1 100884eb f    CIL library: CIL module
 0001:000874f6       __ehhandler$?Inicia@MensajesARA@@QAEHPBD@Z 100884f6 f    CIL library: CIL module
 0001:00087530       __unwindfunclet$?erase@?$_Tree@V?$_Tmap_traits@V?$basic_string@DU?$char_traits@D@std@@V?$allocator@D@2@@std@@V12@U?$less@V?$basic_string@DU?$char_traits@D@std@@V?$allocator@D@2@@std@@@2@V?$allocator@U?$pair@$$CBV?$basic_string@DU?$char_traits@D@std@@V?$allocator@D@2@@std@@V12@@std@@@2@$00@std@@@std@@QAE?AViterator@12@V312@@Z$0 10088530 f    CIL library: CIL module
 0001:00087539       __unwindfunclet$?erase@?$_Tree@V?$_Tmap_traits@V?$basic_string@DU?$char_traits@D@std@@V?$allocator@D@2@@std@@V12@U?$less@V?$basic_string@DU?$char_traits@D@std@@V?$allocator@D@2@@std@@@2@V?$allocator@U?$pair@$$CBV?$basic_string@DU?$char_traits@D@std@@V?$allocator@D@2@@std@@V12@@std@@@2@$00@std@@@std@@QAE?AViterator@12@V312@@Z$2 10088539 f    CIL library: CIL module
 0001:00087542       __unwindfunclet$?erase@?$_Tree@V?$_Tmap_traits@V?$basic_string@DU?$char_traits@D@std@@V?$allocator@D@2@@std@@V12@U?$less@V?$basic_string@DU?$char_traits@D@std@@V?$allocator@D@2@@std@@@2@V?$allocator@U?$pair@$$CBV?$basic_string@DU?$char_traits@D@std@@V?$allocator@D@2@@std@@V12@@std@@@2@$00@std@@@std@@QAE?AViterator@12@V312@@Z$5 10088542 f    CIL library: CIL module
 0001:0008754b       __ehhandler$?erase@?$_Tree@V?$_Tmap_traits@V?$basic_string@DU?$char_traits@D@std@@V?$allocator@D@2@@std@@V12@U?$less@V?$basic_string@DU?$char_traits@D@std@@V?$allocator@D@2@@std@@@2@V?$allocator@U?$pair@$$CBV?$basic_string@DU?$char_traits@D@std@@V?$allocator@D@2@@std@@V12@@std@@@2@$00@std@@@std@@QAE?AViterator@12@V312@@Z 1008854b f    CIL library: CIL module
 0001:00087570       __unwindfunclet$?RegErrorBitTxt@CSgiARA@@IAEXPBDHH@Z$0 10088570 f    CIL library: CIL module
 0001:00087579       __unwindfunclet$?RegErrorBitTxt@CSgiARA@@IAEXPBDHH@Z$1 10088579 f    CIL library: CIL module
 0001:00087582       __ehhandler$?RegErrorBitTxt@CSgiARA@@IAEXPBDHH@Z 10088582 f    CIL library: CIL module
 0001:000875a0       __unwindfunclet$??0CSgiARA@@QAE@PBD@Z$0 100885a0 f    CIL library: CIL module
 0001:000875a9       __unwindfunclet$??0CSgiARA@@QAE@PBD@Z$1 100885a9 f    CIL library: CIL module
 0001:000875b5       __unwindfunclet$??0CSgiARA@@QAE@PBD@Z$2 100885b5 f    CIL library: CIL module
 0001:000875c1       __unwindfunclet$??0CSgiARA@@QAE@PBD@Z$3 100885c1 f    CIL library: CIL module
 0001:000875cd       __unwindfunclet$??0CSgiARA@@QAE@PBD@Z$4 100885cd f    CIL library: CIL module
 0001:000875d9       __unwindfunclet$??0CSgiARA@@QAE@PBD@Z$5 100885d9 f    CIL library: CIL module
 0001:000875e8       __unwindfunclet$??0CSgiARA@@QAE@PBD@Z$6 100885e8 f    CIL library: CIL module
 0001:000875f5       __unwindfunclet$??0CSgiARA@@QAE@PBD@Z$7 100885f5 f    CIL library: CIL module
 0001:000875fe       __unwindfunclet$??0CSgiARA@@QAE@PBD@Z$8 100885fe f    CIL library: CIL module
 0001:00087607       __unwindfunclet$??0CSgiARA@@QAE@PBD@Z$9 10088607 f    CIL library: CIL module
 0001:00087610       __ehhandler$??0CSgiARA@@QAE@PBD@Z 10088610 f    CIL library: CIL module
 0001:00087630       __unwindfunclet$?new_SgiCertificado@SgiCripto@@YAPAXXZ$0 10088630 f    CIL library: CIL module
 0001:0008763b       __ehhandler$?new_SgiCertificado@SgiCripto@@YAPAXXZ 1008863b f    CIL library: CIL module
 0001:00087660       __unwindfunclet$?generaFirma@CSgi_Cripto@SgiCripto@@QAE?AW4tError@2@PBD00HPAV?$basic_string@DU?$char_traits@D@std@@V?$allocator@D@2@@std@@@Z$0 10088660 f    CIL library: CIL module
 0001:0008766b       __ehhandler$?generaFirma@CSgi_Cripto@SgiCripto@@QAE?AW4tError@2@PBD00HPAV?$basic_string@DU?$char_traits@D@std@@V?$allocator@D@2@@std@@@Z 1008866b f    CIL library: CIL module
 0001:000876a0       __unwindfunclet$?procesa@CSgi_Certificado@SgiCripto@@IAE?AW4tError@2@PBEH@Z$0 100886a0 f    CIL library: CIL module
 0001:000876ab       __unwindfunclet$?procesa@CSgi_Certificado@SgiCripto@@IAE?AW4tError@2@PBEH@Z$1 100886ab f    CIL library: CIL module
 0001:000876c1       __ehhandler$?procesa@CSgi_Certificado@SgiCripto@@IAE?AW4tError@2@PBEH@Z 100886c1 f    CIL library: CIL module
 0001:000876f0       __unwindfunclet$?GenPKCS7@SGIPKCS7@@QAEIPAD000HQAUcertificados_st@@HPAE0H@Z$0 100886f0 f    CIL library: CIL module
 0001:000876fb       __unwindfunclet$?GenPKCS7@SGIPKCS7@@QAEIPAD000HQAUcertificados_st@@HPAE0H@Z$1 100886fb f    CIL library: CIL module
 0001:00087706       __ehhandler$?GenPKCS7@SGIPKCS7@@QAEIPAD000HQAUcertificados_st@@HPAE0H@Z 10088706 f    CIL library: CIL module
 0001:00087740       __unwindfunclet$?ConectaCliente@MensajesARA@@QAEIPAVCSSL_Skt@@@Z$0 10088740 f    CIL library: CIL module
 0001:0008774b       __unwindfunclet$?ConectaCliente@MensajesARA@@QAEIPAVCSSL_Skt@@@Z$1 1008874b f    CIL library: CIL module
 0001:00087756       __ehhandler$?ConectaCliente@MensajesARA@@QAEIPAVCSSL_Skt@@@Z 10088756 f    CIL library: CIL module
 0001:00087790       __unwindfunclet$?_Insert@?$_Tree@V?$_Tmap_traits@V?$basic_string@DU?$char_traits@D@std@@V?$allocator@D@2@@std@@V12@U?$less@V?$basic_string@DU?$char_traits@D@std@@V?$allocator@D@2@@std@@@2@V?$allocator@U?$pair@$$CBV?$basic_string@DU?$char_traits@D@std@@V?$allocator@D@2@@std@@V12@@std@@@2@$00@std@@@std@@IAE?AViterator@12@_NPAU_Node@?$_Tree_nod@V?$_Tmap_traits@V?$basic_string@DU?$char_traits@D@std@@V?$allocator@D@2@@std@@V12@U?$less@V?$basic_string@DU?$char_traits@D@std@@V?$allocator@D@2@@std@@@2@V?$allocator@U?$pair@$$CBV?$basic_string@DU?$char_traits@D@std@@V?$allocator@D@2@@std@@V12@@std@@@2@$00@std@@@2@ABU?$pair@$$CBV?$basic_string@DU?$char_traits@D@std@@V?$allocator@D@2@@std@@V12@@2@@Z$0 10088790 f    CIL library: CIL module
 0001:00087799       __unwindfunclet$?_Insert@?$_Tree@V?$_Tmap_traits@V?$basic_string@DU?$char_traits@D@std@@V?$allocator@D@2@@std@@V12@U?$less@V?$basic_string@DU?$char_traits@D@std@@V?$allocator@D@2@@std@@@2@V?$allocator@U?$pair@$$CBV?$basic_string@DU?$char_traits@D@std@@V?$allocator@D@2@@std@@V12@@std@@@2@$00@std@@@std@@IAE?AViterator@12@_NPAU_Node@?$_Tree_nod@V?$_Tmap_traits@V?$basic_string@DU?$char_traits@D@std@@V?$allocator@D@2@@std@@V12@U?$less@V?$basic_string@DU?$char_traits@D@std@@V?$allocator@D@2@@std@@@2@V?$allocator@U?$pair@$$CBV?$basic_string@DU?$char_traits@D@std@@V?$allocator@D@2@@std@@V12@@std@@@2@$00@std@@@2@ABU?$pair@$$CBV?$basic_string@DU?$char_traits@D@std@@V?$allocator@D@2@@std@@V12@@2@@Z$2 10088799 f    CIL library: CIL module
 0001:000877a2       __ehhandler$?_Insert@?$_Tree@V?$_Tmap_traits@V?$basic_string@DU?$char_traits@D@std@@V?$allocator@D@2@@std@@V12@U?$less@V?$basic_string@DU?$char_traits@D@std@@V?$allocator@D@2@@std@@@2@V?$allocator@U?$pair@$$CBV?$basic_string@DU?$char_traits@D@std@@V?$allocator@D@2@@std@@V12@@std@@@2@$00@std@@@std@@IAE?AViterator@12@_NPAU_Node@?$_Tree_nod@V?$_Tmap_traits@V?$basic_string@DU?$char_traits@D@std@@V?$allocator@D@2@@std@@V12@U?$less@V?$basic_string@DU?$char_traits@D@std@@V?$allocator@D@2@@std@@@2@V?$allocator@U?$pair@$$CBV?$basic_string@DU?$char_traits@D@std@@V?$allocator@D@2@@std@@V12@@std@@@2@$00@std@@@2@ABU?$pair@$$CBV?$basic_string@DU?$char_traits@D@std@@V?$allocator@D@2@@std@@V12@@2@@Z 100887a2 f    CIL library: CIL module
 0001:000877c0       __unwindfunclet$?getValorVar@CConfigFile@@QAEHPBD0PAV?$basic_string@DU?$char_traits@D@std@@V?$allocator@D@2@@std@@@Z$0 100887c0 f    CIL library: CIL module
 0001:000877cc       __unwindfunclet$?getValorVar@CConfigFile@@QAEHPBD0PAV?$basic_string@DU?$char_traits@D@std@@V?$allocator@D@2@@std@@@Z$1 100887cc f    CIL library: CIL module
 0001:000877d8       __unwindfunclet$?getValorVar@CConfigFile@@QAEHPBD0PAV?$basic_string@DU?$char_traits@D@std@@V?$allocator@D@2@@std@@@Z$2 100887d8 f    CIL library: CIL module
 0001:000877e1       __unwindfunclet$?getValorVar@CConfigFile@@QAEHPBD0PAV?$basic_string@DU?$char_traits@D@std@@V?$allocator@D@2@@std@@@Z$3 100887e1 f    CIL library: CIL module
 0001:000877ea       __unwindfunclet$?getValorVar@CConfigFile@@QAEHPBD0PAV?$basic_string@DU?$char_traits@D@std@@V?$allocator@D@2@@std@@@Z$4 100887ea f    CIL library: CIL module
 0001:000877f3       __unwindfunclet$?getValorVar@CConfigFile@@QAEHPBD0PAV?$basic_string@DU?$char_traits@D@std@@V?$allocator@D@2@@std@@@Z$5 100887f3 f    CIL library: CIL module
 0001:000877fc       __ehhandler$?getValorVar@CConfigFile@@QAEHPBD0PAV?$basic_string@DU?$char_traits@D@std@@V?$allocator@D@2@@std@@@Z 100887fc f    CIL library: CIL module
 0001:00087830       __unwindfunclet$?m_leeTagPrincipal@CConfigFile@@AAEHPAV?$basic_fstream@DU?$char_traits@D@std@@@std@@V?$basic_string@DU?$char_traits@D@std@@V?$allocator@D@2@@3@@Z$0 10088830 f    CIL library: CIL module
 0001:00087839       __unwindfunclet$?m_leeTagPrincipal@CConfigFile@@AAEHPAV?$basic_fstream@DU?$char_traits@D@std@@@std@@V?$basic_string@DU?$char_traits@D@std@@V?$allocator@D@2@@3@@Z$1 10088839 f    CIL library: CIL module
 0001:00087845       __unwindfunclet$?m_leeTagPrincipal@CConfigFile@@AAEHPAV?$basic_fstream@DU?$char_traits@D@std@@@std@@V?$basic_string@DU?$char_traits@D@std@@V?$allocator@D@2@@3@@Z$3 10088845 f    CIL library: CIL module
 0001:00087851       __unwindfunclet$?m_leeTagPrincipal@CConfigFile@@AAEHPAV?$basic_fstream@DU?$char_traits@D@std@@@std@@V?$basic_string@DU?$char_traits@D@std@@V?$allocator@D@2@@3@@Z$2 10088851 f    CIL library: CIL module
 0001:0008785e       __unwindfunclet$?m_leeTagPrincipal@CConfigFile@@AAEHPAV?$basic_fstream@DU?$char_traits@D@std@@@std@@V?$basic_string@DU?$char_traits@D@std@@V?$allocator@D@2@@3@@Z$5 1008885e f    CIL library: CIL module
 0001:0008786a       __ehhandler$?m_leeTagPrincipal@CConfigFile@@AAEHPAV?$basic_fstream@DU?$char_traits@D@std@@@std@@V?$basic_string@DU?$char_traits@D@std@@V?$allocator@D@2@@3@@Z 1008886a f    CIL library: CIL module
 0001:000878a0       __unwindfunclet$??0CConfigFile@@QAE@V?$basic_string@DU?$char_traits@D@std@@V?$allocator@D@2@@std@@@Z$0 100888a0 f    CIL library: CIL module
 0001:000878a9       __unwindfunclet$??0CConfigFile@@QAE@V?$basic_string@DU?$char_traits@D@std@@V?$allocator@D@2@@std@@@Z$1 100888a9 f    CIL library: CIL module
 0001:000878b2       __unwindfunclet$??0CConfigFile@@QAE@V?$basic_string@DU?$char_traits@D@std@@V?$allocator@D@2@@std@@@Z$2 100888b2 f    CIL library: CIL module
 0001:000878bd       __ehhandler$??0CConfigFile@@QAE@V?$basic_string@DU?$char_traits@D@std@@V?$allocator@D@2@@std@@@Z 100888bd f    CIL library: CIL module
 0001:000878e0       __unwindfunclet$?RecMsgErrorARA@CSgiARA@@IAEHPBD@Z$0 100888e0 f    CIL library: CIL module
 0001:000878e9       __unwindfunclet$?RecMsgErrorARA@CSgiARA@@IAEHPBD@Z$1 100888e9 f    CIL library: CIL module
 0001:000878f5       __unwindfunclet$?RecMsgErrorARA@CSgiARA@@IAEHPBD@Z$2 100888f5 f    CIL library: CIL module
 0001:000878fe       __unwindfunclet$?RecMsgErrorARA@CSgiARA@@IAEHPBD@Z$3 100888fe f    CIL library: CIL module
 0001:00087907       __unwindfunclet$?RecMsgErrorARA@CSgiARA@@IAEHPBD@Z$4 10088907 f    CIL library: CIL module
 0001:00087910       __unwindfunclet$?RecMsgErrorARA@CSgiARA@@IAEHPBD@Z$5 10088910 f    CIL library: CIL module
 0001:00087919       __unwindfunclet$?RecMsgErrorARA@CSgiARA@@IAEHPBD@Z$6 10088919 f    CIL library: CIL module
 0001:00087925       __ehhandler$?RecMsgErrorARA@CSgiARA@@IAEHPBD@Z 10088925 f    CIL library: CIL module
 0001:00087960       __unwindfunclet$?Conecta@CSgiARA@@QAEHXZ$0 10088960 f    CIL library: CIL module
 0001:0008796d       __ehhandler$?Conecta@CSgiARA@@QAEHXZ 1008896d f    CIL library: CIL module
 0001:000879a0       __unwindfunclet$??_GCConfigFile@@QAEPAXI@Z$0 100889a0 f    CIL library: CIL module
 0001:000879a9       __ehhandler$??_GCConfigFile@@QAEPAXI@Z 100889a9 f    CIL library: CIL module
 0001:000879d0       __unwindfunclet$??1CSgiARA@@QAE@XZ$0 100889d0 f    CIL library: CIL module
 0001:000879d9       __unwindfunclet$??1CSgiARA@@QAE@XZ$1 100889d9 f    CIL library: CIL module
 0001:000879e5       __unwindfunclet$??1CSgiARA@@QAE@XZ$2 100889e5 f    CIL library: CIL module
 0001:000879f1       __unwindfunclet$??1CSgiARA@@QAE@XZ$3 100889f1 f    CIL library: CIL module
 0001:000879fd       __unwindfunclet$??1CSgiARA@@QAE@XZ$4 100889fd f    CIL library: CIL module
 0001:00087a09       __unwindfunclet$??1CSgiARA@@QAE@XZ$5 10088a09 f    CIL library: CIL module
 0001:00087a18       __unwindfunclet$??1CSgiARA@@QAE@XZ$6 10088a18 f    CIL library: CIL module
 0001:00087a25       __ehhandler$??1CSgiARA@@QAE@XZ 10088a25 f    CIL library: CIL module
 0001:00087a40       __unwindfunclet$?genP7@CSgi_Cripto@SgiCripto@@QAE?AW4tError@2@PBD000H0H0@Z$0 10088a40 f    CIL library: CIL module
 0001:00087a45       __ehhandler$?genP7@CSgi_Cripto@SgiCripto@@QAE?AW4tError@2@PBD000H0H0@Z 10088a45 f    CIL library: CIL module
 0001:00087a60       __unwindfunclet$??1CSgi_Cripto@SgiCripto@@QAE@XZ$0 10088a60 f    CIL library: CIL module
 0001:00087a6c       __ehhandler$??1CSgi_Cripto@SgiCripto@@QAE@XZ 10088a6c f    CIL library: CIL module
 0001:00087a90       __unwindfunclet$?m_readCfgFile@CConfigFile@@AAEHXZ$0 10088a90 f    CIL library: CIL module
 0001:00087a9e       __ehhandler$?m_readCfgFile@CConfigFile@@AAEHXZ 10088a9e f    CIL library: CIL module
 0001:00087ad0       __unwindfunclet$?LeeCfgUsr@CSgiARA@@IAEXXZ$0 10088ad0 f    CIL library: CIL module
 0001:00087ad9       __unwindfunclet$?LeeCfgUsr@CSgiARA@@IAEXXZ$1 10088ad9 f    CIL library: CIL module
 0001:00087ae4       __unwindfunclet$?LeeCfgUsr@CSgiARA@@IAEXXZ$3 10088ae4 f    CIL library: CIL module
 0001:00087aed       __unwindfunclet$?LeeCfgUsr@CSgiARA@@IAEXXZ$4 10088aed f    CIL library: CIL module
 0001:00087af6       __ehhandler$?LeeCfgUsr@CSgiARA@@IAEXXZ 10088af6 f    CIL library: CIL module
 0001:00087b20       __unwindfunclet$?LeeCfg@CSgiARA@@IAEHXZ$0 10088b20 f    CIL library: CIL module
 0001:00087b29       __unwindfunclet$?LeeCfg@CSgiARA@@IAEHXZ$1 10088b29 f    CIL library: CIL module
 0001:00087b34       __ehhandler$?LeeCfg@CSgiARA@@IAEHXZ 10088b34 f    CIL library: CIL module
 0001:00087b60       __unwindfunclet$?inicia@CSgi_Cripto@SgiCripto@@QAE?AW4tError@2@_NPBD@Z$0 10088b60 f    CIL library: CIL module
 0001:00087b6b       __unwindfunclet$?inicia@CSgi_Cripto@SgiCripto@@QAE?AW4tError@2@_NPBD@Z$1 10088b6b f    CIL library: CIL module
 0001:00087b76       __ehhandler$?inicia@CSgi_Cripto@SgiCripto@@QAE?AW4tError@2@_NPBD@Z 10088b76 f    CIL library: CIL module
 0001:00087ba0       __unwindfunclet$?procesaPKCS7ara@CSgi_Cripto@SgiCripto@@IAE?AW4tError@2@PBEH0HPBD111HPAV?$basic_string@DU?$char_traits@D@std@@V?$allocator@D@2@@std@@@Z$27 10088ba0 f    CIL library: CIL module
 0001:00087bab       __unwindfunclet$?procesaPKCS7ara@CSgi_Cripto@SgiCripto@@IAE?AW4tError@2@PBEH0HPBD111HPAV?$basic_string@DU?$char_traits@D@std@@V?$allocator@D@2@@std@@@Z$28 10088bab f    CIL library: CIL module
 0001:00087bb7       __unwindfunclet$?procesaPKCS7ara@CSgi_Cripto@SgiCripto@@IAE?AW4tError@2@PBEH0HPBD111HPAV?$basic_string@DU?$char_traits@D@std@@V?$allocator@D@2@@std@@@Z$29 10088bb7 f    CIL library: CIL module
 0001:00087bc3       __ehhandler$?procesaPKCS7ara@CSgi_Cripto@SgiCripto@@IAE?AW4tError@2@PBEH0HPBD111HPAV?$basic_string@DU?$char_traits@D@std@@V?$allocator@D@2@@std@@@Z 10088bc3 f    CIL library: CIL module
 0001:00087c00       __unwindfunclet$?procesaPKCS7ara@CSgi_Cripto@SgiCripto@@IAE?AW4tError@2@PBEH0HPBDPAUpkcs7_st@@PAPAUbio_st@@1HPAV?$basic_string@DU?$char_traits@D@std@@V?$allocator@D@2@@std@@@Z$22 10088c00 f    CIL library: CIL module
 0001:00087c0b       __unwindfunclet$?procesaPKCS7ara@CSgi_Cripto@SgiCripto@@IAE?AW4tError@2@PBEH0HPBDPAUpkcs7_st@@PAPAUbio_st@@1HPAV?$basic_string@DU?$char_traits@D@std@@V?$allocator@D@2@@std@@@Z$23 10088c0b f    CIL library: CIL module
 0001:00087c17       __unwindfunclet$?procesaPKCS7ara@CSgi_Cripto@SgiCripto@@IAE?AW4tError@2@PBEH0HPBDPAUpkcs7_st@@PAPAUbio_st@@1HPAV?$basic_string@DU?$char_traits@D@std@@V?$allocator@D@2@@std@@@Z$24 10088c17 f    CIL library: CIL module
 0001:00087c23       __ehhandler$?procesaPKCS7ara@CSgi_Cripto@SgiCripto@@IAE?AW4tError@2@PBEH0HPBDPAUpkcs7_st@@PAPAUbio_st@@1HPAV?$basic_string@DU?$char_traits@D@std@@V?$allocator@D@2@@std@@@Z 10088c23 f    CIL library: CIL module
 0001:00087c60       __unwindfunclet$?procP7@CSgi_Cripto@SgiCripto@@QAE?AW4tError@2@PBD000HPAPADPAH0H@Z$0 10088c60 f    CIL library: CIL module
 0001:00087c68       __unwindfunclet$?procP7@CSgi_Cripto@SgiCripto@@QAE?AW4tError@2@PBD000HPAPADPAH0H@Z$1 10088c68 f    CIL library: CIL module
 0001:00087c70       __ehhandler$?procP7@CSgi_Cripto@SgiCripto@@QAE?AW4tError@2@PBD000HPAPADPAH0H@Z 10088c70 f    CIL library: CIL module
 0001:00087c90       __unwindfunclet$?procP7@CSgi_Cripto@SgiCripto@@QAE?AW4tError@2@PBD00000H@Z$0 10088c90 f    CIL library: CIL module
 0001:00087c98       __unwindfunclet$?procP7@CSgi_Cripto@SgiCripto@@QAE?AW4tError@2@PBD00000H@Z$1 10088c98 f    CIL library: CIL module
 0001:00087ca0       __ehhandler$?procP7@CSgi_Cripto@SgiCripto@@QAE?AW4tError@2@PBD00000H@Z 10088ca0 f    CIL library: CIL module
